   1              		.cpu cortex-m3
   2              		.eabi_attribute 20, 1
   3              		.eabi_attribute 21, 1
   4              		.eabi_attribute 23, 3
   5              		.eabi_attribute 24, 1
   6              		.eabi_attribute 25, 1
   7              		.eabi_attribute 26, 1
   8              		.eabi_attribute 30, 6
   9              		.eabi_attribute 34, 1
  10              		.eabi_attribute 18, 4
  11              		.file	"icmpv6rpl.c"
  12              		.text
  13              	.Ltext0:
  14              		.cfi_sections	.debug_frame
  15              		.section	.rodata
  16              		.align	2
  19              	rreg_uriquery:
  20 0000 683D7563 		.ascii	"h=ucb\000"
  20      6200
  21 0006 0000     		.align	2
  24              	infoBoardname:
  25 0008 43433235 		.ascii	"CC2538\000"
  25      333800
  26 000f 00       		.align	2
  29              	infouCName:
  30 0010 43433235 		.ascii	"CC2538\000"
  30      333800
  31 0017 00       		.align	2
  34              	infoRadioName:
  35 0018 43433235 		.ascii	"CC2538 SoC\000"
  35      33382053 
  35      6F4300
  36 0023 00       		.align	2
  39              	infoStackName:
  40 0024 4F70656E 		.ascii	"OpenWSN \000"
  40      57534E20 
  40      00
  41 002d 000000   		.align	2
  44              	all_routers_multicast:
  45 0030 FF       		.byte	-1
  46 0031 02       		.byte	2
  47 0032 00       		.byte	0
  48 0033 00       		.byte	0
  49 0034 00       		.byte	0
  50 0035 00       		.byte	0
  51 0036 00       		.byte	0
  52 0037 00       		.byte	0
  53 0038 00       		.byte	0
  54 0039 00       		.byte	0
  55 003a 00       		.byte	0
  56 003b 00       		.byte	0
  57 003c 00       		.byte	0
  58 003d 00       		.byte	0
  59 003e 00       		.byte	0
  60 003f 1A       		.byte	26
  61              		.align	2
  64              	linklocalprefix:
  65 0040 FE       		.byte	-2
  66 0041 80       		.byte	-128
  67 0042 00       		.byte	0
  68 0043 00       		.byte	0
  69 0044 00       		.byte	0
  70 0045 00       		.byte	0
  71 0046 00       		.byte	0
  72 0047 00       		.byte	0
  73              		.align	2
  76              	chTemplate_default:
  77 0048 05       		.byte	5
  78 0049 06       		.byte	6
  79 004a 0C       		.byte	12
  80 004b 07       		.byte	7
  81 004c 0F       		.byte	15
  82 004d 04       		.byte	4
  83 004e 0E       		.byte	14
  84 004f 0B       		.byte	11
  85 0050 08       		.byte	8
  86 0051 00       		.byte	0
  87 0052 01       		.byte	1
  88 0053 02       		.byte	2
  89 0054 0D       		.byte	13
  90 0055 03       		.byte	3
  91 0056 09       		.byte	9
  92 0057 0A       		.byte	10
  93              		.align	2
  96              	ebIEsBytestream:
  97 0058 1A       		.byte	26
  98 0059 88       		.byte	-120
  99 005a 06       		.byte	6
 100 005b 1A       		.byte	26
 101 005c 00       		.byte	0
 102 005d 00       		.byte	0
 103 005e 00       		.byte	0
 104 005f 00       		.byte	0
 105 0060 00       		.byte	0
 106 0061 00       		.byte	0
 107 0062 01       		.byte	1
 108 0063 1C       		.byte	28
 109 0064 00       		.byte	0
 110 0065 01       		.byte	1
 111 0066 C8       		.byte	-56
 112 0067 00       		.byte	0
 113 0068 0A       		.byte	10
 114 0069 1B       		.byte	27
 115 006a 01       		.byte	1
 116 006b 00       		.byte	0
 117 006c 0D       		.byte	13
 118 006d 00       		.byte	0
 119 006e 01       		.byte	1
 120 006f 00       		.byte	0
 121 0070 00       		.byte	0
 122 0071 00       		.byte	0
 123 0072 00       		.byte	0
 124 0073 0F       		.byte	15
 125              		.comm	icmpv6rpl_vars,156,4
 126              		.text
 127              		.align	1
 128              		.global	icmpv6rpl_init
 129              		.syntax unified
 130              		.thumb
 131              		.thumb_func
 132              		.fpu softvfp
 134              	icmpv6rpl_init:
 135              	.LFB3:
 136              		.file 1 "build\\openmote-cc2538_armgcc\\openstack\\03b-IPv6\\icmpv6rpl.c"
   1:build\openmote-cc2538_armgcc\openstack\03b-IPv6/icmpv6rpl.c **** #include "opendefs.h"
   2:build\openmote-cc2538_armgcc\openstack\03b-IPv6/icmpv6rpl.c **** #include "icmpv6rpl.h"
   3:build\openmote-cc2538_armgcc\openstack\03b-IPv6/icmpv6rpl.c **** #include "icmpv6.h"
   4:build\openmote-cc2538_armgcc\openstack\03b-IPv6/icmpv6rpl.c **** #include "openserial.h"
   5:build\openmote-cc2538_armgcc\openstack\03b-IPv6/icmpv6rpl.c **** #include "openqueue.h"
   6:build\openmote-cc2538_armgcc\openstack\03b-IPv6/icmpv6rpl.c **** #include "neighbors.h"
   7:build\openmote-cc2538_armgcc\openstack\03b-IPv6/icmpv6rpl.c **** #include "packetfunctions.h"
   8:build\openmote-cc2538_armgcc\openstack\03b-IPv6/icmpv6rpl.c **** #include "openrandom.h"
   9:build\openmote-cc2538_armgcc\openstack\03b-IPv6/icmpv6rpl.c **** #include "scheduler.h"
  10:build\openmote-cc2538_armgcc\openstack\03b-IPv6/icmpv6rpl.c **** #include "idmanager.h"
  11:build\openmote-cc2538_armgcc\openstack\03b-IPv6/icmpv6rpl.c **** #include "opentimers.h"
  12:build\openmote-cc2538_armgcc\openstack\03b-IPv6/icmpv6rpl.c **** #include "IEEE802154E.h"
  13:build\openmote-cc2538_armgcc\openstack\03b-IPv6/icmpv6rpl.c **** #include "IEEE802154_security.h"
  14:build\openmote-cc2538_armgcc\openstack\03b-IPv6/icmpv6rpl.c **** #include "schedule.h"
  15:build\openmote-cc2538_armgcc\openstack\03b-IPv6/icmpv6rpl.c **** #include "msf.h"
  16:build\openmote-cc2538_armgcc\openstack\03b-IPv6/icmpv6rpl.c **** 
  17:build\openmote-cc2538_armgcc\openstack\03b-IPv6/icmpv6rpl.c **** //=========================== definition ======================================
  18:build\openmote-cc2538_armgcc\openstack\03b-IPv6/icmpv6rpl.c **** 
  19:build\openmote-cc2538_armgcc\openstack\03b-IPv6/icmpv6rpl.c **** #define DIO_PORTION 10
  20:build\openmote-cc2538_armgcc\openstack\03b-IPv6/icmpv6rpl.c **** #define DAO_PORTION 30
  21:build\openmote-cc2538_armgcc\openstack\03b-IPv6/icmpv6rpl.c **** 
  22:build\openmote-cc2538_armgcc\openstack\03b-IPv6/icmpv6rpl.c **** //=========================== variables =======================================
  23:build\openmote-cc2538_armgcc\openstack\03b-IPv6/icmpv6rpl.c **** 
  24:build\openmote-cc2538_armgcc\openstack\03b-IPv6/icmpv6rpl.c **** icmpv6rpl_vars_t             icmpv6rpl_vars;
  25:build\openmote-cc2538_armgcc\openstack\03b-IPv6/icmpv6rpl.c **** 
  26:build\openmote-cc2538_armgcc\openstack\03b-IPv6/icmpv6rpl.c **** //=========================== prototypes ======================================
  27:build\openmote-cc2538_armgcc\openstack\03b-IPv6/icmpv6rpl.c **** 
  28:build\openmote-cc2538_armgcc\openstack\03b-IPv6/icmpv6rpl.c **** // DIO-related
  29:build\openmote-cc2538_armgcc\openstack\03b-IPv6/icmpv6rpl.c **** void icmpv6rpl_timer_DIO_cb(opentimers_id_t id);
  30:build\openmote-cc2538_armgcc\openstack\03b-IPv6/icmpv6rpl.c **** void icmpv6rpl_timer_DIO_task(void);
  31:build\openmote-cc2538_armgcc\openstack\03b-IPv6/icmpv6rpl.c **** void sendDIO(void);
  32:build\openmote-cc2538_armgcc\openstack\03b-IPv6/icmpv6rpl.c **** // DAO-related
  33:build\openmote-cc2538_armgcc\openstack\03b-IPv6/icmpv6rpl.c **** void icmpv6rpl_timer_DAO_cb(opentimers_id_t id);
  34:build\openmote-cc2538_armgcc\openstack\03b-IPv6/icmpv6rpl.c **** void icmpv6rpl_timer_DAO_task(void);
  35:build\openmote-cc2538_armgcc\openstack\03b-IPv6/icmpv6rpl.c **** void sendDAO(void);
  36:build\openmote-cc2538_armgcc\openstack\03b-IPv6/icmpv6rpl.c **** 
  37:build\openmote-cc2538_armgcc\openstack\03b-IPv6/icmpv6rpl.c **** //=========================== public ==========================================
  38:build\openmote-cc2538_armgcc\openstack\03b-IPv6/icmpv6rpl.c **** 
  39:build\openmote-cc2538_armgcc\openstack\03b-IPv6/icmpv6rpl.c **** /**
  40:build\openmote-cc2538_armgcc\openstack\03b-IPv6/icmpv6rpl.c **** \brief Initialize this module.
  41:build\openmote-cc2538_armgcc\openstack\03b-IPv6/icmpv6rpl.c **** */
  42:build\openmote-cc2538_armgcc\openstack\03b-IPv6/icmpv6rpl.c **** void icmpv6rpl_init(void) {
 137              		.loc 1 42 0
 138              		.cfi_startproc
 139              		@ args = 0, pretend = 0, frame = 16
 140              		@ frame_needed = 1, uses_anonymous_args = 0
 141 0000 B0B5     		push	{r4, r5, r7, lr}
 142              		.cfi_def_cfa_offset 16
 143              		.cfi_offset 4, -16
 144              		.cfi_offset 5, -12
 145              		.cfi_offset 7, -8
 146              		.cfi_offset 14, -4
 147 0002 86B0     		sub	sp, sp, #24
 148              		.cfi_def_cfa_offset 40
 149 0004 02AF     		add	r7, sp, #8
 150              		.cfi_def_cfa 7, 32
  43:build\openmote-cc2538_armgcc\openstack\03b-IPv6/icmpv6rpl.c **** 
  44:build\openmote-cc2538_armgcc\openstack\03b-IPv6/icmpv6rpl.c ****     uint8_t         dodagid[16];
  45:build\openmote-cc2538_armgcc\openstack\03b-IPv6/icmpv6rpl.c **** 
  46:build\openmote-cc2538_armgcc\openstack\03b-IPv6/icmpv6rpl.c ****     // retrieve my prefix and EUI64
  47:build\openmote-cc2538_armgcc\openstack\03b-IPv6/icmpv6rpl.c ****     memcpy(&dodagid[0],idmanager_getMyID(ADDR_PREFIX)->prefix,8); // prefix
 151              		.loc 1 47 0
 152 0006 0520     		movs	r0, #5
 153 0008 FFF7FEFF 		bl	idmanager_getMyID
 154 000c 0346     		mov	r3, r0
 155 000e 591C     		adds	r1, r3, #1
 156 0010 3B46     		mov	r3, r7
 157 0012 0822     		movs	r2, #8
 158 0014 1846     		mov	r0, r3
 159 0016 FFF7FEFF 		bl	memcpy
  48:build\openmote-cc2538_armgcc\openstack\03b-IPv6/icmpv6rpl.c ****     memcpy(&dodagid[8],idmanager_getMyID(ADDR_64B)->addr_64b,8);  // eui64
 160              		.loc 1 48 0
 161 001a 0220     		movs	r0, #2
 162 001c FFF7FEFF 		bl	idmanager_getMyID
 163 0020 0346     		mov	r3, r0
 164 0022 591C     		adds	r1, r3, #1
 165 0024 3B46     		mov	r3, r7
 166 0026 0833     		adds	r3, r3, #8
 167 0028 0822     		movs	r2, #8
 168 002a 1846     		mov	r0, r3
 169 002c FFF7FEFF 		bl	memcpy
  49:build\openmote-cc2538_armgcc\openstack\03b-IPv6/icmpv6rpl.c **** 
  50:build\openmote-cc2538_armgcc\openstack\03b-IPv6/icmpv6rpl.c ****     //===== reset local variables
  51:build\openmote-cc2538_armgcc\openstack\03b-IPv6/icmpv6rpl.c ****     memset(&icmpv6rpl_vars,0,sizeof(icmpv6rpl_vars_t));
 170              		.loc 1 51 0
 171 0030 9C22     		movs	r2, #156
 172 0032 0021     		movs	r1, #0
 173 0034 A148     		ldr	r0, .L5
 174 0036 FFF7FEFF 		bl	memset
  52:build\openmote-cc2538_armgcc\openstack\03b-IPv6/icmpv6rpl.c **** 
  53:build\openmote-cc2538_armgcc\openstack\03b-IPv6/icmpv6rpl.c ****     //=== routing
  54:build\openmote-cc2538_armgcc\openstack\03b-IPv6/icmpv6rpl.c ****     icmpv6rpl_vars.haveParent=FALSE;
 175              		.loc 1 54 0
 176 003a A04B     		ldr	r3, .L5
 177 003c 0022     		movs	r2, #0
 178 003e 83F88A20 		strb	r2, [r3, #138]
  55:build\openmote-cc2538_armgcc\openstack\03b-IPv6/icmpv6rpl.c ****     icmpv6rpl_vars.daoSent=FALSE;
 179              		.loc 1 55 0
 180 0042 9E4B     		ldr	r3, .L5
 181 0044 0022     		movs	r2, #0
 182 0046 83F89820 		strb	r2, [r3, #152]
  56:build\openmote-cc2538_armgcc\openstack\03b-IPv6/icmpv6rpl.c ****     if (idmanager_getIsDAGroot()==TRUE) {
 183              		.loc 1 56 0
 184 004a FFF7FEFF 		bl	idmanager_getIsDAGroot
 185 004e 0346     		mov	r3, r0
 186 0050 002B     		cmp	r3, #0
 187 0052 05D0     		beq	.L2
  57:build\openmote-cc2538_armgcc\openstack\03b-IPv6/icmpv6rpl.c ****         icmpv6rpl_vars.myDAGrank=MINHOPRANKINCREASE;
 188              		.loc 1 57 0
 189 0054 994B     		ldr	r3, .L5
 190 0056 4FF48072 		mov	r2, #256
 191 005a A3F88620 		strh	r2, [r3, #134]	@ movhi
 192 005e 04E0     		b	.L3
 193              	.L2:
  58:build\openmote-cc2538_armgcc\openstack\03b-IPv6/icmpv6rpl.c ****     } else {
  59:build\openmote-cc2538_armgcc\openstack\03b-IPv6/icmpv6rpl.c ****         icmpv6rpl_vars.myDAGrank=DEFAULTDAGRANK;
 194              		.loc 1 59 0
 195 0060 964B     		ldr	r3, .L5
 196 0062 4FF6FF72 		movw	r2, #65535
 197 0066 A3F88620 		strh	r2, [r3, #134]	@ movhi
 198              	.L3:
  60:build\openmote-cc2538_armgcc\openstack\03b-IPv6/icmpv6rpl.c ****     }
  61:build\openmote-cc2538_armgcc\openstack\03b-IPv6/icmpv6rpl.c **** 
  62:build\openmote-cc2538_armgcc\openstack\03b-IPv6/icmpv6rpl.c ****     //=== admin
  63:build\openmote-cc2538_armgcc\openstack\03b-IPv6/icmpv6rpl.c **** 
  64:build\openmote-cc2538_armgcc\openstack\03b-IPv6/icmpv6rpl.c ****     icmpv6rpl_vars.busySendingDIO            = FALSE;
 199              		.loc 1 64 0
 200 006a 944B     		ldr	r3, .L5
 201 006c 0022     		movs	r2, #0
 202 006e 1A70     		strb	r2, [r3]
  65:build\openmote-cc2538_armgcc\openstack\03b-IPv6/icmpv6rpl.c ****     icmpv6rpl_vars.busySendingDAO            = FALSE;
 203              		.loc 1 65 0
 204 0070 924B     		ldr	r3, .L5
 205 0072 0022     		movs	r2, #0
 206 0074 5A70     		strb	r2, [r3, #1]
  66:build\openmote-cc2538_armgcc\openstack\03b-IPv6/icmpv6rpl.c ****     icmpv6rpl_vars.fDodagidWritten           = 0;
 207              		.loc 1 66 0
 208 0076 914B     		ldr	r3, .L5
 209 0078 0022     		movs	r2, #0
 210 007a 9A70     		strb	r2, [r3, #2]
  67:build\openmote-cc2538_armgcc\openstack\03b-IPv6/icmpv6rpl.c **** 
  68:build\openmote-cc2538_armgcc\openstack\03b-IPv6/icmpv6rpl.c ****     //=== DIO
  69:build\openmote-cc2538_armgcc\openstack\03b-IPv6/icmpv6rpl.c **** 
  70:build\openmote-cc2538_armgcc\openstack\03b-IPv6/icmpv6rpl.c ****     icmpv6rpl_vars.dio.rplinstanceId         = 0x00;        ///< TODO: put correct value
 211              		.loc 1 70 0
 212 007c 8F4B     		ldr	r3, .L5
 213 007e 0022     		movs	r2, #0
 214 0080 DA70     		strb	r2, [r3, #3]
  71:build\openmote-cc2538_armgcc\openstack\03b-IPv6/icmpv6rpl.c ****     icmpv6rpl_vars.dio.verNumb               = 0x00;        ///< TODO: put correct value
 215              		.loc 1 71 0
 216 0082 8E4B     		ldr	r3, .L5
 217 0084 0022     		movs	r2, #0
 218 0086 1A71     		strb	r2, [r3, #4]
  72:build\openmote-cc2538_armgcc\openstack\03b-IPv6/icmpv6rpl.c ****     // rank: to be populated upon TX
  73:build\openmote-cc2538_armgcc\openstack\03b-IPv6/icmpv6rpl.c ****     icmpv6rpl_vars.dio.rplOptions            = MOP_DIO_A | \
 219              		.loc 1 73 0
 220 0088 8C4B     		ldr	r3, .L5
 221 008a 8822     		movs	r2, #136
 222 008c DA71     		strb	r2, [r3, #7]
  74:build\openmote-cc2538_armgcc\openstack\03b-IPv6/icmpv6rpl.c ****                                                MOP_DIO_B | \
  75:build\openmote-cc2538_armgcc\openstack\03b-IPv6/icmpv6rpl.c ****                                                MOP_DIO_C | \
  76:build\openmote-cc2538_armgcc\openstack\03b-IPv6/icmpv6rpl.c ****                                                PRF_DIO_A | \
  77:build\openmote-cc2538_armgcc\openstack\03b-IPv6/icmpv6rpl.c ****                                                PRF_DIO_B | \
  78:build\openmote-cc2538_armgcc\openstack\03b-IPv6/icmpv6rpl.c ****                                                PRF_DIO_C | \
  79:build\openmote-cc2538_armgcc\openstack\03b-IPv6/icmpv6rpl.c ****                                                G_DIO ;
  80:build\openmote-cc2538_armgcc\openstack\03b-IPv6/icmpv6rpl.c ****     icmpv6rpl_vars.dio.DTSN                  = 0x33;        ///< TODO: put correct value
 223              		.loc 1 80 0
 224 008e 8B4B     		ldr	r3, .L5
 225 0090 3322     		movs	r2, #51
 226 0092 1A72     		strb	r2, [r3, #8]
  81:build\openmote-cc2538_armgcc\openstack\03b-IPv6/icmpv6rpl.c ****     icmpv6rpl_vars.dio.flags                 = 0x00;
 227              		.loc 1 81 0
 228 0094 894B     		ldr	r3, .L5
 229 0096 0022     		movs	r2, #0
 230 0098 5A72     		strb	r2, [r3, #9]
  82:build\openmote-cc2538_armgcc\openstack\03b-IPv6/icmpv6rpl.c ****     icmpv6rpl_vars.dio.reserved              = 0x00;
 231              		.loc 1 82 0
 232 009a 884B     		ldr	r3, .L5
 233 009c 0022     		movs	r2, #0
 234 009e 9A72     		strb	r2, [r3, #10]
  83:build\openmote-cc2538_armgcc\openstack\03b-IPv6/icmpv6rpl.c ****     memcpy(
 235              		.loc 1 83 0
 236 00a0 864B     		ldr	r3, .L5
 237 00a2 03F10B04 		add	r4, r3, #11
 238 00a6 3D46     		mov	r5, r7
 239 00a8 0FCD     		ldmia	r5!, {r0, r1, r2, r3}
 240 00aa 2060     		str	r0, [r4]	@ unaligned
 241 00ac 6160     		str	r1, [r4, #4]	@ unaligned
 242 00ae A260     		str	r2, [r4, #8]	@ unaligned
 243 00b0 E360     		str	r3, [r4, #12]	@ unaligned
  84:build\openmote-cc2538_armgcc\openstack\03b-IPv6/icmpv6rpl.c ****         &(icmpv6rpl_vars.dio.DODAGID[0]),
  85:build\openmote-cc2538_armgcc\openstack\03b-IPv6/icmpv6rpl.c ****         dodagid,
  86:build\openmote-cc2538_armgcc\openstack\03b-IPv6/icmpv6rpl.c ****         sizeof(icmpv6rpl_vars.dio.DODAGID)
  87:build\openmote-cc2538_armgcc\openstack\03b-IPv6/icmpv6rpl.c ****     ); // can be replaced later
  88:build\openmote-cc2538_armgcc\openstack\03b-IPv6/icmpv6rpl.c **** 
  89:build\openmote-cc2538_armgcc\openstack\03b-IPv6/icmpv6rpl.c ****     icmpv6rpl_vars.dioDestination.type = ADDR_128B;
 244              		.loc 1 89 0
 245 00b2 824B     		ldr	r3, .L5
 246 00b4 0322     		movs	r2, #3
 247 00b6 83F84B20 		strb	r2, [r3, #75]
  90:build\openmote-cc2538_armgcc\openstack\03b-IPv6/icmpv6rpl.c ****     memcpy(&icmpv6rpl_vars.dioDestination.addr_128b[0],all_routers_multicast,sizeof(all_routers_mul
 248              		.loc 1 90 0
 249 00ba 804B     		ldr	r3, .L5
 250 00bc 804A     		ldr	r2, .L5+4
 251 00be 03F14C04 		add	r4, r3, #76
 252 00c2 1346     		mov	r3, r2
 253 00c4 0FCB     		ldm	r3, {r0, r1, r2, r3}
 254 00c6 84E80F00 		stm	r4, {r0, r1, r2, r3}
  91:build\openmote-cc2538_armgcc\openstack\03b-IPv6/icmpv6rpl.c **** 
  92:build\openmote-cc2538_armgcc\openstack\03b-IPv6/icmpv6rpl.c ****     icmpv6rpl_vars.dioPeriod                 = DIO_PERIOD;
 255              		.loc 1 92 0
 256 00ca 7C4B     		ldr	r3, .L5
 257 00cc 42F21072 		movw	r2, #10000
 258 00d0 A3F86020 		strh	r2, [r3, #96]	@ movhi
  93:build\openmote-cc2538_armgcc\openstack\03b-IPv6/icmpv6rpl.c ****     icmpv6rpl_vars.timerIdDIO                = opentimers_create(TIMER_GENERAL_PURPOSE, TASKPRIO_RP
 259              		.loc 1 93 0
 260 00d4 0621     		movs	r1, #6
 261 00d6 FF20     		movs	r0, #255
 262 00d8 FFF7FEFF 		bl	opentimers_create
 263 00dc 0346     		mov	r3, r0
 264 00de 1A46     		mov	r2, r3
 265 00e0 764B     		ldr	r3, .L5
 266 00e2 83F85E20 		strb	r2, [r3, #94]
  94:build\openmote-cc2538_armgcc\openstack\03b-IPv6/icmpv6rpl.c **** 
  95:build\openmote-cc2538_armgcc\openstack\03b-IPv6/icmpv6rpl.c ****     //initialize PIO -> move this to dagroot code
  96:build\openmote-cc2538_armgcc\openstack\03b-IPv6/icmpv6rpl.c ****     icmpv6rpl_vars.pio.type                  = RPL_OPTION_PIO;
 267              		.loc 1 96 0
 268 00e6 754B     		ldr	r3, .L5
 269 00e8 0822     		movs	r2, #8
 270 00ea DA76     		strb	r2, [r3, #27]
  97:build\openmote-cc2538_armgcc\openstack\03b-IPv6/icmpv6rpl.c ****     icmpv6rpl_vars.pio.optLen                = 30;
 271              		.loc 1 97 0
 272 00ec 734B     		ldr	r3, .L5
 273 00ee 1E22     		movs	r2, #30
 274 00f0 1A77     		strb	r2, [r3, #28]
  98:build\openmote-cc2538_armgcc\openstack\03b-IPv6/icmpv6rpl.c ****     icmpv6rpl_vars.pio.prefLen               = 64;
 275              		.loc 1 98 0
 276 00f2 724B     		ldr	r3, .L5
 277 00f4 4022     		movs	r2, #64
 278 00f6 5A77     		strb	r2, [r3, #29]
  99:build\openmote-cc2538_armgcc\openstack\03b-IPv6/icmpv6rpl.c ****     icmpv6rpl_vars.pio.flags                 = 96;
 279              		.loc 1 99 0
 280 00f8 704B     		ldr	r3, .L5
 281 00fa 6022     		movs	r2, #96
 282 00fc 9A77     		strb	r2, [r3, #30]
 100:build\openmote-cc2538_armgcc\openstack\03b-IPv6/icmpv6rpl.c ****     icmpv6rpl_vars.pio.plifetime             = 0xFFFFFFFF;
 283              		.loc 1 100 0
 284 00fe 6F4B     		ldr	r3, .L5
 285 0100 4FF0FF32 		mov	r2, #-1
 286 0104 83F82320 		strb	r2, [r3, #35]
 287 0108 4FF0FF32 		mov	r2, #-1
 288 010c 83F82420 		strb	r2, [r3, #36]
 289 0110 4FF0FF32 		mov	r2, #-1
 290 0114 83F82520 		strb	r2, [r3, #37]
 291 0118 4FF0FF32 		mov	r2, #-1
 292 011c 83F82620 		strb	r2, [r3, #38]
 101:build\openmote-cc2538_armgcc\openstack\03b-IPv6/icmpv6rpl.c ****     icmpv6rpl_vars.pio.vlifetime             = 0xFFFFFFFF;
 293              		.loc 1 101 0
 294 0120 664B     		ldr	r3, .L5
 295 0122 4FF0FF32 		mov	r2, #-1
 296 0126 DA77     		strb	r2, [r3, #31]
 297 0128 4FF0FF32 		mov	r2, #-1
 298 012c 83F82020 		strb	r2, [r3, #32]
 299 0130 4FF0FF32 		mov	r2, #-1
 300 0134 83F82120 		strb	r2, [r3, #33]
 301 0138 4FF0FF32 		mov	r2, #-1
 302 013c 83F82220 		strb	r2, [r3, #34]
 102:build\openmote-cc2538_armgcc\openstack\03b-IPv6/icmpv6rpl.c ****     // if not dagroot then do not initialize, will receive PIO and update fields
 103:build\openmote-cc2538_armgcc\openstack\03b-IPv6/icmpv6rpl.c ****     // later
 104:build\openmote-cc2538_armgcc\openstack\03b-IPv6/icmpv6rpl.c ****     if (idmanager_getIsDAGroot()){
 303              		.loc 1 104 0
 304 0140 FFF7FEFF 		bl	idmanager_getIsDAGroot
 305 0144 0346     		mov	r3, r0
 306 0146 002B     		cmp	r3, #0
 307 0148 13D0     		beq	.L4
 105:build\openmote-cc2538_armgcc\openstack\03b-IPv6/icmpv6rpl.c ****         memcpy(
 106:build\openmote-cc2538_armgcc\openstack\03b-IPv6/icmpv6rpl.c ****             &(icmpv6rpl_vars.pio.prefix[0]),
 107:build\openmote-cc2538_armgcc\openstack\03b-IPv6/icmpv6rpl.c ****             idmanager_getMyID(ADDR_PREFIX)->prefix,
 308              		.loc 1 107 0
 309 014a 0520     		movs	r0, #5
 310 014c FFF7FEFF 		bl	idmanager_getMyID
 311 0150 0346     		mov	r3, r0
 312 0152 0133     		adds	r3, r3, #1
 105:build\openmote-cc2538_armgcc\openstack\03b-IPv6/icmpv6rpl.c ****         memcpy(
 313              		.loc 1 105 0
 314 0154 0822     		movs	r2, #8
 315 0156 1946     		mov	r1, r3
 316 0158 5A48     		ldr	r0, .L5+8
 317 015a FFF7FEFF 		bl	memcpy
 108:build\openmote-cc2538_armgcc\openstack\03b-IPv6/icmpv6rpl.c ****             sizeof(idmanager_getMyID(ADDR_PREFIX)->prefix)
 109:build\openmote-cc2538_armgcc\openstack\03b-IPv6/icmpv6rpl.c ****         );
 110:build\openmote-cc2538_armgcc\openstack\03b-IPv6/icmpv6rpl.c ****         memcpy(
 111:build\openmote-cc2538_armgcc\openstack\03b-IPv6/icmpv6rpl.c ****             &(icmpv6rpl_vars.pio.prefix[8]),
 112:build\openmote-cc2538_armgcc\openstack\03b-IPv6/icmpv6rpl.c ****             idmanager_getMyID(ADDR_64B)->addr_64b,
 318              		.loc 1 112 0
 319 015e 0220     		movs	r0, #2
 320 0160 FFF7FEFF 		bl	idmanager_getMyID
 321 0164 0346     		mov	r3, r0
 322 0166 0133     		adds	r3, r3, #1
 110:build\openmote-cc2538_armgcc\openstack\03b-IPv6/icmpv6rpl.c ****             &(icmpv6rpl_vars.pio.prefix[8]),
 323              		.loc 1 110 0
 324 0168 0822     		movs	r2, #8
 325 016a 1946     		mov	r1, r3
 326 016c 5648     		ldr	r0, .L5+12
 327 016e FFF7FEFF 		bl	memcpy
 328              	.L4:
 113:build\openmote-cc2538_armgcc\openstack\03b-IPv6/icmpv6rpl.c ****             sizeof(idmanager_getMyID(ADDR_64B)->addr_64b)
 114:build\openmote-cc2538_armgcc\openstack\03b-IPv6/icmpv6rpl.c ****        );
 115:build\openmote-cc2538_armgcc\openstack\03b-IPv6/icmpv6rpl.c ****     }
 116:build\openmote-cc2538_armgcc\openstack\03b-IPv6/icmpv6rpl.c ****     //configuration option
 117:build\openmote-cc2538_armgcc\openstack\03b-IPv6/icmpv6rpl.c ****     icmpv6rpl_vars.conf.type = RPL_OPTION_CONFIG;
 329              		.loc 1 117 0
 330 0172 524B     		ldr	r3, .L5
 331 0174 0422     		movs	r2, #4
 332 0176 83F83B20 		strb	r2, [r3, #59]
 118:build\openmote-cc2538_armgcc\openstack\03b-IPv6/icmpv6rpl.c ****     icmpv6rpl_vars.conf.optLen = 14;
 333              		.loc 1 118 0
 334 017a 504B     		ldr	r3, .L5
 335 017c 0E22     		movs	r2, #14
 336 017e 83F83C20 		strb	r2, [r3, #60]
 119:build\openmote-cc2538_armgcc\openstack\03b-IPv6/icmpv6rpl.c ****     icmpv6rpl_vars.conf.flagsAPCS = DEFAULT_PATH_CONTROL_SIZE; //DEFAULT_PATH_CONTROL_SIZE = 0
 337              		.loc 1 119 0
 338 0182 4E4B     		ldr	r3, .L5
 339 0184 0022     		movs	r2, #0
 340 0186 83F83D20 		strb	r2, [r3, #61]
 120:build\openmote-cc2538_armgcc\openstack\03b-IPv6/icmpv6rpl.c ****     icmpv6rpl_vars.conf.DIOIntDoubl = 8; //8 -> trickle period - max times it will double ~20min
 341              		.loc 1 120 0
 342 018a 4C4B     		ldr	r3, .L5
 343 018c 0822     		movs	r2, #8
 344 018e 83F83E20 		strb	r2, [r3, #62]
 121:build\openmote-cc2538_armgcc\openstack\03b-IPv6/icmpv6rpl.c ****     icmpv6rpl_vars.conf.DIOIntMin = 12 ; // 12 ->  min trickle period -> 16s
 345              		.loc 1 121 0
 346 0192 4A4B     		ldr	r3, .L5
 347 0194 0C22     		movs	r2, #12
 348 0196 83F83F20 		strb	r2, [r3, #63]
 122:build\openmote-cc2538_armgcc\openstack\03b-IPv6/icmpv6rpl.c ****     icmpv6rpl_vars.conf.DIORedun = 0 ; // 0
 349              		.loc 1 122 0
 350 019a 484B     		ldr	r3, .L5
 351 019c 0022     		movs	r2, #0
 352 019e 83F84020 		strb	r2, [r3, #64]
 123:build\openmote-cc2538_armgcc\openstack\03b-IPv6/icmpv6rpl.c ****     icmpv6rpl_vars.conf.maxRankIncrease = 2048; //  2048
 353              		.loc 1 123 0
 354 01a2 464B     		ldr	r3, .L5
 355 01a4 0022     		movs	r2, #0
 356 01a6 83F84120 		strb	r2, [r3, #65]
 357 01aa 0022     		movs	r2, #0
 358 01ac 42F00802 		orr	r2, r2, #8
 359 01b0 83F84220 		strb	r2, [r3, #66]
 124:build\openmote-cc2538_armgcc\openstack\03b-IPv6/icmpv6rpl.c ****     icmpv6rpl_vars.conf.minHopRankIncrease = 256 ; //256
 360              		.loc 1 124 0
 361 01b4 414B     		ldr	r3, .L5
 362 01b6 0022     		movs	r2, #0
 363 01b8 83F84320 		strb	r2, [r3, #67]
 364 01bc 0022     		movs	r2, #0
 365 01be 42F00102 		orr	r2, r2, #1
 366 01c2 83F84420 		strb	r2, [r3, #68]
 125:build\openmote-cc2538_armgcc\openstack\03b-IPv6/icmpv6rpl.c ****     icmpv6rpl_vars.conf.OCP = 0; // 0 OF0
 367              		.loc 1 125 0
 368 01c6 3D4B     		ldr	r3, .L5
 369 01c8 0022     		movs	r2, #0
 370 01ca 83F84520 		strb	r2, [r3, #69]
 371 01ce 0022     		movs	r2, #0
 372 01d0 83F84620 		strb	r2, [r3, #70]
 126:build\openmote-cc2538_armgcc\openstack\03b-IPv6/icmpv6rpl.c ****     icmpv6rpl_vars.conf.reserved = 0;
 373              		.loc 1 126 0
 374 01d4 394B     		ldr	r3, .L5
 375 01d6 0022     		movs	r2, #0
 376 01d8 83F84720 		strb	r2, [r3, #71]
 127:build\openmote-cc2538_armgcc\openstack\03b-IPv6/icmpv6rpl.c ****     icmpv6rpl_vars.conf.defLifetime = 0xff; //infinite - limit for DAO period  -> 0xff
 377              		.loc 1 127 0
 378 01dc 374B     		ldr	r3, .L5
 379 01de FF22     		movs	r2, #255
 380 01e0 83F84820 		strb	r2, [r3, #72]
 128:build\openmote-cc2538_armgcc\openstack\03b-IPv6/icmpv6rpl.c ****     icmpv6rpl_vars.conf.lifetimeUnit = 0xffff; // 0xffff
 381              		.loc 1 128 0
 382 01e4 354B     		ldr	r3, .L5
 383 01e6 4FF0FF32 		mov	r2, #-1
 384 01ea 83F84920 		strb	r2, [r3, #73]
 385 01ee 4FF0FF32 		mov	r2, #-1
 386 01f2 83F84A20 		strb	r2, [r3, #74]
 129:build\openmote-cc2538_armgcc\openstack\03b-IPv6/icmpv6rpl.c **** 
 130:build\openmote-cc2538_armgcc\openstack\03b-IPv6/icmpv6rpl.c ****     opentimers_scheduleIn(
 387              		.loc 1 130 0
 388 01f6 314B     		ldr	r3, .L5
 389 01f8 93F85E00 		ldrb	r0, [r3, #94]	@ zero_extendqisi2
 390 01fc 334B     		ldr	r3, .L5+16
 391 01fe 0093     		str	r3, [sp]
 392 0200 0023     		movs	r3, #0
 393 0202 0022     		movs	r2, #0
 394 0204 8221     		movs	r1, #130
 395 0206 FFF7FEFF 		bl	opentimers_scheduleIn
 131:build\openmote-cc2538_armgcc\openstack\03b-IPv6/icmpv6rpl.c ****         icmpv6rpl_vars.timerIdDIO,
 132:build\openmote-cc2538_armgcc\openstack\03b-IPv6/icmpv6rpl.c ****         SLOTFRAME_LENGTH*SLOTDURATION,
 133:build\openmote-cc2538_armgcc\openstack\03b-IPv6/icmpv6rpl.c ****         TIME_MS,
 134:build\openmote-cc2538_armgcc\openstack\03b-IPv6/icmpv6rpl.c ****         TIMER_PERIODIC,
 135:build\openmote-cc2538_armgcc\openstack\03b-IPv6/icmpv6rpl.c ****         icmpv6rpl_timer_DIO_cb
 136:build\openmote-cc2538_armgcc\openstack\03b-IPv6/icmpv6rpl.c ****     );
 137:build\openmote-cc2538_armgcc\openstack\03b-IPv6/icmpv6rpl.c **** 
 138:build\openmote-cc2538_armgcc\openstack\03b-IPv6/icmpv6rpl.c ****     //=== DAO
 139:build\openmote-cc2538_armgcc\openstack\03b-IPv6/icmpv6rpl.c **** 
 140:build\openmote-cc2538_armgcc\openstack\03b-IPv6/icmpv6rpl.c ****     icmpv6rpl_vars.dao.rplinstanceId         = 0x00;        ///< TODO: put correct value
 396              		.loc 1 140 0
 397 020a 2C4B     		ldr	r3, .L5
 398 020c 0022     		movs	r2, #0
 399 020e 83F86220 		strb	r2, [r3, #98]
 141:build\openmote-cc2538_armgcc\openstack\03b-IPv6/icmpv6rpl.c ****     icmpv6rpl_vars.dao.K_D_flags             = FLAG_DAO_A   | \
 400              		.loc 1 141 0
 401 0212 2A4B     		ldr	r3, .L5
 402 0214 4022     		movs	r2, #64
 403 0216 83F86320 		strb	r2, [r3, #99]
 142:build\openmote-cc2538_armgcc\openstack\03b-IPv6/icmpv6rpl.c ****                                                FLAG_DAO_B   | \
 143:build\openmote-cc2538_armgcc\openstack\03b-IPv6/icmpv6rpl.c ****                                                FLAG_DAO_C   | \
 144:build\openmote-cc2538_armgcc\openstack\03b-IPv6/icmpv6rpl.c ****                                                FLAG_DAO_D   | \
 145:build\openmote-cc2538_armgcc\openstack\03b-IPv6/icmpv6rpl.c ****                                                FLAG_DAO_E   | \
 146:build\openmote-cc2538_armgcc\openstack\03b-IPv6/icmpv6rpl.c ****                                                PRF_DIO_C    | \
 147:build\openmote-cc2538_armgcc\openstack\03b-IPv6/icmpv6rpl.c ****                                                FLAG_DAO_F   | \
 148:build\openmote-cc2538_armgcc\openstack\03b-IPv6/icmpv6rpl.c ****                                                D_DAO        |
 149:build\openmote-cc2538_armgcc\openstack\03b-IPv6/icmpv6rpl.c ****                                                K_DAO;
 150:build\openmote-cc2538_armgcc\openstack\03b-IPv6/icmpv6rpl.c ****     icmpv6rpl_vars.dao.reserved              = 0x00;
 404              		.loc 1 150 0
 405 021a 284B     		ldr	r3, .L5
 406 021c 0022     		movs	r2, #0
 407 021e 83F86420 		strb	r2, [r3, #100]
 151:build\openmote-cc2538_armgcc\openstack\03b-IPv6/icmpv6rpl.c ****     icmpv6rpl_vars.dao.DAOSequence           = 0x00;
 408              		.loc 1 151 0
 409 0222 264B     		ldr	r3, .L5
 410 0224 0022     		movs	r2, #0
 411 0226 83F86520 		strb	r2, [r3, #101]
 152:build\openmote-cc2538_armgcc\openstack\03b-IPv6/icmpv6rpl.c ****     memcpy(
 412              		.loc 1 152 0
 413 022a 244B     		ldr	r3, .L5
 414 022c 03F16604 		add	r4, r3, #102
 415 0230 3D46     		mov	r5, r7
 416 0232 0FCD     		ldmia	r5!, {r0, r1, r2, r3}
 417 0234 2060     		str	r0, [r4]	@ unaligned
 418 0236 6160     		str	r1, [r4, #4]	@ unaligned
 419 0238 A260     		str	r2, [r4, #8]	@ unaligned
 420 023a E360     		str	r3, [r4, #12]	@ unaligned
 153:build\openmote-cc2538_armgcc\openstack\03b-IPv6/icmpv6rpl.c ****         &(icmpv6rpl_vars.dao.DODAGID[0]),
 154:build\openmote-cc2538_armgcc\openstack\03b-IPv6/icmpv6rpl.c ****         dodagid,
 155:build\openmote-cc2538_armgcc\openstack\03b-IPv6/icmpv6rpl.c ****         sizeof(icmpv6rpl_vars.dao.DODAGID)
 156:build\openmote-cc2538_armgcc\openstack\03b-IPv6/icmpv6rpl.c ****     );  // can be replaced later
 157:build\openmote-cc2538_armgcc\openstack\03b-IPv6/icmpv6rpl.c **** 
 158:build\openmote-cc2538_armgcc\openstack\03b-IPv6/icmpv6rpl.c ****     icmpv6rpl_vars.dao_transit.type          = OPTION_TRANSIT_INFORMATION_TYPE;
 421              		.loc 1 158 0
 422 023c 1F4B     		ldr	r3, .L5
 423 023e 0622     		movs	r2, #6
 424 0240 83F87620 		strb	r2, [r3, #118]
 159:build\openmote-cc2538_armgcc\openstack\03b-IPv6/icmpv6rpl.c ****     // optionLength: to be populated upon TX
 160:build\openmote-cc2538_armgcc\openstack\03b-IPv6/icmpv6rpl.c ****     icmpv6rpl_vars.dao_transit.E_flags       = E_DAO_Transit_Info;
 425              		.loc 1 160 0
 426 0244 1D4B     		ldr	r3, .L5
 427 0246 0022     		movs	r2, #0
 428 0248 83F87820 		strb	r2, [r3, #120]
 161:build\openmote-cc2538_armgcc\openstack\03b-IPv6/icmpv6rpl.c ****     icmpv6rpl_vars.dao_transit.PathControl   = PC1_A_DAO_Transit_Info | \
 429              		.loc 1 161 0
 430 024c 1B4B     		ldr	r3, .L5
 431 024e 4022     		movs	r2, #64
 432 0250 83F87920 		strb	r2, [r3, #121]
 162:build\openmote-cc2538_armgcc\openstack\03b-IPv6/icmpv6rpl.c ****                                                PC1_B_DAO_Transit_Info | \
 163:build\openmote-cc2538_armgcc\openstack\03b-IPv6/icmpv6rpl.c ****                                                PC2_A_DAO_Transit_Info | \
 164:build\openmote-cc2538_armgcc\openstack\03b-IPv6/icmpv6rpl.c ****                                                PC2_B_DAO_Transit_Info | \
 165:build\openmote-cc2538_armgcc\openstack\03b-IPv6/icmpv6rpl.c ****                                                PC3_A_DAO_Transit_Info | \
 166:build\openmote-cc2538_armgcc\openstack\03b-IPv6/icmpv6rpl.c ****                                                PC3_B_DAO_Transit_Info | \
 167:build\openmote-cc2538_armgcc\openstack\03b-IPv6/icmpv6rpl.c ****                                                PC4_A_DAO_Transit_Info | \
 168:build\openmote-cc2538_armgcc\openstack\03b-IPv6/icmpv6rpl.c ****                                                PC4_B_DAO_Transit_Info;
 169:build\openmote-cc2538_armgcc\openstack\03b-IPv6/icmpv6rpl.c ****     icmpv6rpl_vars.dao_transit.PathSequence  = 0x00; // to be incremented at each TX
 433              		.loc 1 169 0
 434 0254 194B     		ldr	r3, .L5
 435 0256 0022     		movs	r2, #0
 436 0258 83F87A20 		strb	r2, [r3, #122]
 170:build\openmote-cc2538_armgcc\openstack\03b-IPv6/icmpv6rpl.c ****     icmpv6rpl_vars.dao_transit.PathLifetime  = 0xAA;
 437              		.loc 1 170 0
 438 025c 174B     		ldr	r3, .L5
 439 025e AA22     		movs	r2, #170
 440 0260 83F87B20 		strb	r2, [r3, #123]
 171:build\openmote-cc2538_armgcc\openstack\03b-IPv6/icmpv6rpl.c ****     //target information
 172:build\openmote-cc2538_armgcc\openstack\03b-IPv6/icmpv6rpl.c ****     icmpv6rpl_vars.dao_target.type  = OPTION_TARGET_INFORMATION_TYPE;
 441              		.loc 1 172 0
 442 0264 154B     		ldr	r3, .L5
 443 0266 0522     		movs	r2, #5
 444 0268 83F87C20 		strb	r2, [r3, #124]
 173:build\openmote-cc2538_armgcc\openstack\03b-IPv6/icmpv6rpl.c ****     icmpv6rpl_vars.dao_target.optionLength   = 0;
 445              		.loc 1 173 0
 446 026c 134B     		ldr	r3, .L5
 447 026e 0022     		movs	r2, #0
 448 0270 83F87D20 		strb	r2, [r3, #125]
 174:build\openmote-cc2538_armgcc\openstack\03b-IPv6/icmpv6rpl.c ****     icmpv6rpl_vars.dao_target.flags  = 0;
 449              		.loc 1 174 0
 450 0274 114B     		ldr	r3, .L5
 451 0276 0022     		movs	r2, #0
 452 0278 83F87E20 		strb	r2, [r3, #126]
 175:build\openmote-cc2538_armgcc\openstack\03b-IPv6/icmpv6rpl.c ****     icmpv6rpl_vars.dao_target.prefixLength   = 0;
 453              		.loc 1 175 0
 454 027c 0F4B     		ldr	r3, .L5
 455 027e 0022     		movs	r2, #0
 456 0280 83F87F20 		strb	r2, [r3, #127]
 176:build\openmote-cc2538_armgcc\openstack\03b-IPv6/icmpv6rpl.c **** 
 177:build\openmote-cc2538_armgcc\openstack\03b-IPv6/icmpv6rpl.c ****     icmpv6rpl_vars.daoPeriod                 = DAO_PERIOD;
 457              		.loc 1 177 0
 458 0284 0D4B     		ldr	r3, .L5
 459 0286 4EF66022 		movw	r2, #60000
 460 028a A3F88420 		strh	r2, [r3, #132]	@ movhi
 178:build\openmote-cc2538_armgcc\openstack\03b-IPv6/icmpv6rpl.c ****     icmpv6rpl_vars.timerIdDAO                = opentimers_create(TIMER_GENERAL_PURPOSE, TASKPRIO_RP
 461              		.loc 1 178 0
 462 028e 0621     		movs	r1, #6
 463 0290 FF20     		movs	r0, #255
 464 0292 FFF7FEFF 		bl	opentimers_create
 465 0296 0346     		mov	r3, r0
 466 0298 1A46     		mov	r2, r3
 467 029a 084B     		ldr	r3, .L5
 468 029c 83F88020 		strb	r2, [r3, #128]
 179:build\openmote-cc2538_armgcc\openstack\03b-IPv6/icmpv6rpl.c ****     opentimers_scheduleIn(
 469              		.loc 1 179 0
 470 02a0 064B     		ldr	r3, .L5
 471 02a2 93F88000 		ldrb	r0, [r3, #128]	@ zero_extendqisi2
 472 02a6 0A4B     		ldr	r3, .L5+20
 473 02a8 0093     		str	r3, [sp]
 474 02aa 0023     		movs	r3, #0
 475 02ac 0022     		movs	r2, #0
 476 02ae 8221     		movs	r1, #130
 477 02b0 FFF7FEFF 		bl	opentimers_scheduleIn
 180:build\openmote-cc2538_armgcc\openstack\03b-IPv6/icmpv6rpl.c ****         icmpv6rpl_vars.timerIdDAO,
 181:build\openmote-cc2538_armgcc\openstack\03b-IPv6/icmpv6rpl.c ****         SLOTFRAME_LENGTH*SLOTDURATION,
 182:build\openmote-cc2538_armgcc\openstack\03b-IPv6/icmpv6rpl.c ****         TIME_MS,
 183:build\openmote-cc2538_armgcc\openstack\03b-IPv6/icmpv6rpl.c ****         TIMER_PERIODIC,
 184:build\openmote-cc2538_armgcc\openstack\03b-IPv6/icmpv6rpl.c ****         icmpv6rpl_timer_DAO_cb
 185:build\openmote-cc2538_armgcc\openstack\03b-IPv6/icmpv6rpl.c ****     );
 186:build\openmote-cc2538_armgcc\openstack\03b-IPv6/icmpv6rpl.c **** }
 478              		.loc 1 186 0
 479 02b4 00BF     		nop
 480 02b6 1037     		adds	r7, r7, #16
 481              		.cfi_def_cfa_offset 16
 482 02b8 BD46     		mov	sp, r7
 483              		.cfi_def_cfa_register 13
 484              		@ sp needed
 485 02ba B0BD     		pop	{r4, r5, r7, pc}
 486              	.L6:
 487              		.align	2
 488              	.L5:
 489 02bc 00000000 		.word	icmpv6rpl_vars
 490 02c0 30000000 		.word	all_routers_multicast
 491 02c4 2B000000 		.word	icmpv6rpl_vars+43
 492 02c8 33000000 		.word	icmpv6rpl_vars+51
 493 02cc 00000000 		.word	icmpv6rpl_timer_DIO_cb
 494 02d0 00000000 		.word	icmpv6rpl_timer_DAO_cb
 495              		.cfi_endproc
 496              	.LFE3:
 498              		.align	1
 499              		.global	icmpv6rpl_writeDODAGid
 500              		.syntax unified
 501              		.thumb
 502              		.thumb_func
 503              		.fpu softvfp
 505              	icmpv6rpl_writeDODAGid:
 506              	.LFB4:
 187:build\openmote-cc2538_armgcc\openstack\03b-IPv6/icmpv6rpl.c **** 
 188:build\openmote-cc2538_armgcc\openstack\03b-IPv6/icmpv6rpl.c **** void  icmpv6rpl_writeDODAGid(uint8_t* dodagid) {
 507              		.loc 1 188 0
 508              		.cfi_startproc
 509              		@ args = 0, pretend = 0, frame = 8
 510              		@ frame_needed = 1, uses_anonymous_args = 0
 511 02d4 80B5     		push	{r7, lr}
 512              		.cfi_def_cfa_offset 8
 513              		.cfi_offset 7, -8
 514              		.cfi_offset 14, -4
 515 02d6 82B0     		sub	sp, sp, #8
 516              		.cfi_def_cfa_offset 16
 517 02d8 00AF     		add	r7, sp, #0
 518              		.cfi_def_cfa_register 7
 519 02da 7860     		str	r0, [r7, #4]
 189:build\openmote-cc2538_armgcc\openstack\03b-IPv6/icmpv6rpl.c **** 
 190:build\openmote-cc2538_armgcc\openstack\03b-IPv6/icmpv6rpl.c ****    // write DODAGID to DIO/DAO
 191:build\openmote-cc2538_armgcc\openstack\03b-IPv6/icmpv6rpl.c ****    memcpy(
 520              		.loc 1 191 0
 521 02dc 1022     		movs	r2, #16
 522 02de 7968     		ldr	r1, [r7, #4]
 523 02e0 0748     		ldr	r0, .L8
 524 02e2 FFF7FEFF 		bl	memcpy
 192:build\openmote-cc2538_armgcc\openstack\03b-IPv6/icmpv6rpl.c ****       &(icmpv6rpl_vars.dio.DODAGID[0]),
 193:build\openmote-cc2538_armgcc\openstack\03b-IPv6/icmpv6rpl.c ****       dodagid,
 194:build\openmote-cc2538_armgcc\openstack\03b-IPv6/icmpv6rpl.c ****       sizeof(icmpv6rpl_vars.dio.DODAGID)
 195:build\openmote-cc2538_armgcc\openstack\03b-IPv6/icmpv6rpl.c ****    );
 196:build\openmote-cc2538_armgcc\openstack\03b-IPv6/icmpv6rpl.c ****    memcpy(
 525              		.loc 1 196 0
 526 02e6 1022     		movs	r2, #16
 527 02e8 7968     		ldr	r1, [r7, #4]
 528 02ea 0648     		ldr	r0, .L8+4
 529 02ec FFF7FEFF 		bl	memcpy
 197:build\openmote-cc2538_armgcc\openstack\03b-IPv6/icmpv6rpl.c ****       &(icmpv6rpl_vars.dao.DODAGID[0]),
 198:build\openmote-cc2538_armgcc\openstack\03b-IPv6/icmpv6rpl.c ****       dodagid,
 199:build\openmote-cc2538_armgcc\openstack\03b-IPv6/icmpv6rpl.c ****       sizeof(icmpv6rpl_vars.dao.DODAGID)
 200:build\openmote-cc2538_armgcc\openstack\03b-IPv6/icmpv6rpl.c ****    );
 201:build\openmote-cc2538_armgcc\openstack\03b-IPv6/icmpv6rpl.c **** 
 202:build\openmote-cc2538_armgcc\openstack\03b-IPv6/icmpv6rpl.c ****    // remember I got a DODAGID
 203:build\openmote-cc2538_armgcc\openstack\03b-IPv6/icmpv6rpl.c ****    icmpv6rpl_vars.fDodagidWritten = 1;
 530              		.loc 1 203 0
 531 02f0 054B     		ldr	r3, .L8+8
 532 02f2 0122     		movs	r2, #1
 533 02f4 9A70     		strb	r2, [r3, #2]
 204:build\openmote-cc2538_armgcc\openstack\03b-IPv6/icmpv6rpl.c **** }
 534              		.loc 1 204 0
 535 02f6 00BF     		nop
 536 02f8 0837     		adds	r7, r7, #8
 537              		.cfi_def_cfa_offset 8
 538 02fa BD46     		mov	sp, r7
 539              		.cfi_def_cfa_register 13
 540              		@ sp needed
 541 02fc 80BD     		pop	{r7, pc}
 542              	.L9:
 543 02fe 00BF     		.align	2
 544              	.L8:
 545 0300 0B000000 		.word	icmpv6rpl_vars+11
 546 0304 66000000 		.word	icmpv6rpl_vars+102
 547 0308 00000000 		.word	icmpv6rpl_vars
 548              		.cfi_endproc
 549              	.LFE4:
 551              		.align	1
 552              		.global	icmpv6rpl_getRPLIntanceID
 553              		.syntax unified
 554              		.thumb
 555              		.thumb_func
 556              		.fpu softvfp
 558              	icmpv6rpl_getRPLIntanceID:
 559              	.LFB5:
 205:build\openmote-cc2538_armgcc\openstack\03b-IPv6/icmpv6rpl.c **** 
 206:build\openmote-cc2538_armgcc\openstack\03b-IPv6/icmpv6rpl.c **** uint8_t icmpv6rpl_getRPLIntanceID(void) {
 560              		.loc 1 206 0
 561              		.cfi_startproc
 562              		@ args = 0, pretend = 0, frame = 0
 563              		@ frame_needed = 1, uses_anonymous_args = 0
 564              		@ link register save eliminated.
 565 030c 80B4     		push	{r7}
 566              		.cfi_def_cfa_offset 4
 567              		.cfi_offset 7, -4
 568 030e 00AF     		add	r7, sp, #0
 569              		.cfi_def_cfa_register 7
 207:build\openmote-cc2538_armgcc\openstack\03b-IPv6/icmpv6rpl.c ****    return icmpv6rpl_vars.dao.rplinstanceId;
 570              		.loc 1 207 0
 571 0310 034B     		ldr	r3, .L12
 572 0312 93F86230 		ldrb	r3, [r3, #98]	@ zero_extendqisi2
 208:build\openmote-cc2538_armgcc\openstack\03b-IPv6/icmpv6rpl.c **** }
 573              		.loc 1 208 0
 574 0316 1846     		mov	r0, r3
 575 0318 BD46     		mov	sp, r7
 576              		.cfi_def_cfa_register 13
 577              		@ sp needed
 578 031a 80BC     		pop	{r7}
 579              		.cfi_restore 7
 580              		.cfi_def_cfa_offset 0
 581 031c 7047     		bx	lr
 582              	.L13:
 583 031e 00BF     		.align	2
 584              	.L12:
 585 0320 00000000 		.word	icmpv6rpl_vars
 586              		.cfi_endproc
 587              	.LFE5:
 589              		.align	1
 590              		.global	icmpv6rpl_getRPLDODAGid
 591              		.syntax unified
 592              		.thumb
 593              		.thumb_func
 594              		.fpu softvfp
 596              	icmpv6rpl_getRPLDODAGid:
 597              	.LFB6:
 209:build\openmote-cc2538_armgcc\openstack\03b-IPv6/icmpv6rpl.c **** 
 210:build\openmote-cc2538_armgcc\openstack\03b-IPv6/icmpv6rpl.c **** owerror_t icmpv6rpl_getRPLDODAGid(uint8_t* address_128b){
 598              		.loc 1 210 0
 599              		.cfi_startproc
 600              		@ args = 0, pretend = 0, frame = 8
 601              		@ frame_needed = 1, uses_anonymous_args = 0
 602              		@ link register save eliminated.
 603 0324 90B4     		push	{r4, r7}
 604              		.cfi_def_cfa_offset 8
 605              		.cfi_offset 4, -8
 606              		.cfi_offset 7, -4
 607 0326 82B0     		sub	sp, sp, #8
 608              		.cfi_def_cfa_offset 16
 609 0328 00AF     		add	r7, sp, #0
 610              		.cfi_def_cfa_register 7
 611 032a 7860     		str	r0, [r7, #4]
 211:build\openmote-cc2538_armgcc\openstack\03b-IPv6/icmpv6rpl.c ****    if (icmpv6rpl_vars.fDodagidWritten) {
 612              		.loc 1 211 0
 613 032c 0B4B     		ldr	r3, .L17
 614 032e 9B78     		ldrb	r3, [r3, #2]	@ zero_extendqisi2
 615 0330 002B     		cmp	r3, #0
 616 0332 0CD0     		beq	.L15
 212:build\openmote-cc2538_armgcc\openstack\03b-IPv6/icmpv6rpl.c ****        memcpy(address_128b,icmpv6rpl_vars.dao.DODAGID,16);
 617              		.loc 1 212 0
 618 0334 7A68     		ldr	r2, [r7, #4]
 619 0336 094B     		ldr	r3, .L17
 620 0338 6633     		adds	r3, r3, #102
 621 033a 1C68     		ldr	r4, [r3]	@ unaligned
 622 033c 5868     		ldr	r0, [r3, #4]	@ unaligned
 623 033e 9968     		ldr	r1, [r3, #8]	@ unaligned
 624 0340 DB68     		ldr	r3, [r3, #12]	@ unaligned
 625 0342 1460     		str	r4, [r2]	@ unaligned
 626 0344 5060     		str	r0, [r2, #4]	@ unaligned
 627 0346 9160     		str	r1, [r2, #8]	@ unaligned
 628 0348 D360     		str	r3, [r2, #12]	@ unaligned
 213:build\openmote-cc2538_armgcc\openstack\03b-IPv6/icmpv6rpl.c ****        return E_SUCCESS;
 629              		.loc 1 213 0
 630 034a 0023     		movs	r3, #0
 631 034c 00E0     		b	.L16
 632              	.L15:
 214:build\openmote-cc2538_armgcc\openstack\03b-IPv6/icmpv6rpl.c ****    }
 215:build\openmote-cc2538_armgcc\openstack\03b-IPv6/icmpv6rpl.c ****    return E_FAIL;
 633              		.loc 1 215 0
 634 034e 0123     		movs	r3, #1
 635              	.L16:
 216:build\openmote-cc2538_armgcc\openstack\03b-IPv6/icmpv6rpl.c **** }
 636              		.loc 1 216 0
 637 0350 1846     		mov	r0, r3
 638 0352 0837     		adds	r7, r7, #8
 639              		.cfi_def_cfa_offset 8
 640 0354 BD46     		mov	sp, r7
 641              		.cfi_def_cfa_register 13
 642              		@ sp needed
 643 0356 90BC     		pop	{r4, r7}
 644              		.cfi_restore 7
 645              		.cfi_restore 4
 646              		.cfi_def_cfa_offset 0
 647 0358 7047     		bx	lr
 648              	.L18:
 649 035a 00BF     		.align	2
 650              	.L17:
 651 035c 00000000 		.word	icmpv6rpl_vars
 652              		.cfi_endproc
 653              	.LFE6:
 655              		.align	1
 656              		.global	icmpv6rpl_sendDone
 657              		.syntax unified
 658              		.thumb
 659              		.thumb_func
 660              		.fpu softvfp
 662              	icmpv6rpl_sendDone:
 663              	.LFB7:
 217:build\openmote-cc2538_armgcc\openstack\03b-IPv6/icmpv6rpl.c **** 
 218:build\openmote-cc2538_armgcc\openstack\03b-IPv6/icmpv6rpl.c **** /**
 219:build\openmote-cc2538_armgcc\openstack\03b-IPv6/icmpv6rpl.c **** \brief Called when DIO/DAO was sent.
 220:build\openmote-cc2538_armgcc\openstack\03b-IPv6/icmpv6rpl.c **** 
 221:build\openmote-cc2538_armgcc\openstack\03b-IPv6/icmpv6rpl.c **** \param[in] msg   Pointer to the message just sent.
 222:build\openmote-cc2538_armgcc\openstack\03b-IPv6/icmpv6rpl.c **** \param[in] error Outcome of the sending.
 223:build\openmote-cc2538_armgcc\openstack\03b-IPv6/icmpv6rpl.c **** */
 224:build\openmote-cc2538_armgcc\openstack\03b-IPv6/icmpv6rpl.c **** void icmpv6rpl_sendDone(OpenQueueEntry_t* msg, owerror_t error) {
 664              		.loc 1 224 0
 665              		.cfi_startproc
 666              		@ args = 0, pretend = 0, frame = 8
 667              		@ frame_needed = 1, uses_anonymous_args = 0
 668 0360 80B5     		push	{r7, lr}
 669              		.cfi_def_cfa_offset 8
 670              		.cfi_offset 7, -8
 671              		.cfi_offset 14, -4
 672 0362 82B0     		sub	sp, sp, #8
 673              		.cfi_def_cfa_offset 16
 674 0364 00AF     		add	r7, sp, #0
 675              		.cfi_def_cfa_register 7
 676 0366 7860     		str	r0, [r7, #4]
 677 0368 0B46     		mov	r3, r1
 678 036a FB70     		strb	r3, [r7, #3]
 225:build\openmote-cc2538_armgcc\openstack\03b-IPv6/icmpv6rpl.c **** 
 226:build\openmote-cc2538_armgcc\openstack\03b-IPv6/icmpv6rpl.c ****    // take ownership over that packet
 227:build\openmote-cc2538_armgcc\openstack\03b-IPv6/icmpv6rpl.c ****    msg->owner = COMPONENT_ICMPv6RPL;
 679              		.loc 1 227 0
 680 036c 7B68     		ldr	r3, [r7, #4]
 681 036e 1622     		movs	r2, #22
 682 0370 5A70     		strb	r2, [r3, #1]
 228:build\openmote-cc2538_armgcc\openstack\03b-IPv6/icmpv6rpl.c **** 
 229:build\openmote-cc2538_armgcc\openstack\03b-IPv6/icmpv6rpl.c ****    // make sure I created it
 230:build\openmote-cc2538_armgcc\openstack\03b-IPv6/icmpv6rpl.c ****    if (msg->creator!=COMPONENT_ICMPv6RPL) {
 683              		.loc 1 230 0
 684 0372 7B68     		ldr	r3, [r7, #4]
 685 0374 1B78     		ldrb	r3, [r3]	@ zero_extendqisi2
 686 0376 162B     		cmp	r3, #22
 687 0378 05D0     		beq	.L20
 231:build\openmote-cc2538_armgcc\openstack\03b-IPv6/icmpv6rpl.c ****       openserial_printError(COMPONENT_ICMPv6RPL,ERR_UNEXPECTED_SENDDONE,
 688              		.loc 1 231 0
 689 037a 0023     		movs	r3, #0
 690 037c 0022     		movs	r2, #0
 691 037e 2C21     		movs	r1, #44
 692 0380 1620     		movs	r0, #22
 693 0382 FFF7FEFF 		bl	openserial_printError
 694              	.L20:
 232:build\openmote-cc2538_armgcc\openstack\03b-IPv6/icmpv6rpl.c ****                             (errorparameter_t)0,
 233:build\openmote-cc2538_armgcc\openstack\03b-IPv6/icmpv6rpl.c ****                             (errorparameter_t)0);
 234:build\openmote-cc2538_armgcc\openstack\03b-IPv6/icmpv6rpl.c ****    }
 235:build\openmote-cc2538_armgcc\openstack\03b-IPv6/icmpv6rpl.c **** 
 236:build\openmote-cc2538_armgcc\openstack\03b-IPv6/icmpv6rpl.c ****    // I'm not busy sending DIO/DAO anymore
 237:build\openmote-cc2538_armgcc\openstack\03b-IPv6/icmpv6rpl.c ****    if (packetfunctions_isBroadcastMulticast(&(msg->l2_nextORpreviousHop))){
 695              		.loc 1 237 0
 696 0386 7B68     		ldr	r3, [r7, #4]
 697 0388 4133     		adds	r3, r3, #65
 698 038a 1846     		mov	r0, r3
 699 038c FFF7FEFF 		bl	packetfunctions_isBroadcastMulticast
 700 0390 0346     		mov	r3, r0
 701 0392 002B     		cmp	r3, #0
 702 0394 03D0     		beq	.L21
 238:build\openmote-cc2538_armgcc\openstack\03b-IPv6/icmpv6rpl.c ****         icmpv6rpl_vars.busySendingDIO = FALSE;
 703              		.loc 1 238 0
 704 0396 074B     		ldr	r3, .L23
 705 0398 0022     		movs	r2, #0
 706 039a 1A70     		strb	r2, [r3]
 707 039c 02E0     		b	.L22
 708              	.L21:
 239:build\openmote-cc2538_armgcc\openstack\03b-IPv6/icmpv6rpl.c ****    } else {
 240:build\openmote-cc2538_armgcc\openstack\03b-IPv6/icmpv6rpl.c ****         icmpv6rpl_vars.busySendingDAO = FALSE;
 709              		.loc 1 240 0
 710 039e 054B     		ldr	r3, .L23
 711 03a0 0022     		movs	r2, #0
 712 03a2 5A70     		strb	r2, [r3, #1]
 713              	.L22:
 241:build\openmote-cc2538_armgcc\openstack\03b-IPv6/icmpv6rpl.c ****    }
 242:build\openmote-cc2538_armgcc\openstack\03b-IPv6/icmpv6rpl.c **** 
 243:build\openmote-cc2538_armgcc\openstack\03b-IPv6/icmpv6rpl.c ****    // free packet
 244:build\openmote-cc2538_armgcc\openstack\03b-IPv6/icmpv6rpl.c ****    openqueue_freePacketBuffer(msg);
 714              		.loc 1 244 0
 715 03a4 7868     		ldr	r0, [r7, #4]
 716 03a6 FFF7FEFF 		bl	openqueue_freePacketBuffer
 245:build\openmote-cc2538_armgcc\openstack\03b-IPv6/icmpv6rpl.c **** }
 717              		.loc 1 245 0
 718 03aa 00BF     		nop
 719 03ac 0837     		adds	r7, r7, #8
 720              		.cfi_def_cfa_offset 8
 721 03ae BD46     		mov	sp, r7
 722              		.cfi_def_cfa_register 13
 723              		@ sp needed
 724 03b0 80BD     		pop	{r7, pc}
 725              	.L24:
 726 03b2 00BF     		.align	2
 727              	.L23:
 728 03b4 00000000 		.word	icmpv6rpl_vars
 729              		.cfi_endproc
 730              	.LFE7:
 732              		.align	1
 733              		.global	icmpv6rpl_receive
 734              		.syntax unified
 735              		.thumb
 736              		.thumb_func
 737              		.fpu softvfp
 739              	icmpv6rpl_receive:
 740              	.LFB8:
 246:build\openmote-cc2538_armgcc\openstack\03b-IPv6/icmpv6rpl.c **** 
 247:build\openmote-cc2538_armgcc\openstack\03b-IPv6/icmpv6rpl.c **** /**
 248:build\openmote-cc2538_armgcc\openstack\03b-IPv6/icmpv6rpl.c **** \brief Called when RPL message received.
 249:build\openmote-cc2538_armgcc\openstack\03b-IPv6/icmpv6rpl.c **** 
 250:build\openmote-cc2538_armgcc\openstack\03b-IPv6/icmpv6rpl.c **** \param[in] msg   Pointer to the received message.
 251:build\openmote-cc2538_armgcc\openstack\03b-IPv6/icmpv6rpl.c **** */
 252:build\openmote-cc2538_armgcc\openstack\03b-IPv6/icmpv6rpl.c **** void icmpv6rpl_receive(OpenQueueEntry_t* msg) {
 741              		.loc 1 252 0
 742              		.cfi_startproc
 743              		@ args = 0, pretend = 0, frame = 16
 744              		@ frame_needed = 1, uses_anonymous_args = 0
 745 03b8 80B5     		push	{r7, lr}
 746              		.cfi_def_cfa_offset 8
 747              		.cfi_offset 7, -8
 748              		.cfi_offset 14, -4
 749 03ba 84B0     		sub	sp, sp, #16
 750              		.cfi_def_cfa_offset 24
 751 03bc 00AF     		add	r7, sp, #0
 752              		.cfi_def_cfa_register 7
 753 03be 7860     		str	r0, [r7, #4]
 253:build\openmote-cc2538_armgcc\openstack\03b-IPv6/icmpv6rpl.c ****    uint8_t      icmpv6code;
 254:build\openmote-cc2538_armgcc\openstack\03b-IPv6/icmpv6rpl.c **** 
 255:build\openmote-cc2538_armgcc\openstack\03b-IPv6/icmpv6rpl.c ****    // take ownership
 256:build\openmote-cc2538_armgcc\openstack\03b-IPv6/icmpv6rpl.c ****    msg->owner      = COMPONENT_ICMPv6RPL;
 754              		.loc 1 256 0
 755 03c0 7B68     		ldr	r3, [r7, #4]
 756 03c2 1622     		movs	r2, #22
 757 03c4 5A70     		strb	r2, [r3, #1]
 257:build\openmote-cc2538_armgcc\openstack\03b-IPv6/icmpv6rpl.c **** 
 258:build\openmote-cc2538_armgcc\openstack\03b-IPv6/icmpv6rpl.c ****    // retrieve ICMPv6 code
 259:build\openmote-cc2538_armgcc\openstack\03b-IPv6/icmpv6rpl.c ****    icmpv6code      = (((ICMPv6_ht*)(msg->payload))->code);
 758              		.loc 1 259 0
 759 03c6 7B68     		ldr	r3, [r7, #4]
 760 03c8 5B68     		ldr	r3, [r3, #4]
 761 03ca 5B78     		ldrb	r3, [r3, #1]
 762 03cc FB73     		strb	r3, [r7, #15]
 260:build\openmote-cc2538_armgcc\openstack\03b-IPv6/icmpv6rpl.c **** 
 261:build\openmote-cc2538_armgcc\openstack\03b-IPv6/icmpv6rpl.c ****    // toss ICMPv6 header
 262:build\openmote-cc2538_armgcc\openstack\03b-IPv6/icmpv6rpl.c ****    packetfunctions_tossHeader(msg,sizeof(ICMPv6_ht));
 763              		.loc 1 262 0
 764 03ce 0421     		movs	r1, #4
 765 03d0 7868     		ldr	r0, [r7, #4]
 766 03d2 FFF7FEFF 		bl	packetfunctions_tossHeader
 263:build\openmote-cc2538_armgcc\openstack\03b-IPv6/icmpv6rpl.c **** 
 264:build\openmote-cc2538_armgcc\openstack\03b-IPv6/icmpv6rpl.c ****    // handle message
 265:build\openmote-cc2538_armgcc\openstack\03b-IPv6/icmpv6rpl.c ****    switch (icmpv6code) {
 767              		.loc 1 265 0
 768 03d6 FB7B     		ldrb	r3, [r7, #15]	@ zero_extendqisi2
 769 03d8 012B     		cmp	r3, #1
 770 03da 06D0     		beq	.L27
 771 03dc 022B     		cmp	r3, #2
 772 03de 15D0     		beq	.L28
 773 03e0 002B     		cmp	r3, #0
 774 03e2 1AD1     		bne	.L33
 266:build\openmote-cc2538_armgcc\openstack\03b-IPv6/icmpv6rpl.c ****       case IANA_ICMPv6_RPL_DIS:
 267:build\openmote-cc2538_armgcc\openstack\03b-IPv6/icmpv6rpl.c ****          icmpv6rpl_timer_DIO_task();
 775              		.loc 1 267 0
 776 03e4 FFF7FEFF 		bl	icmpv6rpl_timer_DIO_task
 268:build\openmote-cc2538_armgcc\openstack\03b-IPv6/icmpv6rpl.c ****          break;
 777              		.loc 1 268 0
 778 03e8 22E0     		b	.L30
 779              	.L27:
 269:build\openmote-cc2538_armgcc\openstack\03b-IPv6/icmpv6rpl.c ****       case IANA_ICMPv6_RPL_DIO:
 270:build\openmote-cc2538_armgcc\openstack\03b-IPv6/icmpv6rpl.c ****          if (idmanager_getIsDAGroot()==TRUE) {
 780              		.loc 1 270 0
 781 03ea FFF7FEFF 		bl	idmanager_getIsDAGroot
 782 03ee 0346     		mov	r3, r0
 783 03f0 002B     		cmp	r3, #0
 784 03f2 1AD1     		bne	.L34
 271:build\openmote-cc2538_armgcc\openstack\03b-IPv6/icmpv6rpl.c ****             // stop here if I'm in the DAG root
 272:build\openmote-cc2538_armgcc\openstack\03b-IPv6/icmpv6rpl.c ****             break; // break, don't return
 273:build\openmote-cc2538_armgcc\openstack\03b-IPv6/icmpv6rpl.c ****          }
 274:build\openmote-cc2538_armgcc\openstack\03b-IPv6/icmpv6rpl.c **** 
 275:build\openmote-cc2538_armgcc\openstack\03b-IPv6/icmpv6rpl.c ****          if (IEEE802154_security_isConfigured()==FALSE) {
 785              		.loc 1 275 0
 786 03f4 FFF7FEFF 		bl	IEEE802154_security_isConfigured
 787 03f8 0346     		mov	r3, r0
 788 03fa 83F00103 		eor	r3, r3, #1
 789 03fe DBB2     		uxtb	r3, r3
 790 0400 002B     		cmp	r3, #0
 791 0402 14D1     		bne	.L35
 276:build\openmote-cc2538_armgcc\openstack\03b-IPv6/icmpv6rpl.c ****             // this DIO is not able to be parsed if the mote is not secure yet
 277:build\openmote-cc2538_armgcc\openstack\03b-IPv6/icmpv6rpl.c ****             break;
 278:build\openmote-cc2538_armgcc\openstack\03b-IPv6/icmpv6rpl.c ****          }
 279:build\openmote-cc2538_armgcc\openstack\03b-IPv6/icmpv6rpl.c ****          // update routing info for that neighbor
 280:build\openmote-cc2538_armgcc\openstack\03b-IPv6/icmpv6rpl.c ****          icmpv6rpl_indicateRxDIO(msg);
 792              		.loc 1 280 0
 793 0404 7868     		ldr	r0, [r7, #4]
 794 0406 FFF7FEFF 		bl	icmpv6rpl_indicateRxDIO
 281:build\openmote-cc2538_armgcc\openstack\03b-IPv6/icmpv6rpl.c **** 
 282:build\openmote-cc2538_armgcc\openstack\03b-IPv6/icmpv6rpl.c ****          break;
 795              		.loc 1 282 0
 796 040a 11E0     		b	.L30
 797              	.L28:
 283:build\openmote-cc2538_armgcc\openstack\03b-IPv6/icmpv6rpl.c **** 
 284:build\openmote-cc2538_armgcc\openstack\03b-IPv6/icmpv6rpl.c ****       case IANA_ICMPv6_RPL_DAO:
 285:build\openmote-cc2538_armgcc\openstack\03b-IPv6/icmpv6rpl.c ****          // this should never happen
 286:build\openmote-cc2538_armgcc\openstack\03b-IPv6/icmpv6rpl.c ****          openserial_printError(COMPONENT_ICMPv6RPL,ERR_UNEXPECTED_DAO,
 798              		.loc 1 286 0
 799 040c 0023     		movs	r3, #0
 800 040e 0022     		movs	r2, #0
 801 0410 0A21     		movs	r1, #10
 802 0412 1620     		movs	r0, #22
 803 0414 FFF7FEFF 		bl	openserial_printError
 287:build\openmote-cc2538_armgcc\openstack\03b-IPv6/icmpv6rpl.c ****                                (errorparameter_t)0,
 288:build\openmote-cc2538_armgcc\openstack\03b-IPv6/icmpv6rpl.c ****                                (errorparameter_t)0);
 289:build\openmote-cc2538_armgcc\openstack\03b-IPv6/icmpv6rpl.c ****          break;
 804              		.loc 1 289 0
 805 0418 0AE0     		b	.L30
 806              	.L33:
 290:build\openmote-cc2538_armgcc\openstack\03b-IPv6/icmpv6rpl.c ****       default:
 291:build\openmote-cc2538_armgcc\openstack\03b-IPv6/icmpv6rpl.c ****          // this should never happen
 292:build\openmote-cc2538_armgcc\openstack\03b-IPv6/icmpv6rpl.c ****          openserial_printError(COMPONENT_ICMPv6RPL,ERR_MSG_UNKNOWN_TYPE,
 807              		.loc 1 292 0
 808 041a FB7B     		ldrb	r3, [r7, #15]	@ zero_extendqisi2
 809 041c 9AB2     		uxth	r2, r3
 810 041e 0023     		movs	r3, #0
 811 0420 3121     		movs	r1, #49
 812 0422 1620     		movs	r0, #22
 813 0424 FFF7FEFF 		bl	openserial_printError
 293:build\openmote-cc2538_armgcc\openstack\03b-IPv6/icmpv6rpl.c ****                                (errorparameter_t)icmpv6code,
 294:build\openmote-cc2538_armgcc\openstack\03b-IPv6/icmpv6rpl.c ****                                (errorparameter_t)0);
 295:build\openmote-cc2538_armgcc\openstack\03b-IPv6/icmpv6rpl.c ****          break;
 814              		.loc 1 295 0
 815 0428 02E0     		b	.L30
 816              	.L34:
 272:build\openmote-cc2538_armgcc\openstack\03b-IPv6/icmpv6rpl.c ****          }
 817              		.loc 1 272 0
 818 042a 00BF     		nop
 819 042c 00E0     		b	.L30
 820              	.L35:
 277:build\openmote-cc2538_armgcc\openstack\03b-IPv6/icmpv6rpl.c ****          }
 821              		.loc 1 277 0
 822 042e 00BF     		nop
 823              	.L30:
 296:build\openmote-cc2538_armgcc\openstack\03b-IPv6/icmpv6rpl.c **** 
 297:build\openmote-cc2538_armgcc\openstack\03b-IPv6/icmpv6rpl.c ****    }
 298:build\openmote-cc2538_armgcc\openstack\03b-IPv6/icmpv6rpl.c **** 
 299:build\openmote-cc2538_armgcc\openstack\03b-IPv6/icmpv6rpl.c ****    // free message
 300:build\openmote-cc2538_armgcc\openstack\03b-IPv6/icmpv6rpl.c ****    openqueue_freePacketBuffer(msg);
 824              		.loc 1 300 0
 825 0430 7868     		ldr	r0, [r7, #4]
 826 0432 FFF7FEFF 		bl	openqueue_freePacketBuffer
 301:build\openmote-cc2538_armgcc\openstack\03b-IPv6/icmpv6rpl.c **** }
 827              		.loc 1 301 0
 828 0436 00BF     		nop
 829 0438 1037     		adds	r7, r7, #16
 830              		.cfi_def_cfa_offset 8
 831 043a BD46     		mov	sp, r7
 832              		.cfi_def_cfa_register 13
 833              		@ sp needed
 834 043c 80BD     		pop	{r7, pc}
 835              		.cfi_endproc
 836              	.LFE8:
 838              		.align	1
 839              		.global	icmpv6rpl_getPreferredParentIndex
 840              		.syntax unified
 841              		.thumb
 842              		.thumb_func
 843              		.fpu softvfp
 845              	icmpv6rpl_getPreferredParentIndex:
 846              	.LFB9:
 302:build\openmote-cc2538_armgcc\openstack\03b-IPv6/icmpv6rpl.c **** 
 303:build\openmote-cc2538_armgcc\openstack\03b-IPv6/icmpv6rpl.c **** /**
 304:build\openmote-cc2538_armgcc\openstack\03b-IPv6/icmpv6rpl.c **** \brief Retrieve this mote's parent index in neighbor table.
 305:build\openmote-cc2538_armgcc\openstack\03b-IPv6/icmpv6rpl.c **** 
 306:build\openmote-cc2538_armgcc\openstack\03b-IPv6/icmpv6rpl.c **** \returns TRUE and index of parent if have one, FALSE if no parent
 307:build\openmote-cc2538_armgcc\openstack\03b-IPv6/icmpv6rpl.c **** */
 308:build\openmote-cc2538_armgcc\openstack\03b-IPv6/icmpv6rpl.c **** bool icmpv6rpl_getPreferredParentIndex(uint8_t* indexptr) {
 847              		.loc 1 308 0
 848              		.cfi_startproc
 849              		@ args = 0, pretend = 0, frame = 8
 850              		@ frame_needed = 1, uses_anonymous_args = 0
 851              		@ link register save eliminated.
 852 043e 80B4     		push	{r7}
 853              		.cfi_def_cfa_offset 4
 854              		.cfi_offset 7, -4
 855 0440 83B0     		sub	sp, sp, #12
 856              		.cfi_def_cfa_offset 16
 857 0442 00AF     		add	r7, sp, #0
 858              		.cfi_def_cfa_register 7
 859 0444 7860     		str	r0, [r7, #4]
 309:build\openmote-cc2538_armgcc\openstack\03b-IPv6/icmpv6rpl.c ****    *indexptr = icmpv6rpl_vars.ParentIndex;
 860              		.loc 1 309 0
 861 0446 064B     		ldr	r3, .L38
 862 0448 93F88B20 		ldrb	r2, [r3, #139]	@ zero_extendqisi2
 863 044c 7B68     		ldr	r3, [r7, #4]
 864 044e 1A70     		strb	r2, [r3]
 310:build\openmote-cc2538_armgcc\openstack\03b-IPv6/icmpv6rpl.c ****    return icmpv6rpl_vars.haveParent;
 865              		.loc 1 310 0
 866 0450 034B     		ldr	r3, .L38
 867 0452 93F88A30 		ldrb	r3, [r3, #138]	@ zero_extendqisi2
 311:build\openmote-cc2538_armgcc\openstack\03b-IPv6/icmpv6rpl.c **** }
 868              		.loc 1 311 0
 869 0456 1846     		mov	r0, r3
 870 0458 0C37     		adds	r7, r7, #12
 871              		.cfi_def_cfa_offset 4
 872 045a BD46     		mov	sp, r7
 873              		.cfi_def_cfa_register 13
 874              		@ sp needed
 875 045c 80BC     		pop	{r7}
 876              		.cfi_restore 7
 877              		.cfi_def_cfa_offset 0
 878 045e 7047     		bx	lr
 879              	.L39:
 880              		.align	2
 881              	.L38:
 882 0460 00000000 		.word	icmpv6rpl_vars
 883              		.cfi_endproc
 884              	.LFE9:
 886              		.align	1
 887              		.global	icmpv6rpl_getPreferredParentEui64
 888              		.syntax unified
 889              		.thumb
 890              		.thumb_func
 891              		.fpu softvfp
 893              	icmpv6rpl_getPreferredParentEui64:
 894              	.LFB10:
 312:build\openmote-cc2538_armgcc\openstack\03b-IPv6/icmpv6rpl.c **** 
 313:build\openmote-cc2538_armgcc\openstack\03b-IPv6/icmpv6rpl.c **** /**
 314:build\openmote-cc2538_armgcc\openstack\03b-IPv6/icmpv6rpl.c **** \brief Retrieve my preferred parent's EUI64 address.
 315:build\openmote-cc2538_armgcc\openstack\03b-IPv6/icmpv6rpl.c **** \param[out] addressToWrite Where to copy the preferred parent's address to.
 316:build\openmote-cc2538_armgcc\openstack\03b-IPv6/icmpv6rpl.c **** */
 317:build\openmote-cc2538_armgcc\openstack\03b-IPv6/icmpv6rpl.c **** bool icmpv6rpl_getPreferredParentEui64(open_addr_t* addressToWrite) {
 895              		.loc 1 317 0
 896              		.cfi_startproc
 897              		@ args = 0, pretend = 0, frame = 8
 898              		@ frame_needed = 1, uses_anonymous_args = 0
 899 0464 80B5     		push	{r7, lr}
 900              		.cfi_def_cfa_offset 8
 901              		.cfi_offset 7, -8
 902              		.cfi_offset 14, -4
 903 0466 82B0     		sub	sp, sp, #8
 904              		.cfi_def_cfa_offset 16
 905 0468 00AF     		add	r7, sp, #0
 906              		.cfi_def_cfa_register 7
 907 046a 7860     		str	r0, [r7, #4]
 318:build\openmote-cc2538_armgcc\openstack\03b-IPv6/icmpv6rpl.c ****     if (
 319:build\openmote-cc2538_armgcc\openstack\03b-IPv6/icmpv6rpl.c ****         icmpv6rpl_vars.haveParent &&
 908              		.loc 1 319 0
 909 046c 154B     		ldr	r3, .L43
 910 046e 93F88A30 		ldrb	r3, [r3, #138]	@ zero_extendqisi2
 318:build\openmote-cc2538_armgcc\openstack\03b-IPv6/icmpv6rpl.c ****     if (
 911              		.loc 1 318 0
 912 0472 002B     		cmp	r3, #0
 913 0474 21D0     		beq	.L41
 320:build\openmote-cc2538_armgcc\openstack\03b-IPv6/icmpv6rpl.c ****         neighbors_getNeighborNoResource(icmpv6rpl_vars.ParentIndex)    == FALSE &&
 914              		.loc 1 320 0
 915 0476 134B     		ldr	r3, .L43
 916 0478 93F88B30 		ldrb	r3, [r3, #139]	@ zero_extendqisi2
 917 047c 1846     		mov	r0, r3
 918 047e FFF7FEFF 		bl	neighbors_getNeighborNoResource
 919 0482 0346     		mov	r3, r0
 920 0484 83F00103 		eor	r3, r3, #1
 921 0488 DBB2     		uxtb	r3, r3
 319:build\openmote-cc2538_armgcc\openstack\03b-IPv6/icmpv6rpl.c ****         neighbors_getNeighborNoResource(icmpv6rpl_vars.ParentIndex)    == FALSE &&
 922              		.loc 1 319 0
 923 048a 002B     		cmp	r3, #0
 924 048c 15D0     		beq	.L41
 321:build\openmote-cc2538_armgcc\openstack\03b-IPv6/icmpv6rpl.c ****         neighbors_getNeighborIsInBlacklist(icmpv6rpl_vars.ParentIndex) == FALSE
 925              		.loc 1 321 0
 926 048e 0D4B     		ldr	r3, .L43
 927 0490 93F88B30 		ldrb	r3, [r3, #139]	@ zero_extendqisi2
 928 0494 1846     		mov	r0, r3
 929 0496 FFF7FEFF 		bl	neighbors_getNeighborIsInBlacklist
 930 049a 0346     		mov	r3, r0
 931 049c 83F00103 		eor	r3, r3, #1
 932 04a0 DBB2     		uxtb	r3, r3
 320:build\openmote-cc2538_armgcc\openstack\03b-IPv6/icmpv6rpl.c ****         neighbors_getNeighborNoResource(icmpv6rpl_vars.ParentIndex)    == FALSE &&
 933              		.loc 1 320 0
 934 04a2 002B     		cmp	r3, #0
 935 04a4 09D0     		beq	.L41
 322:build\openmote-cc2538_armgcc\openstack\03b-IPv6/icmpv6rpl.c ****     ){
 323:build\openmote-cc2538_armgcc\openstack\03b-IPv6/icmpv6rpl.c ****         return neighbors_getNeighborEui64(addressToWrite,ADDR_64B,icmpv6rpl_vars.ParentIndex);
 936              		.loc 1 323 0
 937 04a6 074B     		ldr	r3, .L43
 938 04a8 93F88B30 		ldrb	r3, [r3, #139]	@ zero_extendqisi2
 939 04ac 1A46     		mov	r2, r3
 940 04ae 0221     		movs	r1, #2
 941 04b0 7868     		ldr	r0, [r7, #4]
 942 04b2 FFF7FEFF 		bl	neighbors_getNeighborEui64
 943 04b6 0346     		mov	r3, r0
 944 04b8 00E0     		b	.L42
 945              	.L41:
 324:build\openmote-cc2538_armgcc\openstack\03b-IPv6/icmpv6rpl.c ****     } else {
 325:build\openmote-cc2538_armgcc\openstack\03b-IPv6/icmpv6rpl.c ****         return FALSE;
 946              		.loc 1 325 0
 947 04ba 0023     		movs	r3, #0
 948              	.L42:
 326:build\openmote-cc2538_armgcc\openstack\03b-IPv6/icmpv6rpl.c ****     }
 327:build\openmote-cc2538_armgcc\openstack\03b-IPv6/icmpv6rpl.c **** }
 949              		.loc 1 327 0
 950 04bc 1846     		mov	r0, r3
 951 04be 0837     		adds	r7, r7, #8
 952              		.cfi_def_cfa_offset 8
 953 04c0 BD46     		mov	sp, r7
 954              		.cfi_def_cfa_register 13
 955              		@ sp needed
 956 04c2 80BD     		pop	{r7, pc}
 957              	.L44:
 958              		.align	2
 959              	.L43:
 960 04c4 00000000 		.word	icmpv6rpl_vars
 961              		.cfi_endproc
 962              	.LFE10:
 964              		.align	1
 965              		.global	icmpv6rpl_isPreferredParent
 966              		.syntax unified
 967              		.thumb
 968              		.thumb_func
 969              		.fpu softvfp
 971              	icmpv6rpl_isPreferredParent:
 972              	.LFB11:
 328:build\openmote-cc2538_armgcc\openstack\03b-IPv6/icmpv6rpl.c **** 
 329:build\openmote-cc2538_armgcc\openstack\03b-IPv6/icmpv6rpl.c **** /**
 330:build\openmote-cc2538_armgcc\openstack\03b-IPv6/icmpv6rpl.c **** \brief Indicate whether some neighbor is the routing parent.
 331:build\openmote-cc2538_armgcc\openstack\03b-IPv6/icmpv6rpl.c **** 
 332:build\openmote-cc2538_armgcc\openstack\03b-IPv6/icmpv6rpl.c **** \param[in] address The EUI64 address of the neighbor.
 333:build\openmote-cc2538_armgcc\openstack\03b-IPv6/icmpv6rpl.c **** 
 334:build\openmote-cc2538_armgcc\openstack\03b-IPv6/icmpv6rpl.c **** \returns TRUE if that neighbor is preferred parent, FALSE otherwise.
 335:build\openmote-cc2538_armgcc\openstack\03b-IPv6/icmpv6rpl.c **** */
 336:build\openmote-cc2538_armgcc\openstack\03b-IPv6/icmpv6rpl.c **** bool icmpv6rpl_isPreferredParent(open_addr_t* address) {
 973              		.loc 1 336 0
 974              		.cfi_startproc
 975              		@ args = 0, pretend = 0, frame = 32
 976              		@ frame_needed = 1, uses_anonymous_args = 0
 977 04c8 80B5     		push	{r7, lr}
 978              		.cfi_def_cfa_offset 8
 979              		.cfi_offset 7, -8
 980              		.cfi_offset 14, -4
 981 04ca 88B0     		sub	sp, sp, #32
 982              		.cfi_def_cfa_offset 40
 983 04cc 00AF     		add	r7, sp, #0
 984              		.cfi_def_cfa_register 7
 985 04ce 7860     		str	r0, [r7, #4]
 337:build\openmote-cc2538_armgcc\openstack\03b-IPv6/icmpv6rpl.c ****    open_addr_t  temp;
 338:build\openmote-cc2538_armgcc\openstack\03b-IPv6/icmpv6rpl.c ****    // do we currently have a parent?
 339:build\openmote-cc2538_armgcc\openstack\03b-IPv6/icmpv6rpl.c ****    if (icmpv6rpl_vars.haveParent==FALSE) {
 986              		.loc 1 339 0
 987 04d0 154B     		ldr	r3, .L52
 988 04d2 93F88A30 		ldrb	r3, [r3, #138]	@ zero_extendqisi2
 989 04d6 83F00103 		eor	r3, r3, #1
 990 04da DBB2     		uxtb	r3, r3
 991 04dc 002B     		cmp	r3, #0
 992 04de 01D0     		beq	.L46
 340:build\openmote-cc2538_armgcc\openstack\03b-IPv6/icmpv6rpl.c ****       return FALSE;
 993              		.loc 1 340 0
 994 04e0 0023     		movs	r3, #0
 995 04e2 1DE0     		b	.L50
 996              	.L46:
 341:build\openmote-cc2538_armgcc\openstack\03b-IPv6/icmpv6rpl.c ****    }
 342:build\openmote-cc2538_armgcc\openstack\03b-IPv6/icmpv6rpl.c **** 
 343:build\openmote-cc2538_armgcc\openstack\03b-IPv6/icmpv6rpl.c ****    //compare parent address to the one presented.
 344:build\openmote-cc2538_armgcc\openstack\03b-IPv6/icmpv6rpl.c ****    switch (address->type) {
 997              		.loc 1 344 0
 998 04e4 7B68     		ldr	r3, [r7, #4]
 999 04e6 1B78     		ldrb	r3, [r3]	@ zero_extendqisi2
 1000 04e8 022B     		cmp	r3, #2
 1001 04ea 10D1     		bne	.L51
 345:build\openmote-cc2538_armgcc\openstack\03b-IPv6/icmpv6rpl.c ****       case ADDR_64B:
 346:build\openmote-cc2538_armgcc\openstack\03b-IPv6/icmpv6rpl.c ****          neighbors_getNeighborEui64(&temp,ADDR_64B,icmpv6rpl_vars.ParentIndex);
 1002              		.loc 1 346 0
 1003 04ec 0E4B     		ldr	r3, .L52
 1004 04ee 93F88B20 		ldrb	r2, [r3, #139]	@ zero_extendqisi2
 1005 04f2 07F10C03 		add	r3, r7, #12
 1006 04f6 0221     		movs	r1, #2
 1007 04f8 1846     		mov	r0, r3
 1008 04fa FFF7FEFF 		bl	neighbors_getNeighborEui64
 347:build\openmote-cc2538_armgcc\openstack\03b-IPv6/icmpv6rpl.c ****          return packetfunctions_sameAddress(address,&temp);
 1009              		.loc 1 347 0
 1010 04fe 07F10C03 		add	r3, r7, #12
 1011 0502 1946     		mov	r1, r3
 1012 0504 7868     		ldr	r0, [r7, #4]
 1013 0506 FFF7FEFF 		bl	packetfunctions_sameAddress
 1014 050a 0346     		mov	r3, r0
 1015 050c 08E0     		b	.L50
 1016              	.L51:
 348:build\openmote-cc2538_armgcc\openstack\03b-IPv6/icmpv6rpl.c ****       default:
 349:build\openmote-cc2538_armgcc\openstack\03b-IPv6/icmpv6rpl.c ****          openserial_printCritical(COMPONENT_NEIGHBORS,ERR_WRONG_ADDR_TYPE,
 350:build\openmote-cc2538_armgcc\openstack\03b-IPv6/icmpv6rpl.c ****                                (errorparameter_t)address->type,
 1017              		.loc 1 350 0
 1018 050e 7B68     		ldr	r3, [r7, #4]
 1019 0510 1B78     		ldrb	r3, [r3]	@ zero_extendqisi2
 349:build\openmote-cc2538_armgcc\openstack\03b-IPv6/icmpv6rpl.c ****                                (errorparameter_t)address->type,
 1020              		.loc 1 349 0
 1021 0512 9AB2     		uxth	r2, r3
 1022 0514 0323     		movs	r3, #3
 1023 0516 3221     		movs	r1, #50
 1024 0518 0D20     		movs	r0, #13
 1025 051a FFF7FEFF 		bl	openserial_printCritical
 351:build\openmote-cc2538_armgcc\openstack\03b-IPv6/icmpv6rpl.c ****                                (errorparameter_t)3);
 352:build\openmote-cc2538_armgcc\openstack\03b-IPv6/icmpv6rpl.c ****          return FALSE;
 1026              		.loc 1 352 0
 1027 051e 0023     		movs	r3, #0
 1028              	.L50:
 353:build\openmote-cc2538_armgcc\openstack\03b-IPv6/icmpv6rpl.c ****    }
 354:build\openmote-cc2538_armgcc\openstack\03b-IPv6/icmpv6rpl.c **** }
 1029              		.loc 1 354 0 discriminator 1
 1030 0520 1846     		mov	r0, r3
 1031 0522 2037     		adds	r7, r7, #32
 1032              		.cfi_def_cfa_offset 8
 1033 0524 BD46     		mov	sp, r7
 1034              		.cfi_def_cfa_register 13
 1035              		@ sp needed
 1036 0526 80BD     		pop	{r7, pc}
 1037              	.L53:
 1038              		.align	2
 1039              	.L52:
 1040 0528 00000000 		.word	icmpv6rpl_vars
 1041              		.cfi_endproc
 1042              	.LFE11:
 1044              		.align	1
 1045              		.global	icmpv6rpl_getMyDAGrank
 1046              		.syntax unified
 1047              		.thumb
 1048              		.thumb_func
 1049              		.fpu softvfp
 1051              	icmpv6rpl_getMyDAGrank:
 1052              	.LFB12:
 355:build\openmote-cc2538_armgcc\openstack\03b-IPv6/icmpv6rpl.c **** 
 356:build\openmote-cc2538_armgcc\openstack\03b-IPv6/icmpv6rpl.c **** /**
 357:build\openmote-cc2538_armgcc\openstack\03b-IPv6/icmpv6rpl.c **** \brief Retrieve this mote's current DAG rank.
 358:build\openmote-cc2538_armgcc\openstack\03b-IPv6/icmpv6rpl.c **** 
 359:build\openmote-cc2538_armgcc\openstack\03b-IPv6/icmpv6rpl.c **** \returns This mote's current DAG rank.
 360:build\openmote-cc2538_armgcc\openstack\03b-IPv6/icmpv6rpl.c **** */
 361:build\openmote-cc2538_armgcc\openstack\03b-IPv6/icmpv6rpl.c **** dagrank_t icmpv6rpl_getMyDAGrank(void) {
 1053              		.loc 1 361 0
 1054              		.cfi_startproc
 1055              		@ args = 0, pretend = 0, frame = 0
 1056              		@ frame_needed = 1, uses_anonymous_args = 0
 1057              		@ link register save eliminated.
 1058 052c 80B4     		push	{r7}
 1059              		.cfi_def_cfa_offset 4
 1060              		.cfi_offset 7, -4
 1061 052e 00AF     		add	r7, sp, #0
 1062              		.cfi_def_cfa_register 7
 362:build\openmote-cc2538_armgcc\openstack\03b-IPv6/icmpv6rpl.c ****    return icmpv6rpl_vars.myDAGrank;
 1063              		.loc 1 362 0
 1064 0530 034B     		ldr	r3, .L56
 1065 0532 B3F88630 		ldrh	r3, [r3, #134]
 363:build\openmote-cc2538_armgcc\openstack\03b-IPv6/icmpv6rpl.c **** }
 1066              		.loc 1 363 0
 1067 0536 1846     		mov	r0, r3
 1068 0538 BD46     		mov	sp, r7
 1069              		.cfi_def_cfa_register 13
 1070              		@ sp needed
 1071 053a 80BC     		pop	{r7}
 1072              		.cfi_restore 7
 1073              		.cfi_def_cfa_offset 0
 1074 053c 7047     		bx	lr
 1075              	.L57:
 1076 053e 00BF     		.align	2
 1077              	.L56:
 1078 0540 00000000 		.word	icmpv6rpl_vars
 1079              		.cfi_endproc
 1080              	.LFE12:
 1082              		.align	1
 1083              		.global	icmpv6rpl_setMyDAGrank
 1084              		.syntax unified
 1085              		.thumb
 1086              		.thumb_func
 1087              		.fpu softvfp
 1089              	icmpv6rpl_setMyDAGrank:
 1090              	.LFB13:
 364:build\openmote-cc2538_armgcc\openstack\03b-IPv6/icmpv6rpl.c **** 
 365:build\openmote-cc2538_armgcc\openstack\03b-IPv6/icmpv6rpl.c **** /**
 366:build\openmote-cc2538_armgcc\openstack\03b-IPv6/icmpv6rpl.c **** \brief Direct intervention to set the value of DAG rank in the data structure
 367:build\openmote-cc2538_armgcc\openstack\03b-IPv6/icmpv6rpl.c **** 
 368:build\openmote-cc2538_armgcc\openstack\03b-IPv6/icmpv6rpl.c **** Meant for direct control from command on serial port or from test application,
 369:build\openmote-cc2538_armgcc\openstack\03b-IPv6/icmpv6rpl.c **** bypassing the routing protocol!
 370:build\openmote-cc2538_armgcc\openstack\03b-IPv6/icmpv6rpl.c **** */
 371:build\openmote-cc2538_armgcc\openstack\03b-IPv6/icmpv6rpl.c **** void icmpv6rpl_setMyDAGrank(dagrank_t rank){
 1091              		.loc 1 371 0
 1092              		.cfi_startproc
 1093              		@ args = 0, pretend = 0, frame = 8
 1094              		@ frame_needed = 1, uses_anonymous_args = 0
 1095              		@ link register save eliminated.
 1096 0544 80B4     		push	{r7}
 1097              		.cfi_def_cfa_offset 4
 1098              		.cfi_offset 7, -4
 1099 0546 83B0     		sub	sp, sp, #12
 1100              		.cfi_def_cfa_offset 16
 1101 0548 00AF     		add	r7, sp, #0
 1102              		.cfi_def_cfa_register 7
 1103 054a 0346     		mov	r3, r0
 1104 054c FB80     		strh	r3, [r7, #6]	@ movhi
 372:build\openmote-cc2538_armgcc\openstack\03b-IPv6/icmpv6rpl.c ****     icmpv6rpl_vars.myDAGrank = rank;
 1105              		.loc 1 372 0
 1106 054e 044A     		ldr	r2, .L59
 1107 0550 FB88     		ldrh	r3, [r7, #6]	@ movhi
 1108 0552 A2F88630 		strh	r3, [r2, #134]	@ movhi
 373:build\openmote-cc2538_armgcc\openstack\03b-IPv6/icmpv6rpl.c **** }
 1109              		.loc 1 373 0
 1110 0556 00BF     		nop
 1111 0558 0C37     		adds	r7, r7, #12
 1112              		.cfi_def_cfa_offset 4
 1113 055a BD46     		mov	sp, r7
 1114              		.cfi_def_cfa_register 13
 1115              		@ sp needed
 1116 055c 80BC     		pop	{r7}
 1117              		.cfi_restore 7
 1118              		.cfi_def_cfa_offset 0
 1119 055e 7047     		bx	lr
 1120              	.L60:
 1121              		.align	2
 1122              	.L59:
 1123 0560 00000000 		.word	icmpv6rpl_vars
 1124              		.cfi_endproc
 1125              	.LFE13:
 1127              		.align	1
 1128              		.global	icmpv6rpl_updateMyDAGrankAndParentSelection
 1129              		.syntax unified
 1130              		.thumb
 1131              		.thumb_func
 1132              		.fpu softvfp
 1134              	icmpv6rpl_updateMyDAGrankAndParentSelection:
 1135              	.LFB14:
 374:build\openmote-cc2538_armgcc\openstack\03b-IPv6/icmpv6rpl.c **** 
 375:build\openmote-cc2538_armgcc\openstack\03b-IPv6/icmpv6rpl.c **** /**
 376:build\openmote-cc2538_armgcc\openstack\03b-IPv6/icmpv6rpl.c **** \brief Routing algorithm
 377:build\openmote-cc2538_armgcc\openstack\03b-IPv6/icmpv6rpl.c **** */
 378:build\openmote-cc2538_armgcc\openstack\03b-IPv6/icmpv6rpl.c **** void icmpv6rpl_updateMyDAGrankAndParentSelection(void) {
 1136              		.loc 1 378 0
 1137              		.cfi_startproc
 1138              		@ args = 0, pretend = 0, frame = 40
 1139              		@ frame_needed = 1, uses_anonymous_args = 0
 1140 0564 80B5     		push	{r7, lr}
 1141              		.cfi_def_cfa_offset 8
 1142              		.cfi_offset 7, -8
 1143              		.cfi_offset 14, -4
 1144 0566 8AB0     		sub	sp, sp, #40
 1145              		.cfi_def_cfa_offset 48
 1146 0568 00AF     		add	r7, sp, #0
 1147              		.cfi_def_cfa_register 7
 379:build\openmote-cc2538_armgcc\openstack\03b-IPv6/icmpv6rpl.c ****     uint8_t   i;
 380:build\openmote-cc2538_armgcc\openstack\03b-IPv6/icmpv6rpl.c ****     uint16_t  previousDAGrank;
 381:build\openmote-cc2538_armgcc\openstack\03b-IPv6/icmpv6rpl.c ****     uint16_t  prevRankIncrease;
 382:build\openmote-cc2538_armgcc\openstack\03b-IPv6/icmpv6rpl.c ****     uint8_t   prevParentIndex;
 383:build\openmote-cc2538_armgcc\openstack\03b-IPv6/icmpv6rpl.c ****     bool      prevHadParent;
 384:build\openmote-cc2538_armgcc\openstack\03b-IPv6/icmpv6rpl.c ****     bool      foundBetterParent;
 385:build\openmote-cc2538_armgcc\openstack\03b-IPv6/icmpv6rpl.c ****     // temporaries
 386:build\openmote-cc2538_armgcc\openstack\03b-IPv6/icmpv6rpl.c ****     uint16_t  rankIncrease;
 387:build\openmote-cc2538_armgcc\openstack\03b-IPv6/icmpv6rpl.c ****     dagrank_t neighborRank;
 388:build\openmote-cc2538_armgcc\openstack\03b-IPv6/icmpv6rpl.c ****     uint32_t  tentativeDAGrank;
 389:build\openmote-cc2538_armgcc\openstack\03b-IPv6/icmpv6rpl.c **** 
 390:build\openmote-cc2538_armgcc\openstack\03b-IPv6/icmpv6rpl.c ****     open_addr_t newParent;
 391:build\openmote-cc2538_armgcc\openstack\03b-IPv6/icmpv6rpl.c **** 
 392:build\openmote-cc2538_armgcc\openstack\03b-IPv6/icmpv6rpl.c ****     // if I'm a DAGroot, my DAGrank is always MINHOPRANKINCREASE
 393:build\openmote-cc2538_armgcc\openstack\03b-IPv6/icmpv6rpl.c ****     if ((idmanager_getIsDAGroot())==TRUE) {
 1148              		.loc 1 393 0
 1149 056a FFF7FEFF 		bl	idmanager_getIsDAGroot
 1150 056e 0346     		mov	r3, r0
 1151 0570 002B     		cmp	r3, #0
 1152 0572 0BD0     		beq	.L62
 394:build\openmote-cc2538_armgcc\openstack\03b-IPv6/icmpv6rpl.c ****         // the dagrank is not set through setting command, set rank to MINHOPRANKINCREASE here
 395:build\openmote-cc2538_armgcc\openstack\03b-IPv6/icmpv6rpl.c ****         if (icmpv6rpl_vars.myDAGrank!=MINHOPRANKINCREASE) { // test for change so as not to report 
 1153              		.loc 1 395 0
 1154 0574 9A4B     		ldr	r3, .L88
 1155 0576 B3F88630 		ldrh	r3, [r3, #134]
 1156 057a B3F5807F 		cmp	r3, #256
 1157 057e 05D0     		beq	.L62
 396:build\openmote-cc2538_armgcc\openstack\03b-IPv6/icmpv6rpl.c ****             icmpv6rpl_vars.myDAGrank=MINHOPRANKINCREASE;
 1158              		.loc 1 396 0
 1159 0580 974B     		ldr	r3, .L88
 1160 0582 4FF48072 		mov	r2, #256
 1161 0586 A3F88620 		strh	r2, [r3, #134]	@ movhi
 397:build\openmote-cc2538_armgcc\openstack\03b-IPv6/icmpv6rpl.c ****             return;
 1162              		.loc 1 397 0
 1163 058a 26E1     		b	.L61
 1164              	.L62:
 398:build\openmote-cc2538_armgcc\openstack\03b-IPv6/icmpv6rpl.c ****         }
 399:build\openmote-cc2538_armgcc\openstack\03b-IPv6/icmpv6rpl.c ****     }
 400:build\openmote-cc2538_armgcc\openstack\03b-IPv6/icmpv6rpl.c ****     // prep for loop, remember state before neighbor table scanning
 401:build\openmote-cc2538_armgcc\openstack\03b-IPv6/icmpv6rpl.c ****     prevParentIndex      = icmpv6rpl_vars.ParentIndex;
 1165              		.loc 1 401 0
 1166 058c 944B     		ldr	r3, .L88
 1167 058e 93F88B30 		ldrb	r3, [r3, #139]
 1168 0592 FB77     		strb	r3, [r7, #31]
 402:build\openmote-cc2538_armgcc\openstack\03b-IPv6/icmpv6rpl.c ****     prevHadParent        = icmpv6rpl_vars.haveParent;
 1169              		.loc 1 402 0
 1170 0594 924B     		ldr	r3, .L88
 1171 0596 93F88A30 		ldrb	r3, [r3, #138]
 1172 059a BB77     		strb	r3, [r7, #30]
 403:build\openmote-cc2538_armgcc\openstack\03b-IPv6/icmpv6rpl.c ****     prevRankIncrease     = icmpv6rpl_vars.rankIncrease;
 1173              		.loc 1 403 0
 1174 059c 904B     		ldr	r3, .L88
 1175 059e B3F88830 		ldrh	r3, [r3, #136]	@ movhi
 1176 05a2 BB83     		strh	r3, [r7, #28]	@ movhi
 404:build\openmote-cc2538_armgcc\openstack\03b-IPv6/icmpv6rpl.c ****     // update my rank to current parent first
 405:build\openmote-cc2538_armgcc\openstack\03b-IPv6/icmpv6rpl.c ****     if (icmpv6rpl_vars.haveParent==TRUE){
 1177              		.loc 1 405 0
 1178 05a4 8E4B     		ldr	r3, .L88
 1179 05a6 93F88A30 		ldrb	r3, [r3, #138]	@ zero_extendqisi2
 1180 05aa 002B     		cmp	r3, #0
 1181 05ac 47D0     		beq	.L64
 406:build\openmote-cc2538_armgcc\openstack\03b-IPv6/icmpv6rpl.c **** 
 407:build\openmote-cc2538_armgcc\openstack\03b-IPv6/icmpv6rpl.c ****         if (
 408:build\openmote-cc2538_armgcc\openstack\03b-IPv6/icmpv6rpl.c ****             neighbors_getNeighborNoResource(icmpv6rpl_vars.ParentIndex)    == TRUE ||
 1182              		.loc 1 408 0
 1183 05ae 8C4B     		ldr	r3, .L88
 1184 05b0 93F88B30 		ldrb	r3, [r3, #139]	@ zero_extendqisi2
 1185 05b4 1846     		mov	r0, r3
 1186 05b6 FFF7FEFF 		bl	neighbors_getNeighborNoResource
 1187 05ba 0346     		mov	r3, r0
 407:build\openmote-cc2538_armgcc\openstack\03b-IPv6/icmpv6rpl.c ****             neighbors_getNeighborNoResource(icmpv6rpl_vars.ParentIndex)    == TRUE ||
 1188              		.loc 1 407 0
 1189 05bc 002B     		cmp	r3, #0
 1190 05be 08D1     		bne	.L65
 409:build\openmote-cc2538_armgcc\openstack\03b-IPv6/icmpv6rpl.c ****             neighbors_getNeighborIsInBlacklist(icmpv6rpl_vars.ParentIndex) == TRUE
 1191              		.loc 1 409 0
 1192 05c0 874B     		ldr	r3, .L88
 1193 05c2 93F88B30 		ldrb	r3, [r3, #139]	@ zero_extendqisi2
 1194 05c6 1846     		mov	r0, r3
 1195 05c8 FFF7FEFF 		bl	neighbors_getNeighborIsInBlacklist
 1196 05cc 0346     		mov	r3, r0
 408:build\openmote-cc2538_armgcc\openstack\03b-IPv6/icmpv6rpl.c ****             neighbors_getNeighborIsInBlacklist(icmpv6rpl_vars.ParentIndex) == TRUE
 1197              		.loc 1 408 0
 1198 05ce 002B     		cmp	r3, #0
 1199 05d0 05D0     		beq	.L66
 1200              	.L65:
 410:build\openmote-cc2538_armgcc\openstack\03b-IPv6/icmpv6rpl.c ****         ){
 411:build\openmote-cc2538_armgcc\openstack\03b-IPv6/icmpv6rpl.c ****             icmpv6rpl_vars.myDAGrank = 65535;
 1201              		.loc 1 411 0
 1202 05d2 834B     		ldr	r3, .L88
 1203 05d4 4FF6FF72 		movw	r2, #65535
 1204 05d8 A3F88620 		strh	r2, [r3, #134]	@ movhi
 1205 05dc 2FE0     		b	.L64
 1206              	.L66:
 412:build\openmote-cc2538_armgcc\openstack\03b-IPv6/icmpv6rpl.c ****         } else {
 413:build\openmote-cc2538_armgcc\openstack\03b-IPv6/icmpv6rpl.c ****             if (neighbors_reachedMinimalTransmission(icmpv6rpl_vars.ParentIndex)==FALSE){
 1207              		.loc 1 413 0
 1208 05de 804B     		ldr	r3, .L88
 1209 05e0 93F88B30 		ldrb	r3, [r3, #139]	@ zero_extendqisi2
 1210 05e4 1846     		mov	r0, r3
 1211 05e6 FFF7FEFF 		bl	neighbors_reachedMinimalTransmission
 1212 05ea 0346     		mov	r3, r0
 1213 05ec 83F00103 		eor	r3, r3, #1
 1214 05f0 DBB2     		uxtb	r3, r3
 1215 05f2 002B     		cmp	r3, #0
 1216 05f4 40F0F080 		bne	.L84
 414:build\openmote-cc2538_armgcc\openstack\03b-IPv6/icmpv6rpl.c ****                 // I havn't enough transmission to my parent, don't update.
 415:build\openmote-cc2538_armgcc\openstack\03b-IPv6/icmpv6rpl.c ****                 return;
 416:build\openmote-cc2538_armgcc\openstack\03b-IPv6/icmpv6rpl.c ****             }
 417:build\openmote-cc2538_armgcc\openstack\03b-IPv6/icmpv6rpl.c ****             rankIncrease     = neighbors_getLinkMetric(icmpv6rpl_vars.ParentIndex);
 1217              		.loc 1 417 0
 1218 05f8 794B     		ldr	r3, .L88
 1219 05fa 93F88B30 		ldrb	r3, [r3, #139]	@ zero_extendqisi2
 1220 05fe 1846     		mov	r0, r3
 1221 0600 FFF7FEFF 		bl	neighbors_getLinkMetric
 1222 0604 0346     		mov	r3, r0
 1223 0606 7B83     		strh	r3, [r7, #26]	@ movhi
 418:build\openmote-cc2538_armgcc\openstack\03b-IPv6/icmpv6rpl.c ****             neighborRank     = neighbors_getNeighborRank(icmpv6rpl_vars.ParentIndex);
 1224              		.loc 1 418 0
 1225 0608 754B     		ldr	r3, .L88
 1226 060a 93F88B30 		ldrb	r3, [r3, #139]	@ zero_extendqisi2
 1227 060e 1846     		mov	r0, r3
 1228 0610 FFF7FEFF 		bl	neighbors_getNeighborRank
 1229 0614 0346     		mov	r3, r0
 1230 0616 3B83     		strh	r3, [r7, #24]	@ movhi
 419:build\openmote-cc2538_armgcc\openstack\03b-IPv6/icmpv6rpl.c ****             tentativeDAGrank = (uint32_t)neighborRank+rankIncrease;
 1231              		.loc 1 419 0
 1232 0618 3A8B     		ldrh	r2, [r7, #24]
 1233 061a 7B8B     		ldrh	r3, [r7, #26]
 1234 061c 1344     		add	r3, r3, r2
 1235 061e 3B62     		str	r3, [r7, #32]
 420:build\openmote-cc2538_armgcc\openstack\03b-IPv6/icmpv6rpl.c ****             if (tentativeDAGrank>65535) {
 1236              		.loc 1 420 0
 1237 0620 3B6A     		ldr	r3, [r7, #32]
 1238 0622 B3F5803F 		cmp	r3, #65536
 1239 0626 05D3     		bcc	.L68
 421:build\openmote-cc2538_armgcc\openstack\03b-IPv6/icmpv6rpl.c ****                 icmpv6rpl_vars.myDAGrank = 65535;
 1240              		.loc 1 421 0
 1241 0628 6D4B     		ldr	r3, .L88
 1242 062a 4FF6FF72 		movw	r2, #65535
 1243 062e A3F88620 		strh	r2, [r3, #134]	@ movhi
 1244 0632 04E0     		b	.L64
 1245              	.L68:
 422:build\openmote-cc2538_armgcc\openstack\03b-IPv6/icmpv6rpl.c ****             } else {
 423:build\openmote-cc2538_armgcc\openstack\03b-IPv6/icmpv6rpl.c ****                 icmpv6rpl_vars.myDAGrank = (uint16_t)tentativeDAGrank;
 1246              		.loc 1 423 0
 1247 0634 3B6A     		ldr	r3, [r7, #32]
 1248 0636 9AB2     		uxth	r2, r3
 1249 0638 694B     		ldr	r3, .L88
 1250 063a A3F88620 		strh	r2, [r3, #134]	@ movhi
 1251              	.L64:
 424:build\openmote-cc2538_armgcc\openstack\03b-IPv6/icmpv6rpl.c ****             }
 425:build\openmote-cc2538_armgcc\openstack\03b-IPv6/icmpv6rpl.c ****         }
 426:build\openmote-cc2538_armgcc\openstack\03b-IPv6/icmpv6rpl.c ****     }
 427:build\openmote-cc2538_armgcc\openstack\03b-IPv6/icmpv6rpl.c ****     previousDAGrank      = icmpv6rpl_vars.myDAGrank;
 1252              		.loc 1 427 0
 1253 063e 684B     		ldr	r3, .L88
 1254 0640 B3F88630 		ldrh	r3, [r3, #134]	@ movhi
 1255 0644 FB82     		strh	r3, [r7, #22]	@ movhi
 428:build\openmote-cc2538_armgcc\openstack\03b-IPv6/icmpv6rpl.c ****     foundBetterParent    = FALSE;
 1256              		.loc 1 428 0
 1257 0646 0023     		movs	r3, #0
 1258 0648 87F82630 		strb	r3, [r7, #38]
 429:build\openmote-cc2538_armgcc\openstack\03b-IPv6/icmpv6rpl.c ****     icmpv6rpl_vars.haveParent = FALSE;
 1259              		.loc 1 429 0
 1260 064c 644B     		ldr	r3, .L88
 1261 064e 0022     		movs	r2, #0
 1262 0650 83F88A20 		strb	r2, [r3, #138]
 430:build\openmote-cc2538_armgcc\openstack\03b-IPv6/icmpv6rpl.c **** 
 431:build\openmote-cc2538_armgcc\openstack\03b-IPv6/icmpv6rpl.c ****     // loop through neighbor table, update myDAGrank
 432:build\openmote-cc2538_armgcc\openstack\03b-IPv6/icmpv6rpl.c ****     for (i=0;i<MAXNUMNEIGHBORS;i++) {
 1263              		.loc 1 432 0
 1264 0654 0023     		movs	r3, #0
 1265 0656 87F82730 		strb	r3, [r7, #39]
 1266 065a 62E0     		b	.L69
 1267              	.L77:
 433:build\openmote-cc2538_armgcc\openstack\03b-IPv6/icmpv6rpl.c ****         if (neighbors_isStableNeighborByIndex(i)) { // in use and link is stable
 1268              		.loc 1 433 0
 1269 065c 97F82730 		ldrb	r3, [r7, #39]	@ zero_extendqisi2
 1270 0660 1846     		mov	r0, r3
 1271 0662 FFF7FEFF 		bl	neighbors_isStableNeighborByIndex
 1272 0666 0346     		mov	r3, r0
 1273 0668 002B     		cmp	r3, #0
 1274 066a 55D0     		beq	.L70
 434:build\openmote-cc2538_armgcc\openstack\03b-IPv6/icmpv6rpl.c ****             // neighbor marked as NORES can't be parent
 435:build\openmote-cc2538_armgcc\openstack\03b-IPv6/icmpv6rpl.c ****             if (
 436:build\openmote-cc2538_armgcc\openstack\03b-IPv6/icmpv6rpl.c ****                 neighbors_getNeighborNoResource(i)   == TRUE ||
 1275              		.loc 1 436 0
 1276 066c 97F82730 		ldrb	r3, [r7, #39]	@ zero_extendqisi2
 1277 0670 1846     		mov	r0, r3
 1278 0672 FFF7FEFF 		bl	neighbors_getNeighborNoResource
 1279 0676 0346     		mov	r3, r0
 435:build\openmote-cc2538_armgcc\openstack\03b-IPv6/icmpv6rpl.c ****                 neighbors_getNeighborNoResource(i)   == TRUE ||
 1280              		.loc 1 435 0
 1281 0678 002B     		cmp	r3, #0
 1282 067a 48D1     		bne	.L85
 437:build\openmote-cc2538_armgcc\openstack\03b-IPv6/icmpv6rpl.c ****                 neighbors_getNeighborIsInBlacklist(i)== TRUE
 1283              		.loc 1 437 0
 1284 067c 97F82730 		ldrb	r3, [r7, #39]	@ zero_extendqisi2
 1285 0680 1846     		mov	r0, r3
 1286 0682 FFF7FEFF 		bl	neighbors_getNeighborIsInBlacklist
 1287 0686 0346     		mov	r3, r0
 436:build\openmote-cc2538_armgcc\openstack\03b-IPv6/icmpv6rpl.c ****                 neighbors_getNeighborIsInBlacklist(i)== TRUE
 1288              		.loc 1 436 0
 1289 0688 002B     		cmp	r3, #0
 1290 068a 40D1     		bne	.L85
 438:build\openmote-cc2538_armgcc\openstack\03b-IPv6/icmpv6rpl.c ****             ) {
 439:build\openmote-cc2538_armgcc\openstack\03b-IPv6/icmpv6rpl.c ****                 continue;
 440:build\openmote-cc2538_armgcc\openstack\03b-IPv6/icmpv6rpl.c ****             }
 441:build\openmote-cc2538_armgcc\openstack\03b-IPv6/icmpv6rpl.c ****             // get link cost to this neighbor
 442:build\openmote-cc2538_armgcc\openstack\03b-IPv6/icmpv6rpl.c ****             rankIncrease=neighbors_getLinkMetric(i);
 1291              		.loc 1 442 0
 1292 068c 97F82730 		ldrb	r3, [r7, #39]	@ zero_extendqisi2
 1293 0690 1846     		mov	r0, r3
 1294 0692 FFF7FEFF 		bl	neighbors_getLinkMetric
 1295 0696 0346     		mov	r3, r0
 1296 0698 7B83     		strh	r3, [r7, #26]	@ movhi
 443:build\openmote-cc2538_armgcc\openstack\03b-IPv6/icmpv6rpl.c ****             // get this neighbor's advertized rank
 444:build\openmote-cc2538_armgcc\openstack\03b-IPv6/icmpv6rpl.c ****             neighborRank=neighbors_getNeighborRank(i);
 1297              		.loc 1 444 0
 1298 069a 97F82730 		ldrb	r3, [r7, #39]	@ zero_extendqisi2
 1299 069e 1846     		mov	r0, r3
 1300 06a0 FFF7FEFF 		bl	neighbors_getNeighborRank
 1301 06a4 0346     		mov	r3, r0
 1302 06a6 3B83     		strh	r3, [r7, #24]	@ movhi
 445:build\openmote-cc2538_armgcc\openstack\03b-IPv6/icmpv6rpl.c ****             // if this neighbor has unknown/infinite rank, pass on it
 446:build\openmote-cc2538_armgcc\openstack\03b-IPv6/icmpv6rpl.c ****             if (neighborRank==DEFAULTDAGRANK) continue;
 1303              		.loc 1 446 0
 1304 06a8 3B8B     		ldrh	r3, [r7, #24]
 1305 06aa 4FF6FF72 		movw	r2, #65535
 1306 06ae 9342     		cmp	r3, r2
 1307 06b0 2FD0     		beq	.L86
 447:build\openmote-cc2538_armgcc\openstack\03b-IPv6/icmpv6rpl.c ****             // compute tentative cost of full path to root through this neighbor
 448:build\openmote-cc2538_armgcc\openstack\03b-IPv6/icmpv6rpl.c ****             tentativeDAGrank = (uint32_t)neighborRank+rankIncrease;
 1308              		.loc 1 448 0
 1309 06b2 3A8B     		ldrh	r2, [r7, #24]
 1310 06b4 7B8B     		ldrh	r3, [r7, #26]
 1311 06b6 1344     		add	r3, r3, r2
 1312 06b8 3B62     		str	r3, [r7, #32]
 449:build\openmote-cc2538_armgcc\openstack\03b-IPv6/icmpv6rpl.c ****             if (tentativeDAGrank > 65535) {tentativeDAGrank = 65535;}
 1313              		.loc 1 449 0
 1314 06ba 3B6A     		ldr	r3, [r7, #32]
 1315 06bc B3F5803F 		cmp	r3, #65536
 1316 06c0 02D3     		bcc	.L74
 1317              		.loc 1 449 0 is_stmt 0 discriminator 1
 1318 06c2 4FF6FF73 		movw	r3, #65535
 1319 06c6 3B62     		str	r3, [r7, #32]
 1320              	.L74:
 450:build\openmote-cc2538_armgcc\openstack\03b-IPv6/icmpv6rpl.c ****             // if not low enough to justify switch, pass (i.e. hysterisis)
 451:build\openmote-cc2538_armgcc\openstack\03b-IPv6/icmpv6rpl.c ****             if (
 452:build\openmote-cc2538_armgcc\openstack\03b-IPv6/icmpv6rpl.c ****                 (previousDAGrank<tentativeDAGrank) ||
 1321              		.loc 1 452 0 is_stmt 1
 1322 06c8 FB8A     		ldrh	r3, [r7, #22]
 451:build\openmote-cc2538_armgcc\openstack\03b-IPv6/icmpv6rpl.c ****                 (previousDAGrank<tentativeDAGrank) ||
 1323              		.loc 1 451 0
 1324 06ca 3A6A     		ldr	r2, [r7, #32]
 1325 06cc 9A42     		cmp	r2, r3
 1326 06ce 22D8     		bhi	.L87
 453:build\openmote-cc2538_armgcc\openstack\03b-IPv6/icmpv6rpl.c ****                 (previousDAGrank-tentativeDAGrank < 2*MINHOPRANKINCREASE)
 1327              		.loc 1 453 0
 1328 06d0 FA8A     		ldrh	r2, [r7, #22]
 1329 06d2 3B6A     		ldr	r3, [r7, #32]
 1330 06d4 D31A     		subs	r3, r2, r3
 452:build\openmote-cc2538_armgcc\openstack\03b-IPv6/icmpv6rpl.c ****                 (previousDAGrank-tentativeDAGrank < 2*MINHOPRANKINCREASE)
 1331              		.loc 1 452 0
 1332 06d6 B3F5007F 		cmp	r3, #512
 1333 06da 1CD3     		bcc	.L87
 454:build\openmote-cc2538_armgcc\openstack\03b-IPv6/icmpv6rpl.c ****             ) {
 455:build\openmote-cc2538_armgcc\openstack\03b-IPv6/icmpv6rpl.c ****                   continue;
 456:build\openmote-cc2538_armgcc\openstack\03b-IPv6/icmpv6rpl.c ****             }
 457:build\openmote-cc2538_armgcc\openstack\03b-IPv6/icmpv6rpl.c ****             // remember that we have at least one valid candidate parent
 458:build\openmote-cc2538_armgcc\openstack\03b-IPv6/icmpv6rpl.c ****             foundBetterParent=TRUE;
 1334              		.loc 1 458 0
 1335 06dc 0123     		movs	r3, #1
 1336 06de 87F82630 		strb	r3, [r7, #38]
 459:build\openmote-cc2538_armgcc\openstack\03b-IPv6/icmpv6rpl.c ****             // select best candidate so far
 460:build\openmote-cc2538_armgcc\openstack\03b-IPv6/icmpv6rpl.c ****             if (icmpv6rpl_vars.myDAGrank>tentativeDAGrank) {
 1337              		.loc 1 460 0
 1338 06e2 3F4B     		ldr	r3, .L88
 1339 06e4 B3F88630 		ldrh	r3, [r3, #134]
 1340 06e8 1A46     		mov	r2, r3
 1341 06ea 3B6A     		ldr	r3, [r7, #32]
 1342 06ec 9342     		cmp	r3, r2
 1343 06ee 13D2     		bcs	.L70
 461:build\openmote-cc2538_armgcc\openstack\03b-IPv6/icmpv6rpl.c ****                 icmpv6rpl_vars.myDAGrank    = (uint16_t)tentativeDAGrank;
 1344              		.loc 1 461 0
 1345 06f0 3B6A     		ldr	r3, [r7, #32]
 1346 06f2 9AB2     		uxth	r2, r3
 1347 06f4 3A4B     		ldr	r3, .L88
 1348 06f6 A3F88620 		strh	r2, [r3, #134]	@ movhi
 462:build\openmote-cc2538_armgcc\openstack\03b-IPv6/icmpv6rpl.c ****                 icmpv6rpl_vars.ParentIndex  = i;
 1349              		.loc 1 462 0
 1350 06fa 394A     		ldr	r2, .L88
 1351 06fc 97F82730 		ldrb	r3, [r7, #39]
 1352 0700 82F88B30 		strb	r3, [r2, #139]
 463:build\openmote-cc2538_armgcc\openstack\03b-IPv6/icmpv6rpl.c ****                 icmpv6rpl_vars.rankIncrease = rankIncrease;
 1353              		.loc 1 463 0
 1354 0704 364A     		ldr	r2, .L88
 1355 0706 7B8B     		ldrh	r3, [r7, #26]	@ movhi
 1356 0708 A2F88830 		strh	r3, [r2, #136]	@ movhi
 1357 070c 04E0     		b	.L70
 1358              	.L85:
 439:build\openmote-cc2538_armgcc\openstack\03b-IPv6/icmpv6rpl.c ****             }
 1359              		.loc 1 439 0
 1360 070e 00BF     		nop
 1361 0710 02E0     		b	.L70
 1362              	.L86:
 446:build\openmote-cc2538_armgcc\openstack\03b-IPv6/icmpv6rpl.c ****             // compute tentative cost of full path to root through this neighbor
 1363              		.loc 1 446 0
 1364 0712 00BF     		nop
 1365 0714 00E0     		b	.L70
 1366              	.L87:
 455:build\openmote-cc2538_armgcc\openstack\03b-IPv6/icmpv6rpl.c ****             }
 1367              		.loc 1 455 0
 1368 0716 00BF     		nop
 1369              	.L70:
 432:build\openmote-cc2538_armgcc\openstack\03b-IPv6/icmpv6rpl.c ****         if (neighbors_isStableNeighborByIndex(i)) { // in use and link is stable
 1370              		.loc 1 432 0 discriminator 2
 1371 0718 97F82730 		ldrb	r3, [r7, #39]	@ zero_extendqisi2
 1372 071c 0133     		adds	r3, r3, #1
 1373 071e 87F82730 		strb	r3, [r7, #39]
 1374              	.L69:
 432:build\openmote-cc2538_armgcc\openstack\03b-IPv6/icmpv6rpl.c ****         if (neighbors_isStableNeighborByIndex(i)) { // in use and link is stable
 1375              		.loc 1 432 0 is_stmt 0 discriminator 1
 1376 0722 97F82730 		ldrb	r3, [r7, #39]	@ zero_extendqisi2
 1377 0726 1D2B     		cmp	r3, #29
 1378 0728 98D9     		bls	.L77
 464:build\openmote-cc2538_armgcc\openstack\03b-IPv6/icmpv6rpl.c ****             }
 465:build\openmote-cc2538_armgcc\openstack\03b-IPv6/icmpv6rpl.c ****         }
 466:build\openmote-cc2538_armgcc\openstack\03b-IPv6/icmpv6rpl.c ****     }
 467:build\openmote-cc2538_armgcc\openstack\03b-IPv6/icmpv6rpl.c **** 
 468:build\openmote-cc2538_armgcc\openstack\03b-IPv6/icmpv6rpl.c ****     if (foundBetterParent) {
 1379              		.loc 1 468 0 is_stmt 1
 1380 072a 97F82630 		ldrb	r3, [r7, #38]	@ zero_extendqisi2
 1381 072e 002B     		cmp	r3, #0
 1382 0730 41D0     		beq	.L78
 469:build\openmote-cc2538_armgcc\openstack\03b-IPv6/icmpv6rpl.c ****         icmpv6rpl_vars.haveParent=TRUE;
 1383              		.loc 1 469 0
 1384 0732 2B4B     		ldr	r3, .L88
 1385 0734 0122     		movs	r2, #1
 1386 0736 83F88A20 		strb	r2, [r3, #138]
 470:build\openmote-cc2538_armgcc\openstack\03b-IPv6/icmpv6rpl.c ****         if (!prevHadParent) {
 1387              		.loc 1 470 0
 1388 073a BB7F     		ldrb	r3, [r7, #30]
 1389 073c 83F00103 		eor	r3, r3, #1
 1390 0740 DBB2     		uxtb	r3, r3
 1391 0742 002B     		cmp	r3, #0
 1392 0744 18D0     		beq	.L79
 471:build\openmote-cc2538_armgcc\openstack\03b-IPv6/icmpv6rpl.c ****             // in case preParent is killed before calling this function, clear the preferredParent 
 472:build\openmote-cc2538_armgcc\openstack\03b-IPv6/icmpv6rpl.c ****             neighbors_setPreferredParent(prevParentIndex, FALSE);
 1393              		.loc 1 472 0
 1394 0746 FB7F     		ldrb	r3, [r7, #31]	@ zero_extendqisi2
 1395 0748 0021     		movs	r1, #0
 1396 074a 1846     		mov	r0, r3
 1397 074c FFF7FEFF 		bl	neighbors_setPreferredParent
 473:build\openmote-cc2538_armgcc\openstack\03b-IPv6/icmpv6rpl.c ****             // set neighbors as preferred parent
 474:build\openmote-cc2538_armgcc\openstack\03b-IPv6/icmpv6rpl.c ****             neighbors_setPreferredParent(icmpv6rpl_vars.ParentIndex, TRUE);
 1398              		.loc 1 474 0
 1399 0750 234B     		ldr	r3, .L88
 1400 0752 93F88B30 		ldrb	r3, [r3, #139]	@ zero_extendqisi2
 1401 0756 0121     		movs	r1, #1
 1402 0758 1846     		mov	r0, r3
 1403 075a FFF7FEFF 		bl	neighbors_setPreferredParent
 475:build\openmote-cc2538_armgcc\openstack\03b-IPv6/icmpv6rpl.c **** 
 476:build\openmote-cc2538_armgcc\openstack\03b-IPv6/icmpv6rpl.c ****             // update the upstream traffic nexthop address to new parent
 477:build\openmote-cc2538_armgcc\openstack\03b-IPv6/icmpv6rpl.c ****             neighbors_getNeighborEui64(&newParent,ADDR_64B,icmpv6rpl_vars.ParentIndex);
 1404              		.loc 1 477 0
 1405 075e 204B     		ldr	r3, .L88
 1406 0760 93F88B20 		ldrb	r2, [r3, #139]	@ zero_extendqisi2
 1407 0764 3B1D     		adds	r3, r7, #4
 1408 0766 0221     		movs	r1, #2
 1409 0768 1846     		mov	r0, r3
 1410 076a FFF7FEFF 		bl	neighbors_getNeighborEui64
 478:build\openmote-cc2538_armgcc\openstack\03b-IPv6/icmpv6rpl.c ****             icmpv6rpl_updateNexthopAddress(&newParent);
 1411              		.loc 1 478 0
 1412 076e 3B1D     		adds	r3, r7, #4
 1413 0770 1846     		mov	r0, r3
 1414 0772 FFF7FEFF 		bl	icmpv6rpl_updateNexthopAddress
 1415 0776 30E0     		b	.L61
 1416              	.L79:
 479:build\openmote-cc2538_armgcc\openstack\03b-IPv6/icmpv6rpl.c **** 
 480:build\openmote-cc2538_armgcc\openstack\03b-IPv6/icmpv6rpl.c **** 
 481:build\openmote-cc2538_armgcc\openstack\03b-IPv6/icmpv6rpl.c ****         } else {
 482:build\openmote-cc2538_armgcc\openstack\03b-IPv6/icmpv6rpl.c ****             if (icmpv6rpl_vars.ParentIndex==prevParentIndex) {
 1417              		.loc 1 482 0
 1418 0778 194B     		ldr	r3, .L88
 1419 077a 93F88B30 		ldrb	r3, [r3, #139]	@ zero_extendqisi2
 1420 077e FA7F     		ldrb	r2, [r7, #31]	@ zero_extendqisi2
 1421 0780 9A42     		cmp	r2, r3
 1422 0782 2AD0     		beq	.L61
 483:build\openmote-cc2538_armgcc\openstack\03b-IPv6/icmpv6rpl.c ****                 // report on the rank change if any, not on the deletion/creation of parent
 484:build\openmote-cc2538_armgcc\openstack\03b-IPv6/icmpv6rpl.c ****                 if (icmpv6rpl_vars.myDAGrank!=previousDAGrank) {
 485:build\openmote-cc2538_armgcc\openstack\03b-IPv6/icmpv6rpl.c ****                 } else {
 486:build\openmote-cc2538_armgcc\openstack\03b-IPv6/icmpv6rpl.c ****                     // same parent, same rank, nothing to report about
 487:build\openmote-cc2538_armgcc\openstack\03b-IPv6/icmpv6rpl.c ****                 }
 488:build\openmote-cc2538_armgcc\openstack\03b-IPv6/icmpv6rpl.c ****             } else {
 489:build\openmote-cc2538_armgcc\openstack\03b-IPv6/icmpv6rpl.c ****                 // clear neighbors preferredParent flag
 490:build\openmote-cc2538_armgcc\openstack\03b-IPv6/icmpv6rpl.c ****                 neighbors_setPreferredParent(prevParentIndex, FALSE);
 1423              		.loc 1 490 0
 1424 0784 FB7F     		ldrb	r3, [r7, #31]	@ zero_extendqisi2
 1425 0786 0021     		movs	r1, #0
 1426 0788 1846     		mov	r0, r3
 1427 078a FFF7FEFF 		bl	neighbors_setPreferredParent
 491:build\openmote-cc2538_armgcc\openstack\03b-IPv6/icmpv6rpl.c ****                 // set neighbors as preferred parent
 492:build\openmote-cc2538_armgcc\openstack\03b-IPv6/icmpv6rpl.c ****                 neighbors_setPreferredParent(icmpv6rpl_vars.ParentIndex, TRUE);
 1428              		.loc 1 492 0
 1429 078e 144B     		ldr	r3, .L88
 1430 0790 93F88B30 		ldrb	r3, [r3, #139]	@ zero_extendqisi2
 1431 0794 0121     		movs	r1, #1
 1432 0796 1846     		mov	r0, r3
 1433 0798 FFF7FEFF 		bl	neighbors_setPreferredParent
 493:build\openmote-cc2538_armgcc\openstack\03b-IPv6/icmpv6rpl.c **** 
 494:build\openmote-cc2538_armgcc\openstack\03b-IPv6/icmpv6rpl.c ****                 // update the upstream traffic nexthop address to new parent
 495:build\openmote-cc2538_armgcc\openstack\03b-IPv6/icmpv6rpl.c ****                 neighbors_getNeighborEui64(&newParent,ADDR_64B,icmpv6rpl_vars.ParentIndex);
 1434              		.loc 1 495 0
 1435 079c 104B     		ldr	r3, .L88
 1436 079e 93F88B20 		ldrb	r2, [r3, #139]	@ zero_extendqisi2
 1437 07a2 3B1D     		adds	r3, r7, #4
 1438 07a4 0221     		movs	r1, #2
 1439 07a6 1846     		mov	r0, r3
 1440 07a8 FFF7FEFF 		bl	neighbors_getNeighborEui64
 496:build\openmote-cc2538_armgcc\openstack\03b-IPv6/icmpv6rpl.c ****                 icmpv6rpl_updateNexthopAddress(&newParent);
 1441              		.loc 1 496 0
 1442 07ac 3B1D     		adds	r3, r7, #4
 1443 07ae 1846     		mov	r0, r3
 1444 07b0 FFF7FEFF 		bl	icmpv6rpl_updateNexthopAddress
 1445 07b4 11E0     		b	.L61
 1446              	.L78:
 497:build\openmote-cc2538_armgcc\openstack\03b-IPv6/icmpv6rpl.c ****             }
 498:build\openmote-cc2538_armgcc\openstack\03b-IPv6/icmpv6rpl.c ****         }
 499:build\openmote-cc2538_armgcc\openstack\03b-IPv6/icmpv6rpl.c ****     } else {
 500:build\openmote-cc2538_armgcc\openstack\03b-IPv6/icmpv6rpl.c ****         // restore routing table as we found it on entry
 501:build\openmote-cc2538_armgcc\openstack\03b-IPv6/icmpv6rpl.c ****         icmpv6rpl_vars.myDAGrank   = previousDAGrank;
 1447              		.loc 1 501 0
 1448 07b6 0A4A     		ldr	r2, .L88
 1449 07b8 FB8A     		ldrh	r3, [r7, #22]	@ movhi
 1450 07ba A2F88630 		strh	r3, [r2, #134]	@ movhi
 502:build\openmote-cc2538_armgcc\openstack\03b-IPv6/icmpv6rpl.c ****         icmpv6rpl_vars.ParentIndex = prevParentIndex;
 1451              		.loc 1 502 0
 1452 07be 084A     		ldr	r2, .L88
 1453 07c0 FB7F     		ldrb	r3, [r7, #31]
 1454 07c2 82F88B30 		strb	r3, [r2, #139]
 503:build\openmote-cc2538_armgcc\openstack\03b-IPv6/icmpv6rpl.c ****         icmpv6rpl_vars.haveParent  = prevHadParent;
 1455              		.loc 1 503 0
 1456 07c6 064A     		ldr	r2, .L88
 1457 07c8 BB7F     		ldrb	r3, [r7, #30]
 1458 07ca 82F88A30 		strb	r3, [r2, #138]
 504:build\openmote-cc2538_armgcc\openstack\03b-IPv6/icmpv6rpl.c ****         icmpv6rpl_vars.rankIncrease= prevRankIncrease;
 1459              		.loc 1 504 0
 1460 07ce 044A     		ldr	r2, .L88
 1461 07d0 BB8B     		ldrh	r3, [r7, #28]	@ movhi
 1462 07d2 A2F88830 		strh	r3, [r2, #136]	@ movhi
 1463 07d6 00E0     		b	.L61
 1464              	.L84:
 415:build\openmote-cc2538_armgcc\openstack\03b-IPv6/icmpv6rpl.c ****             }
 1465              		.loc 1 415 0
 1466 07d8 00BF     		nop
 1467              	.L61:
 505:build\openmote-cc2538_armgcc\openstack\03b-IPv6/icmpv6rpl.c ****         // no change to report on
 506:build\openmote-cc2538_armgcc\openstack\03b-IPv6/icmpv6rpl.c ****     }
 507:build\openmote-cc2538_armgcc\openstack\03b-IPv6/icmpv6rpl.c **** }
 1468              		.loc 1 507 0
 1469 07da 2837     		adds	r7, r7, #40
 1470              		.cfi_def_cfa_offset 8
 1471 07dc BD46     		mov	sp, r7
 1472              		.cfi_def_cfa_register 13
 1473              		@ sp needed
 1474 07de 80BD     		pop	{r7, pc}
 1475              	.L89:
 1476              		.align	2
 1477              	.L88:
 1478 07e0 00000000 		.word	icmpv6rpl_vars
 1479              		.cfi_endproc
 1480              	.LFE14:
 1482              		.align	1
 1483              		.global	icmpv6rpl_updateNexthopAddress
 1484              		.syntax unified
 1485              		.thumb
 1486              		.thumb_func
 1487              		.fpu softvfp
 1489              	icmpv6rpl_updateNexthopAddress:
 1490              	.LFB15:
 508:build\openmote-cc2538_armgcc\openstack\03b-IPv6/icmpv6rpl.c **** 
 509:build\openmote-cc2538_armgcc\openstack\03b-IPv6/icmpv6rpl.c **** /**
 510:build\openmote-cc2538_armgcc\openstack\03b-IPv6/icmpv6rpl.c **** \brief In case of parent changed, update the nexthop of the IPv6 packet in the queue
 511:build\openmote-cc2538_armgcc\openstack\03b-IPv6/icmpv6rpl.c **** 
 512:build\openmote-cc2538_armgcc\openstack\03b-IPv6/icmpv6rpl.c **** \param newParent. the new parent address
 513:build\openmote-cc2538_armgcc\openstack\03b-IPv6/icmpv6rpl.c **** */
 514:build\openmote-cc2538_armgcc\openstack\03b-IPv6/icmpv6rpl.c **** void icmpv6rpl_updateNexthopAddress(open_addr_t* newParent){
 1491              		.loc 1 514 0
 1492              		.cfi_startproc
 1493              		@ args = 0, pretend = 0, frame = 8
 1494              		@ frame_needed = 1, uses_anonymous_args = 0
 1495 07e4 80B5     		push	{r7, lr}
 1496              		.cfi_def_cfa_offset 8
 1497              		.cfi_offset 7, -8
 1498              		.cfi_offset 14, -4
 1499 07e6 82B0     		sub	sp, sp, #8
 1500              		.cfi_def_cfa_offset 16
 1501 07e8 00AF     		add	r7, sp, #0
 1502              		.cfi_def_cfa_register 7
 1503 07ea 7860     		str	r0, [r7, #4]
 515:build\openmote-cc2538_armgcc\openstack\03b-IPv6/icmpv6rpl.c **** 
 516:build\openmote-cc2538_armgcc\openstack\03b-IPv6/icmpv6rpl.c ****     openqueue_updateNextHopPayload(newParent);
 1504              		.loc 1 516 0
 1505 07ec 7868     		ldr	r0, [r7, #4]
 1506 07ee FFF7FEFF 		bl	openqueue_updateNextHopPayload
 517:build\openmote-cc2538_armgcc\openstack\03b-IPv6/icmpv6rpl.c **** }
 1507              		.loc 1 517 0
 1508 07f2 00BF     		nop
 1509 07f4 0837     		adds	r7, r7, #8
 1510              		.cfi_def_cfa_offset 8
 1511 07f6 BD46     		mov	sp, r7
 1512              		.cfi_def_cfa_register 13
 1513              		@ sp needed
 1514 07f8 80BD     		pop	{r7, pc}
 1515              		.cfi_endproc
 1516              	.LFE15:
 1518              		.align	1
 1519              		.global	icmpv6rpl_indicateRxDIO
 1520              		.syntax unified
 1521              		.thumb
 1522              		.thumb_func
 1523              		.fpu softvfp
 1525              	icmpv6rpl_indicateRxDIO:
 1526              	.LFB16:
 518:build\openmote-cc2538_armgcc\openstack\03b-IPv6/icmpv6rpl.c **** 
 519:build\openmote-cc2538_armgcc\openstack\03b-IPv6/icmpv6rpl.c **** /**
 520:build\openmote-cc2538_armgcc\openstack\03b-IPv6/icmpv6rpl.c **** \brief Indicate I just received a RPL DIO from a neighbor.
 521:build\openmote-cc2538_armgcc\openstack\03b-IPv6/icmpv6rpl.c **** 
 522:build\openmote-cc2538_armgcc\openstack\03b-IPv6/icmpv6rpl.c **** This function should be called for each received a DIO is received so neighbor
 523:build\openmote-cc2538_armgcc\openstack\03b-IPv6/icmpv6rpl.c **** routing information in the neighbor table can be updated.
 524:build\openmote-cc2538_armgcc\openstack\03b-IPv6/icmpv6rpl.c **** 
 525:build\openmote-cc2538_armgcc\openstack\03b-IPv6/icmpv6rpl.c **** The fields which are updated are:
 526:build\openmote-cc2538_armgcc\openstack\03b-IPv6/icmpv6rpl.c **** - DAGrank
 527:build\openmote-cc2538_armgcc\openstack\03b-IPv6/icmpv6rpl.c **** 
 528:build\openmote-cc2538_armgcc\openstack\03b-IPv6/icmpv6rpl.c **** \param[in] msg The received message with msg->payload pointing to the DIO
 529:build\openmote-cc2538_armgcc\openstack\03b-IPv6/icmpv6rpl.c ****    header.
 530:build\openmote-cc2538_armgcc\openstack\03b-IPv6/icmpv6rpl.c **** */
 531:build\openmote-cc2538_armgcc\openstack\03b-IPv6/icmpv6rpl.c **** void icmpv6rpl_indicateRxDIO(OpenQueueEntry_t* msg) {
 1527              		.loc 1 531 0
 1528              		.cfi_startproc
 1529              		@ args = 0, pretend = 0, frame = 64
 1530              		@ frame_needed = 1, uses_anonymous_args = 0
 1531 07fa B0B5     		push	{r4, r5, r7, lr}
 1532              		.cfi_def_cfa_offset 16
 1533              		.cfi_offset 4, -16
 1534              		.cfi_offset 5, -12
 1535              		.cfi_offset 7, -8
 1536              		.cfi_offset 14, -4
 1537 07fc 90B0     		sub	sp, sp, #64
 1538              		.cfi_def_cfa_offset 80
 1539 07fe 00AF     		add	r7, sp, #0
 1540              		.cfi_def_cfa_register 7
 1541 0800 7860     		str	r0, [r7, #4]
 532:build\openmote-cc2538_armgcc\openstack\03b-IPv6/icmpv6rpl.c ****    uint8_t          i;
 533:build\openmote-cc2538_armgcc\openstack\03b-IPv6/icmpv6rpl.c ****    uint8_t          temp_8b;
 534:build\openmote-cc2538_armgcc\openstack\03b-IPv6/icmpv6rpl.c ****    dagrank_t        neighborRank;
 535:build\openmote-cc2538_armgcc\openstack\03b-IPv6/icmpv6rpl.c ****    open_addr_t      NeighborAddress;
 536:build\openmote-cc2538_armgcc\openstack\03b-IPv6/icmpv6rpl.c ****    open_addr_t      myPrefix;
 537:build\openmote-cc2538_armgcc\openstack\03b-IPv6/icmpv6rpl.c ****    uint8_t*         current;
 538:build\openmote-cc2538_armgcc\openstack\03b-IPv6/icmpv6rpl.c ****    uint8_t          optionsLen;
 539:build\openmote-cc2538_armgcc\openstack\03b-IPv6/icmpv6rpl.c ****    // take ownership over the packet
 540:build\openmote-cc2538_armgcc\openstack\03b-IPv6/icmpv6rpl.c ****    msg->owner = COMPONENT_NEIGHBORS;
 1542              		.loc 1 540 0
 1543 0802 7B68     		ldr	r3, [r7, #4]
 1544 0804 0D22     		movs	r2, #13
 1545 0806 5A70     		strb	r2, [r3, #1]
 541:build\openmote-cc2538_armgcc\openstack\03b-IPv6/icmpv6rpl.c **** 
 542:build\openmote-cc2538_armgcc\openstack\03b-IPv6/icmpv6rpl.c ****    // update some fields of our DIO
 543:build\openmote-cc2538_armgcc\openstack\03b-IPv6/icmpv6rpl.c ****    memcpy(
 544:build\openmote-cc2538_armgcc\openstack\03b-IPv6/icmpv6rpl.c ****       &(icmpv6rpl_vars.dio),
 545:build\openmote-cc2538_armgcc\openstack\03b-IPv6/icmpv6rpl.c ****       (icmpv6rpl_dio_ht*)(msg->payload),
 1546              		.loc 1 545 0
 1547 0808 7B68     		ldr	r3, [r7, #4]
 1548 080a 5A68     		ldr	r2, [r3, #4]
 543:build\openmote-cc2538_armgcc\openstack\03b-IPv6/icmpv6rpl.c ****       &(icmpv6rpl_vars.dio),
 1549              		.loc 1 543 0
 1550 080c BC4B     		ldr	r3, .L104
 1551 080e 0333     		adds	r3, r3, #3
 1552 0810 1068     		ldr	r0, [r2]	@ unaligned
 1553 0812 5168     		ldr	r1, [r2, #4]	@ unaligned
 1554 0814 9568     		ldr	r5, [r2, #8]	@ unaligned
 1555 0816 D468     		ldr	r4, [r2, #12]	@ unaligned
 1556 0818 1860     		str	r0, [r3]	@ unaligned
 1557 081a 5960     		str	r1, [r3, #4]	@ unaligned
 1558 081c 9D60     		str	r5, [r3, #8]	@ unaligned
 1559 081e DC60     		str	r4, [r3, #12]	@ unaligned
 1560 0820 1069     		ldr	r0, [r2, #16]	@ unaligned
 1561 0822 5169     		ldr	r1, [r2, #20]	@ unaligned
 1562 0824 1861     		str	r0, [r3, #16]	@ unaligned
 1563 0826 5961     		str	r1, [r3, #20]	@ unaligned
 546:build\openmote-cc2538_armgcc\openstack\03b-IPv6/icmpv6rpl.c ****       sizeof(icmpv6rpl_dio_ht)
 547:build\openmote-cc2538_armgcc\openstack\03b-IPv6/icmpv6rpl.c ****    );
 548:build\openmote-cc2538_armgcc\openstack\03b-IPv6/icmpv6rpl.c **** 
 549:build\openmote-cc2538_armgcc\openstack\03b-IPv6/icmpv6rpl.c ****    // write DODAGID in DIO and DAO
 550:build\openmote-cc2538_armgcc\openstack\03b-IPv6/icmpv6rpl.c ****    icmpv6rpl_writeDODAGid(&(((icmpv6rpl_dio_ht*)(msg->payload))->DODAGID[0]));
 1564              		.loc 1 550 0
 1565 0828 7B68     		ldr	r3, [r7, #4]
 1566 082a 5B68     		ldr	r3, [r3, #4]
 1567 082c 0833     		adds	r3, r3, #8
 1568 082e 1846     		mov	r0, r3
 1569 0830 FFF7FEFF 		bl	icmpv6rpl_writeDODAGid
 551:build\openmote-cc2538_armgcc\openstack\03b-IPv6/icmpv6rpl.c **** 
 552:build\openmote-cc2538_armgcc\openstack\03b-IPv6/icmpv6rpl.c ****    // save pointer to incoming DIO header in global structure for simplfying debug.
 553:build\openmote-cc2538_armgcc\openstack\03b-IPv6/icmpv6rpl.c ****    icmpv6rpl_vars.incomingDio = (icmpv6rpl_dio_ht*)(msg->payload);
 1570              		.loc 1 553 0
 1571 0834 7B68     		ldr	r3, [r7, #4]
 1572 0836 5B68     		ldr	r3, [r3, #4]
 1573 0838 B14A     		ldr	r2, .L104
 1574 083a C2F88C30 		str	r3, [r2, #140]
 554:build\openmote-cc2538_armgcc\openstack\03b-IPv6/icmpv6rpl.c ****    current = msg->payload + sizeof(icmpv6rpl_dio_ht);
 1575              		.loc 1 554 0
 1576 083e 7B68     		ldr	r3, [r7, #4]
 1577 0840 5B68     		ldr	r3, [r3, #4]
 1578 0842 1833     		adds	r3, r3, #24
 1579 0844 BB63     		str	r3, [r7, #56]
 555:build\openmote-cc2538_armgcc\openstack\03b-IPv6/icmpv6rpl.c ****    optionsLen = msg->length - sizeof(icmpv6rpl_dio_ht);
 1580              		.loc 1 555 0
 1581 0846 7B68     		ldr	r3, [r7, #4]
 1582 0848 1B7A     		ldrb	r3, [r3, #8]	@ zero_extendqisi2
 1583 084a 183B     		subs	r3, r3, #24
 1584 084c 87F83730 		strb	r3, [r7, #55]
 556:build\openmote-cc2538_armgcc\openstack\03b-IPv6/icmpv6rpl.c **** 
 557:build\openmote-cc2538_armgcc\openstack\03b-IPv6/icmpv6rpl.c ****    while (optionsLen>0){
 1585              		.loc 1 557 0
 1586 0850 D0E0     		b	.L92
 1587              	.L96:
 558:build\openmote-cc2538_armgcc\openstack\03b-IPv6/icmpv6rpl.c ****      switch (current[0]){
 1588              		.loc 1 558 0
 1589 0852 BB6B     		ldr	r3, [r7, #56]
 1590 0854 1B78     		ldrb	r3, [r3]	@ zero_extendqisi2
 1591 0856 042B     		cmp	r3, #4
 1592 0858 02D0     		beq	.L94
 1593 085a 082B     		cmp	r3, #8
 1594 085c 7BD0     		beq	.L95
 1595 085e B7E0     		b	.L103
 1596              	.L94:
 559:build\openmote-cc2538_armgcc\openstack\03b-IPv6/icmpv6rpl.c ****      case RPL_OPTION_CONFIG:
 560:build\openmote-cc2538_armgcc\openstack\03b-IPv6/icmpv6rpl.c ****        // configuration option
 561:build\openmote-cc2538_armgcc\openstack\03b-IPv6/icmpv6rpl.c ****        icmpv6rpl_vars.incomingConf = (icmpv6rpl_config_ht*)(current);
 1597              		.loc 1 561 0
 1598 0860 A74A     		ldr	r2, .L104
 1599 0862 BB6B     		ldr	r3, [r7, #56]
 1600 0864 C2F89430 		str	r3, [r2, #148]
 562:build\openmote-cc2538_armgcc\openstack\03b-IPv6/icmpv6rpl.c **** 
 563:build\openmote-cc2538_armgcc\openstack\03b-IPv6/icmpv6rpl.c ****        icmpv6rpl_vars.incomingConf->maxRankIncrease    = (icmpv6rpl_vars.incomingConf->maxRankIncre
 1601              		.loc 1 563 0
 1602 0868 A54B     		ldr	r3, .L104
 1603 086a D3F89430 		ldr	r3, [r3, #148]
 1604 086e DB88     		ldrh	r3, [r3, #6]	@ unaligned
 1605 0870 9BB2     		uxth	r3, r3
 1606 0872 1B02     		lsls	r3, r3, #8
 1607 0874 1AB2     		sxth	r2, r3
 1608 0876 A24B     		ldr	r3, .L104
 1609 0878 D3F89430 		ldr	r3, [r3, #148]
 1610 087c DB88     		ldrh	r3, [r3, #6]	@ unaligned
 1611 087e 9BB2     		uxth	r3, r3
 1612 0880 1B0A     		lsrs	r3, r3, #8
 1613 0882 9BB2     		uxth	r3, r3
 1614 0884 1BB2     		sxth	r3, r3
 1615 0886 1343     		orrs	r3, r3, r2
 1616 0888 1AB2     		sxth	r2, r3
 1617 088a 9D4B     		ldr	r3, .L104
 1618 088c D3F89430 		ldr	r3, [r3, #148]
 1619 0890 92B2     		uxth	r2, r2
 1620 0892 DA80     		strh	r2, [r3, #6]	@ unaligned
 564:build\openmote-cc2538_armgcc\openstack\03b-IPv6/icmpv6rpl.c ****        icmpv6rpl_vars.incomingConf->minHopRankIncrease = (icmpv6rpl_vars.incomingConf->minHopRankIn
 1621              		.loc 1 564 0
 1622 0894 9A4B     		ldr	r3, .L104
 1623 0896 D3F89430 		ldr	r3, [r3, #148]
 1624 089a 1B89     		ldrh	r3, [r3, #8]	@ unaligned
 1625 089c 9BB2     		uxth	r3, r3
 1626 089e 1B02     		lsls	r3, r3, #8
 1627 08a0 1AB2     		sxth	r2, r3
 1628 08a2 974B     		ldr	r3, .L104
 1629 08a4 D3F89430 		ldr	r3, [r3, #148]
 1630 08a8 1B89     		ldrh	r3, [r3, #8]	@ unaligned
 1631 08aa 9BB2     		uxth	r3, r3
 1632 08ac 1B0A     		lsrs	r3, r3, #8
 1633 08ae 9BB2     		uxth	r3, r3
 1634 08b0 1BB2     		sxth	r3, r3
 1635 08b2 1343     		orrs	r3, r3, r2
 1636 08b4 1AB2     		sxth	r2, r3
 1637 08b6 924B     		ldr	r3, .L104
 1638 08b8 D3F89430 		ldr	r3, [r3, #148]
 1639 08bc 92B2     		uxth	r2, r2
 1640 08be 1A81     		strh	r2, [r3, #8]	@ unaligned
 565:build\openmote-cc2538_armgcc\openstack\03b-IPv6/icmpv6rpl.c ****        icmpv6rpl_vars.incomingConf->OCP                = (icmpv6rpl_vars.incomingConf->OCP << 8)   
 1641              		.loc 1 565 0
 1642 08c0 8F4B     		ldr	r3, .L104
 1643 08c2 D3F89430 		ldr	r3, [r3, #148]
 1644 08c6 5B89     		ldrh	r3, [r3, #10]	@ unaligned
 1645 08c8 9BB2     		uxth	r3, r3
 1646 08ca 1B02     		lsls	r3, r3, #8
 1647 08cc 1AB2     		sxth	r2, r3
 1648 08ce 8C4B     		ldr	r3, .L104
 1649 08d0 D3F89430 		ldr	r3, [r3, #148]
 1650 08d4 5B89     		ldrh	r3, [r3, #10]	@ unaligned
 1651 08d6 9BB2     		uxth	r3, r3
 1652 08d8 1B0A     		lsrs	r3, r3, #8
 1653 08da 9BB2     		uxth	r3, r3
 1654 08dc 1BB2     		sxth	r3, r3
 1655 08de 1343     		orrs	r3, r3, r2
 1656 08e0 1AB2     		sxth	r2, r3
 1657 08e2 874B     		ldr	r3, .L104
 1658 08e4 D3F89430 		ldr	r3, [r3, #148]
 1659 08e8 92B2     		uxth	r2, r2
 1660 08ea 5A81     		strh	r2, [r3, #10]	@ unaligned
 566:build\openmote-cc2538_armgcc\openstack\03b-IPv6/icmpv6rpl.c ****        icmpv6rpl_vars.incomingConf->lifetimeUnit       = (icmpv6rpl_vars.incomingConf->lifetimeUnit
 1661              		.loc 1 566 0
 1662 08ec 844B     		ldr	r3, .L104
 1663 08ee D3F89430 		ldr	r3, [r3, #148]
 1664 08f2 DB89     		ldrh	r3, [r3, #14]	@ unaligned
 1665 08f4 9BB2     		uxth	r3, r3
 1666 08f6 1B02     		lsls	r3, r3, #8
 1667 08f8 1AB2     		sxth	r2, r3
 1668 08fa 814B     		ldr	r3, .L104
 1669 08fc D3F89430 		ldr	r3, [r3, #148]
 1670 0900 DB89     		ldrh	r3, [r3, #14]	@ unaligned
 1671 0902 9BB2     		uxth	r3, r3
 1672 0904 1B0A     		lsrs	r3, r3, #8
 1673 0906 9BB2     		uxth	r3, r3
 1674 0908 1BB2     		sxth	r3, r3
 1675 090a 1343     		orrs	r3, r3, r2
 1676 090c 1AB2     		sxth	r2, r3
 1677 090e 7C4B     		ldr	r3, .L104
 1678 0910 D3F89430 		ldr	r3, [r3, #148]
 1679 0914 92B2     		uxth	r2, r2
 1680 0916 DA81     		strh	r2, [r3, #14]	@ unaligned
 567:build\openmote-cc2538_armgcc\openstack\03b-IPv6/icmpv6rpl.c **** 
 568:build\openmote-cc2538_armgcc\openstack\03b-IPv6/icmpv6rpl.c ****        memcpy(&icmpv6rpl_vars.conf,icmpv6rpl_vars.incomingConf, sizeof(icmpv6rpl_config_ht));
 1681              		.loc 1 568 0
 1682 0918 794B     		ldr	r3, .L104
 1683 091a D3F89420 		ldr	r2, [r3, #148]
 1684 091e 784B     		ldr	r3, .L104
 1685 0920 3B33     		adds	r3, r3, #59
 1686 0922 1468     		ldr	r4, [r2]	@ unaligned
 1687 0924 5068     		ldr	r0, [r2, #4]	@ unaligned
 1688 0926 9168     		ldr	r1, [r2, #8]	@ unaligned
 1689 0928 D268     		ldr	r2, [r2, #12]	@ unaligned
 1690 092a 1C60     		str	r4, [r3]	@ unaligned
 1691 092c 5860     		str	r0, [r3, #4]	@ unaligned
 1692 092e 9960     		str	r1, [r3, #8]	@ unaligned
 1693 0930 DA60     		str	r2, [r3, #12]	@ unaligned
 569:build\openmote-cc2538_armgcc\openstack\03b-IPv6/icmpv6rpl.c **** 
 570:build\openmote-cc2538_armgcc\openstack\03b-IPv6/icmpv6rpl.c ****        // do whatever needs to be done with the configuration option of RPL
 571:build\openmote-cc2538_armgcc\openstack\03b-IPv6/icmpv6rpl.c ****        optionsLen = optionsLen - current[1] - 2;
 1694              		.loc 1 571 0
 1695 0932 BB6B     		ldr	r3, [r7, #56]
 1696 0934 0133     		adds	r3, r3, #1
 1697 0936 1B78     		ldrb	r3, [r3]	@ zero_extendqisi2
 1698 0938 97F83720 		ldrb	r2, [r7, #55]
 1699 093c D31A     		subs	r3, r2, r3
 1700 093e DBB2     		uxtb	r3, r3
 1701 0940 023B     		subs	r3, r3, #2
 1702 0942 87F83730 		strb	r3, [r7, #55]
 572:build\openmote-cc2538_armgcc\openstack\03b-IPv6/icmpv6rpl.c ****        current = current + current[1] + 2;
 1703              		.loc 1 572 0
 1704 0946 BB6B     		ldr	r3, [r7, #56]
 1705 0948 0133     		adds	r3, r3, #1
 1706 094a 1B78     		ldrb	r3, [r3]	@ zero_extendqisi2
 1707 094c 0233     		adds	r3, r3, #2
 1708 094e BA6B     		ldr	r2, [r7, #56]
 1709 0950 1344     		add	r3, r3, r2
 1710 0952 BB63     		str	r3, [r7, #56]
 573:build\openmote-cc2538_armgcc\openstack\03b-IPv6/icmpv6rpl.c ****        break;
 1711              		.loc 1 573 0
 1712 0954 4EE0     		b	.L92
 1713              	.L95:
 574:build\openmote-cc2538_armgcc\openstack\03b-IPv6/icmpv6rpl.c ****      case RPL_OPTION_PIO:
 575:build\openmote-cc2538_armgcc\openstack\03b-IPv6/icmpv6rpl.c ****        // pio
 576:build\openmote-cc2538_armgcc\openstack\03b-IPv6/icmpv6rpl.c ****         icmpv6rpl_vars.incomingPio = (icmpv6rpl_pio_t*)(current);
 1714              		.loc 1 576 0
 1715 0956 6A4A     		ldr	r2, .L104
 1716 0958 BB6B     		ldr	r3, [r7, #56]
 1717 095a C2F89030 		str	r3, [r2, #144]
 577:build\openmote-cc2538_armgcc\openstack\03b-IPv6/icmpv6rpl.c ****         // update PIO with the received one.
 578:build\openmote-cc2538_armgcc\openstack\03b-IPv6/icmpv6rpl.c ****         memcpy(&icmpv6rpl_vars.pio,icmpv6rpl_vars.incomingPio, sizeof(icmpv6rpl_pio_t));
 1718              		.loc 1 578 0
 1719 095e 684B     		ldr	r3, .L104
 1720 0960 D3F89020 		ldr	r2, [r3, #144]
 1721 0964 664B     		ldr	r3, .L104
 1722 0966 1B33     		adds	r3, r3, #27
 1723 0968 1568     		ldr	r5, [r2]	@ unaligned
 1724 096a 5468     		ldr	r4, [r2, #4]	@ unaligned
 1725 096c 9068     		ldr	r0, [r2, #8]	@ unaligned
 1726 096e D168     		ldr	r1, [r2, #12]	@ unaligned
 1727 0970 1D60     		str	r5, [r3]	@ unaligned
 1728 0972 5C60     		str	r4, [r3, #4]	@ unaligned
 1729 0974 9860     		str	r0, [r3, #8]	@ unaligned
 1730 0976 D960     		str	r1, [r3, #12]	@ unaligned
 1731 0978 1569     		ldr	r5, [r2, #16]	@ unaligned
 1732 097a 5469     		ldr	r4, [r2, #20]	@ unaligned
 1733 097c 9069     		ldr	r0, [r2, #24]	@ unaligned
 1734 097e D169     		ldr	r1, [r2, #28]	@ unaligned
 1735 0980 1D61     		str	r5, [r3, #16]	@ unaligned
 1736 0982 5C61     		str	r4, [r3, #20]	@ unaligned
 1737 0984 9861     		str	r0, [r3, #24]	@ unaligned
 1738 0986 D961     		str	r1, [r3, #28]	@ unaligned
 579:build\openmote-cc2538_armgcc\openstack\03b-IPv6/icmpv6rpl.c ****         // update my prefix from PIO
 580:build\openmote-cc2538_armgcc\openstack\03b-IPv6/icmpv6rpl.c ****         // looks like we adopt the prefix from any PIO without a question about this node being our
 581:build\openmote-cc2538_armgcc\openstack\03b-IPv6/icmpv6rpl.c ****         myPrefix.type = ADDR_PREFIX;
 1739              		.loc 1 581 0
 1740 0988 0523     		movs	r3, #5
 1741 098a 3B73     		strb	r3, [r7, #12]
 582:build\openmote-cc2538_armgcc\openstack\03b-IPv6/icmpv6rpl.c ****         memcpy(
 583:build\openmote-cc2538_armgcc\openstack\03b-IPv6/icmpv6rpl.c ****           myPrefix.prefix,
 584:build\openmote-cc2538_armgcc\openstack\03b-IPv6/icmpv6rpl.c ****           icmpv6rpl_vars.incomingPio->prefix,
 1742              		.loc 1 584 0
 1743 098c 5C4B     		ldr	r3, .L104
 1744 098e D3F89030 		ldr	r3, [r3, #144]
 1745 0992 03F11002 		add	r2, r3, #16
 582:build\openmote-cc2538_armgcc\openstack\03b-IPv6/icmpv6rpl.c ****         memcpy(
 1746              		.loc 1 582 0
 1747 0996 07F10D03 		add	r3, r7, #13
 1748 099a 1168     		ldr	r1, [r2]	@ unaligned
 1749 099c 5268     		ldr	r2, [r2, #4]	@ unaligned
 1750 099e 1960     		str	r1, [r3]	@ unaligned
 1751 09a0 5A60     		str	r2, [r3, #4]	@ unaligned
 585:build\openmote-cc2538_armgcc\openstack\03b-IPv6/icmpv6rpl.c ****           sizeof(myPrefix.prefix)
 586:build\openmote-cc2538_armgcc\openstack\03b-IPv6/icmpv6rpl.c ****         );
 587:build\openmote-cc2538_armgcc\openstack\03b-IPv6/icmpv6rpl.c ****         idmanager_setMyID(&myPrefix);
 1752              		.loc 1 587 0
 1753 09a2 07F10C03 		add	r3, r7, #12
 1754 09a6 1846     		mov	r0, r3
 1755 09a8 FFF7FEFF 		bl	idmanager_setMyID
 588:build\openmote-cc2538_armgcc\openstack\03b-IPv6/icmpv6rpl.c ****         optionsLen = optionsLen - current[1] - 2;
 1756              		.loc 1 588 0
 1757 09ac BB6B     		ldr	r3, [r7, #56]
 1758 09ae 0133     		adds	r3, r3, #1
 1759 09b0 1B78     		ldrb	r3, [r3]	@ zero_extendqisi2
 1760 09b2 97F83720 		ldrb	r2, [r7, #55]
 1761 09b6 D31A     		subs	r3, r2, r3
 1762 09b8 DBB2     		uxtb	r3, r3
 1763 09ba 023B     		subs	r3, r3, #2
 1764 09bc 87F83730 		strb	r3, [r7, #55]
 589:build\openmote-cc2538_armgcc\openstack\03b-IPv6/icmpv6rpl.c ****         current = current + current[1] + 2;
 1765              		.loc 1 589 0
 1766 09c0 BB6B     		ldr	r3, [r7, #56]
 1767 09c2 0133     		adds	r3, r3, #1
 1768 09c4 1B78     		ldrb	r3, [r3]	@ zero_extendqisi2
 1769 09c6 0233     		adds	r3, r3, #2
 1770 09c8 BA6B     		ldr	r2, [r7, #56]
 1771 09ca 1344     		add	r3, r3, r2
 1772 09cc BB63     		str	r3, [r7, #56]
 590:build\openmote-cc2538_armgcc\openstack\03b-IPv6/icmpv6rpl.c ****        break;
 1773              		.loc 1 590 0
 1774 09ce 11E0     		b	.L92
 1775              	.L103:
 591:build\openmote-cc2538_armgcc\openstack\03b-IPv6/icmpv6rpl.c ****      default:
 592:build\openmote-cc2538_armgcc\openstack\03b-IPv6/icmpv6rpl.c ****        //option not supported, just jump the len;
 593:build\openmote-cc2538_armgcc\openstack\03b-IPv6/icmpv6rpl.c ****        optionsLen = optionsLen - current[1] - 2;
 1776              		.loc 1 593 0
 1777 09d0 BB6B     		ldr	r3, [r7, #56]
 1778 09d2 0133     		adds	r3, r3, #1
 1779 09d4 1B78     		ldrb	r3, [r3]	@ zero_extendqisi2
 1780 09d6 97F83720 		ldrb	r2, [r7, #55]
 1781 09da D31A     		subs	r3, r2, r3
 1782 09dc DBB2     		uxtb	r3, r3
 1783 09de 023B     		subs	r3, r3, #2
 1784 09e0 87F83730 		strb	r3, [r7, #55]
 594:build\openmote-cc2538_armgcc\openstack\03b-IPv6/icmpv6rpl.c ****        current = current + current[1] + 2;
 1785              		.loc 1 594 0
 1786 09e4 BB6B     		ldr	r3, [r7, #56]
 1787 09e6 0133     		adds	r3, r3, #1
 1788 09e8 1B78     		ldrb	r3, [r3]	@ zero_extendqisi2
 1789 09ea 0233     		adds	r3, r3, #2
 1790 09ec BA6B     		ldr	r2, [r7, #56]
 1791 09ee 1344     		add	r3, r3, r2
 1792 09f0 BB63     		str	r3, [r7, #56]
 595:build\openmote-cc2538_armgcc\openstack\03b-IPv6/icmpv6rpl.c ****        break;
 1793              		.loc 1 595 0
 1794 09f2 00BF     		nop
 1795              	.L92:
 557:build\openmote-cc2538_armgcc\openstack\03b-IPv6/icmpv6rpl.c ****      switch (current[0]){
 1796              		.loc 1 557 0
 1797 09f4 97F83730 		ldrb	r3, [r7, #55]	@ zero_extendqisi2
 1798 09f8 002B     		cmp	r3, #0
 1799 09fa 7FF42AAF 		bne	.L96
 596:build\openmote-cc2538_armgcc\openstack\03b-IPv6/icmpv6rpl.c ****      }
 597:build\openmote-cc2538_armgcc\openstack\03b-IPv6/icmpv6rpl.c ****    }
 598:build\openmote-cc2538_armgcc\openstack\03b-IPv6/icmpv6rpl.c **** 
 599:build\openmote-cc2538_armgcc\openstack\03b-IPv6/icmpv6rpl.c ****    // quick fix: rank is two bytes in network order: need to swap bytes
 600:build\openmote-cc2538_armgcc\openstack\03b-IPv6/icmpv6rpl.c ****    temp_8b            = *(msg->payload+2);
 1800              		.loc 1 600 0
 1801 09fe 7B68     		ldr	r3, [r7, #4]
 1802 0a00 5B68     		ldr	r3, [r3, #4]
 1803 0a02 9B78     		ldrb	r3, [r3, #2]
 1804 0a04 87F83630 		strb	r3, [r7, #54]
 601:build\openmote-cc2538_armgcc\openstack\03b-IPv6/icmpv6rpl.c ****    icmpv6rpl_vars.incomingDio->rank = (temp_8b << 8) + *(msg->payload+3);
 1805              		.loc 1 601 0
 1806 0a08 97F83630 		ldrb	r3, [r7, #54]	@ zero_extendqisi2
 1807 0a0c 9BB2     		uxth	r3, r3
 1808 0a0e 1B02     		lsls	r3, r3, #8
 1809 0a10 99B2     		uxth	r1, r3
 1810 0a12 7B68     		ldr	r3, [r7, #4]
 1811 0a14 5B68     		ldr	r3, [r3, #4]
 1812 0a16 0333     		adds	r3, r3, #3
 1813 0a18 1B78     		ldrb	r3, [r3]	@ zero_extendqisi2
 1814 0a1a 9AB2     		uxth	r2, r3
 1815 0a1c 384B     		ldr	r3, .L104
 1816 0a1e D3F88C30 		ldr	r3, [r3, #140]
 1817 0a22 0A44     		add	r2, r2, r1
 1818 0a24 92B2     		uxth	r2, r2
 1819 0a26 5A80     		strh	r2, [r3, #2]	@ unaligned
 602:build\openmote-cc2538_armgcc\openstack\03b-IPv6/icmpv6rpl.c **** 
 603:build\openmote-cc2538_armgcc\openstack\03b-IPv6/icmpv6rpl.c ****    //update rank in DIO as well (which will be overwritten with my rank when send).
 604:build\openmote-cc2538_armgcc\openstack\03b-IPv6/icmpv6rpl.c ****    icmpv6rpl_vars.dio.rank = icmpv6rpl_vars.incomingDio->rank;
 1820              		.loc 1 604 0
 1821 0a28 354B     		ldr	r3, .L104
 1822 0a2a D3F88C30 		ldr	r3, [r3, #140]
 1823 0a2e 5B88     		ldrh	r3, [r3, #2]	@ unaligned
 1824 0a30 9AB2     		uxth	r2, r3
 1825 0a32 334B     		ldr	r3, .L104
 1826 0a34 A3F80520 		strh	r2, [r3, #5]	@ unaligned
 605:build\openmote-cc2538_armgcc\openstack\03b-IPv6/icmpv6rpl.c **** 
 606:build\openmote-cc2538_armgcc\openstack\03b-IPv6/icmpv6rpl.c ****    // update rank of that neighbor in table
 607:build\openmote-cc2538_armgcc\openstack\03b-IPv6/icmpv6rpl.c ****    for (i=0;i<MAXNUMNEIGHBORS;i++) {
 1827              		.loc 1 607 0
 1828 0a38 0023     		movs	r3, #0
 1829 0a3a 87F83F30 		strb	r3, [r7, #63]
 1830 0a3e 57E0     		b	.L97
 1831              	.L102:
 608:build\openmote-cc2538_armgcc\openstack\03b-IPv6/icmpv6rpl.c ****       if (neighbors_getNeighborEui64(&NeighborAddress, ADDR_64B, i)) { // this neighbor entry is in
 1832              		.loc 1 608 0
 1833 0a40 97F83F20 		ldrb	r2, [r7, #63]	@ zero_extendqisi2
 1834 0a44 07F12003 		add	r3, r7, #32
 1835 0a48 0221     		movs	r1, #2
 1836 0a4a 1846     		mov	r0, r3
 1837 0a4c FFF7FEFF 		bl	neighbors_getNeighborEui64
 1838 0a50 0346     		mov	r3, r0
 1839 0a52 002B     		cmp	r3, #0
 1840 0a54 47D0     		beq	.L98
 609:build\openmote-cc2538_armgcc\openstack\03b-IPv6/icmpv6rpl.c ****          if (packetfunctions_sameAddress(&(msg->l2_nextORpreviousHop),&NeighborAddress)) { // match
 1841              		.loc 1 609 0
 1842 0a56 7B68     		ldr	r3, [r7, #4]
 1843 0a58 4133     		adds	r3, r3, #65
 1844 0a5a 07F12002 		add	r2, r7, #32
 1845 0a5e 1146     		mov	r1, r2
 1846 0a60 1846     		mov	r0, r3
 1847 0a62 FFF7FEFF 		bl	packetfunctions_sameAddress
 1848 0a66 0346     		mov	r3, r0
 1849 0a68 002B     		cmp	r3, #0
 1850 0a6a 3CD0     		beq	.L98
 610:build\openmote-cc2538_armgcc\openstack\03b-IPv6/icmpv6rpl.c ****             neighborRank=neighbors_getNeighborRank(i);
 1851              		.loc 1 610 0
 1852 0a6c 97F83F30 		ldrb	r3, [r7, #63]	@ zero_extendqisi2
 1853 0a70 1846     		mov	r0, r3
 1854 0a72 FFF7FEFF 		bl	neighbors_getNeighborRank
 1855 0a76 0346     		mov	r3, r0
 1856 0a78 BB86     		strh	r3, [r7, #52]	@ movhi
 611:build\openmote-cc2538_armgcc\openstack\03b-IPv6/icmpv6rpl.c ****             if (
 612:build\openmote-cc2538_armgcc\openstack\03b-IPv6/icmpv6rpl.c ****               (icmpv6rpl_vars.incomingDio->rank > neighborRank) &&
 1857              		.loc 1 612 0
 1858 0a7a 214B     		ldr	r3, .L104
 1859 0a7c D3F88C30 		ldr	r3, [r3, #140]
 1860 0a80 5B88     		ldrh	r3, [r3, #2]	@ unaligned
 1861 0a82 9BB2     		uxth	r3, r3
 611:build\openmote-cc2538_armgcc\openstack\03b-IPv6/icmpv6rpl.c ****             if (
 1862              		.loc 1 611 0
 1863 0a84 BA8E     		ldrh	r2, [r7, #52]
 1864 0a86 9A42     		cmp	r2, r3
 1865 0a88 1FD2     		bcs	.L99
 613:build\openmote-cc2538_armgcc\openstack\03b-IPv6/icmpv6rpl.c ****               (icmpv6rpl_vars.incomingDio->rank - neighborRank) > ((3*DEFAULTLINKCOST-2)*MINHOPRANK
 1866              		.loc 1 613 0
 1867 0a8a 1D4B     		ldr	r3, .L104
 1868 0a8c D3F88C30 		ldr	r3, [r3, #140]
 1869 0a90 5B88     		ldrh	r3, [r3, #2]	@ unaligned
 1870 0a92 9BB2     		uxth	r3, r3
 1871 0a94 1A46     		mov	r2, r3
 1872 0a96 BB8E     		ldrh	r3, [r7, #52]
 1873 0a98 D31A     		subs	r3, r2, r3
 612:build\openmote-cc2538_armgcc\openstack\03b-IPv6/icmpv6rpl.c ****               (icmpv6rpl_vars.incomingDio->rank - neighborRank) > ((3*DEFAULTLINKCOST-2)*MINHOPRANK
 1874              		.loc 1 612 0
 1875 0a9a B3F5206F 		cmp	r3, #2560
 1876 0a9e 14DD     		ble	.L99
 614:build\openmote-cc2538_armgcc\openstack\03b-IPv6/icmpv6rpl.c ****             ) {
 615:build\openmote-cc2538_armgcc\openstack\03b-IPv6/icmpv6rpl.c ****                // the new DAGrank looks suspiciously high, only increment a bit
 616:build\openmote-cc2538_armgcc\openstack\03b-IPv6/icmpv6rpl.c ****                neighbors_setNeighborRank(i,neighborRank + ((3*DEFAULTLINKCOST-2)*2*MINHOPRANKINCREA
 1877              		.loc 1 616 0
 1878 0aa0 BB8E     		ldrh	r3, [r7, #52]	@ movhi
 1879 0aa2 03F5A053 		add	r3, r3, #5120
 1880 0aa6 9AB2     		uxth	r2, r3
 1881 0aa8 97F83F30 		ldrb	r3, [r7, #63]	@ zero_extendqisi2
 1882 0aac 1146     		mov	r1, r2
 1883 0aae 1846     		mov	r0, r3
 1884 0ab0 FFF7FEFF 		bl	neighbors_setNeighborRank
 617:build\openmote-cc2538_armgcc\openstack\03b-IPv6/icmpv6rpl.c ****                openserial_printError(COMPONENT_NEIGHBORS,ERR_LARGE_DAGRANK,
 618:build\openmote-cc2538_armgcc\openstack\03b-IPv6/icmpv6rpl.c ****                                (errorparameter_t)icmpv6rpl_vars.incomingDio->rank,
 1885              		.loc 1 618 0
 1886 0ab4 124B     		ldr	r3, .L104
 1887 0ab6 D3F88C30 		ldr	r3, [r3, #140]
 1888 0aba 5B88     		ldrh	r3, [r3, #2]	@ unaligned
 1889 0abc 9AB2     		uxth	r2, r3
 617:build\openmote-cc2538_armgcc\openstack\03b-IPv6/icmpv6rpl.c ****                openserial_printError(COMPONENT_NEIGHBORS,ERR_LARGE_DAGRANK,
 1890              		.loc 1 617 0
 1891 0abe BB8E     		ldrh	r3, [r7, #52]
 1892 0ac0 1021     		movs	r1, #16
 1893 0ac2 0D20     		movs	r0, #13
 1894 0ac4 FFF7FEFF 		bl	openserial_printError
 1895 0ac8 0AE0     		b	.L100
 1896              	.L99:
 619:build\openmote-cc2538_armgcc\openstack\03b-IPv6/icmpv6rpl.c ****                                (errorparameter_t)neighborRank);
 620:build\openmote-cc2538_armgcc\openstack\03b-IPv6/icmpv6rpl.c ****             } else {
 621:build\openmote-cc2538_armgcc\openstack\03b-IPv6/icmpv6rpl.c ****                neighbors_setNeighborRank(i,icmpv6rpl_vars.incomingDio->rank);
 1897              		.loc 1 621 0
 1898 0aca 0D4B     		ldr	r3, .L104
 1899 0acc D3F88C30 		ldr	r3, [r3, #140]
 1900 0ad0 5B88     		ldrh	r3, [r3, #2]	@ unaligned
 1901 0ad2 9AB2     		uxth	r2, r3
 1902 0ad4 97F83F30 		ldrb	r3, [r7, #63]	@ zero_extendqisi2
 1903 0ad8 1146     		mov	r1, r2
 1904 0ada 1846     		mov	r0, r3
 1905 0adc FFF7FEFF 		bl	neighbors_setNeighborRank
 1906              	.L100:
 622:build\openmote-cc2538_armgcc\openstack\03b-IPv6/icmpv6rpl.c ****             }
 623:build\openmote-cc2538_armgcc\openstack\03b-IPv6/icmpv6rpl.c ****             // since changes were made to neighbors DAG rank, run the routing algorithm again
 624:build\openmote-cc2538_armgcc\openstack\03b-IPv6/icmpv6rpl.c ****             icmpv6rpl_updateMyDAGrankAndParentSelection();
 1907              		.loc 1 624 0
 1908 0ae0 FFF7FEFF 		bl	icmpv6rpl_updateMyDAGrankAndParentSelection
 625:build\openmote-cc2538_armgcc\openstack\03b-IPv6/icmpv6rpl.c ****             break; // there should be only one matching entry, no need to loop further
 1909              		.loc 1 625 0
 1910 0ae4 08E0     		b	.L101
 1911              	.L98:
 607:build\openmote-cc2538_armgcc\openstack\03b-IPv6/icmpv6rpl.c ****       if (neighbors_getNeighborEui64(&NeighborAddress, ADDR_64B, i)) { // this neighbor entry is in
 1912              		.loc 1 607 0 discriminator 2
 1913 0ae6 97F83F30 		ldrb	r3, [r7, #63]	@ zero_extendqisi2
 1914 0aea 0133     		adds	r3, r3, #1
 1915 0aec 87F83F30 		strb	r3, [r7, #63]
 1916              	.L97:
 607:build\openmote-cc2538_armgcc\openstack\03b-IPv6/icmpv6rpl.c ****       if (neighbors_getNeighborEui64(&NeighborAddress, ADDR_64B, i)) { // this neighbor entry is in
 1917              		.loc 1 607 0 is_stmt 0 discriminator 1
 1918 0af0 97F83F30 		ldrb	r3, [r7, #63]	@ zero_extendqisi2
 1919 0af4 1D2B     		cmp	r3, #29
 1920 0af6 A3D9     		bls	.L102
 1921              	.L101:
 626:build\openmote-cc2538_armgcc\openstack\03b-IPv6/icmpv6rpl.c ****          }
 627:build\openmote-cc2538_armgcc\openstack\03b-IPv6/icmpv6rpl.c ****       }
 628:build\openmote-cc2538_armgcc\openstack\03b-IPv6/icmpv6rpl.c ****    }
 629:build\openmote-cc2538_armgcc\openstack\03b-IPv6/icmpv6rpl.c **** }
 1922              		.loc 1 629 0 is_stmt 1
 1923 0af8 00BF     		nop
 1924 0afa 4037     		adds	r7, r7, #64
 1925              		.cfi_def_cfa_offset 16
 1926 0afc BD46     		mov	sp, r7
 1927              		.cfi_def_cfa_register 13
 1928              		@ sp needed
 1929 0afe B0BD     		pop	{r4, r5, r7, pc}
 1930              	.L105:
 1931              		.align	2
 1932              	.L104:
 1933 0b00 00000000 		.word	icmpv6rpl_vars
 1934              		.cfi_endproc
 1935              	.LFE16:
 1937              		.align	1
 1938              		.global	icmpv6rpl_killPreferredParent
 1939              		.syntax unified
 1940              		.thumb
 1941              		.thumb_func
 1942              		.fpu softvfp
 1944              	icmpv6rpl_killPreferredParent:
 1945              	.LFB17:
 630:build\openmote-cc2538_armgcc\openstack\03b-IPv6/icmpv6rpl.c **** 
 631:build\openmote-cc2538_armgcc\openstack\03b-IPv6/icmpv6rpl.c **** void icmpv6rpl_killPreferredParent(void) {
 1946              		.loc 1 631 0
 1947              		.cfi_startproc
 1948              		@ args = 0, pretend = 0, frame = 0
 1949              		@ frame_needed = 1, uses_anonymous_args = 0
 1950 0b04 80B5     		push	{r7, lr}
 1951              		.cfi_def_cfa_offset 8
 1952              		.cfi_offset 7, -8
 1953              		.cfi_offset 14, -4
 1954 0b06 00AF     		add	r7, sp, #0
 1955              		.cfi_def_cfa_register 7
 632:build\openmote-cc2538_armgcc\openstack\03b-IPv6/icmpv6rpl.c ****     icmpv6rpl_vars.haveParent=FALSE;
 1956              		.loc 1 632 0
 1957 0b08 0A4B     		ldr	r3, .L110
 1958 0b0a 0022     		movs	r2, #0
 1959 0b0c 83F88A20 		strb	r2, [r3, #138]
 633:build\openmote-cc2538_armgcc\openstack\03b-IPv6/icmpv6rpl.c ****     if (idmanager_getIsDAGroot()==TRUE) {
 1960              		.loc 1 633 0
 1961 0b10 FFF7FEFF 		bl	idmanager_getIsDAGroot
 1962 0b14 0346     		mov	r3, r0
 1963 0b16 002B     		cmp	r3, #0
 1964 0b18 05D0     		beq	.L107
 634:build\openmote-cc2538_armgcc\openstack\03b-IPv6/icmpv6rpl.c ****        icmpv6rpl_vars.myDAGrank=MINHOPRANKINCREASE;
 1965              		.loc 1 634 0
 1966 0b1a 064B     		ldr	r3, .L110
 1967 0b1c 4FF48072 		mov	r2, #256
 1968 0b20 A3F88620 		strh	r2, [r3, #134]	@ movhi
 635:build\openmote-cc2538_armgcc\openstack\03b-IPv6/icmpv6rpl.c ****     } else {
 636:build\openmote-cc2538_armgcc\openstack\03b-IPv6/icmpv6rpl.c ****        icmpv6rpl_vars.myDAGrank=DEFAULTDAGRANK;
 637:build\openmote-cc2538_armgcc\openstack\03b-IPv6/icmpv6rpl.c ****     }
 638:build\openmote-cc2538_armgcc\openstack\03b-IPv6/icmpv6rpl.c **** }
 1969              		.loc 1 638 0
 1970 0b24 04E0     		b	.L109
 1971              	.L107:
 636:build\openmote-cc2538_armgcc\openstack\03b-IPv6/icmpv6rpl.c ****     }
 1972              		.loc 1 636 0
 1973 0b26 034B     		ldr	r3, .L110
 1974 0b28 4FF6FF72 		movw	r2, #65535
 1975 0b2c A3F88620 		strh	r2, [r3, #134]	@ movhi
 1976              	.L109:
 1977              		.loc 1 638 0
 1978 0b30 00BF     		nop
 1979 0b32 80BD     		pop	{r7, pc}
 1980              	.L111:
 1981              		.align	2
 1982              	.L110:
 1983 0b34 00000000 		.word	icmpv6rpl_vars
 1984              		.cfi_endproc
 1985              	.LFE17:
 1987              		.align	1
 1988              		.global	icmpv6rpl_timer_DIO_cb
 1989              		.syntax unified
 1990              		.thumb
 1991              		.thumb_func
 1992              		.fpu softvfp
 1994              	icmpv6rpl_timer_DIO_cb:
 1995              	.LFB18:
 639:build\openmote-cc2538_armgcc\openstack\03b-IPv6/icmpv6rpl.c **** 
 640:build\openmote-cc2538_armgcc\openstack\03b-IPv6/icmpv6rpl.c **** //=========================== private =========================================
 641:build\openmote-cc2538_armgcc\openstack\03b-IPv6/icmpv6rpl.c **** 
 642:build\openmote-cc2538_armgcc\openstack\03b-IPv6/icmpv6rpl.c **** //===== DIO-related
 643:build\openmote-cc2538_armgcc\openstack\03b-IPv6/icmpv6rpl.c **** 
 644:build\openmote-cc2538_armgcc\openstack\03b-IPv6/icmpv6rpl.c **** /**
 645:build\openmote-cc2538_armgcc\openstack\03b-IPv6/icmpv6rpl.c **** \brief DIO timer callback function.
 646:build\openmote-cc2538_armgcc\openstack\03b-IPv6/icmpv6rpl.c **** 
 647:build\openmote-cc2538_armgcc\openstack\03b-IPv6/icmpv6rpl.c **** \note This timer callback function is executed in task mode by opentimer
 648:build\openmote-cc2538_armgcc\openstack\03b-IPv6/icmpv6rpl.c ****     already. No need to push a task again.
 649:build\openmote-cc2538_armgcc\openstack\03b-IPv6/icmpv6rpl.c **** */
 650:build\openmote-cc2538_armgcc\openstack\03b-IPv6/icmpv6rpl.c **** void icmpv6rpl_timer_DIO_cb(opentimers_id_t id) {
 1996              		.loc 1 650 0
 1997              		.cfi_startproc
 1998              		@ args = 0, pretend = 0, frame = 8
 1999              		@ frame_needed = 1, uses_anonymous_args = 0
 2000 0b38 80B5     		push	{r7, lr}
 2001              		.cfi_def_cfa_offset 8
 2002              		.cfi_offset 7, -8
 2003              		.cfi_offset 14, -4
 2004 0b3a 82B0     		sub	sp, sp, #8
 2005              		.cfi_def_cfa_offset 16
 2006 0b3c 00AF     		add	r7, sp, #0
 2007              		.cfi_def_cfa_register 7
 2008 0b3e 0346     		mov	r3, r0
 2009 0b40 FB71     		strb	r3, [r7, #7]
 651:build\openmote-cc2538_armgcc\openstack\03b-IPv6/icmpv6rpl.c ****     icmpv6rpl_timer_DIO_task();
 2010              		.loc 1 651 0
 2011 0b42 FFF7FEFF 		bl	icmpv6rpl_timer_DIO_task
 652:build\openmote-cc2538_armgcc\openstack\03b-IPv6/icmpv6rpl.c **** }
 2012              		.loc 1 652 0
 2013 0b46 00BF     		nop
 2014 0b48 0837     		adds	r7, r7, #8
 2015              		.cfi_def_cfa_offset 8
 2016 0b4a BD46     		mov	sp, r7
 2017              		.cfi_def_cfa_register 13
 2018              		@ sp needed
 2019 0b4c 80BD     		pop	{r7, pc}
 2020              		.cfi_endproc
 2021              	.LFE18:
 2023              		.align	1
 2024              		.global	icmpv6rpl_timer_DIO_task
 2025              		.syntax unified
 2026              		.thumb
 2027              		.thumb_func
 2028              		.fpu softvfp
 2030              	icmpv6rpl_timer_DIO_task:
 2031              	.LFB19:
 653:build\openmote-cc2538_armgcc\openstack\03b-IPv6/icmpv6rpl.c **** 
 654:build\openmote-cc2538_armgcc\openstack\03b-IPv6/icmpv6rpl.c **** /**
 655:build\openmote-cc2538_armgcc\openstack\03b-IPv6/icmpv6rpl.c **** \brief Handler for DIO timer event.
 656:build\openmote-cc2538_armgcc\openstack\03b-IPv6/icmpv6rpl.c **** 
 657:build\openmote-cc2538_armgcc\openstack\03b-IPv6/icmpv6rpl.c **** \note This function is executed in task context, called by the scheduler.
 658:build\openmote-cc2538_armgcc\openstack\03b-IPv6/icmpv6rpl.c **** */
 659:build\openmote-cc2538_armgcc\openstack\03b-IPv6/icmpv6rpl.c **** void icmpv6rpl_timer_DIO_task(void) {
 2032              		.loc 1 659 0
 2033              		.cfi_startproc
 2034              		@ args = 0, pretend = 0, frame = 0
 2035              		@ frame_needed = 1, uses_anonymous_args = 0
 2036 0b4e 80B5     		push	{r7, lr}
 2037              		.cfi_def_cfa_offset 8
 2038              		.cfi_offset 7, -8
 2039              		.cfi_offset 14, -4
 2040 0b50 00AF     		add	r7, sp, #0
 2041              		.cfi_def_cfa_register 7
 660:build\openmote-cc2538_armgcc\openstack\03b-IPv6/icmpv6rpl.c **** 
 661:build\openmote-cc2538_armgcc\openstack\03b-IPv6/icmpv6rpl.c ****     if(openrandom_get16b()<(0xffff/DIO_PORTION)){
 2042              		.loc 1 661 0
 2043 0b52 FFF7FEFF 		bl	openrandom_get16b
 2044 0b56 0346     		mov	r3, r0
 2045 0b58 1A46     		mov	r2, r3
 2046 0b5a 41F69813 		movw	r3, #6552
 2047 0b5e 9A42     		cmp	r2, r3
 2048 0b60 01D8     		bhi	.L115
 662:build\openmote-cc2538_armgcc\openstack\03b-IPv6/icmpv6rpl.c ****         sendDIO();
 2049              		.loc 1 662 0
 2050 0b62 FFF7FEFF 		bl	sendDIO
 2051              	.L115:
 663:build\openmote-cc2538_armgcc\openstack\03b-IPv6/icmpv6rpl.c ****     }
 664:build\openmote-cc2538_armgcc\openstack\03b-IPv6/icmpv6rpl.c **** }
 2052              		.loc 1 664 0
 2053 0b66 00BF     		nop
 2054 0b68 80BD     		pop	{r7, pc}
 2055              		.cfi_endproc
 2056              	.LFE19:
 2058              		.align	1
 2059              		.global	sendDIO
 2060              		.syntax unified
 2061              		.thumb
 2062              		.thumb_func
 2063              		.fpu softvfp
 2065              	sendDIO:
 2066              	.LFB20:
 665:build\openmote-cc2538_armgcc\openstack\03b-IPv6/icmpv6rpl.c **** 
 666:build\openmote-cc2538_armgcc\openstack\03b-IPv6/icmpv6rpl.c **** /**
 667:build\openmote-cc2538_armgcc\openstack\03b-IPv6/icmpv6rpl.c **** \brief Prepare and a send a RPL DIO.
 668:build\openmote-cc2538_armgcc\openstack\03b-IPv6/icmpv6rpl.c **** */
 669:build\openmote-cc2538_armgcc\openstack\03b-IPv6/icmpv6rpl.c **** void sendDIO(void) {
 2067              		.loc 1 669 0
 2068              		.cfi_startproc
 2069              		@ args = 0, pretend = 0, frame = 24
 2070              		@ frame_needed = 1, uses_anonymous_args = 0
 2071 0b6a B0B5     		push	{r4, r5, r7, lr}
 2072              		.cfi_def_cfa_offset 16
 2073              		.cfi_offset 4, -16
 2074              		.cfi_offset 5, -12
 2075              		.cfi_offset 7, -8
 2076              		.cfi_offset 14, -4
 2077 0b6c 86B0     		sub	sp, sp, #24
 2078              		.cfi_def_cfa_offset 40
 2079 0b6e 00AF     		add	r7, sp, #0
 2080              		.cfi_def_cfa_register 7
 670:build\openmote-cc2538_armgcc\openstack\03b-IPv6/icmpv6rpl.c **** 
 671:build\openmote-cc2538_armgcc\openstack\03b-IPv6/icmpv6rpl.c ****     OpenQueueEntry_t*    msg;
 672:build\openmote-cc2538_armgcc\openstack\03b-IPv6/icmpv6rpl.c ****     open_addr_t addressToWrite;
 673:build\openmote-cc2538_armgcc\openstack\03b-IPv6/icmpv6rpl.c **** 
 674:build\openmote-cc2538_armgcc\openstack\03b-IPv6/icmpv6rpl.c ****     memset(&addressToWrite,0,sizeof(open_addr_t));
 2081              		.loc 1 674 0
 2082 0b70 3B46     		mov	r3, r7
 2083 0b72 1122     		movs	r2, #17
 2084 0b74 0021     		movs	r1, #0
 2085 0b76 1846     		mov	r0, r3
 2086 0b78 FFF7FEFF 		bl	memset
 675:build\openmote-cc2538_armgcc\openstack\03b-IPv6/icmpv6rpl.c **** 
 676:build\openmote-cc2538_armgcc\openstack\03b-IPv6/icmpv6rpl.c ****     // stop if I'm not sync'ed
 677:build\openmote-cc2538_armgcc\openstack\03b-IPv6/icmpv6rpl.c ****     if (ieee154e_isSynch()==FALSE) {
 2087              		.loc 1 677 0
 2088 0b7c FFF7FEFF 		bl	ieee154e_isSynch
 2089 0b80 0346     		mov	r3, r0
 2090 0b82 83F00103 		eor	r3, r3, #1
 2091 0b86 DBB2     		uxtb	r3, r3
 2092 0b88 002B     		cmp	r3, #0
 2093 0b8a 09D0     		beq	.L117
 678:build\openmote-cc2538_armgcc\openstack\03b-IPv6/icmpv6rpl.c **** 
 679:build\openmote-cc2538_armgcc\openstack\03b-IPv6/icmpv6rpl.c ****         // remove packets genereted by this module (DIO and DAO) from openqueue
 680:build\openmote-cc2538_armgcc\openstack\03b-IPv6/icmpv6rpl.c ****         openqueue_removeAllCreatedBy(COMPONENT_ICMPv6RPL);
 2094              		.loc 1 680 0
 2095 0b8c 1620     		movs	r0, #22
 2096 0b8e FFF7FEFF 		bl	openqueue_removeAllCreatedBy
 681:build\openmote-cc2538_armgcc\openstack\03b-IPv6/icmpv6rpl.c **** 
 682:build\openmote-cc2538_armgcc\openstack\03b-IPv6/icmpv6rpl.c ****         // I'm not busy sending a DIO/DAO
 683:build\openmote-cc2538_armgcc\openstack\03b-IPv6/icmpv6rpl.c ****         icmpv6rpl_vars.busySendingDIO  = FALSE;
 2097              		.loc 1 683 0
 2098 0b92 9E4B     		ldr	r3, .L127
 2099 0b94 0022     		movs	r2, #0
 2100 0b96 1A70     		strb	r2, [r3]
 684:build\openmote-cc2538_armgcc\openstack\03b-IPv6/icmpv6rpl.c ****         icmpv6rpl_vars.busySendingDAO  = FALSE;
 2101              		.loc 1 684 0
 2102 0b98 9C4B     		ldr	r3, .L127
 2103 0b9a 0022     		movs	r2, #0
 2104 0b9c 5A70     		strb	r2, [r3, #1]
 685:build\openmote-cc2538_armgcc\openstack\03b-IPv6/icmpv6rpl.c **** 
 686:build\openmote-cc2538_armgcc\openstack\03b-IPv6/icmpv6rpl.c ****         // stop here
 687:build\openmote-cc2538_armgcc\openstack\03b-IPv6/icmpv6rpl.c ****         return;
 2105              		.loc 1 687 0
 2106 0b9e 32E1     		b	.L116
 2107              	.L117:
 688:build\openmote-cc2538_armgcc\openstack\03b-IPv6/icmpv6rpl.c ****     }
 689:build\openmote-cc2538_armgcc\openstack\03b-IPv6/icmpv6rpl.c **** 
 690:build\openmote-cc2538_armgcc\openstack\03b-IPv6/icmpv6rpl.c ****     // do not send DIO if I have the default DAG rank
 691:build\openmote-cc2538_armgcc\openstack\03b-IPv6/icmpv6rpl.c ****     if (icmpv6rpl_getMyDAGrank()==DEFAULTDAGRANK) {
 2108              		.loc 1 691 0
 2109 0ba0 FFF7FEFF 		bl	icmpv6rpl_getMyDAGrank
 2110 0ba4 0346     		mov	r3, r0
 2111 0ba6 1A46     		mov	r2, r3
 2112 0ba8 4FF6FF73 		movw	r3, #65535
 2113 0bac 9A42     		cmp	r2, r3
 2114 0bae 00F02981 		beq	.L126
 692:build\openmote-cc2538_armgcc\openstack\03b-IPv6/icmpv6rpl.c ****       return;
 693:build\openmote-cc2538_armgcc\openstack\03b-IPv6/icmpv6rpl.c ****     }
 694:build\openmote-cc2538_armgcc\openstack\03b-IPv6/icmpv6rpl.c **** 
 695:build\openmote-cc2538_armgcc\openstack\03b-IPv6/icmpv6rpl.c ****     if (
 696:build\openmote-cc2538_armgcc\openstack\03b-IPv6/icmpv6rpl.c ****         idmanager_getIsDAGroot() == FALSE &&
 2115              		.loc 1 696 0
 2116 0bb2 FFF7FEFF 		bl	idmanager_getIsDAGroot
 2117 0bb6 0346     		mov	r3, r0
 2118 0bb8 83F00103 		eor	r3, r3, #1
 2119 0bbc DBB2     		uxtb	r3, r3
 695:build\openmote-cc2538_armgcc\openstack\03b-IPv6/icmpv6rpl.c ****         idmanager_getIsDAGroot() == FALSE &&
 2120              		.loc 1 695 0
 2121 0bbe 002B     		cmp	r3, #0
 2122 0bc0 24D0     		beq	.L120
 697:build\openmote-cc2538_armgcc\openstack\03b-IPv6/icmpv6rpl.c ****         (
 698:build\openmote-cc2538_armgcc\openstack\03b-IPv6/icmpv6rpl.c ****             icmpv6rpl_getPreferredParentEui64(&addressToWrite) == FALSE ||
 2123              		.loc 1 698 0
 2124 0bc2 3B46     		mov	r3, r7
 2125 0bc4 1846     		mov	r0, r3
 2126 0bc6 FFF7FEFF 		bl	icmpv6rpl_getPreferredParentEui64
 2127 0bca 0346     		mov	r3, r0
 2128 0bcc 83F00103 		eor	r3, r3, #1
 2129 0bd0 DBB2     		uxtb	r3, r3
 696:build\openmote-cc2538_armgcc\openstack\03b-IPv6/icmpv6rpl.c ****         (
 2130              		.loc 1 696 0
 2131 0bd2 002B     		cmp	r3, #0
 2132 0bd4 10D1     		bne	.L121
 699:build\openmote-cc2538_armgcc\openstack\03b-IPv6/icmpv6rpl.c ****             (
 700:build\openmote-cc2538_armgcc\openstack\03b-IPv6/icmpv6rpl.c ****                 icmpv6rpl_getPreferredParentEui64(&addressToWrite) &&
 2133              		.loc 1 700 0
 2134 0bd6 3B46     		mov	r3, r7
 2135 0bd8 1846     		mov	r0, r3
 2136 0bda FFF7FEFF 		bl	icmpv6rpl_getPreferredParentEui64
 2137 0bde 0346     		mov	r3, r0
 698:build\openmote-cc2538_armgcc\openstack\03b-IPv6/icmpv6rpl.c ****             (
 2138              		.loc 1 698 0
 2139 0be0 002B     		cmp	r3, #0
 2140 0be2 13D0     		beq	.L120
 701:build\openmote-cc2538_armgcc\openstack\03b-IPv6/icmpv6rpl.c ****                 schedule_hasManagedTxCellToNeighbor(&addressToWrite) == FALSE
 2141              		.loc 1 701 0
 2142 0be4 3B46     		mov	r3, r7
 2143 0be6 1846     		mov	r0, r3
 2144 0be8 FFF7FEFF 		bl	schedule_hasManagedTxCellToNeighbor
 2145 0bec 0346     		mov	r3, r0
 2146 0bee 83F00103 		eor	r3, r3, #1
 2147 0bf2 DBB2     		uxtb	r3, r3
 700:build\openmote-cc2538_armgcc\openstack\03b-IPv6/icmpv6rpl.c ****                 schedule_hasManagedTxCellToNeighbor(&addressToWrite) == FALSE
 2148              		.loc 1 700 0
 2149 0bf4 002B     		cmp	r3, #0
 2150 0bf6 09D0     		beq	.L120
 2151              	.L121:
 702:build\openmote-cc2538_armgcc\openstack\03b-IPv6/icmpv6rpl.c ****             )
 703:build\openmote-cc2538_armgcc\openstack\03b-IPv6/icmpv6rpl.c ****         )
 704:build\openmote-cc2538_armgcc\openstack\03b-IPv6/icmpv6rpl.c ****     ){
 705:build\openmote-cc2538_armgcc\openstack\03b-IPv6/icmpv6rpl.c ****         // delete packets genereted by this module (EB and KA) from openqueue
 706:build\openmote-cc2538_armgcc\openstack\03b-IPv6/icmpv6rpl.c ****         openqueue_removeAllCreatedBy(COMPONENT_ICMPv6RPL);
 2152              		.loc 1 706 0
 2153 0bf8 1620     		movs	r0, #22
 2154 0bfa FFF7FEFF 		bl	openqueue_removeAllCreatedBy
 707:build\openmote-cc2538_armgcc\openstack\03b-IPv6/icmpv6rpl.c **** 
 708:build\openmote-cc2538_armgcc\openstack\03b-IPv6/icmpv6rpl.c ****         // I'm not busy sending a DIO/DAO
 709:build\openmote-cc2538_armgcc\openstack\03b-IPv6/icmpv6rpl.c ****         icmpv6rpl_vars.busySendingDIO  = FALSE;
 2155              		.loc 1 709 0
 2156 0bfe 834B     		ldr	r3, .L127
 2157 0c00 0022     		movs	r2, #0
 2158 0c02 1A70     		strb	r2, [r3]
 710:build\openmote-cc2538_armgcc\openstack\03b-IPv6/icmpv6rpl.c ****         icmpv6rpl_vars.busySendingDAO  = FALSE;
 2159              		.loc 1 710 0
 2160 0c04 814B     		ldr	r3, .L127
 2161 0c06 0022     		movs	r2, #0
 2162 0c08 5A70     		strb	r2, [r3, #1]
 711:build\openmote-cc2538_armgcc\openstack\03b-IPv6/icmpv6rpl.c **** 
 712:build\openmote-cc2538_armgcc\openstack\03b-IPv6/icmpv6rpl.c ****         return;
 2163              		.loc 1 712 0
 2164 0c0a FCE0     		b	.L116
 2165              	.L120:
 713:build\openmote-cc2538_armgcc\openstack\03b-IPv6/icmpv6rpl.c ****     }
 714:build\openmote-cc2538_armgcc\openstack\03b-IPv6/icmpv6rpl.c **** 
 715:build\openmote-cc2538_armgcc\openstack\03b-IPv6/icmpv6rpl.c ****     // if you get here, all good to send a DIO
 716:build\openmote-cc2538_armgcc\openstack\03b-IPv6/icmpv6rpl.c **** 
 717:build\openmote-cc2538_armgcc\openstack\03b-IPv6/icmpv6rpl.c ****     // reserve a free packet buffer for DIO
 718:build\openmote-cc2538_armgcc\openstack\03b-IPv6/icmpv6rpl.c ****     msg = openqueue_getFreePacketBuffer(COMPONENT_ICMPv6RPL);
 2166              		.loc 1 718 0
 2167 0c0c 1620     		movs	r0, #22
 2168 0c0e FFF7FEFF 		bl	openqueue_getFreePacketBuffer
 2169 0c12 7861     		str	r0, [r7, #20]
 719:build\openmote-cc2538_armgcc\openstack\03b-IPv6/icmpv6rpl.c ****     if (msg==NULL) {
 2170              		.loc 1 719 0
 2171 0c14 7B69     		ldr	r3, [r7, #20]
 2172 0c16 002B     		cmp	r3, #0
 2173 0c18 06D1     		bne	.L122
 720:build\openmote-cc2538_armgcc\openstack\03b-IPv6/icmpv6rpl.c ****         openserial_printError(COMPONENT_ICMPv6RPL,ERR_NO_FREE_PACKET_BUFFER,
 2174              		.loc 1 720 0
 2175 0c1a 0023     		movs	r3, #0
 2176 0c1c 0022     		movs	r2, #0
 2177 0c1e 2D21     		movs	r1, #45
 2178 0c20 1620     		movs	r0, #22
 2179 0c22 FFF7FEFF 		bl	openserial_printError
 721:build\openmote-cc2538_armgcc\openstack\03b-IPv6/icmpv6rpl.c ****                             (errorparameter_t)0,
 722:build\openmote-cc2538_armgcc\openstack\03b-IPv6/icmpv6rpl.c ****                             (errorparameter_t)0);
 723:build\openmote-cc2538_armgcc\openstack\03b-IPv6/icmpv6rpl.c **** 
 724:build\openmote-cc2538_armgcc\openstack\03b-IPv6/icmpv6rpl.c ****         return;
 2180              		.loc 1 724 0
 2181 0c26 EEE0     		b	.L116
 2182              	.L122:
 725:build\openmote-cc2538_armgcc\openstack\03b-IPv6/icmpv6rpl.c ****     }
 726:build\openmote-cc2538_armgcc\openstack\03b-IPv6/icmpv6rpl.c **** 
 727:build\openmote-cc2538_armgcc\openstack\03b-IPv6/icmpv6rpl.c ****     // take ownership
 728:build\openmote-cc2538_armgcc\openstack\03b-IPv6/icmpv6rpl.c ****     msg->creator                             = COMPONENT_ICMPv6RPL;
 2183              		.loc 1 728 0
 2184 0c28 7B69     		ldr	r3, [r7, #20]
 2185 0c2a 1622     		movs	r2, #22
 2186 0c2c 1A70     		strb	r2, [r3]
 729:build\openmote-cc2538_armgcc\openstack\03b-IPv6/icmpv6rpl.c ****     msg->owner                               = COMPONENT_ICMPv6RPL;
 2187              		.loc 1 729 0
 2188 0c2e 7B69     		ldr	r3, [r7, #20]
 2189 0c30 1622     		movs	r2, #22
 2190 0c32 5A70     		strb	r2, [r3, #1]
 730:build\openmote-cc2538_armgcc\openstack\03b-IPv6/icmpv6rpl.c **** 
 731:build\openmote-cc2538_armgcc\openstack\03b-IPv6/icmpv6rpl.c ****     // set transport information
 732:build\openmote-cc2538_armgcc\openstack\03b-IPv6/icmpv6rpl.c ****     msg->l4_protocol                         = IANA_ICMPv6;
 2191              		.loc 1 732 0
 2192 0c34 7B69     		ldr	r3, [r7, #20]
 2193 0c36 3A22     		movs	r2, #58
 2194 0c38 DA73     		strb	r2, [r3, #15]
 733:build\openmote-cc2538_armgcc\openstack\03b-IPv6/icmpv6rpl.c ****     msg->l4_protocol_compressed              = FALSE;
 2195              		.loc 1 733 0
 2196 0c3a 7B69     		ldr	r3, [r7, #20]
 2197 0c3c 0022     		movs	r2, #0
 2198 0c3e 1A74     		strb	r2, [r3, #16]
 734:build\openmote-cc2538_armgcc\openstack\03b-IPv6/icmpv6rpl.c ****     msg->l4_sourcePortORicmpv6Type           = IANA_ICMPv6_RPL;
 2199              		.loc 1 734 0
 2200 0c40 7B69     		ldr	r3, [r7, #20]
 2201 0c42 9B22     		movs	r2, #155
 2202 0c44 5A82     		strh	r2, [r3, #18]	@ movhi
 735:build\openmote-cc2538_armgcc\openstack\03b-IPv6/icmpv6rpl.c **** 
 736:build\openmote-cc2538_armgcc\openstack\03b-IPv6/icmpv6rpl.c ****     // set DIO destination
 737:build\openmote-cc2538_armgcc\openstack\03b-IPv6/icmpv6rpl.c ****     memcpy(&(msg->l3_destinationAdd),&icmpv6rpl_vars.dioDestination,sizeof(open_addr_t));
 2203              		.loc 1 737 0
 2204 0c46 7B69     		ldr	r3, [r7, #20]
 2205 0c48 03F11D02 		add	r2, r3, #29
 2206 0c4c 6F4B     		ldr	r3, .L127
 2207 0c4e 4B33     		adds	r3, r3, #75
 2208 0c50 1D68     		ldr	r5, [r3]	@ unaligned
 2209 0c52 5C68     		ldr	r4, [r3, #4]	@ unaligned
 2210 0c54 9868     		ldr	r0, [r3, #8]	@ unaligned
 2211 0c56 D968     		ldr	r1, [r3, #12]	@ unaligned
 2212 0c58 1560     		str	r5, [r2]	@ unaligned
 2213 0c5a 5460     		str	r4, [r2, #4]	@ unaligned
 2214 0c5c 9060     		str	r0, [r2, #8]	@ unaligned
 2215 0c5e D160     		str	r1, [r2, #12]	@ unaligned
 2216 0c60 1B7C     		ldrb	r3, [r3, #16]
 2217 0c62 1374     		strb	r3, [r2, #16]
 738:build\openmote-cc2538_armgcc\openstack\03b-IPv6/icmpv6rpl.c **** 
 739:build\openmote-cc2538_armgcc\openstack\03b-IPv6/icmpv6rpl.c ****     //===== Configuration option
 740:build\openmote-cc2538_armgcc\openstack\03b-IPv6/icmpv6rpl.c ****     packetfunctions_reserveHeaderSize(msg,sizeof(icmpv6rpl_config_ht));
 2218              		.loc 1 740 0
 2219 0c64 1021     		movs	r1, #16
 2220 0c66 7869     		ldr	r0, [r7, #20]
 2221 0c68 FFF7FEFF 		bl	packetfunctions_reserveHeaderSize
 741:build\openmote-cc2538_armgcc\openstack\03b-IPv6/icmpv6rpl.c **** 
 742:build\openmote-cc2538_armgcc\openstack\03b-IPv6/icmpv6rpl.c ****    //copy the PIO in the packet
 743:build\openmote-cc2538_armgcc\openstack\03b-IPv6/icmpv6rpl.c ****     memcpy(
 744:build\openmote-cc2538_armgcc\openstack\03b-IPv6/icmpv6rpl.c ****        ((icmpv6rpl_config_ht*)(msg->payload)),
 2222              		.loc 1 744 0
 2223 0c6c 7B69     		ldr	r3, [r7, #20]
 2224 0c6e 5A68     		ldr	r2, [r3, #4]
 743:build\openmote-cc2538_armgcc\openstack\03b-IPv6/icmpv6rpl.c ****        ((icmpv6rpl_config_ht*)(msg->payload)),
 2225              		.loc 1 743 0
 2226 0c70 664B     		ldr	r3, .L127
 2227 0c72 3B33     		adds	r3, r3, #59
 2228 0c74 1C68     		ldr	r4, [r3]	@ unaligned
 2229 0c76 5868     		ldr	r0, [r3, #4]	@ unaligned
 2230 0c78 9968     		ldr	r1, [r3, #8]	@ unaligned
 2231 0c7a DB68     		ldr	r3, [r3, #12]	@ unaligned
 2232 0c7c 1460     		str	r4, [r2]	@ unaligned
 2233 0c7e 5060     		str	r0, [r2, #4]	@ unaligned
 2234 0c80 9160     		str	r1, [r2, #8]	@ unaligned
 2235 0c82 D360     		str	r3, [r2, #12]	@ unaligned
 745:build\openmote-cc2538_armgcc\openstack\03b-IPv6/icmpv6rpl.c ****        &(icmpv6rpl_vars.conf),
 746:build\openmote-cc2538_armgcc\openstack\03b-IPv6/icmpv6rpl.c ****        sizeof(icmpv6rpl_config_ht)
 747:build\openmote-cc2538_armgcc\openstack\03b-IPv6/icmpv6rpl.c ****     );
 748:build\openmote-cc2538_armgcc\openstack\03b-IPv6/icmpv6rpl.c **** 
 749:build\openmote-cc2538_armgcc\openstack\03b-IPv6/icmpv6rpl.c ****     ((icmpv6rpl_config_ht*)(msg->payload))->maxRankIncrease    = (icmpv6rpl_vars.conf.maxRankIncrea
 2236              		.loc 1 749 0
 2237 0c84 614B     		ldr	r3, .L127
 2238 0c86 B3F84130 		ldrh	r3, [r3, #65]	@ unaligned
 2239 0c8a 9BB2     		uxth	r3, r3
 2240 0c8c 1B02     		lsls	r3, r3, #8
 2241 0c8e 1AB2     		sxth	r2, r3
 2242 0c90 5E4B     		ldr	r3, .L127
 2243 0c92 B3F84130 		ldrh	r3, [r3, #65]	@ unaligned
 2244 0c96 9BB2     		uxth	r3, r3
 2245 0c98 1B0A     		lsrs	r3, r3, #8
 2246 0c9a 9BB2     		uxth	r3, r3
 2247 0c9c 1BB2     		sxth	r3, r3
 2248 0c9e 1343     		orrs	r3, r3, r2
 2249 0ca0 1AB2     		sxth	r2, r3
 2250 0ca2 7B69     		ldr	r3, [r7, #20]
 2251 0ca4 5B68     		ldr	r3, [r3, #4]
 2252 0ca6 92B2     		uxth	r2, r2
 2253 0ca8 DA80     		strh	r2, [r3, #6]	@ unaligned
 750:build\openmote-cc2538_armgcc\openstack\03b-IPv6/icmpv6rpl.c ****     ((icmpv6rpl_config_ht*)(msg->payload))->minHopRankIncrease = (icmpv6rpl_vars.conf.minHopRankInc
 2254              		.loc 1 750 0
 2255 0caa 584B     		ldr	r3, .L127
 2256 0cac B3F84330 		ldrh	r3, [r3, #67]	@ unaligned
 2257 0cb0 9BB2     		uxth	r3, r3
 2258 0cb2 1B02     		lsls	r3, r3, #8
 2259 0cb4 1AB2     		sxth	r2, r3
 2260 0cb6 554B     		ldr	r3, .L127
 2261 0cb8 B3F84330 		ldrh	r3, [r3, #67]	@ unaligned
 2262 0cbc 9BB2     		uxth	r3, r3
 2263 0cbe 1B0A     		lsrs	r3, r3, #8
 2264 0cc0 9BB2     		uxth	r3, r3
 2265 0cc2 1BB2     		sxth	r3, r3
 2266 0cc4 1343     		orrs	r3, r3, r2
 2267 0cc6 1AB2     		sxth	r2, r3
 2268 0cc8 7B69     		ldr	r3, [r7, #20]
 2269 0cca 5B68     		ldr	r3, [r3, #4]
 2270 0ccc 92B2     		uxth	r2, r2
 2271 0cce 1A81     		strh	r2, [r3, #8]	@ unaligned
 751:build\openmote-cc2538_armgcc\openstack\03b-IPv6/icmpv6rpl.c ****     ((icmpv6rpl_config_ht*)(msg->payload))->OCP                = (icmpv6rpl_vars.conf.OCP << 8)    
 2272              		.loc 1 751 0
 2273 0cd0 4E4B     		ldr	r3, .L127
 2274 0cd2 B3F84530 		ldrh	r3, [r3, #69]	@ unaligned
 2275 0cd6 9BB2     		uxth	r3, r3
 2276 0cd8 1B02     		lsls	r3, r3, #8
 2277 0cda 1AB2     		sxth	r2, r3
 2278 0cdc 4B4B     		ldr	r3, .L127
 2279 0cde B3F84530 		ldrh	r3, [r3, #69]	@ unaligned
 2280 0ce2 9BB2     		uxth	r3, r3
 2281 0ce4 1B0A     		lsrs	r3, r3, #8
 2282 0ce6 9BB2     		uxth	r3, r3
 2283 0ce8 1BB2     		sxth	r3, r3
 2284 0cea 1343     		orrs	r3, r3, r2
 2285 0cec 1AB2     		sxth	r2, r3
 2286 0cee 7B69     		ldr	r3, [r7, #20]
 2287 0cf0 5B68     		ldr	r3, [r3, #4]
 2288 0cf2 92B2     		uxth	r2, r2
 2289 0cf4 5A81     		strh	r2, [r3, #10]	@ unaligned
 752:build\openmote-cc2538_armgcc\openstack\03b-IPv6/icmpv6rpl.c ****     ((icmpv6rpl_config_ht*)(msg->payload))->lifetimeUnit       = (icmpv6rpl_vars.conf.lifetimeUnit 
 2290              		.loc 1 752 0
 2291 0cf6 454B     		ldr	r3, .L127
 2292 0cf8 B3F84930 		ldrh	r3, [r3, #73]	@ unaligned
 2293 0cfc 9BB2     		uxth	r3, r3
 2294 0cfe 1B02     		lsls	r3, r3, #8
 2295 0d00 1AB2     		sxth	r2, r3
 2296 0d02 424B     		ldr	r3, .L127
 2297 0d04 B3F84930 		ldrh	r3, [r3, #73]	@ unaligned
 2298 0d08 9BB2     		uxth	r3, r3
 2299 0d0a 1B0A     		lsrs	r3, r3, #8
 2300 0d0c 9BB2     		uxth	r3, r3
 2301 0d0e 1BB2     		sxth	r3, r3
 2302 0d10 1343     		orrs	r3, r3, r2
 2303 0d12 1AB2     		sxth	r2, r3
 2304 0d14 7B69     		ldr	r3, [r7, #20]
 2305 0d16 5B68     		ldr	r3, [r3, #4]
 2306 0d18 92B2     		uxth	r2, r2
 2307 0d1a DA81     		strh	r2, [r3, #14]	@ unaligned
 753:build\openmote-cc2538_armgcc\openstack\03b-IPv6/icmpv6rpl.c **** 
 754:build\openmote-cc2538_armgcc\openstack\03b-IPv6/icmpv6rpl.c ****     //===== PIO payload
 755:build\openmote-cc2538_armgcc\openstack\03b-IPv6/icmpv6rpl.c **** 
 756:build\openmote-cc2538_armgcc\openstack\03b-IPv6/icmpv6rpl.c ****     packetfunctions_reserveHeaderSize(msg,sizeof(icmpv6rpl_pio_t));
 2308              		.loc 1 756 0
 2309 0d1c 2021     		movs	r1, #32
 2310 0d1e 7869     		ldr	r0, [r7, #20]
 2311 0d20 FFF7FEFF 		bl	packetfunctions_reserveHeaderSize
 757:build\openmote-cc2538_armgcc\openstack\03b-IPv6/icmpv6rpl.c **** 
 758:build\openmote-cc2538_armgcc\openstack\03b-IPv6/icmpv6rpl.c ****     // copy my prefix into the PIO
 759:build\openmote-cc2538_armgcc\openstack\03b-IPv6/icmpv6rpl.c **** 
 760:build\openmote-cc2538_armgcc\openstack\03b-IPv6/icmpv6rpl.c ****     memcpy(
 761:build\openmote-cc2538_armgcc\openstack\03b-IPv6/icmpv6rpl.c ****         &(icmpv6rpl_vars.pio.prefix[0]),
 762:build\openmote-cc2538_armgcc\openstack\03b-IPv6/icmpv6rpl.c ****         idmanager_getMyID(ADDR_PREFIX)->prefix,
 2312              		.loc 1 762 0
 2313 0d24 0520     		movs	r0, #5
 2314 0d26 FFF7FEFF 		bl	idmanager_getMyID
 2315 0d2a 0346     		mov	r3, r0
 2316 0d2c 0133     		adds	r3, r3, #1
 760:build\openmote-cc2538_armgcc\openstack\03b-IPv6/icmpv6rpl.c ****         &(icmpv6rpl_vars.pio.prefix[0]),
 2317              		.loc 1 760 0
 2318 0d2e 0822     		movs	r2, #8
 2319 0d30 1946     		mov	r1, r3
 2320 0d32 3748     		ldr	r0, .L127+4
 2321 0d34 FFF7FEFF 		bl	memcpy
 763:build\openmote-cc2538_armgcc\openstack\03b-IPv6/icmpv6rpl.c ****         sizeof(idmanager_getMyID(ADDR_PREFIX)->prefix)
 764:build\openmote-cc2538_armgcc\openstack\03b-IPv6/icmpv6rpl.c ****     );
 765:build\openmote-cc2538_armgcc\openstack\03b-IPv6/icmpv6rpl.c ****     // host address is not needed. Only prefix.
 766:build\openmote-cc2538_armgcc\openstack\03b-IPv6/icmpv6rpl.c ****     /* memcpy(
 767:build\openmote-cc2538_armgcc\openstack\03b-IPv6/icmpv6rpl.c ****         &(icmpv6rpl_vars.pio.prefix[8]),
 768:build\openmote-cc2538_armgcc\openstack\03b-IPv6/icmpv6rpl.c ****         idmanager_getMyID(ADDR_64B)->addr_64b,
 769:build\openmote-cc2538_armgcc\openstack\03b-IPv6/icmpv6rpl.c ****         sizeof(idmanager_getMyID(ADDR_64B)->addr_64b)
 770:build\openmote-cc2538_armgcc\openstack\03b-IPv6/icmpv6rpl.c ****     );*/
 771:build\openmote-cc2538_armgcc\openstack\03b-IPv6/icmpv6rpl.c **** 
 772:build\openmote-cc2538_armgcc\openstack\03b-IPv6/icmpv6rpl.c ****     //copy the PIO in the packet
 773:build\openmote-cc2538_armgcc\openstack\03b-IPv6/icmpv6rpl.c ****     memcpy(
 774:build\openmote-cc2538_armgcc\openstack\03b-IPv6/icmpv6rpl.c ****         ((icmpv6rpl_pio_t*)(msg->payload)),
 2322              		.loc 1 774 0
 2323 0d38 7B69     		ldr	r3, [r7, #20]
 2324 0d3a 5A68     		ldr	r2, [r3, #4]
 773:build\openmote-cc2538_armgcc\openstack\03b-IPv6/icmpv6rpl.c ****         ((icmpv6rpl_pio_t*)(msg->payload)),
 2325              		.loc 1 773 0
 2326 0d3c 334B     		ldr	r3, .L127
 2327 0d3e 1B33     		adds	r3, r3, #27
 2328 0d40 1D68     		ldr	r5, [r3]	@ unaligned
 2329 0d42 5C68     		ldr	r4, [r3, #4]	@ unaligned
 2330 0d44 9868     		ldr	r0, [r3, #8]	@ unaligned
 2331 0d46 D968     		ldr	r1, [r3, #12]	@ unaligned
 2332 0d48 1560     		str	r5, [r2]	@ unaligned
 2333 0d4a 5460     		str	r4, [r2, #4]	@ unaligned
 2334 0d4c 9060     		str	r0, [r2, #8]	@ unaligned
 2335 0d4e D160     		str	r1, [r2, #12]	@ unaligned
 2336 0d50 1D69     		ldr	r5, [r3, #16]	@ unaligned
 2337 0d52 5C69     		ldr	r4, [r3, #20]	@ unaligned
 2338 0d54 9869     		ldr	r0, [r3, #24]	@ unaligned
 2339 0d56 D969     		ldr	r1, [r3, #28]	@ unaligned
 2340 0d58 1561     		str	r5, [r2, #16]	@ unaligned
 2341 0d5a 5461     		str	r4, [r2, #20]	@ unaligned
 2342 0d5c 9061     		str	r0, [r2, #24]	@ unaligned
 2343 0d5e D161     		str	r1, [r2, #28]	@ unaligned
 775:build\openmote-cc2538_armgcc\openstack\03b-IPv6/icmpv6rpl.c ****         &(icmpv6rpl_vars.pio),
 776:build\openmote-cc2538_armgcc\openstack\03b-IPv6/icmpv6rpl.c ****         sizeof(icmpv6rpl_pio_t)
 777:build\openmote-cc2538_armgcc\openstack\03b-IPv6/icmpv6rpl.c ****     );
 778:build\openmote-cc2538_armgcc\openstack\03b-IPv6/icmpv6rpl.c **** 
 779:build\openmote-cc2538_armgcc\openstack\03b-IPv6/icmpv6rpl.c **** 
 780:build\openmote-cc2538_armgcc\openstack\03b-IPv6/icmpv6rpl.c ****     //===== DIO payload
 781:build\openmote-cc2538_armgcc\openstack\03b-IPv6/icmpv6rpl.c ****     // note: DIO is already mostly populated
 782:build\openmote-cc2538_armgcc\openstack\03b-IPv6/icmpv6rpl.c ****     icmpv6rpl_vars.dio.rank                  = icmpv6rpl_getMyDAGrank();
 2344              		.loc 1 782 0
 2345 0d60 FFF7FEFF 		bl	icmpv6rpl_getMyDAGrank
 2346 0d64 0346     		mov	r3, r0
 2347 0d66 1A46     		mov	r2, r3
 2348 0d68 284B     		ldr	r3, .L127
 2349 0d6a A3F80520 		strh	r2, [r3, #5]	@ unaligned
 783:build\openmote-cc2538_armgcc\openstack\03b-IPv6/icmpv6rpl.c ****     packetfunctions_reserveHeaderSize(msg,sizeof(icmpv6rpl_dio_ht));
 2350              		.loc 1 783 0
 2351 0d6e 1821     		movs	r1, #24
 2352 0d70 7869     		ldr	r0, [r7, #20]
 2353 0d72 FFF7FEFF 		bl	packetfunctions_reserveHeaderSize
 784:build\openmote-cc2538_armgcc\openstack\03b-IPv6/icmpv6rpl.c ****     memcpy(
 785:build\openmote-cc2538_armgcc\openstack\03b-IPv6/icmpv6rpl.c ****         ((icmpv6rpl_dio_ht*)(msg->payload)),
 2354              		.loc 1 785 0
 2355 0d76 7B69     		ldr	r3, [r7, #20]
 2356 0d78 5A68     		ldr	r2, [r3, #4]
 784:build\openmote-cc2538_armgcc\openstack\03b-IPv6/icmpv6rpl.c ****     memcpy(
 2357              		.loc 1 784 0
 2358 0d7a 244B     		ldr	r3, .L127
 2359 0d7c 0333     		adds	r3, r3, #3
 2360 0d7e 1868     		ldr	r0, [r3]	@ unaligned
 2361 0d80 5968     		ldr	r1, [r3, #4]	@ unaligned
 2362 0d82 9D68     		ldr	r5, [r3, #8]	@ unaligned
 2363 0d84 DC68     		ldr	r4, [r3, #12]	@ unaligned
 2364 0d86 1060     		str	r0, [r2]	@ unaligned
 2365 0d88 5160     		str	r1, [r2, #4]	@ unaligned
 2366 0d8a 9560     		str	r5, [r2, #8]	@ unaligned
 2367 0d8c D460     		str	r4, [r2, #12]	@ unaligned
 2368 0d8e 1869     		ldr	r0, [r3, #16]	@ unaligned
 2369 0d90 5969     		ldr	r1, [r3, #20]	@ unaligned
 2370 0d92 1061     		str	r0, [r2, #16]	@ unaligned
 2371 0d94 5161     		str	r1, [r2, #20]	@ unaligned
 786:build\openmote-cc2538_armgcc\openstack\03b-IPv6/icmpv6rpl.c ****         &(icmpv6rpl_vars.dio),
 787:build\openmote-cc2538_armgcc\openstack\03b-IPv6/icmpv6rpl.c ****         sizeof(icmpv6rpl_dio_ht)
 788:build\openmote-cc2538_armgcc\openstack\03b-IPv6/icmpv6rpl.c ****     );
 789:build\openmote-cc2538_armgcc\openstack\03b-IPv6/icmpv6rpl.c **** 
 790:build\openmote-cc2538_armgcc\openstack\03b-IPv6/icmpv6rpl.c ****     // reverse the rank bytes order in Big Endian
 791:build\openmote-cc2538_armgcc\openstack\03b-IPv6/icmpv6rpl.c ****     *(msg->payload+2) = (icmpv6rpl_vars.dio.rank >> 8) & 0xFF;
 2372              		.loc 1 791 0
 2373 0d96 1D4B     		ldr	r3, .L127
 2374 0d98 B3F80530 		ldrh	r3, [r3, #5]	@ unaligned
 2375 0d9c 9BB2     		uxth	r3, r3
 2376 0d9e 1B0A     		lsrs	r3, r3, #8
 2377 0da0 9AB2     		uxth	r2, r3
 2378 0da2 7B69     		ldr	r3, [r7, #20]
 2379 0da4 5B68     		ldr	r3, [r3, #4]
 2380 0da6 0233     		adds	r3, r3, #2
 2381 0da8 D2B2     		uxtb	r2, r2
 2382 0daa 1A70     		strb	r2, [r3]
 792:build\openmote-cc2538_armgcc\openstack\03b-IPv6/icmpv6rpl.c ****     *(msg->payload+3) = icmpv6rpl_vars.dio.rank        & 0xFF;
 2383              		.loc 1 792 0
 2384 0dac 174B     		ldr	r3, .L127
 2385 0dae B3F80530 		ldrh	r3, [r3, #5]	@ unaligned
 2386 0db2 9AB2     		uxth	r2, r3
 2387 0db4 7B69     		ldr	r3, [r7, #20]
 2388 0db6 5B68     		ldr	r3, [r3, #4]
 2389 0db8 0333     		adds	r3, r3, #3
 2390 0dba D2B2     		uxtb	r2, r2
 2391 0dbc 1A70     		strb	r2, [r3]
 793:build\openmote-cc2538_armgcc\openstack\03b-IPv6/icmpv6rpl.c **** 
 794:build\openmote-cc2538_armgcc\openstack\03b-IPv6/icmpv6rpl.c ****     //===== ICMPv6 header
 795:build\openmote-cc2538_armgcc\openstack\03b-IPv6/icmpv6rpl.c ****     packetfunctions_reserveHeaderSize(msg,sizeof(ICMPv6_ht));
 2392              		.loc 1 795 0
 2393 0dbe 0421     		movs	r1, #4
 2394 0dc0 7869     		ldr	r0, [r7, #20]
 2395 0dc2 FFF7FEFF 		bl	packetfunctions_reserveHeaderSize
 796:build\openmote-cc2538_armgcc\openstack\03b-IPv6/icmpv6rpl.c ****     ((ICMPv6_ht*)(msg->payload))->type       = msg->l4_sourcePortORicmpv6Type;
 2396              		.loc 1 796 0
 2397 0dc6 7B69     		ldr	r3, [r7, #20]
 2398 0dc8 5A8A     		ldrh	r2, [r3, #18]
 2399 0dca 7B69     		ldr	r3, [r7, #20]
 2400 0dcc 5B68     		ldr	r3, [r3, #4]
 2401 0dce D2B2     		uxtb	r2, r2
 2402 0dd0 1A70     		strb	r2, [r3]
 797:build\openmote-cc2538_armgcc\openstack\03b-IPv6/icmpv6rpl.c ****     ((ICMPv6_ht*)(msg->payload))->code       = IANA_ICMPv6_RPL_DIO;
 2403              		.loc 1 797 0
 2404 0dd2 7B69     		ldr	r3, [r7, #20]
 2405 0dd4 5B68     		ldr	r3, [r3, #4]
 2406 0dd6 0122     		movs	r2, #1
 2407 0dd8 5A70     		strb	r2, [r3, #1]
 798:build\openmote-cc2538_armgcc\openstack\03b-IPv6/icmpv6rpl.c ****     packetfunctions_calculateChecksum(msg,(uint8_t*)&(((ICMPv6_ht*)(msg->payload))->checksum));//ca
 2408              		.loc 1 798 0
 2409 0dda 7B69     		ldr	r3, [r7, #20]
 2410 0ddc 5B68     		ldr	r3, [r3, #4]
 2411 0dde 0233     		adds	r3, r3, #2
 2412 0de0 1946     		mov	r1, r3
 2413 0de2 7869     		ldr	r0, [r7, #20]
 2414 0de4 FFF7FEFF 		bl	packetfunctions_calculateChecksum
 799:build\openmote-cc2538_armgcc\openstack\03b-IPv6/icmpv6rpl.c **** 
 800:build\openmote-cc2538_armgcc\openstack\03b-IPv6/icmpv6rpl.c ****     //send
 801:build\openmote-cc2538_armgcc\openstack\03b-IPv6/icmpv6rpl.c ****     if (icmpv6_send(msg)==E_SUCCESS) {
 2415              		.loc 1 801 0
 2416 0de8 7869     		ldr	r0, [r7, #20]
 2417 0dea FFF7FEFF 		bl	icmpv6_send
 2418 0dee 0346     		mov	r3, r0
 2419 0df0 002B     		cmp	r3, #0
 2420 0df2 03D1     		bne	.L123
 802:build\openmote-cc2538_armgcc\openstack\03b-IPv6/icmpv6rpl.c ****         icmpv6rpl_vars.busySendingDIO = TRUE;
 2421              		.loc 1 802 0
 2422 0df4 054B     		ldr	r3, .L127
 2423 0df6 0122     		movs	r2, #1
 2424 0df8 1A70     		strb	r2, [r3]
 2425 0dfa 04E0     		b	.L116
 2426              	.L123:
 803:build\openmote-cc2538_armgcc\openstack\03b-IPv6/icmpv6rpl.c ****     } else {
 804:build\openmote-cc2538_armgcc\openstack\03b-IPv6/icmpv6rpl.c ****         openqueue_freePacketBuffer(msg);
 2427              		.loc 1 804 0
 2428 0dfc 7869     		ldr	r0, [r7, #20]
 2429 0dfe FFF7FEFF 		bl	openqueue_freePacketBuffer
 2430 0e02 00E0     		b	.L116
 2431              	.L126:
 692:build\openmote-cc2538_armgcc\openstack\03b-IPv6/icmpv6rpl.c ****     }
 2432              		.loc 1 692 0
 2433 0e04 00BF     		nop
 2434              	.L116:
 805:build\openmote-cc2538_armgcc\openstack\03b-IPv6/icmpv6rpl.c ****     }
 806:build\openmote-cc2538_armgcc\openstack\03b-IPv6/icmpv6rpl.c **** }
 2435              		.loc 1 806 0
 2436 0e06 1837     		adds	r7, r7, #24
 2437              		.cfi_def_cfa_offset 16
 2438 0e08 BD46     		mov	sp, r7
 2439              		.cfi_def_cfa_register 13
 2440              		@ sp needed
 2441 0e0a B0BD     		pop	{r4, r5, r7, pc}
 2442              	.L128:
 2443              		.align	2
 2444              	.L127:
 2445 0e0c 00000000 		.word	icmpv6rpl_vars
 2446 0e10 2B000000 		.word	icmpv6rpl_vars+43
 2447              		.cfi_endproc
 2448              	.LFE20:
 2450              		.align	1
 2451              		.global	icmpv6rpl_timer_DAO_cb
 2452              		.syntax unified
 2453              		.thumb
 2454              		.thumb_func
 2455              		.fpu softvfp
 2457              	icmpv6rpl_timer_DAO_cb:
 2458              	.LFB21:
 807:build\openmote-cc2538_armgcc\openstack\03b-IPv6/icmpv6rpl.c **** 
 808:build\openmote-cc2538_armgcc\openstack\03b-IPv6/icmpv6rpl.c **** //===== DAO-related
 809:build\openmote-cc2538_armgcc\openstack\03b-IPv6/icmpv6rpl.c **** 
 810:build\openmote-cc2538_armgcc\openstack\03b-IPv6/icmpv6rpl.c **** /**
 811:build\openmote-cc2538_armgcc\openstack\03b-IPv6/icmpv6rpl.c **** \brief DAO timer callback function.
 812:build\openmote-cc2538_armgcc\openstack\03b-IPv6/icmpv6rpl.c **** 
 813:build\openmote-cc2538_armgcc\openstack\03b-IPv6/icmpv6rpl.c **** \note This timer callback function is executed in task mode by opentimer
 814:build\openmote-cc2538_armgcc\openstack\03b-IPv6/icmpv6rpl.c ****     already. No need to push a task again.
 815:build\openmote-cc2538_armgcc\openstack\03b-IPv6/icmpv6rpl.c **** */
 816:build\openmote-cc2538_armgcc\openstack\03b-IPv6/icmpv6rpl.c **** void icmpv6rpl_timer_DAO_cb(opentimers_id_t id) {
 2459              		.loc 1 816 0
 2460              		.cfi_startproc
 2461              		@ args = 0, pretend = 0, frame = 8
 2462              		@ frame_needed = 1, uses_anonymous_args = 0
 2463 0e14 80B5     		push	{r7, lr}
 2464              		.cfi_def_cfa_offset 8
 2465              		.cfi_offset 7, -8
 2466              		.cfi_offset 14, -4
 2467 0e16 82B0     		sub	sp, sp, #8
 2468              		.cfi_def_cfa_offset 16
 2469 0e18 00AF     		add	r7, sp, #0
 2470              		.cfi_def_cfa_register 7
 2471 0e1a 0346     		mov	r3, r0
 2472 0e1c FB71     		strb	r3, [r7, #7]
 817:build\openmote-cc2538_armgcc\openstack\03b-IPv6/icmpv6rpl.c **** 
 818:build\openmote-cc2538_armgcc\openstack\03b-IPv6/icmpv6rpl.c ****     icmpv6rpl_timer_DAO_task();
 2473              		.loc 1 818 0
 2474 0e1e FFF7FEFF 		bl	icmpv6rpl_timer_DAO_task
 819:build\openmote-cc2538_armgcc\openstack\03b-IPv6/icmpv6rpl.c **** }
 2475              		.loc 1 819 0
 2476 0e22 00BF     		nop
 2477 0e24 0837     		adds	r7, r7, #8
 2478              		.cfi_def_cfa_offset 8
 2479 0e26 BD46     		mov	sp, r7
 2480              		.cfi_def_cfa_register 13
 2481              		@ sp needed
 2482 0e28 80BD     		pop	{r7, pc}
 2483              		.cfi_endproc
 2484              	.LFE21:
 2486              		.align	1
 2487              		.global	icmpv6rpl_timer_DAO_task
 2488              		.syntax unified
 2489              		.thumb
 2490              		.thumb_func
 2491              		.fpu softvfp
 2493              	icmpv6rpl_timer_DAO_task:
 2494              	.LFB22:
 820:build\openmote-cc2538_armgcc\openstack\03b-IPv6/icmpv6rpl.c **** 
 821:build\openmote-cc2538_armgcc\openstack\03b-IPv6/icmpv6rpl.c **** /**
 822:build\openmote-cc2538_armgcc\openstack\03b-IPv6/icmpv6rpl.c **** \brief Handler for DAO timer event.
 823:build\openmote-cc2538_armgcc\openstack\03b-IPv6/icmpv6rpl.c **** 
 824:build\openmote-cc2538_armgcc\openstack\03b-IPv6/icmpv6rpl.c **** \note This function is executed in task context, called by the scheduler.
 825:build\openmote-cc2538_armgcc\openstack\03b-IPv6/icmpv6rpl.c **** */
 826:build\openmote-cc2538_armgcc\openstack\03b-IPv6/icmpv6rpl.c **** void icmpv6rpl_timer_DAO_task(void) {
 2495              		.loc 1 826 0
 2496              		.cfi_startproc
 2497              		@ args = 0, pretend = 0, frame = 0
 2498              		@ frame_needed = 1, uses_anonymous_args = 0
 2499 0e2a 80B5     		push	{r7, lr}
 2500              		.cfi_def_cfa_offset 8
 2501              		.cfi_offset 7, -8
 2502              		.cfi_offset 14, -4
 2503 0e2c 00AF     		add	r7, sp, #0
 2504              		.cfi_def_cfa_register 7
 827:build\openmote-cc2538_armgcc\openstack\03b-IPv6/icmpv6rpl.c **** 
 828:build\openmote-cc2538_armgcc\openstack\03b-IPv6/icmpv6rpl.c ****     if(openrandom_get16b()<(0xffff/DAO_PORTION)){
 2505              		.loc 1 828 0
 2506 0e2e FFF7FEFF 		bl	openrandom_get16b
 2507 0e32 0346     		mov	r3, r0
 2508 0e34 1A46     		mov	r2, r3
 2509 0e36 40F68703 		movw	r3, #2183
 2510 0e3a 9A42     		cmp	r2, r3
 2511 0e3c 01D8     		bhi	.L132
 829:build\openmote-cc2538_armgcc\openstack\03b-IPv6/icmpv6rpl.c ****         sendDAO();
 2512              		.loc 1 829 0
 2513 0e3e FFF7FEFF 		bl	sendDAO
 2514              	.L132:
 830:build\openmote-cc2538_armgcc\openstack\03b-IPv6/icmpv6rpl.c ****     }
 831:build\openmote-cc2538_armgcc\openstack\03b-IPv6/icmpv6rpl.c **** }
 2515              		.loc 1 831 0
 2516 0e42 00BF     		nop
 2517 0e44 80BD     		pop	{r7, pc}
 2518              		.cfi_endproc
 2519              	.LFE22:
 2521              		.align	1
 2522              		.global	sendDAO
 2523              		.syntax unified
 2524              		.thumb
 2525              		.thumb_func
 2526              		.fpu softvfp
 2528              	sendDAO:
 2529              	.LFB23:
 832:build\openmote-cc2538_armgcc\openstack\03b-IPv6/icmpv6rpl.c **** 
 833:build\openmote-cc2538_armgcc\openstack\03b-IPv6/icmpv6rpl.c **** /**
 834:build\openmote-cc2538_armgcc\openstack\03b-IPv6/icmpv6rpl.c **** \brief Prepare and a send a RPL DAO.
 835:build\openmote-cc2538_armgcc\openstack\03b-IPv6/icmpv6rpl.c **** */
 836:build\openmote-cc2538_armgcc\openstack\03b-IPv6/icmpv6rpl.c **** void sendDAO(void) {
 2530              		.loc 1 836 0
 2531              		.cfi_startproc
 2532              		@ args = 0, pretend = 0, frame = 40
 2533              		@ frame_needed = 1, uses_anonymous_args = 0
 2534 0e46 B0B5     		push	{r4, r5, r7, lr}
 2535              		.cfi_def_cfa_offset 16
 2536              		.cfi_offset 4, -16
 2537              		.cfi_offset 5, -12
 2538              		.cfi_offset 7, -8
 2539              		.cfi_offset 14, -4
 2540 0e48 8AB0     		sub	sp, sp, #40
 2541              		.cfi_def_cfa_offset 56
 2542 0e4a 00AF     		add	r7, sp, #0
 2543              		.cfi_def_cfa_register 7
 837:build\openmote-cc2538_armgcc\openstack\03b-IPv6/icmpv6rpl.c ****     OpenQueueEntry_t*    msg;                // pointer to DAO messages
 838:build\openmote-cc2538_armgcc\openstack\03b-IPv6/icmpv6rpl.c ****     uint8_t              nbrIdx;             // running neighbor index
 839:build\openmote-cc2538_armgcc\openstack\03b-IPv6/icmpv6rpl.c ****     uint8_t              numTransitParents,numTargetParents;  // the number of parents indicated in
 840:build\openmote-cc2538_armgcc\openstack\03b-IPv6/icmpv6rpl.c ****     open_addr_t          address;
 841:build\openmote-cc2538_armgcc\openstack\03b-IPv6/icmpv6rpl.c ****     open_addr_t*         prefix;
 842:build\openmote-cc2538_armgcc\openstack\03b-IPv6/icmpv6rpl.c **** 
 843:build\openmote-cc2538_armgcc\openstack\03b-IPv6/icmpv6rpl.c ****     memset(&address,0,sizeof(open_addr_t));
 2544              		.loc 1 843 0
 2545 0e4c 3B1D     		adds	r3, r7, #4
 2546 0e4e 1122     		movs	r2, #17
 2547 0e50 0021     		movs	r1, #0
 2548 0e52 1846     		mov	r0, r3
 2549 0e54 FFF7FEFF 		bl	memset
 844:build\openmote-cc2538_armgcc\openstack\03b-IPv6/icmpv6rpl.c **** 
 845:build\openmote-cc2538_armgcc\openstack\03b-IPv6/icmpv6rpl.c ****     if (ieee154e_isSynch()==FALSE) {
 2550              		.loc 1 845 0
 2551 0e58 FFF7FEFF 		bl	ieee154e_isSynch
 2552 0e5c 0346     		mov	r3, r0
 2553 0e5e 83F00103 		eor	r3, r3, #1
 2554 0e62 DBB2     		uxtb	r3, r3
 2555 0e64 002B     		cmp	r3, #0
 2556 0e66 09D0     		beq	.L134
 846:build\openmote-cc2538_armgcc\openstack\03b-IPv6/icmpv6rpl.c ****         // I'm not sync'ed
 847:build\openmote-cc2538_armgcc\openstack\03b-IPv6/icmpv6rpl.c **** 
 848:build\openmote-cc2538_armgcc\openstack\03b-IPv6/icmpv6rpl.c ****         // delete packets genereted by this module (DIO and DAO) from openqueue
 849:build\openmote-cc2538_armgcc\openstack\03b-IPv6/icmpv6rpl.c ****         openqueue_removeAllCreatedBy(COMPONENT_ICMPv6RPL);
 2557              		.loc 1 849 0
 2558 0e68 1620     		movs	r0, #22
 2559 0e6a FFF7FEFF 		bl	openqueue_removeAllCreatedBy
 850:build\openmote-cc2538_armgcc\openstack\03b-IPv6/icmpv6rpl.c **** 
 851:build\openmote-cc2538_armgcc\openstack\03b-IPv6/icmpv6rpl.c ****         // I'm not busy sending a DIO/DAO
 852:build\openmote-cc2538_armgcc\openstack\03b-IPv6/icmpv6rpl.c ****         icmpv6rpl_vars.busySendingDAO = FALSE;
 2560              		.loc 1 852 0
 2561 0e6e A54B     		ldr	r3, .L155
 2562 0e70 0022     		movs	r2, #0
 2563 0e72 5A70     		strb	r2, [r3, #1]
 853:build\openmote-cc2538_armgcc\openstack\03b-IPv6/icmpv6rpl.c ****         icmpv6rpl_vars.busySendingDIO = FALSE;
 2564              		.loc 1 853 0
 2565 0e74 A34B     		ldr	r3, .L155
 2566 0e76 0022     		movs	r2, #0
 2567 0e78 1A70     		strb	r2, [r3]
 854:build\openmote-cc2538_armgcc\openstack\03b-IPv6/icmpv6rpl.c **** 
 855:build\openmote-cc2538_armgcc\openstack\03b-IPv6/icmpv6rpl.c ****         // stop here
 856:build\openmote-cc2538_armgcc\openstack\03b-IPv6/icmpv6rpl.c ****         return;
 2568              		.loc 1 856 0
 2569 0e7a 3FE1     		b	.L133
 2570              	.L134:
 857:build\openmote-cc2538_armgcc\openstack\03b-IPv6/icmpv6rpl.c ****     }
 858:build\openmote-cc2538_armgcc\openstack\03b-IPv6/icmpv6rpl.c **** 
 859:build\openmote-cc2538_armgcc\openstack\03b-IPv6/icmpv6rpl.c ****     // dont' send a DAO if you're the DAG root
 860:build\openmote-cc2538_armgcc\openstack\03b-IPv6/icmpv6rpl.c ****     if (idmanager_getIsDAGroot()==TRUE) {
 2571              		.loc 1 860 0
 2572 0e7c FFF7FEFF 		bl	idmanager_getIsDAGroot
 2573 0e80 0346     		mov	r3, r0
 2574 0e82 002B     		cmp	r3, #0
 2575 0e84 40F03581 		bne	.L151
 861:build\openmote-cc2538_armgcc\openstack\03b-IPv6/icmpv6rpl.c ****         return;
 862:build\openmote-cc2538_armgcc\openstack\03b-IPv6/icmpv6rpl.c ****     }
 863:build\openmote-cc2538_armgcc\openstack\03b-IPv6/icmpv6rpl.c **** 
 864:build\openmote-cc2538_armgcc\openstack\03b-IPv6/icmpv6rpl.c ****     // dont' send a DAO if you did not acquire a DAGrank
 865:build\openmote-cc2538_armgcc\openstack\03b-IPv6/icmpv6rpl.c ****     if (icmpv6rpl_getMyDAGrank()==DEFAULTDAGRANK) {
 2576              		.loc 1 865 0
 2577 0e88 FFF7FEFF 		bl	icmpv6rpl_getMyDAGrank
 2578 0e8c 0346     		mov	r3, r0
 2579 0e8e 1A46     		mov	r2, r3
 2580 0e90 4FF6FF73 		movw	r3, #65535
 2581 0e94 9A42     		cmp	r2, r3
 2582 0e96 00F02E81 		beq	.L152
 866:build\openmote-cc2538_armgcc\openstack\03b-IPv6/icmpv6rpl.c ****         return;
 867:build\openmote-cc2538_armgcc\openstack\03b-IPv6/icmpv6rpl.c ****     }
 868:build\openmote-cc2538_armgcc\openstack\03b-IPv6/icmpv6rpl.c **** 
 869:build\openmote-cc2538_armgcc\openstack\03b-IPv6/icmpv6rpl.c ****     if (
 870:build\openmote-cc2538_armgcc\openstack\03b-IPv6/icmpv6rpl.c ****         icmpv6rpl_getPreferredParentEui64(&address) == FALSE ||
 2583              		.loc 1 870 0
 2584 0e9a 3B1D     		adds	r3, r7, #4
 2585 0e9c 1846     		mov	r0, r3
 2586 0e9e FFF7FEFF 		bl	icmpv6rpl_getPreferredParentEui64
 2587 0ea2 0346     		mov	r3, r0
 2588 0ea4 83F00103 		eor	r3, r3, #1
 2589 0ea8 DBB2     		uxtb	r3, r3
 869:build\openmote-cc2538_armgcc\openstack\03b-IPv6/icmpv6rpl.c ****         icmpv6rpl_getPreferredParentEui64(&address) == FALSE ||
 2590              		.loc 1 869 0
 2591 0eaa 002B     		cmp	r3, #0
 2592 0eac 10D1     		bne	.L138
 871:build\openmote-cc2538_armgcc\openstack\03b-IPv6/icmpv6rpl.c ****         (
 872:build\openmote-cc2538_armgcc\openstack\03b-IPv6/icmpv6rpl.c ****             icmpv6rpl_getPreferredParentEui64(&address) &&
 2593              		.loc 1 872 0
 2594 0eae 3B1D     		adds	r3, r7, #4
 2595 0eb0 1846     		mov	r0, r3
 2596 0eb2 FFF7FEFF 		bl	icmpv6rpl_getPreferredParentEui64
 2597 0eb6 0346     		mov	r3, r0
 870:build\openmote-cc2538_armgcc\openstack\03b-IPv6/icmpv6rpl.c ****         (
 2598              		.loc 1 870 0
 2599 0eb8 002B     		cmp	r3, #0
 2600 0eba 13D0     		beq	.L139
 873:build\openmote-cc2538_armgcc\openstack\03b-IPv6/icmpv6rpl.c ****             schedule_hasManagedTxCellToNeighbor(&address) == FALSE
 2601              		.loc 1 873 0
 2602 0ebc 3B1D     		adds	r3, r7, #4
 2603 0ebe 1846     		mov	r0, r3
 2604 0ec0 FFF7FEFF 		bl	schedule_hasManagedTxCellToNeighbor
 2605 0ec4 0346     		mov	r3, r0
 2606 0ec6 83F00103 		eor	r3, r3, #1
 2607 0eca DBB2     		uxtb	r3, r3
 872:build\openmote-cc2538_armgcc\openstack\03b-IPv6/icmpv6rpl.c ****             schedule_hasManagedTxCellToNeighbor(&address) == FALSE
 2608              		.loc 1 872 0
 2609 0ecc 002B     		cmp	r3, #0
 2610 0ece 09D0     		beq	.L139
 2611              	.L138:
 874:build\openmote-cc2538_armgcc\openstack\03b-IPv6/icmpv6rpl.c ****         )
 875:build\openmote-cc2538_armgcc\openstack\03b-IPv6/icmpv6rpl.c ****     ){
 876:build\openmote-cc2538_armgcc\openstack\03b-IPv6/icmpv6rpl.c ****         // delete packets genereted by this module (EB and KA) from openqueue
 877:build\openmote-cc2538_armgcc\openstack\03b-IPv6/icmpv6rpl.c ****         openqueue_removeAllCreatedBy(COMPONENT_ICMPv6RPL);
 2612              		.loc 1 877 0
 2613 0ed0 1620     		movs	r0, #22
 2614 0ed2 FFF7FEFF 		bl	openqueue_removeAllCreatedBy
 878:build\openmote-cc2538_armgcc\openstack\03b-IPv6/icmpv6rpl.c **** 
 879:build\openmote-cc2538_armgcc\openstack\03b-IPv6/icmpv6rpl.c ****         // I'm not busy sending a DIO/DAO
 880:build\openmote-cc2538_armgcc\openstack\03b-IPv6/icmpv6rpl.c ****         icmpv6rpl_vars.busySendingDIO  = FALSE;
 2615              		.loc 1 880 0
 2616 0ed6 8B4B     		ldr	r3, .L155
 2617 0ed8 0022     		movs	r2, #0
 2618 0eda 1A70     		strb	r2, [r3]
 881:build\openmote-cc2538_armgcc\openstack\03b-IPv6/icmpv6rpl.c ****         icmpv6rpl_vars.busySendingDAO  = FALSE;
 2619              		.loc 1 881 0
 2620 0edc 894B     		ldr	r3, .L155
 2621 0ede 0022     		movs	r2, #0
 2622 0ee0 5A70     		strb	r2, [r3, #1]
 882:build\openmote-cc2538_armgcc\openstack\03b-IPv6/icmpv6rpl.c **** 
 883:build\openmote-cc2538_armgcc\openstack\03b-IPv6/icmpv6rpl.c ****         return;
 2623              		.loc 1 883 0
 2624 0ee2 0BE1     		b	.L133
 2625              	.L139:
 884:build\openmote-cc2538_armgcc\openstack\03b-IPv6/icmpv6rpl.c ****     }
 885:build\openmote-cc2538_armgcc\openstack\03b-IPv6/icmpv6rpl.c **** 
 886:build\openmote-cc2538_armgcc\openstack\03b-IPv6/icmpv6rpl.c ****     memset(&address,0,sizeof(open_addr_t));
 2626              		.loc 1 886 0
 2627 0ee4 3B1D     		adds	r3, r7, #4
 2628 0ee6 1122     		movs	r2, #17
 2629 0ee8 0021     		movs	r1, #0
 2630 0eea 1846     		mov	r0, r3
 2631 0eec FFF7FEFF 		bl	memset
 887:build\openmote-cc2538_armgcc\openstack\03b-IPv6/icmpv6rpl.c **** 
 888:build\openmote-cc2538_armgcc\openstack\03b-IPv6/icmpv6rpl.c ****     // dont' send a DAO if you're still busy sending the previous one
 889:build\openmote-cc2538_armgcc\openstack\03b-IPv6/icmpv6rpl.c ****     if (icmpv6rpl_vars.busySendingDAO==TRUE) {
 2632              		.loc 1 889 0
 2633 0ef0 844B     		ldr	r3, .L155
 2634 0ef2 5B78     		ldrb	r3, [r3, #1]	@ zero_extendqisi2
 2635 0ef4 002B     		cmp	r3, #0
 2636 0ef6 40F00081 		bne	.L153
 890:build\openmote-cc2538_armgcc\openstack\03b-IPv6/icmpv6rpl.c ****         return;
 891:build\openmote-cc2538_armgcc\openstack\03b-IPv6/icmpv6rpl.c ****     }
 892:build\openmote-cc2538_armgcc\openstack\03b-IPv6/icmpv6rpl.c **** 
 893:build\openmote-cc2538_armgcc\openstack\03b-IPv6/icmpv6rpl.c ****     // if you get here, you start construct DAO
 894:build\openmote-cc2538_armgcc\openstack\03b-IPv6/icmpv6rpl.c **** 
 895:build\openmote-cc2538_armgcc\openstack\03b-IPv6/icmpv6rpl.c ****     // reserve a free packet buffer for DAO
 896:build\openmote-cc2538_armgcc\openstack\03b-IPv6/icmpv6rpl.c ****     msg = openqueue_getFreePacketBuffer(COMPONENT_ICMPv6RPL);
 2637              		.loc 1 896 0
 2638 0efa 1620     		movs	r0, #22
 2639 0efc FFF7FEFF 		bl	openqueue_getFreePacketBuffer
 2640 0f00 3862     		str	r0, [r7, #32]
 897:build\openmote-cc2538_armgcc\openstack\03b-IPv6/icmpv6rpl.c ****     if (msg==NULL) {
 2641              		.loc 1 897 0
 2642 0f02 3B6A     		ldr	r3, [r7, #32]
 2643 0f04 002B     		cmp	r3, #0
 2644 0f06 06D1     		bne	.L141
 898:build\openmote-cc2538_armgcc\openstack\03b-IPv6/icmpv6rpl.c ****         openserial_printError(COMPONENT_ICMPv6RPL,ERR_NO_FREE_PACKET_BUFFER,
 2645              		.loc 1 898 0
 2646 0f08 0023     		movs	r3, #0
 2647 0f0a 0022     		movs	r2, #0
 2648 0f0c 2D21     		movs	r1, #45
 2649 0f0e 1620     		movs	r0, #22
 2650 0f10 FFF7FEFF 		bl	openserial_printError
 899:build\openmote-cc2538_armgcc\openstack\03b-IPv6/icmpv6rpl.c ****                             (errorparameter_t)0,
 900:build\openmote-cc2538_armgcc\openstack\03b-IPv6/icmpv6rpl.c ****                             (errorparameter_t)0);
 901:build\openmote-cc2538_armgcc\openstack\03b-IPv6/icmpv6rpl.c ****         return;
 2651              		.loc 1 901 0
 2652 0f14 F2E0     		b	.L133
 2653              	.L141:
 902:build\openmote-cc2538_armgcc\openstack\03b-IPv6/icmpv6rpl.c ****     }
 903:build\openmote-cc2538_armgcc\openstack\03b-IPv6/icmpv6rpl.c **** 
 904:build\openmote-cc2538_armgcc\openstack\03b-IPv6/icmpv6rpl.c ****     // take ownership
 905:build\openmote-cc2538_armgcc\openstack\03b-IPv6/icmpv6rpl.c ****     msg->creator                             = COMPONENT_ICMPv6RPL;
 2654              		.loc 1 905 0
 2655 0f16 3B6A     		ldr	r3, [r7, #32]
 2656 0f18 1622     		movs	r2, #22
 2657 0f1a 1A70     		strb	r2, [r3]
 906:build\openmote-cc2538_armgcc\openstack\03b-IPv6/icmpv6rpl.c ****     msg->owner                               = COMPONENT_ICMPv6RPL;
 2658              		.loc 1 906 0
 2659 0f1c 3B6A     		ldr	r3, [r7, #32]
 2660 0f1e 1622     		movs	r2, #22
 2661 0f20 5A70     		strb	r2, [r3, #1]
 907:build\openmote-cc2538_armgcc\openstack\03b-IPv6/icmpv6rpl.c **** 
 908:build\openmote-cc2538_armgcc\openstack\03b-IPv6/icmpv6rpl.c ****     // set transport information
 909:build\openmote-cc2538_armgcc\openstack\03b-IPv6/icmpv6rpl.c ****     msg->l4_protocol                         = IANA_ICMPv6;
 2662              		.loc 1 909 0
 2663 0f22 3B6A     		ldr	r3, [r7, #32]
 2664 0f24 3A22     		movs	r2, #58
 2665 0f26 DA73     		strb	r2, [r3, #15]
 910:build\openmote-cc2538_armgcc\openstack\03b-IPv6/icmpv6rpl.c ****     msg->l4_sourcePortORicmpv6Type           = IANA_ICMPv6_RPL;
 2666              		.loc 1 910 0
 2667 0f28 3B6A     		ldr	r3, [r7, #32]
 2668 0f2a 9B22     		movs	r2, #155
 2669 0f2c 5A82     		strh	r2, [r3, #18]	@ movhi
 911:build\openmote-cc2538_armgcc\openstack\03b-IPv6/icmpv6rpl.c **** 
 912:build\openmote-cc2538_armgcc\openstack\03b-IPv6/icmpv6rpl.c ****     // set DAO destination
 913:build\openmote-cc2538_armgcc\openstack\03b-IPv6/icmpv6rpl.c ****     msg->l3_destinationAdd.type=ADDR_128B;
 2670              		.loc 1 913 0
 2671 0f2e 3B6A     		ldr	r3, [r7, #32]
 2672 0f30 0322     		movs	r2, #3
 2673 0f32 5A77     		strb	r2, [r3, #29]
 914:build\openmote-cc2538_armgcc\openstack\03b-IPv6/icmpv6rpl.c ****     memcpy(msg->l3_destinationAdd.addr_128b,icmpv6rpl_vars.dio.DODAGID,sizeof(icmpv6rpl_vars.dio.DO
 2674              		.loc 1 914 0
 2675 0f34 3B6A     		ldr	r3, [r7, #32]
 2676 0f36 03F11E02 		add	r2, r3, #30
 2677 0f3a 724B     		ldr	r3, .L155
 2678 0f3c 0B33     		adds	r3, r3, #11
 2679 0f3e 1C68     		ldr	r4, [r3]	@ unaligned
 2680 0f40 5868     		ldr	r0, [r3, #4]	@ unaligned
 2681 0f42 9968     		ldr	r1, [r3, #8]	@ unaligned
 2682 0f44 DB68     		ldr	r3, [r3, #12]	@ unaligned
 2683 0f46 1460     		str	r4, [r2]	@ unaligned
 2684 0f48 5060     		str	r0, [r2, #4]	@ unaligned
 2685 0f4a 9160     		str	r1, [r2, #8]	@ unaligned
 2686 0f4c D360     		str	r3, [r2, #12]	@ unaligned
 915:build\openmote-cc2538_armgcc\openstack\03b-IPv6/icmpv6rpl.c **** 
 916:build\openmote-cc2538_armgcc\openstack\03b-IPv6/icmpv6rpl.c ****     //===== fill in packet
 917:build\openmote-cc2538_armgcc\openstack\03b-IPv6/icmpv6rpl.c **** 
 918:build\openmote-cc2538_armgcc\openstack\03b-IPv6/icmpv6rpl.c ****     //NOTE: limit to preferrred parent only the number of DAO transit addresses to send
 919:build\openmote-cc2538_armgcc\openstack\03b-IPv6/icmpv6rpl.c **** 
 920:build\openmote-cc2538_armgcc\openstack\03b-IPv6/icmpv6rpl.c ****     //=== transit option -- from RFC 6550, page 55 - 1 transit information header per parent is req
 921:build\openmote-cc2538_armgcc\openstack\03b-IPv6/icmpv6rpl.c ****     //getting only preferred parent as transit
 922:build\openmote-cc2538_armgcc\openstack\03b-IPv6/icmpv6rpl.c ****     numTransitParents=0;
 2687              		.loc 1 922 0
 2688 0f4e 0023     		movs	r3, #0
 2689 0f50 FB77     		strb	r3, [r7, #31]
 923:build\openmote-cc2538_armgcc\openstack\03b-IPv6/icmpv6rpl.c ****     icmpv6rpl_getPreferredParentEui64(&address);
 2690              		.loc 1 923 0
 2691 0f52 3B1D     		adds	r3, r7, #4
 2692 0f54 1846     		mov	r0, r3
 2693 0f56 FFF7FEFF 		bl	icmpv6rpl_getPreferredParentEui64
 924:build\openmote-cc2538_armgcc\openstack\03b-IPv6/icmpv6rpl.c ****     packetfunctions_writeAddress(msg,&address,OW_BIG_ENDIAN);
 2694              		.loc 1 924 0
 2695 0f5a 3B1D     		adds	r3, r7, #4
 2696 0f5c 0022     		movs	r2, #0
 2697 0f5e 1946     		mov	r1, r3
 2698 0f60 386A     		ldr	r0, [r7, #32]
 2699 0f62 FFF7FEFF 		bl	packetfunctions_writeAddress
 925:build\openmote-cc2538_armgcc\openstack\03b-IPv6/icmpv6rpl.c ****     prefix=idmanager_getMyID(ADDR_PREFIX);
 2700              		.loc 1 925 0
 2701 0f66 0520     		movs	r0, #5
 2702 0f68 FFF7FEFF 		bl	idmanager_getMyID
 2703 0f6c B861     		str	r0, [r7, #24]
 926:build\openmote-cc2538_armgcc\openstack\03b-IPv6/icmpv6rpl.c ****     packetfunctions_writeAddress(msg,prefix,OW_BIG_ENDIAN);
 2704              		.loc 1 926 0
 2705 0f6e 0022     		movs	r2, #0
 2706 0f70 B969     		ldr	r1, [r7, #24]
 2707 0f72 386A     		ldr	r0, [r7, #32]
 2708 0f74 FFF7FEFF 		bl	packetfunctions_writeAddress
 927:build\openmote-cc2538_armgcc\openstack\03b-IPv6/icmpv6rpl.c ****     // update transit info fields
 928:build\openmote-cc2538_armgcc\openstack\03b-IPv6/icmpv6rpl.c ****     // from rfc6550 p.55 -- Variable, depending on whether or not the DODAG ParentAddress subfield 
 929:build\openmote-cc2538_armgcc\openstack\03b-IPv6/icmpv6rpl.c ****     // poipoi xv: it is not very clear if this includes all fields in the header. or as target info
 930:build\openmote-cc2538_armgcc\openstack\03b-IPv6/icmpv6rpl.c ****     // using the same pattern as in target information.
 931:build\openmote-cc2538_armgcc\openstack\03b-IPv6/icmpv6rpl.c ****     icmpv6rpl_vars.dao_transit.optionLength  = LENGTH_ADDR128b + sizeof(icmpv6rpl_dao_transit_ht)-2
 2709              		.loc 1 931 0
 2710 0f78 624B     		ldr	r3, .L155
 2711 0f7a 1422     		movs	r2, #20
 2712 0f7c 83F87720 		strb	r2, [r3, #119]
 932:build\openmote-cc2538_armgcc\openstack\03b-IPv6/icmpv6rpl.c ****     icmpv6rpl_vars.dao_transit.PathControl=0; //todo. this is to set the preference of this parent.
 2713              		.loc 1 932 0
 2714 0f80 604B     		ldr	r3, .L155
 2715 0f82 0022     		movs	r2, #0
 2716 0f84 83F87920 		strb	r2, [r3, #121]
 933:build\openmote-cc2538_armgcc\openstack\03b-IPv6/icmpv6rpl.c ****     icmpv6rpl_vars.dao_transit.type=OPTION_TRANSIT_INFORMATION_TYPE;
 2717              		.loc 1 933 0
 2718 0f88 5E4B     		ldr	r3, .L155
 2719 0f8a 0622     		movs	r2, #6
 2720 0f8c 83F87620 		strb	r2, [r3, #118]
 934:build\openmote-cc2538_armgcc\openstack\03b-IPv6/icmpv6rpl.c **** 
 935:build\openmote-cc2538_armgcc\openstack\03b-IPv6/icmpv6rpl.c ****     // write transit info in packet
 936:build\openmote-cc2538_armgcc\openstack\03b-IPv6/icmpv6rpl.c ****     packetfunctions_reserveHeaderSize(msg,sizeof(icmpv6rpl_dao_transit_ht));
 2721              		.loc 1 936 0
 2722 0f90 0621     		movs	r1, #6
 2723 0f92 386A     		ldr	r0, [r7, #32]
 2724 0f94 FFF7FEFF 		bl	packetfunctions_reserveHeaderSize
 937:build\openmote-cc2538_armgcc\openstack\03b-IPv6/icmpv6rpl.c ****     memcpy(
 938:build\openmote-cc2538_armgcc\openstack\03b-IPv6/icmpv6rpl.c ****           ((icmpv6rpl_dao_transit_ht*)(msg->payload)),
 2725              		.loc 1 938 0
 2726 0f98 3B6A     		ldr	r3, [r7, #32]
 2727 0f9a 5A68     		ldr	r2, [r3, #4]
 937:build\openmote-cc2538_armgcc\openstack\03b-IPv6/icmpv6rpl.c ****     memcpy(
 2728              		.loc 1 937 0
 2729 0f9c 594B     		ldr	r3, .L155
 2730 0f9e 7633     		adds	r3, r3, #118
 2731 0fa0 1968     		ldr	r1, [r3]	@ unaligned
 2732 0fa2 1160     		str	r1, [r2]	@ unaligned
 2733 0fa4 9B88     		ldrh	r3, [r3, #4]	@ unaligned
 2734 0fa6 9380     		strh	r3, [r2, #4]	@ unaligned
 939:build\openmote-cc2538_armgcc\openstack\03b-IPv6/icmpv6rpl.c ****           &(icmpv6rpl_vars.dao_transit),
 940:build\openmote-cc2538_armgcc\openstack\03b-IPv6/icmpv6rpl.c ****           sizeof(icmpv6rpl_dao_transit_ht)
 941:build\openmote-cc2538_armgcc\openstack\03b-IPv6/icmpv6rpl.c ****     );
 942:build\openmote-cc2538_armgcc\openstack\03b-IPv6/icmpv6rpl.c ****     numTransitParents++;
 2735              		.loc 1 942 0
 2736 0fa8 FB7F     		ldrb	r3, [r7, #31]	@ zero_extendqisi2
 2737 0faa 0133     		adds	r3, r3, #1
 2738 0fac FB77     		strb	r3, [r7, #31]
 943:build\openmote-cc2538_armgcc\openstack\03b-IPv6/icmpv6rpl.c **** 
 944:build\openmote-cc2538_armgcc\openstack\03b-IPv6/icmpv6rpl.c ****     //target information is required. RFC 6550 page 55.
 945:build\openmote-cc2538_armgcc\openstack\03b-IPv6/icmpv6rpl.c ****     /*
 946:build\openmote-cc2538_armgcc\openstack\03b-IPv6/icmpv6rpl.c ****     One or more Transit Information options MUST be preceded by one or
 947:build\openmote-cc2538_armgcc\openstack\03b-IPv6/icmpv6rpl.c ****     more RPL Target options.
 948:build\openmote-cc2538_armgcc\openstack\03b-IPv6/icmpv6rpl.c ****     */
 949:build\openmote-cc2538_armgcc\openstack\03b-IPv6/icmpv6rpl.c ****     numTargetParents                        = 0;
 2739              		.loc 1 949 0
 2740 0fae 0023     		movs	r3, #0
 2741 0fb0 87F82630 		strb	r3, [r7, #38]
 950:build\openmote-cc2538_armgcc\openstack\03b-IPv6/icmpv6rpl.c ****     for (nbrIdx=0;nbrIdx<MAXNUMNEIGHBORS;nbrIdx++) {
 2742              		.loc 1 950 0
 2743 0fb4 0023     		movs	r3, #0
 2744 0fb6 87F82730 		strb	r3, [r7, #39]
 2745 0fba 44E0     		b	.L142
 2746              	.L146:
 951:build\openmote-cc2538_armgcc\openstack\03b-IPv6/icmpv6rpl.c ****         if ((neighbors_isNeighborWithHigherDAGrank(nbrIdx))==TRUE) {
 2747              		.loc 1 951 0
 2748 0fbc 97F82730 		ldrb	r3, [r7, #39]	@ zero_extendqisi2
 2749 0fc0 1846     		mov	r0, r3
 2750 0fc2 FFF7FEFF 		bl	neighbors_isNeighborWithHigherDAGrank
 2751 0fc6 0346     		mov	r3, r0
 2752 0fc8 002B     		cmp	r3, #0
 2753 0fca 33D0     		beq	.L143
 952:build\openmote-cc2538_armgcc\openstack\03b-IPv6/icmpv6rpl.c ****             // this neighbor is of higher DAGrank as I am. so it is my child
 953:build\openmote-cc2538_armgcc\openstack\03b-IPv6/icmpv6rpl.c **** 
 954:build\openmote-cc2538_armgcc\openstack\03b-IPv6/icmpv6rpl.c ****              // write it's address in DAO RFC6550 page 80 check point 1.
 955:build\openmote-cc2538_armgcc\openstack\03b-IPv6/icmpv6rpl.c ****              neighbors_getNeighborEui64(&address,ADDR_64B,nbrIdx);
 2754              		.loc 1 955 0
 2755 0fcc 97F82720 		ldrb	r2, [r7, #39]	@ zero_extendqisi2
 2756 0fd0 3B1D     		adds	r3, r7, #4
 2757 0fd2 0221     		movs	r1, #2
 2758 0fd4 1846     		mov	r0, r3
 2759 0fd6 FFF7FEFF 		bl	neighbors_getNeighborEui64
 956:build\openmote-cc2538_armgcc\openstack\03b-IPv6/icmpv6rpl.c ****              packetfunctions_writeAddress(msg,&address,OW_BIG_ENDIAN);
 2760              		.loc 1 956 0
 2761 0fda 3B1D     		adds	r3, r7, #4
 2762 0fdc 0022     		movs	r2, #0
 2763 0fde 1946     		mov	r1, r3
 2764 0fe0 386A     		ldr	r0, [r7, #32]
 2765 0fe2 FFF7FEFF 		bl	packetfunctions_writeAddress
 957:build\openmote-cc2538_armgcc\openstack\03b-IPv6/icmpv6rpl.c ****              prefix=idmanager_getMyID(ADDR_PREFIX);
 2766              		.loc 1 957 0
 2767 0fe6 0520     		movs	r0, #5
 2768 0fe8 FFF7FEFF 		bl	idmanager_getMyID
 2769 0fec B861     		str	r0, [r7, #24]
 958:build\openmote-cc2538_armgcc\openstack\03b-IPv6/icmpv6rpl.c ****              packetfunctions_writeAddress(msg,prefix,OW_BIG_ENDIAN);
 2770              		.loc 1 958 0
 2771 0fee 0022     		movs	r2, #0
 2772 0ff0 B969     		ldr	r1, [r7, #24]
 2773 0ff2 386A     		ldr	r0, [r7, #32]
 2774 0ff4 FFF7FEFF 		bl	packetfunctions_writeAddress
 959:build\openmote-cc2538_armgcc\openstack\03b-IPv6/icmpv6rpl.c **** 
 960:build\openmote-cc2538_armgcc\openstack\03b-IPv6/icmpv6rpl.c ****             // update target info fields
 961:build\openmote-cc2538_armgcc\openstack\03b-IPv6/icmpv6rpl.c ****             // from rfc6550 p.55 -- Variable, length of the option in octets excluding the Type and
 962:build\openmote-cc2538_armgcc\openstack\03b-IPv6/icmpv6rpl.c ****             // poipoi xv: assuming that type and length fields refer to the 2 first bytes of the he
 963:build\openmote-cc2538_armgcc\openstack\03b-IPv6/icmpv6rpl.c ****             icmpv6rpl_vars.dao_target.optionLength  = LENGTH_ADDR128b +sizeof(icmpv6rpl_dao_target_
 2775              		.loc 1 963 0
 2776 0ff8 424B     		ldr	r3, .L155
 2777 0ffa 1222     		movs	r2, #18
 2778 0ffc 83F87D20 		strb	r2, [r3, #125]
 964:build\openmote-cc2538_armgcc\openstack\03b-IPv6/icmpv6rpl.c ****             icmpv6rpl_vars.dao_target.type  = OPTION_TARGET_INFORMATION_TYPE;
 2779              		.loc 1 964 0
 2780 1000 404B     		ldr	r3, .L155
 2781 1002 0522     		movs	r2, #5
 2782 1004 83F87C20 		strb	r2, [r3, #124]
 965:build\openmote-cc2538_armgcc\openstack\03b-IPv6/icmpv6rpl.c ****             icmpv6rpl_vars.dao_target.flags  = 0;       //must be 0
 2783              		.loc 1 965 0
 2784 1008 3E4B     		ldr	r3, .L155
 2785 100a 0022     		movs	r2, #0
 2786 100c 83F87E20 		strb	r2, [r3, #126]
 966:build\openmote-cc2538_armgcc\openstack\03b-IPv6/icmpv6rpl.c ****             icmpv6rpl_vars.dao_target.prefixLength = 128; //128 leading bits  -- full address.
 2787              		.loc 1 966 0
 2788 1010 3C4B     		ldr	r3, .L155
 2789 1012 8022     		movs	r2, #128
 2790 1014 83F87F20 		strb	r2, [r3, #127]
 967:build\openmote-cc2538_armgcc\openstack\03b-IPv6/icmpv6rpl.c **** 
 968:build\openmote-cc2538_armgcc\openstack\03b-IPv6/icmpv6rpl.c ****             // write transit info in packet
 969:build\openmote-cc2538_armgcc\openstack\03b-IPv6/icmpv6rpl.c ****             packetfunctions_reserveHeaderSize(msg,sizeof(icmpv6rpl_dao_target_ht));
 2791              		.loc 1 969 0
 2792 1018 0421     		movs	r1, #4
 2793 101a 386A     		ldr	r0, [r7, #32]
 2794 101c FFF7FEFF 		bl	packetfunctions_reserveHeaderSize
 970:build\openmote-cc2538_armgcc\openstack\03b-IPv6/icmpv6rpl.c ****             memcpy(
 971:build\openmote-cc2538_armgcc\openstack\03b-IPv6/icmpv6rpl.c ****                 ((icmpv6rpl_dao_target_ht*)(msg->payload)),
 2795              		.loc 1 971 0
 2796 1020 3B6A     		ldr	r3, [r7, #32]
 2797 1022 5B68     		ldr	r3, [r3, #4]
 970:build\openmote-cc2538_armgcc\openstack\03b-IPv6/icmpv6rpl.c ****             memcpy(
 2798              		.loc 1 970 0
 2799 1024 374A     		ldr	r2, .L155
 2800 1026 D26F     		ldr	r2, [r2, #124]
 2801 1028 1A60     		str	r2, [r3]	@ unaligned
 972:build\openmote-cc2538_armgcc\openstack\03b-IPv6/icmpv6rpl.c ****                 &(icmpv6rpl_vars.dao_target),
 973:build\openmote-cc2538_armgcc\openstack\03b-IPv6/icmpv6rpl.c ****                 sizeof(icmpv6rpl_dao_target_ht)
 974:build\openmote-cc2538_armgcc\openstack\03b-IPv6/icmpv6rpl.c ****             );
 975:build\openmote-cc2538_armgcc\openstack\03b-IPv6/icmpv6rpl.c **** 
 976:build\openmote-cc2538_armgcc\openstack\03b-IPv6/icmpv6rpl.c ****             // remember I found it
 977:build\openmote-cc2538_armgcc\openstack\03b-IPv6/icmpv6rpl.c ****             numTargetParents++;
 2802              		.loc 1 977 0
 2803 102a 97F82630 		ldrb	r3, [r7, #38]	@ zero_extendqisi2
 2804 102e 0133     		adds	r3, r3, #1
 2805 1030 87F82630 		strb	r3, [r7, #38]
 2806              	.L143:
 978:build\openmote-cc2538_armgcc\openstack\03b-IPv6/icmpv6rpl.c ****         }
 979:build\openmote-cc2538_armgcc\openstack\03b-IPv6/icmpv6rpl.c ****         //limit to MAX_TARGET_PARENTS the number of DAO target addresses to send
 980:build\openmote-cc2538_armgcc\openstack\03b-IPv6/icmpv6rpl.c ****         //section 8.2.1 pag 67 RFC6550 -- using a subset
 981:build\openmote-cc2538_armgcc\openstack\03b-IPv6/icmpv6rpl.c ****         // poipoi TODO base selection on ETX rather than first X.
 982:build\openmote-cc2538_armgcc\openstack\03b-IPv6/icmpv6rpl.c ****         if (numTargetParents>=MAX_TARGET_PARENTS) break;
 2807              		.loc 1 982 0
 2808 1034 97F82630 		ldrb	r3, [r7, #38]	@ zero_extendqisi2
 2809 1038 002B     		cmp	r3, #0
 2810 103a 09D1     		bne	.L154
 950:build\openmote-cc2538_armgcc\openstack\03b-IPv6/icmpv6rpl.c ****         if ((neighbors_isNeighborWithHigherDAGrank(nbrIdx))==TRUE) {
 2811              		.loc 1 950 0 discriminator 2
 2812 103c 97F82730 		ldrb	r3, [r7, #39]	@ zero_extendqisi2
 2813 1040 0133     		adds	r3, r3, #1
 2814 1042 87F82730 		strb	r3, [r7, #39]
 2815              	.L142:
 950:build\openmote-cc2538_armgcc\openstack\03b-IPv6/icmpv6rpl.c ****         if ((neighbors_isNeighborWithHigherDAGrank(nbrIdx))==TRUE) {
 2816              		.loc 1 950 0 is_stmt 0 discriminator 1
 2817 1046 97F82730 		ldrb	r3, [r7, #39]	@ zero_extendqisi2
 2818 104a 1D2B     		cmp	r3, #29
 2819 104c B6D9     		bls	.L146
 2820 104e 00E0     		b	.L145
 2821              	.L154:
 2822              		.loc 1 982 0 is_stmt 1
 2823 1050 00BF     		nop
 2824              	.L145:
 983:build\openmote-cc2538_armgcc\openstack\03b-IPv6/icmpv6rpl.c ****     }
 984:build\openmote-cc2538_armgcc\openstack\03b-IPv6/icmpv6rpl.c **** 
 985:build\openmote-cc2538_armgcc\openstack\03b-IPv6/icmpv6rpl.c **** 
 986:build\openmote-cc2538_armgcc\openstack\03b-IPv6/icmpv6rpl.c ****     // stop here if no parents found
 987:build\openmote-cc2538_armgcc\openstack\03b-IPv6/icmpv6rpl.c ****     if (numTransitParents==0) {
 2825              		.loc 1 987 0
 2826 1052 FB7F     		ldrb	r3, [r7, #31]	@ zero_extendqisi2
 2827 1054 002B     		cmp	r3, #0
 2828 1056 03D1     		bne	.L147
 988:build\openmote-cc2538_armgcc\openstack\03b-IPv6/icmpv6rpl.c ****         openqueue_freePacketBuffer(msg);
 2829              		.loc 1 988 0
 2830 1058 386A     		ldr	r0, [r7, #32]
 2831 105a FFF7FEFF 		bl	openqueue_freePacketBuffer
 989:build\openmote-cc2538_armgcc\openstack\03b-IPv6/icmpv6rpl.c ****         return;
 2832              		.loc 1 989 0
 2833 105e 4DE0     		b	.L133
 2834              	.L147:
 990:build\openmote-cc2538_armgcc\openstack\03b-IPv6/icmpv6rpl.c ****     }
 991:build\openmote-cc2538_armgcc\openstack\03b-IPv6/icmpv6rpl.c **** 
 992:build\openmote-cc2538_armgcc\openstack\03b-IPv6/icmpv6rpl.c ****     icmpv6rpl_vars.dao_transit.PathSequence++; //increment path sequence.
 2835              		.loc 1 992 0
 2836 1060 284B     		ldr	r3, .L155
 2837 1062 93F87A30 		ldrb	r3, [r3, #122]	@ zero_extendqisi2
 2838 1066 0133     		adds	r3, r3, #1
 2839 1068 DAB2     		uxtb	r2, r3
 2840 106a 264B     		ldr	r3, .L155
 2841 106c 83F87A20 		strb	r2, [r3, #122]
 993:build\openmote-cc2538_armgcc\openstack\03b-IPv6/icmpv6rpl.c ****     // if you get here, you will send a DAO
 994:build\openmote-cc2538_armgcc\openstack\03b-IPv6/icmpv6rpl.c **** 
 995:build\openmote-cc2538_armgcc\openstack\03b-IPv6/icmpv6rpl.c **** 
 996:build\openmote-cc2538_armgcc\openstack\03b-IPv6/icmpv6rpl.c ****     //=== DAO header
 997:build\openmote-cc2538_armgcc\openstack\03b-IPv6/icmpv6rpl.c ****     packetfunctions_reserveHeaderSize(msg,sizeof(icmpv6rpl_dao_ht));
 2842              		.loc 1 997 0
 2843 1070 1421     		movs	r1, #20
 2844 1072 386A     		ldr	r0, [r7, #32]
 2845 1074 FFF7FEFF 		bl	packetfunctions_reserveHeaderSize
 998:build\openmote-cc2538_armgcc\openstack\03b-IPv6/icmpv6rpl.c ****     icmpv6rpl_vars.dao.DAOSequence++;
 2846              		.loc 1 998 0
 2847 1078 224B     		ldr	r3, .L155
 2848 107a 93F86530 		ldrb	r3, [r3, #101]	@ zero_extendqisi2
 2849 107e 0133     		adds	r3, r3, #1
 2850 1080 DAB2     		uxtb	r2, r3
 2851 1082 204B     		ldr	r3, .L155
 2852 1084 83F86520 		strb	r2, [r3, #101]
 999:build\openmote-cc2538_armgcc\openstack\03b-IPv6/icmpv6rpl.c ****     memcpy(
1000:build\openmote-cc2538_armgcc\openstack\03b-IPv6/icmpv6rpl.c ****         ((icmpv6rpl_dao_ht*)(msg->payload)),
 2853              		.loc 1 1000 0
 2854 1088 3B6A     		ldr	r3, [r7, #32]
 2855 108a 5A68     		ldr	r2, [r3, #4]
 999:build\openmote-cc2538_armgcc\openstack\03b-IPv6/icmpv6rpl.c ****     memcpy(
 2856              		.loc 1 999 0
 2857 108c 1D4B     		ldr	r3, .L155
 2858 108e 6233     		adds	r3, r3, #98
 2859 1090 1968     		ldr	r1, [r3]	@ unaligned
 2860 1092 5D68     		ldr	r5, [r3, #4]	@ unaligned
 2861 1094 9C68     		ldr	r4, [r3, #8]	@ unaligned
 2862 1096 D868     		ldr	r0, [r3, #12]	@ unaligned
 2863 1098 1160     		str	r1, [r2]	@ unaligned
 2864 109a 5560     		str	r5, [r2, #4]	@ unaligned
 2865 109c 9460     		str	r4, [r2, #8]	@ unaligned
 2866 109e D060     		str	r0, [r2, #12]	@ unaligned
 2867 10a0 1969     		ldr	r1, [r3, #16]	@ unaligned
 2868 10a2 1161     		str	r1, [r2, #16]	@ unaligned
1001:build\openmote-cc2538_armgcc\openstack\03b-IPv6/icmpv6rpl.c ****         &(icmpv6rpl_vars.dao),
1002:build\openmote-cc2538_armgcc\openstack\03b-IPv6/icmpv6rpl.c ****         sizeof(icmpv6rpl_dao_ht)
1003:build\openmote-cc2538_armgcc\openstack\03b-IPv6/icmpv6rpl.c ****     );
1004:build\openmote-cc2538_armgcc\openstack\03b-IPv6/icmpv6rpl.c **** 
1005:build\openmote-cc2538_armgcc\openstack\03b-IPv6/icmpv6rpl.c ****     //=== ICMPv6 header
1006:build\openmote-cc2538_armgcc\openstack\03b-IPv6/icmpv6rpl.c ****     packetfunctions_reserveHeaderSize(msg,sizeof(ICMPv6_ht));
 2869              		.loc 1 1006 0
 2870 10a4 0421     		movs	r1, #4
 2871 10a6 386A     		ldr	r0, [r7, #32]
 2872 10a8 FFF7FEFF 		bl	packetfunctions_reserveHeaderSize
1007:build\openmote-cc2538_armgcc\openstack\03b-IPv6/icmpv6rpl.c ****     ((ICMPv6_ht*)(msg->payload))->type       = msg->l4_sourcePortORicmpv6Type;
 2873              		.loc 1 1007 0
 2874 10ac 3B6A     		ldr	r3, [r7, #32]
 2875 10ae 5A8A     		ldrh	r2, [r3, #18]
 2876 10b0 3B6A     		ldr	r3, [r7, #32]
 2877 10b2 5B68     		ldr	r3, [r3, #4]
 2878 10b4 D2B2     		uxtb	r2, r2
 2879 10b6 1A70     		strb	r2, [r3]
1008:build\openmote-cc2538_armgcc\openstack\03b-IPv6/icmpv6rpl.c ****     ((ICMPv6_ht*)(msg->payload))->code       = IANA_ICMPv6_RPL_DAO;
 2880              		.loc 1 1008 0
 2881 10b8 3B6A     		ldr	r3, [r7, #32]
 2882 10ba 5B68     		ldr	r3, [r3, #4]
 2883 10bc 0222     		movs	r2, #2
 2884 10be 5A70     		strb	r2, [r3, #1]
1009:build\openmote-cc2538_armgcc\openstack\03b-IPv6/icmpv6rpl.c ****     packetfunctions_calculateChecksum(msg,(uint8_t*)&(((ICMPv6_ht*)(msg->payload))->checksum)); //c
 2885              		.loc 1 1009 0
 2886 10c0 3B6A     		ldr	r3, [r7, #32]
 2887 10c2 5B68     		ldr	r3, [r3, #4]
 2888 10c4 0233     		adds	r3, r3, #2
 2889 10c6 1946     		mov	r1, r3
 2890 10c8 386A     		ldr	r0, [r7, #32]
 2891 10ca FFF7FEFF 		bl	packetfunctions_calculateChecksum
1010:build\openmote-cc2538_armgcc\openstack\03b-IPv6/icmpv6rpl.c **** 
1011:build\openmote-cc2538_armgcc\openstack\03b-IPv6/icmpv6rpl.c ****     //===== send
1012:build\openmote-cc2538_armgcc\openstack\03b-IPv6/icmpv6rpl.c ****     if (icmpv6_send(msg)==E_SUCCESS) {
 2892              		.loc 1 1012 0
 2893 10ce 386A     		ldr	r0, [r7, #32]
 2894 10d0 FFF7FEFF 		bl	icmpv6_send
 2895 10d4 0346     		mov	r3, r0
 2896 10d6 002B     		cmp	r3, #0
 2897 10d8 07D1     		bne	.L148
1013:build\openmote-cc2538_armgcc\openstack\03b-IPv6/icmpv6rpl.c ****         icmpv6rpl_vars.busySendingDAO = TRUE;
 2898              		.loc 1 1013 0
 2899 10da 0A4B     		ldr	r3, .L155
 2900 10dc 0122     		movs	r2, #1
 2901 10de 5A70     		strb	r2, [r3, #1]
1014:build\openmote-cc2538_armgcc\openstack\03b-IPv6/icmpv6rpl.c ****         icmpv6rpl_vars.daoSent = TRUE;
 2902              		.loc 1 1014 0
 2903 10e0 084B     		ldr	r3, .L155
 2904 10e2 0122     		movs	r2, #1
 2905 10e4 83F89820 		strb	r2, [r3, #152]
 2906 10e8 08E0     		b	.L133
 2907              	.L148:
1015:build\openmote-cc2538_armgcc\openstack\03b-IPv6/icmpv6rpl.c ****     } else {
1016:build\openmote-cc2538_armgcc\openstack\03b-IPv6/icmpv6rpl.c ****         openqueue_freePacketBuffer(msg);
 2908              		.loc 1 1016 0
 2909 10ea 386A     		ldr	r0, [r7, #32]
 2910 10ec FFF7FEFF 		bl	openqueue_freePacketBuffer
 2911 10f0 04E0     		b	.L133
 2912              	.L151:
 861:build\openmote-cc2538_armgcc\openstack\03b-IPv6/icmpv6rpl.c ****     }
 2913              		.loc 1 861 0
 2914 10f2 00BF     		nop
 2915 10f4 02E0     		b	.L133
 2916              	.L152:
 866:build\openmote-cc2538_armgcc\openstack\03b-IPv6/icmpv6rpl.c ****     }
 2917              		.loc 1 866 0
 2918 10f6 00BF     		nop
 2919 10f8 00E0     		b	.L133
 2920              	.L153:
 890:build\openmote-cc2538_armgcc\openstack\03b-IPv6/icmpv6rpl.c ****     }
 2921              		.loc 1 890 0
 2922 10fa 00BF     		nop
 2923              	.L133:
1017:build\openmote-cc2538_armgcc\openstack\03b-IPv6/icmpv6rpl.c ****     }
1018:build\openmote-cc2538_armgcc\openstack\03b-IPv6/icmpv6rpl.c **** }
 2924              		.loc 1 1018 0
 2925 10fc 2837     		adds	r7, r7, #40
 2926              		.cfi_def_cfa_offset 16
 2927 10fe BD46     		mov	sp, r7
 2928              		.cfi_def_cfa_register 13
 2929              		@ sp needed
 2930 1100 B0BD     		pop	{r4, r5, r7, pc}
 2931              	.L156:
 2932 1102 00BF     		.align	2
 2933              	.L155:
 2934 1104 00000000 		.word	icmpv6rpl_vars
 2935              		.cfi_endproc
 2936              	.LFE23:
 2938              		.align	1
 2939              		.global	icmpv6rpl_setDIOPeriod
 2940              		.syntax unified
 2941              		.thumb
 2942              		.thumb_func
 2943              		.fpu softvfp
 2945              	icmpv6rpl_setDIOPeriod:
 2946              	.LFB24:
1019:build\openmote-cc2538_armgcc\openstack\03b-IPv6/icmpv6rpl.c **** 
1020:build\openmote-cc2538_armgcc\openstack\03b-IPv6/icmpv6rpl.c **** void icmpv6rpl_setDIOPeriod(uint16_t dioPeriod){
 2947              		.loc 1 1020 0
 2948              		.cfi_startproc
 2949              		@ args = 0, pretend = 0, frame = 8
 2950              		@ frame_needed = 1, uses_anonymous_args = 0
 2951              		@ link register save eliminated.
 2952 1108 80B4     		push	{r7}
 2953              		.cfi_def_cfa_offset 4
 2954              		.cfi_offset 7, -4
 2955 110a 83B0     		sub	sp, sp, #12
 2956              		.cfi_def_cfa_offset 16
 2957 110c 00AF     		add	r7, sp, #0
 2958              		.cfi_def_cfa_register 7
 2959 110e 0346     		mov	r3, r0
 2960 1110 FB80     		strh	r3, [r7, #6]	@ movhi
1021:build\openmote-cc2538_armgcc\openstack\03b-IPv6/icmpv6rpl.c ****     // convert to seconds
1022:build\openmote-cc2538_armgcc\openstack\03b-IPv6/icmpv6rpl.c ****     icmpv6rpl_vars.dioPeriod = dioPeriod/1000;
 2961              		.loc 1 1022 0
 2962 1112 FB88     		ldrh	r3, [r7, #6]
 2963 1114 064A     		ldr	r2, .L158
 2964 1116 A2FB0323 		umull	r2, r3, r2, r3
 2965 111a 9B09     		lsrs	r3, r3, #6
 2966 111c 9AB2     		uxth	r2, r3
 2967 111e 054B     		ldr	r3, .L158+4
 2968 1120 A3F86020 		strh	r2, [r3, #96]	@ movhi
1023:build\openmote-cc2538_armgcc\openstack\03b-IPv6/icmpv6rpl.c **** }
 2969              		.loc 1 1023 0
 2970 1124 00BF     		nop
 2971 1126 0C37     		adds	r7, r7, #12
 2972              		.cfi_def_cfa_offset 4
 2973 1128 BD46     		mov	sp, r7
 2974              		.cfi_def_cfa_register 13
 2975              		@ sp needed
 2976 112a 80BC     		pop	{r7}
 2977              		.cfi_restore 7
 2978              		.cfi_def_cfa_offset 0
 2979 112c 7047     		bx	lr
 2980              	.L159:
 2981 112e 00BF     		.align	2
 2982              	.L158:
 2983 1130 D34D6210 		.word	274877907
 2984 1134 00000000 		.word	icmpv6rpl_vars
 2985              		.cfi_endproc
 2986              	.LFE24:
 2988              		.align	1
 2989              		.global	icmpv6rpl_setDAOPeriod
 2990              		.syntax unified
 2991              		.thumb
 2992              		.thumb_func
 2993              		.fpu softvfp
 2995              	icmpv6rpl_setDAOPeriod:
 2996              	.LFB25:
1024:build\openmote-cc2538_armgcc\openstack\03b-IPv6/icmpv6rpl.c **** 
1025:build\openmote-cc2538_armgcc\openstack\03b-IPv6/icmpv6rpl.c **** void icmpv6rpl_setDAOPeriod(uint16_t daoPeriod){
 2997              		.loc 1 1025 0
 2998              		.cfi_startproc
 2999              		@ args = 0, pretend = 0, frame = 8
 3000              		@ frame_needed = 1, uses_anonymous_args = 0
 3001              		@ link register save eliminated.
 3002 1138 80B4     		push	{r7}
 3003              		.cfi_def_cfa_offset 4
 3004              		.cfi_offset 7, -4
 3005 113a 83B0     		sub	sp, sp, #12
 3006              		.cfi_def_cfa_offset 16
 3007 113c 00AF     		add	r7, sp, #0
 3008              		.cfi_def_cfa_register 7
 3009 113e 0346     		mov	r3, r0
 3010 1140 FB80     		strh	r3, [r7, #6]	@ movhi
1026:build\openmote-cc2538_armgcc\openstack\03b-IPv6/icmpv6rpl.c ****     // convert to seconds
1027:build\openmote-cc2538_armgcc\openstack\03b-IPv6/icmpv6rpl.c ****     icmpv6rpl_vars.daoPeriod = daoPeriod/1000;
 3011              		.loc 1 1027 0
 3012 1142 FB88     		ldrh	r3, [r7, #6]
 3013 1144 064A     		ldr	r2, .L161
 3014 1146 A2FB0323 		umull	r2, r3, r2, r3
 3015 114a 9B09     		lsrs	r3, r3, #6
 3016 114c 9AB2     		uxth	r2, r3
 3017 114e 054B     		ldr	r3, .L161+4
 3018 1150 A3F88420 		strh	r2, [r3, #132]	@ movhi
1028:build\openmote-cc2538_armgcc\openstack\03b-IPv6/icmpv6rpl.c **** }
 3019              		.loc 1 1028 0
 3020 1154 00BF     		nop
 3021 1156 0C37     		adds	r7, r7, #12
 3022              		.cfi_def_cfa_offset 4
 3023 1158 BD46     		mov	sp, r7
 3024              		.cfi_def_cfa_register 13
 3025              		@ sp needed
 3026 115a 80BC     		pop	{r7}
 3027              		.cfi_restore 7
 3028              		.cfi_def_cfa_offset 0
 3029 115c 7047     		bx	lr
 3030              	.L162:
 3031 115e 00BF     		.align	2
 3032              	.L161:
 3033 1160 D34D6210 		.word	274877907
 3034 1164 00000000 		.word	icmpv6rpl_vars
 3035              		.cfi_endproc
 3036              	.LFE25:
 3038              		.align	1
 3039              		.global	icmpv6rpl_daoSent
 3040              		.syntax unified
 3041              		.thumb
 3042              		.thumb_func
 3043              		.fpu softvfp
 3045              	icmpv6rpl_daoSent:
 3046              	.LFB26:
1029:build\openmote-cc2538_armgcc\openstack\03b-IPv6/icmpv6rpl.c **** 
1030:build\openmote-cc2538_armgcc\openstack\03b-IPv6/icmpv6rpl.c **** bool icmpv6rpl_daoSent(void) {
 3047              		.loc 1 1030 0
 3048              		.cfi_startproc
 3049              		@ args = 0, pretend = 0, frame = 0
 3050              		@ frame_needed = 1, uses_anonymous_args = 0
 3051 1168 80B5     		push	{r7, lr}
 3052              		.cfi_def_cfa_offset 8
 3053              		.cfi_offset 7, -8
 3054              		.cfi_offset 14, -4
 3055 116a 00AF     		add	r7, sp, #0
 3056              		.cfi_def_cfa_register 7
1031:build\openmote-cc2538_armgcc\openstack\03b-IPv6/icmpv6rpl.c ****     if (idmanager_getIsDAGroot()==TRUE) {
 3057              		.loc 1 1031 0
 3058 116c FFF7FEFF 		bl	idmanager_getIsDAGroot
 3059 1170 0346     		mov	r3, r0
 3060 1172 002B     		cmp	r3, #0
 3061 1174 01D0     		beq	.L164
1032:build\openmote-cc2538_armgcc\openstack\03b-IPv6/icmpv6rpl.c ****         return TRUE;
 3062              		.loc 1 1032 0
 3063 1176 0123     		movs	r3, #1
 3064 1178 02E0     		b	.L165
 3065              	.L164:
1033:build\openmote-cc2538_armgcc\openstack\03b-IPv6/icmpv6rpl.c ****     }
1034:build\openmote-cc2538_armgcc\openstack\03b-IPv6/icmpv6rpl.c ****     return icmpv6rpl_vars.daoSent;
 3066              		.loc 1 1034 0
 3067 117a 024B     		ldr	r3, .L166
 3068 117c 93F89830 		ldrb	r3, [r3, #152]	@ zero_extendqisi2
 3069              	.L165:
1035:build\openmote-cc2538_armgcc\openstack\03b-IPv6/icmpv6rpl.c **** }
 3070              		.loc 1 1035 0
 3071 1180 1846     		mov	r0, r3
 3072 1182 80BD     		pop	{r7, pc}
 3073              	.L167:
 3074              		.align	2
 3075              	.L166:
 3076 1184 00000000 		.word	icmpv6rpl_vars
 3077              		.cfi_endproc
 3078              	.LFE26:
 3080              	.Letext0:
 3081              		.file 2 "c:\\program files (x86)\\gnu tools arm embedded\\7 2018-q2-update\\arm-none-eabi\\include
 3082              		.file 3 "c:\\program files (x86)\\gnu tools arm embedded\\7 2018-q2-update\\arm-none-eabi\\include
 3083              		.file 4 "c:\\program files (x86)\\gnu tools arm embedded\\7 2018-q2-update\\arm-none-eabi\\include
 3084              		.file 5 "c:\\program files (x86)\\gnu tools arm embedded\\7 2018-q2-update\\arm-none-eabi\\include
 3085              		.file 6 "c:\\program files (x86)\\gnu tools arm embedded\\7 2018-q2-update\\lib\\gcc\\arm-none-eab
 3086              		.file 7 "c:\\program files (x86)\\gnu tools arm embedded\\7 2018-q2-update\\arm-none-eabi\\include
 3087              		.file 8 "bsp\\boards\\openmote-cc2538/board_info.h"
 3088              		.file 9 "inc/opendefs.h"
 3089              		.file 10 "drivers\\common/opentimers.h"
 3090              		.file 11 "build\\openmote-cc2538_armgcc\\openstack\\03b-IPv6\\icmpv6rpl.h"
 3091              		.file 12 "build\\openmote-cc2538_armgcc\\openstack\\03b-IPv6\\icmpv6.h"
 3092              		.file 13 "kernel/scheduler.h"
 3093              		.file 14 "openstack\\cross-layers/idmanager.h"
 3094              		.file 15 "openstack\\02a-MAClow/IEEE802154E.h"