   1              		.cpu cortex-m3
   2              		.eabi_attribute 20, 1
   3              		.eabi_attribute 21, 1
   4              		.eabi_attribute 23, 3
   5              		.eabi_attribute 24, 1
   6              		.eabi_attribute 25, 1
   7              		.eabi_attribute 26, 1
   8              		.eabi_attribute 30, 6
   9              		.eabi_attribute 34, 1
  10              		.eabi_attribute 18, 4
  11              		.file	"chang.c"
  12              		.text
  13              	.Ltext0:
  14              		.cfi_sections	.debug_frame
  15              		.section	.rodata
  16              		.align	2
  19              	rreg_uriquery:
  20 0000 683D7563 		.ascii	"h=ucb\000"
  20      6200
  21 0006 0000     		.align	2
  24              	infoBoardname:
  25 0008 43433235 		.ascii	"CC2538\000"
  25      333800
  26 000f 00       		.align	2
  29              	infouCName:
  30 0010 43433235 		.ascii	"CC2538\000"
  30      333800
  31 0017 00       		.align	2
  34              	infoRadioName:
  35 0018 43433235 		.ascii	"CC2538 SoC\000"
  35      33382053 
  35      6F4300
  36 0023 00       		.align	2
  39              	infoStackName:
  40 0024 4F70656E 		.ascii	"OpenWSN \000"
  40      57534E20 
  40      00
  41 002d 000000   		.align	2
  44              	chTemplate_default:
  45 0030 05       		.byte	5
  46 0031 06       		.byte	6
  47 0032 0C       		.byte	12
  48 0033 07       		.byte	7
  49 0034 0F       		.byte	15
  50 0035 04       		.byte	4
  51 0036 0E       		.byte	14
  52 0037 0B       		.byte	11
  53 0038 08       		.byte	8
  54 0039 00       		.byte	0
  55 003a 01       		.byte	1
  56 003b 02       		.byte	2
  57 003c 0D       		.byte	13
  58 003d 03       		.byte	3
  59 003e 09       		.byte	9
  60 003f 0A       		.byte	10
  61              		.align	2
  64              	ebIEsBytestream:
  65 0040 1A       		.byte	26
  66 0041 88       		.byte	-120
  67 0042 06       		.byte	6
  68 0043 1A       		.byte	26
  69 0044 00       		.byte	0
  70 0045 00       		.byte	0
  71 0046 00       		.byte	0
  72 0047 00       		.byte	0
  73 0048 00       		.byte	0
  74 0049 00       		.byte	0
  75 004a 01       		.byte	1
  76 004b 1C       		.byte	28
  77 004c 00       		.byte	0
  78 004d 01       		.byte	1
  79 004e C8       		.byte	-56
  80 004f 00       		.byte	0
  81 0050 0A       		.byte	10
  82 0051 1B       		.byte	27
  83 0052 01       		.byte	1
  84 0053 00       		.byte	0
  85 0054 0D       		.byte	13
  86 0055 00       		.byte	0
  87 0056 01       		.byte	1
  88 0057 00       		.byte	0
  89 0058 00       		.byte	0
  90 0059 00       		.byte	0
  91 005a 00       		.byte	0
  92 005b 0F       		.byte	15
  93              		.align	2
  96              	all_routers_multicast:
  97 005c FF       		.byte	-1
  98 005d 02       		.byte	2
  99 005e 00       		.byte	0
 100 005f 00       		.byte	0
 101 0060 00       		.byte	0
 102 0061 00       		.byte	0
 103 0062 00       		.byte	0
 104 0063 00       		.byte	0
 105 0064 00       		.byte	0
 106 0065 00       		.byte	0
 107 0066 00       		.byte	0
 108 0067 00       		.byte	0
 109 0068 00       		.byte	0
 110 0069 00       		.byte	0
 111 006a 00       		.byte	0
 112 006b 1A       		.byte	26
 113              		.align	2
 116              	linklocalprefix:
 117 006c FE       		.byte	-2
 118 006d 80       		.byte	-128
 119 006e 00       		.byte	0
 120 006f 00       		.byte	0
 121 0070 00       		.byte	0
 122 0071 00       		.byte	0
 123 0072 00       		.byte	0
 124 0073 00       		.byte	0
 125              		.comm	chang_vars,28,4
 126              		.align	2
 129              	chang_payload:
 130 0074 6368616E 		.ascii	"chang\000"
 130      6700
 131 007a 0000     		.align	2
 134              	chang_dst_addr:
 135 007c BB       		.byte	-69
 136 007d BB       		.byte	-69
 137 007e 00       		.byte	0
 138 007f 00       		.byte	0
 139 0080 00       		.byte	0
 140 0081 00       		.byte	0
 141 0082 00       		.byte	0
 142 0083 00       		.byte	0
 143 0084 00       		.byte	0
 144 0085 00       		.byte	0
 145 0086 00       		.byte	0
 146 0087 00       		.byte	0
 147 0088 00       		.byte	0
 148 0089 00       		.byte	0
 149 008a 00       		.byte	0
 150 008b 01       		.byte	1
 151              		.text
 152              		.align	1
 153              		.global	chang_init
 154              		.syntax unified
 155              		.thumb
 156              		.thumb_func
 157              		.fpu softvfp
 159              	chang_init:
 160              	.LFB3:
 161              		.file 1 "build\\openmote-cc2538_armgcc\\openapps\\chang\\chang.c"
   1:build\openmote-cc2538_armgcc\openapps\chang/chang.c **** #include "opendefs.h"
   2:build\openmote-cc2538_armgcc\openapps\chang/chang.c **** #include "chang.h"
   3:build\openmote-cc2538_armgcc\openapps\chang/chang.c **** #include "openqueue.h"
   4:build\openmote-cc2538_armgcc\openapps\chang/chang.c **** #include "openserial.h"
   5:build\openmote-cc2538_armgcc\openapps\chang/chang.c **** #include "packetfunctions.h"
   6:build\openmote-cc2538_armgcc\openapps\chang/chang.c **** #include "scheduler.h"
   7:build\openmote-cc2538_armgcc\openapps\chang/chang.c **** #include "IEEE802154E.h"
   8:build\openmote-cc2538_armgcc\openapps\chang/chang.c **** #include "schedule.h"
   9:build\openmote-cc2538_armgcc\openapps\chang/chang.c **** #include "icmpv6rpl.h"
  10:build\openmote-cc2538_armgcc\openapps\chang/chang.c **** #include "idmanager.h"
  11:build\openmote-cc2538_armgcc\openapps\chang/chang.c **** 
  12:build\openmote-cc2538_armgcc\openapps\chang/chang.c **** //=========================== variables =======================================
  13:build\openmote-cc2538_armgcc\openapps\chang/chang.c **** 
  14:build\openmote-cc2538_armgcc\openapps\chang/chang.c **** chang_vars_t chang_vars;
  15:build\openmote-cc2538_armgcc\openapps\chang/chang.c **** 
  16:build\openmote-cc2538_armgcc\openapps\chang/chang.c **** static const uint8_t chang_payload[]    = "chang";
  17:build\openmote-cc2538_armgcc\openapps\chang/chang.c **** static const uint8_t chang_dst_addr[]   = {
  18:build\openmote-cc2538_armgcc\openapps\chang/chang.c ****    0xbb, 0xbb, 0x00, 0x00, 0x00, 0x00, 0x00, 0x00,
  19:build\openmote-cc2538_armgcc\openapps\chang/chang.c ****    0x00, 0x00, 0x00, 0x00, 0x00, 0x00, 0x00, 0x01
  20:build\openmote-cc2538_armgcc\openapps\chang/chang.c **** };
  21:build\openmote-cc2538_armgcc\openapps\chang/chang.c **** 
  22:build\openmote-cc2538_armgcc\openapps\chang/chang.c **** //=========================== prototypes ======================================
  23:build\openmote-cc2538_armgcc\openapps\chang/chang.c **** 
  24:build\openmote-cc2538_armgcc\openapps\chang/chang.c **** void chang_timer_cb(opentimers_id_t id);
  25:build\openmote-cc2538_armgcc\openapps\chang/chang.c **** void chang_task_cb(void);
  26:build\openmote-cc2538_armgcc\openapps\chang/chang.c **** 
  27:build\openmote-cc2538_armgcc\openapps\chang/chang.c **** //=========================== public ==========================================
  28:build\openmote-cc2538_armgcc\openapps\chang/chang.c **** 
  29:build\openmote-cc2538_armgcc\openapps\chang/chang.c **** void chang_init(void) {
 162              		.loc 1 29 0
 163              		.cfi_startproc
 164              		@ args = 0, pretend = 0, frame = 0
 165              		@ frame_needed = 1, uses_anonymous_args = 0
 166 0000 80B5     		push	{r7, lr}
 167              		.cfi_def_cfa_offset 8
 168              		.cfi_offset 7, -8
 169              		.cfi_offset 14, -4
 170 0002 82B0     		sub	sp, sp, #8
 171              		.cfi_def_cfa_offset 16
 172 0004 02AF     		add	r7, sp, #8
 173              		.cfi_def_cfa 7, 8
  30:build\openmote-cc2538_armgcc\openapps\chang/chang.c **** 
  31:build\openmote-cc2538_armgcc\openapps\chang/chang.c ****     // clear local variables
  32:build\openmote-cc2538_armgcc\openapps\chang/chang.c ****     memset(&chang_vars,0,sizeof(chang_vars_t));
 174              		.loc 1 32 0
 175 0006 1C22     		movs	r2, #28
 176 0008 0021     		movs	r1, #0
 177 000a 1448     		ldr	r0, .L2
 178 000c FFF7FEFF 		bl	memset
  33:build\openmote-cc2538_armgcc\openapps\chang/chang.c **** 
  34:build\openmote-cc2538_armgcc\openapps\chang/chang.c ****     // register at UDP stack
  35:build\openmote-cc2538_armgcc\openapps\chang/chang.c ****     chang_vars.desc.port              = WKP_UDP_INJECT;
 179              		.loc 1 35 0
 180 0010 124B     		ldr	r3, .L2
 181 0012 4FF2B102 		movw	r2, #61617
 182 0016 1A81     		strh	r2, [r3, #8]	@ movhi
  36:build\openmote-cc2538_armgcc\openapps\chang/chang.c ****     chang_vars.desc.callbackReceive   = &chang_receive;
 183              		.loc 1 36 0
 184 0018 104B     		ldr	r3, .L2
 185 001a 114A     		ldr	r2, .L2+4
 186 001c DA60     		str	r2, [r3, #12]
  37:build\openmote-cc2538_armgcc\openapps\chang/chang.c ****     chang_vars.desc.callbackSendDone  = &chang_sendDone;
 187              		.loc 1 37 0
 188 001e 0F4B     		ldr	r3, .L2
 189 0020 104A     		ldr	r2, .L2+8
 190 0022 1A61     		str	r2, [r3, #16]
  38:build\openmote-cc2538_armgcc\openapps\chang/chang.c ****     openudp_register(&chang_vars.desc);
 191              		.loc 1 38 0
 192 0024 1048     		ldr	r0, .L2+12
 193 0026 FFF7FEFF 		bl	openudp_register
  39:build\openmote-cc2538_armgcc\openapps\chang/chang.c **** 
  40:build\openmote-cc2538_armgcc\openapps\chang/chang.c ****     chang_vars.period = chang_PERIOD_MS;
 194              		.loc 1 40 0
 195 002a 0C4B     		ldr	r3, .L2
 196 002c 41F28832 		movw	r2, #5000
 197 0030 9A80     		strh	r2, [r3, #4]	@ movhi
  41:build\openmote-cc2538_armgcc\openapps\chang/chang.c ****     // start periodic timer
  42:build\openmote-cc2538_armgcc\openapps\chang/chang.c ****     chang_vars.timerId = opentimers_create(TIMER_GENERAL_PURPOSE, TASKPRIO_UDP);
 198              		.loc 1 42 0
 199 0032 0721     		movs	r1, #7
 200 0034 FF20     		movs	r0, #255
 201 0036 FFF7FEFF 		bl	opentimers_create
 202 003a 0346     		mov	r3, r0
 203 003c 1A46     		mov	r2, r3
 204 003e 074B     		ldr	r3, .L2
 205 0040 1A70     		strb	r2, [r3]
  43:build\openmote-cc2538_armgcc\openapps\chang/chang.c ****     opentimers_scheduleIn(
 206              		.loc 1 43 0
 207 0042 064B     		ldr	r3, .L2
 208 0044 1878     		ldrb	r0, [r3]	@ zero_extendqisi2
 209 0046 094B     		ldr	r3, .L2+16
 210 0048 0093     		str	r3, [sp]
 211 004a 0023     		movs	r3, #0
 212 004c 0022     		movs	r2, #0
 213 004e 41F28831 		movw	r1, #5000
 214 0052 FFF7FEFF 		bl	opentimers_scheduleIn
  44:build\openmote-cc2538_armgcc\openapps\chang/chang.c ****         chang_vars.timerId,
  45:build\openmote-cc2538_armgcc\openapps\chang/chang.c ****         chang_PERIOD_MS,
  46:build\openmote-cc2538_armgcc\openapps\chang/chang.c ****         TIME_MS,
  47:build\openmote-cc2538_armgcc\openapps\chang/chang.c ****         TIMER_PERIODIC,
  48:build\openmote-cc2538_armgcc\openapps\chang/chang.c ****         chang_timer_cb
  49:build\openmote-cc2538_armgcc\openapps\chang/chang.c ****     );
  50:build\openmote-cc2538_armgcc\openapps\chang/chang.c **** }
 215              		.loc 1 50 0
 216 0056 00BF     		nop
 217 0058 BD46     		mov	sp, r7
 218              		.cfi_def_cfa_register 13
 219              		@ sp needed
 220 005a 80BD     		pop	{r7, pc}
 221              	.L3:
 222              		.align	2
 223              	.L2:
 224 005c 00000000 		.word	chang_vars
 225 0060 00000000 		.word	chang_receive
 226 0064 00000000 		.word	chang_sendDone
 227 0068 08000000 		.word	chang_vars+8
 228 006c 00000000 		.word	chang_timer_cb
 229              		.cfi_endproc
 230              	.LFE3:
 232              		.align	1
 233              		.global	chang_sendDone
 234              		.syntax unified
 235              		.thumb
 236              		.thumb_func
 237              		.fpu softvfp
 239              	chang_sendDone:
 240              	.LFB4:
  51:build\openmote-cc2538_armgcc\openapps\chang/chang.c **** 
  52:build\openmote-cc2538_armgcc\openapps\chang/chang.c **** void chang_sendDone(OpenQueueEntry_t* msg, owerror_t error) {
 241              		.loc 1 52 0
 242              		.cfi_startproc
 243              		@ args = 0, pretend = 0, frame = 8
 244              		@ frame_needed = 1, uses_anonymous_args = 0
 245 0070 80B5     		push	{r7, lr}
 246              		.cfi_def_cfa_offset 8
 247              		.cfi_offset 7, -8
 248              		.cfi_offset 14, -4
 249 0072 82B0     		sub	sp, sp, #8
 250              		.cfi_def_cfa_offset 16
 251 0074 00AF     		add	r7, sp, #0
 252              		.cfi_def_cfa_register 7
 253 0076 7860     		str	r0, [r7, #4]
 254 0078 0B46     		mov	r3, r1
 255 007a FB70     		strb	r3, [r7, #3]
  53:build\openmote-cc2538_armgcc\openapps\chang/chang.c **** 
  54:build\openmote-cc2538_armgcc\openapps\chang/chang.c ****     // free the packet buffer entry
  55:build\openmote-cc2538_armgcc\openapps\chang/chang.c ****     openqueue_freePacketBuffer(msg);
 256              		.loc 1 55 0
 257 007c 7868     		ldr	r0, [r7, #4]
 258 007e FFF7FEFF 		bl	openqueue_freePacketBuffer
  56:build\openmote-cc2538_armgcc\openapps\chang/chang.c **** 
  57:build\openmote-cc2538_armgcc\openapps\chang/chang.c ****     // allow send next chang packet
  58:build\openmote-cc2538_armgcc\openapps\chang/chang.c ****     chang_vars.busySendingchang = FALSE;
 259              		.loc 1 58 0
 260 0082 034B     		ldr	r3, .L5
 261 0084 0022     		movs	r2, #0
 262 0086 1A76     		strb	r2, [r3, #24]
  59:build\openmote-cc2538_armgcc\openapps\chang/chang.c **** }
 263              		.loc 1 59 0
 264 0088 00BF     		nop
 265 008a 0837     		adds	r7, r7, #8
 266              		.cfi_def_cfa_offset 8
 267 008c BD46     		mov	sp, r7
 268              		.cfi_def_cfa_register 13
 269              		@ sp needed
 270 008e 80BD     		pop	{r7, pc}
 271              	.L6:
 272              		.align	2
 273              	.L5:
 274 0090 00000000 		.word	chang_vars
 275              		.cfi_endproc
 276              	.LFE4:
 278              		.align	1
 279              		.global	chang_receive
 280              		.syntax unified
 281              		.thumb
 282              		.thumb_func
 283              		.fpu softvfp
 285              	chang_receive:
 286              	.LFB5:
  60:build\openmote-cc2538_armgcc\openapps\chang/chang.c **** 
  61:build\openmote-cc2538_armgcc\openapps\chang/chang.c **** void chang_receive(OpenQueueEntry_t* pkt) {
 287              		.loc 1 61 0
 288              		.cfi_startproc
 289              		@ args = 0, pretend = 0, frame = 8
 290              		@ frame_needed = 1, uses_anonymous_args = 0
 291 0094 80B5     		push	{r7, lr}
 292              		.cfi_def_cfa_offset 8
 293              		.cfi_offset 7, -8
 294              		.cfi_offset 14, -4
 295 0096 82B0     		sub	sp, sp, #8
 296              		.cfi_def_cfa_offset 16
 297 0098 00AF     		add	r7, sp, #0
 298              		.cfi_def_cfa_register 7
 299 009a 7860     		str	r0, [r7, #4]
  62:build\openmote-cc2538_armgcc\openapps\chang/chang.c **** 
  63:build\openmote-cc2538_armgcc\openapps\chang/chang.c ****     openqueue_freePacketBuffer(pkt);
 300              		.loc 1 63 0
 301 009c 7868     		ldr	r0, [r7, #4]
 302 009e FFF7FEFF 		bl	openqueue_freePacketBuffer
  64:build\openmote-cc2538_armgcc\openapps\chang/chang.c **** 
  65:build\openmote-cc2538_armgcc\openapps\chang/chang.c ****     openserial_printError(
 303              		.loc 1 65 0
 304 00a2 0023     		movs	r3, #0
 305 00a4 0022     		movs	r2, #0
 306 00a6 0221     		movs	r1, #2
 307 00a8 3120     		movs	r0, #49
 308 00aa FFF7FEFF 		bl	openserial_printError
  66:build\openmote-cc2538_armgcc\openapps\chang/chang.c ****         COMPONENT_CHANG,
  67:build\openmote-cc2538_armgcc\openapps\chang/chang.c ****         ERR_RCVD_ECHO_REPLY,
  68:build\openmote-cc2538_armgcc\openapps\chang/chang.c ****         (errorparameter_t)0,
  69:build\openmote-cc2538_armgcc\openapps\chang/chang.c ****         (errorparameter_t)0
  70:build\openmote-cc2538_armgcc\openapps\chang/chang.c ****     );
  71:build\openmote-cc2538_armgcc\openapps\chang/chang.c **** }
 309              		.loc 1 71 0
 310 00ae 00BF     		nop
 311 00b0 0837     		adds	r7, r7, #8
 312              		.cfi_def_cfa_offset 8
 313 00b2 BD46     		mov	sp, r7
 314              		.cfi_def_cfa_register 13
 315              		@ sp needed
 316 00b4 80BD     		pop	{r7, pc}
 317              		.cfi_endproc
 318              	.LFE5:
 320              		.align	1
 321              		.global	chang_timer_cb
 322              		.syntax unified
 323              		.thumb
 324              		.thumb_func
 325              		.fpu softvfp
 327              	chang_timer_cb:
 328              	.LFB6:
  72:build\openmote-cc2538_armgcc\openapps\chang/chang.c **** 
  73:build\openmote-cc2538_armgcc\openapps\chang/chang.c **** //=========================== private =========================================
  74:build\openmote-cc2538_armgcc\openapps\chang/chang.c **** 
  75:build\openmote-cc2538_armgcc\openapps\chang/chang.c **** void chang_timer_cb(opentimers_id_t id){
 329              		.loc 1 75 0
 330              		.cfi_startproc
 331              		@ args = 0, pretend = 0, frame = 8
 332              		@ frame_needed = 1, uses_anonymous_args = 0
 333 00b6 80B5     		push	{r7, lr}
 334              		.cfi_def_cfa_offset 8
 335              		.cfi_offset 7, -8
 336              		.cfi_offset 14, -4
 337 00b8 82B0     		sub	sp, sp, #8
 338              		.cfi_def_cfa_offset 16
 339 00ba 00AF     		add	r7, sp, #0
 340              		.cfi_def_cfa_register 7
 341 00bc 0346     		mov	r3, r0
 342 00be FB71     		strb	r3, [r7, #7]
  76:build\openmote-cc2538_armgcc\openapps\chang/chang.c ****     // calling the task directly as the timer_cb function is executed in
  77:build\openmote-cc2538_armgcc\openapps\chang/chang.c ****     // task mode by opentimer already
  78:build\openmote-cc2538_armgcc\openapps\chang/chang.c ****     chang_task_cb();
 343              		.loc 1 78 0
 344 00c0 FFF7FEFF 		bl	chang_task_cb
  79:build\openmote-cc2538_armgcc\openapps\chang/chang.c **** }
 345              		.loc 1 79 0
 346 00c4 00BF     		nop
 347 00c6 0837     		adds	r7, r7, #8
 348              		.cfi_def_cfa_offset 8
 349 00c8 BD46     		mov	sp, r7
 350              		.cfi_def_cfa_register 13
 351              		@ sp needed
 352 00ca 80BD     		pop	{r7, pc}
 353              		.cfi_endproc
 354              	.LFE6:
 356              		.align	1
 357              		.global	chang_task_cb
 358              		.syntax unified
 359              		.thumb
 360              		.thumb_func
 361              		.fpu softvfp
 363              	chang_task_cb:
 364              	.LFB7:
  80:build\openmote-cc2538_armgcc\openapps\chang/chang.c **** 
  81:build\openmote-cc2538_armgcc\openapps\chang/chang.c **** void chang_task_cb(void) {
 365              		.loc 1 81 0
 366              		.cfi_startproc
 367              		@ args = 0, pretend = 0, frame = 40
 368              		@ frame_needed = 1, uses_anonymous_args = 0
 369 00cc B0B5     		push	{r4, r5, r7, lr}
 370              		.cfi_def_cfa_offset 16
 371              		.cfi_offset 4, -16
 372              		.cfi_offset 5, -12
 373              		.cfi_offset 7, -8
 374              		.cfi_offset 14, -4
 375 00ce 8AB0     		sub	sp, sp, #40
 376              		.cfi_def_cfa_offset 56
 377 00d0 00AF     		add	r7, sp, #0
 378              		.cfi_def_cfa_register 7
  82:build\openmote-cc2538_armgcc\openapps\chang/chang.c ****     OpenQueueEntry_t*    pkt;
  83:build\openmote-cc2538_armgcc\openapps\chang/chang.c ****     uint8_t              asnArray[5];
  84:build\openmote-cc2538_armgcc\openapps\chang/chang.c ****     open_addr_t          parentNeighbor;
  85:build\openmote-cc2538_armgcc\openapps\chang/chang.c ****     bool                 foundNeighbor;
  86:build\openmote-cc2538_armgcc\openapps\chang/chang.c **** 
  87:build\openmote-cc2538_armgcc\openapps\chang/chang.c ****     // don't run if not synch
  88:build\openmote-cc2538_armgcc\openapps\chang/chang.c ****     if (ieee154e_isSynch() == FALSE) {
 379              		.loc 1 88 0
 380 00d2 FFF7FEFF 		bl	ieee154e_isSynch
 381 00d6 0346     		mov	r3, r0
 382 00d8 83F00103 		eor	r3, r3, #1
 383 00dc DBB2     		uxtb	r3, r3
 384 00de 002B     		cmp	r3, #0
 385 00e0 72D1     		bne	.L20
  89:build\openmote-cc2538_armgcc\openapps\chang/chang.c ****         return;
  90:build\openmote-cc2538_armgcc\openapps\chang/chang.c ****     }
  91:build\openmote-cc2538_armgcc\openapps\chang/chang.c **** 
  92:build\openmote-cc2538_armgcc\openapps\chang/chang.c ****     // don't run on dagroot
  93:build\openmote-cc2538_armgcc\openapps\chang/chang.c ****     if (idmanager_getIsDAGroot()) {
 386              		.loc 1 93 0
 387 00e2 FFF7FEFF 		bl	idmanager_getIsDAGroot
 388 00e6 0346     		mov	r3, r0
 389 00e8 002B     		cmp	r3, #0
 390 00ea 05D0     		beq	.L12
  94:build\openmote-cc2538_armgcc\openapps\chang/chang.c ****         opentimers_destroy(chang_vars.timerId);
 391              		.loc 1 94 0
 392 00ec 3B4B     		ldr	r3, .L24
 393 00ee 1B78     		ldrb	r3, [r3]	@ zero_extendqisi2
 394 00f0 1846     		mov	r0, r3
 395 00f2 FFF7FEFF 		bl	opentimers_destroy
  95:build\openmote-cc2538_armgcc\openapps\chang/chang.c ****         return;
 396              		.loc 1 95 0
 397 00f6 6EE0     		b	.L9
 398              	.L12:
  96:build\openmote-cc2538_armgcc\openapps\chang/chang.c ****     }
  97:build\openmote-cc2538_armgcc\openapps\chang/chang.c **** 
  98:build\openmote-cc2538_armgcc\openapps\chang/chang.c ****     foundNeighbor = icmpv6rpl_getPreferredParentEui64(&parentNeighbor);
 399              		.loc 1 98 0
 400 00f8 3B1D     		adds	r3, r7, #4
 401 00fa 1846     		mov	r0, r3
 402 00fc FFF7FEFF 		bl	icmpv6rpl_getPreferredParentEui64
 403 0100 0346     		mov	r3, r0
 404 0102 87F82730 		strb	r3, [r7, #39]
  99:build\openmote-cc2538_armgcc\openapps\chang/chang.c ****     if (foundNeighbor==FALSE) {
 405              		.loc 1 99 0
 406 0106 97F82730 		ldrb	r3, [r7, #39]
 407 010a 83F00103 		eor	r3, r3, #1
 408 010e DBB2     		uxtb	r3, r3
 409 0110 002B     		cmp	r3, #0
 410 0112 5BD1     		bne	.L21
 100:build\openmote-cc2538_armgcc\openapps\chang/chang.c ****         return;
 101:build\openmote-cc2538_armgcc\openapps\chang/chang.c ****     }
 102:build\openmote-cc2538_armgcc\openapps\chang/chang.c **** 
 103:build\openmote-cc2538_armgcc\openapps\chang/chang.c ****     if (schedule_hasManagedTxCellToNeighbor(&parentNeighbor) == FALSE) {
 411              		.loc 1 103 0
 412 0114 3B1D     		adds	r3, r7, #4
 413 0116 1846     		mov	r0, r3
 414 0118 FFF7FEFF 		bl	schedule_hasManagedTxCellToNeighbor
 415 011c 0346     		mov	r3, r0
 416 011e 83F00103 		eor	r3, r3, #1
 417 0122 DBB2     		uxtb	r3, r3
 418 0124 002B     		cmp	r3, #0
 419 0126 53D1     		bne	.L22
 104:build\openmote-cc2538_armgcc\openapps\chang/chang.c ****         return;
 105:build\openmote-cc2538_armgcc\openapps\chang/chang.c ****     }
 106:build\openmote-cc2538_armgcc\openapps\chang/chang.c **** 
 107:build\openmote-cc2538_armgcc\openapps\chang/chang.c ****     if (chang_vars.busySendingchang==TRUE) {
 420              		.loc 1 107 0
 421 0128 2C4B     		ldr	r3, .L24
 422 012a 1B7E     		ldrb	r3, [r3, #24]	@ zero_extendqisi2
 423 012c 002B     		cmp	r3, #0
 424 012e 51D1     		bne	.L23
 108:build\openmote-cc2538_armgcc\openapps\chang/chang.c ****         // don't continue if I'm still sending a previous chang packet
 109:build\openmote-cc2538_armgcc\openapps\chang/chang.c ****         return;
 110:build\openmote-cc2538_armgcc\openapps\chang/chang.c ****     }
 111:build\openmote-cc2538_armgcc\openapps\chang/chang.c **** 
 112:build\openmote-cc2538_armgcc\openapps\chang/chang.c ****     // if you get here, send a packet
 113:build\openmote-cc2538_armgcc\openapps\chang/chang.c **** 
 114:build\openmote-cc2538_armgcc\openapps\chang/chang.c ****     // get a free packet buffer
 115:build\openmote-cc2538_armgcc\openapps\chang/chang.c ****     pkt = openqueue_getFreePacketBuffer(COMPONENT_CHANG);
 425              		.loc 1 115 0
 426 0130 3120     		movs	r0, #49
 427 0132 FFF7FEFF 		bl	openqueue_getFreePacketBuffer
 428 0136 3862     		str	r0, [r7, #32]
 116:build\openmote-cc2538_armgcc\openapps\chang/chang.c ****     if (pkt==NULL) {
 429              		.loc 1 116 0
 430 0138 3B6A     		ldr	r3, [r7, #32]
 431 013a 002B     		cmp	r3, #0
 432 013c 06D1     		bne	.L16
 117:build\openmote-cc2538_armgcc\openapps\chang/chang.c ****         openserial_printError(
 433              		.loc 1 117 0
 434 013e 0023     		movs	r3, #0
 435 0140 0022     		movs	r2, #0
 436 0142 2D21     		movs	r1, #45
 437 0144 3120     		movs	r0, #49
 438 0146 FFF7FEFF 		bl	openserial_printError
 118:build\openmote-cc2538_armgcc\openapps\chang/chang.c ****             COMPONENT_CHANG,
 119:build\openmote-cc2538_armgcc\openapps\chang/chang.c ****             ERR_NO_FREE_PACKET_BUFFER,
 120:build\openmote-cc2538_armgcc\openapps\chang/chang.c ****             (errorparameter_t)0,
 121:build\openmote-cc2538_armgcc\openapps\chang/chang.c ****             (errorparameter_t)0
 122:build\openmote-cc2538_armgcc\openapps\chang/chang.c ****         );
 123:build\openmote-cc2538_armgcc\openapps\chang/chang.c ****         return;
 439              		.loc 1 123 0
 440 014a 44E0     		b	.L9
 441              	.L16:
 124:build\openmote-cc2538_armgcc\openapps\chang/chang.c ****     }
 125:build\openmote-cc2538_armgcc\openapps\chang/chang.c **** 
 126:build\openmote-cc2538_armgcc\openapps\chang/chang.c ****     pkt->owner                         = COMPONENT_CHANG;
 442              		.loc 1 126 0
 443 014c 3B6A     		ldr	r3, [r7, #32]
 444 014e 3122     		movs	r2, #49
 445 0150 5A70     		strb	r2, [r3, #1]
 127:build\openmote-cc2538_armgcc\openapps\chang/chang.c ****     pkt->creator                       = COMPONENT_CHANG;
 446              		.loc 1 127 0
 447 0152 3B6A     		ldr	r3, [r7, #32]
 448 0154 3122     		movs	r2, #49
 449 0156 1A70     		strb	r2, [r3]
 128:build\openmote-cc2538_armgcc\openapps\chang/chang.c ****     pkt->l4_protocol                   = IANA_UDP;
 450              		.loc 1 128 0
 451 0158 3B6A     		ldr	r3, [r7, #32]
 452 015a 1122     		movs	r2, #17
 453 015c DA73     		strb	r2, [r3, #15]
 129:build\openmote-cc2538_armgcc\openapps\chang/chang.c ****     pkt->l4_destination_port           = WKP_UDP_INJECT;
 454              		.loc 1 129 0
 455 015e 3B6A     		ldr	r3, [r7, #32]
 456 0160 4FF2B102 		movw	r2, #61617
 457 0164 9A82     		strh	r2, [r3, #20]	@ movhi
 130:build\openmote-cc2538_armgcc\openapps\chang/chang.c ****     pkt->l4_sourcePortORicmpv6Type     = WKP_UDP_INJECT;
 458              		.loc 1 130 0
 459 0166 3B6A     		ldr	r3, [r7, #32]
 460 0168 4FF2B102 		movw	r2, #61617
 461 016c 5A82     		strh	r2, [r3, #18]	@ movhi
 131:build\openmote-cc2538_armgcc\openapps\chang/chang.c ****     pkt->l3_destinationAdd.type        = ADDR_128B;
 462              		.loc 1 131 0
 463 016e 3B6A     		ldr	r3, [r7, #32]
 464 0170 0322     		movs	r2, #3
 465 0172 5A77     		strb	r2, [r3, #29]
 132:build\openmote-cc2538_armgcc\openapps\chang/chang.c ****     memcpy(&pkt->l3_destinationAdd.addr_128b[0],chang_dst_addr,16);
 466              		.loc 1 132 0
 467 0174 3B6A     		ldr	r3, [r7, #32]
 468 0176 1E33     		adds	r3, r3, #30
 469 0178 194A     		ldr	r2, .L24+4
 470 017a 1C46     		mov	r4, r3
 471 017c 1546     		mov	r5, r2
 472 017e 0FCD     		ldmia	r5!, {r0, r1, r2, r3}
 473 0180 2060     		str	r0, [r4]	@ unaligned
 474 0182 6160     		str	r1, [r4, #4]	@ unaligned
 475 0184 A260     		str	r2, [r4, #8]	@ unaligned
 476 0186 E360     		str	r3, [r4, #12]	@ unaligned
 133:build\openmote-cc2538_armgcc\openapps\chang/chang.c **** 
 134:build\openmote-cc2538_armgcc\openapps\chang/chang.c ****     // add payload
 135:build\openmote-cc2538_armgcc\openapps\chang/chang.c ****     // packetfunctions_reserveHeaderSize(pkt,sizeof(chang_payload)-1);
 136:build\openmote-cc2538_armgcc\openapps\chang/chang.c ****     // memcpy(&pkt->payload[0],chang_payload,sizeof(chang_payload)-1);
 137:build\openmote-cc2538_armgcc\openapps\chang/chang.c **** 
 138:build\openmote-cc2538_armgcc\openapps\chang/chang.c ****     // packetfunctions_reserveHeaderSize(pkt,sizeof(uint16_t));
 139:build\openmote-cc2538_armgcc\openapps\chang/chang.c ****     // pkt->payload[1] = (uint8_t)((chang_vars.counter & 0xff00)>>8);
 140:build\openmote-cc2538_armgcc\openapps\chang/chang.c ****     // pkt->payload[0] = (uint8_t)(chang_vars.counter & 0x00ff);
 141:build\openmote-cc2538_armgcc\openapps\chang/chang.c ****     // chang_vars.counter++;
 142:build\openmote-cc2538_armgcc\openapps\chang/chang.c **** 
 143:build\openmote-cc2538_armgcc\openapps\chang/chang.c ****     // packetfunctions_reserveHeaderSize(pkt,sizeof(asn_t));
 144:build\openmote-cc2538_armgcc\openapps\chang/chang.c ****     // ieee154e_getAsn(asnArray);
 145:build\openmote-cc2538_armgcc\openapps\chang/chang.c ****     // pkt->payload[0] = asnArray[0];
 146:build\openmote-cc2538_armgcc\openapps\chang/chang.c ****     // pkt->payload[1] = asnArray[1];
 147:build\openmote-cc2538_armgcc\openapps\chang/chang.c ****     // pkt->payload[2] = asnArray[2];
 148:build\openmote-cc2538_armgcc\openapps\chang/chang.c ****     // pkt->payload[3] = asnArray[3];
 149:build\openmote-cc2538_armgcc\openapps\chang/chang.c ****     // pkt->payload[4] = asnArray[4];
 150:build\openmote-cc2538_armgcc\openapps\chang/chang.c **** 
 151:build\openmote-cc2538_armgcc\openapps\chang/chang.c ****     packetfunctions_reserveHeaderSize(pkt,3);
 477              		.loc 1 151 0
 478 0188 0321     		movs	r1, #3
 479 018a 386A     		ldr	r0, [r7, #32]
 480 018c FFF7FEFF 		bl	packetfunctions_reserveHeaderSize
 152:build\openmote-cc2538_armgcc\openapps\chang/chang.c ****     pkt->payload[0] = 'l';
 481              		.loc 1 152 0
 482 0190 3B6A     		ldr	r3, [r7, #32]
 483 0192 5B68     		ldr	r3, [r3, #4]
 484 0194 6C22     		movs	r2, #108
 485 0196 1A70     		strb	r2, [r3]
 153:build\openmote-cc2538_armgcc\openapps\chang/chang.c ****     pkt->payload[1] = 'l';
 486              		.loc 1 153 0
 487 0198 3B6A     		ldr	r3, [r7, #32]
 488 019a 5B68     		ldr	r3, [r3, #4]
 489 019c 0133     		adds	r3, r3, #1
 490 019e 6C22     		movs	r2, #108
 491 01a0 1A70     		strb	r2, [r3]
 154:build\openmote-cc2538_armgcc\openapps\chang/chang.c ****     pkt->payload[2] = 'l';
 492              		.loc 1 154 0
 493 01a2 3B6A     		ldr	r3, [r7, #32]
 494 01a4 5B68     		ldr	r3, [r3, #4]
 495 01a6 0233     		adds	r3, r3, #2
 496 01a8 6C22     		movs	r2, #108
 497 01aa 1A70     		strb	r2, [r3]
 155:build\openmote-cc2538_armgcc\openapps\chang/chang.c **** 
 156:build\openmote-cc2538_armgcc\openapps\chang/chang.c **** 
 157:build\openmote-cc2538_armgcc\openapps\chang/chang.c ****     if ((openudp_send(pkt))==E_FAIL) {
 498              		.loc 1 157 0
 499 01ac 386A     		ldr	r0, [r7, #32]
 500 01ae FFF7FEFF 		bl	openudp_send
 501 01b2 0346     		mov	r3, r0
 502 01b4 012B     		cmp	r3, #1
 503 01b6 03D1     		bne	.L17
 158:build\openmote-cc2538_armgcc\openapps\chang/chang.c ****         openqueue_freePacketBuffer(pkt);
 504              		.loc 1 158 0
 505 01b8 386A     		ldr	r0, [r7, #32]
 506 01ba FFF7FEFF 		bl	openqueue_freePacketBuffer
 507 01be 0AE0     		b	.L9
 508              	.L17:
 159:build\openmote-cc2538_armgcc\openapps\chang/chang.c ****     } else {
 160:build\openmote-cc2538_armgcc\openapps\chang/chang.c ****         // set busySending to TRUE
 161:build\openmote-cc2538_armgcc\openapps\chang/chang.c ****         chang_vars.busySendingchang = TRUE;
 509              		.loc 1 161 0
 510 01c0 064B     		ldr	r3, .L24
 511 01c2 0122     		movs	r2, #1
 512 01c4 1A76     		strb	r2, [r3, #24]
 513 01c6 06E0     		b	.L9
 514              	.L20:
  89:build\openmote-cc2538_armgcc\openapps\chang/chang.c ****     }
 515              		.loc 1 89 0
 516 01c8 00BF     		nop
 517 01ca 04E0     		b	.L9
 518              	.L21:
 100:build\openmote-cc2538_armgcc\openapps\chang/chang.c ****     }
 519              		.loc 1 100 0
 520 01cc 00BF     		nop
 521 01ce 02E0     		b	.L9
 522              	.L22:
 104:build\openmote-cc2538_armgcc\openapps\chang/chang.c ****     }
 523              		.loc 1 104 0
 524 01d0 00BF     		nop
 525 01d2 00E0     		b	.L9
 526              	.L23:
 109:build\openmote-cc2538_armgcc\openapps\chang/chang.c ****     }
 527              		.loc 1 109 0
 528 01d4 00BF     		nop
 529              	.L9:
 162:build\openmote-cc2538_armgcc\openapps\chang/chang.c ****     }
 163:build\openmote-cc2538_armgcc\openapps\chang/chang.c **** }
 530              		.loc 1 163 0
 531 01d6 2837     		adds	r7, r7, #40
 532              		.cfi_def_cfa_offset 16
 533 01d8 BD46     		mov	sp, r7
 534              		.cfi_def_cfa_register 13
 535              		@ sp needed
 536 01da B0BD     		pop	{r4, r5, r7, pc}
 537              	.L25:
 538              		.align	2
 539              	.L24:
 540 01dc 00000000 		.word	chang_vars
 541 01e0 7C000000 		.word	chang_dst_addr
 542              		.cfi_endproc
 543              	.LFE7:
 545              	.Letext0:
 546              		.file 2 "c:\\program files (x86)\\gnu tools arm embedded\\7 2018-q2-update\\arm-none-eabi\\include
 547              		.file 3 "c:\\program files (x86)\\gnu tools arm embedded\\7 2018-q2-update\\arm-none-eabi\\include
 548              		.file 4 "c:\\program files (x86)\\gnu tools arm embedded\\7 2018-q2-update\\arm-none-eabi\\include
 549              		.file 5 "c:\\program files (x86)\\gnu tools arm embedded\\7 2018-q2-update\\arm-none-eabi\\include
 550              		.file 6 "c:\\program files (x86)\\gnu tools arm embedded\\7 2018-q2-update\\lib\\gcc\\arm-none-eab
 551              		.file 7 "c:\\program files (x86)\\gnu tools arm embedded\\7 2018-q2-update\\arm-none-eabi\\include
 552              		.file 8 "bsp\\boards\\openmote-cc2538/board_info.h"
 553              		.file 9 "inc/opendefs.h"
 554              		.file 10 "drivers\\common/opentimers.h"
 555              		.file 11 "openstack\\04-TRAN/openudp.h"
 556              		.file 12 "build\\openmote-cc2538_armgcc\\openapps\\chang\\chang.h"
 557              		.file 13 "kernel/scheduler.h"
 558              		.file 14 "openstack\\02a-MAClow/IEEE802154E.h"
 559              		.file 15 "openstack\\03b-IPv6/icmpv6rpl.h"
 560              		.file 16 "openstack\\cross-layers/idmanager.h"