   1              		.cpu cortex-m3
   2              		.eabi_attribute 20, 1
   3              		.eabi_attribute 21, 1
   4              		.eabi_attribute 23, 3
   5              		.eabi_attribute 24, 1
   6              		.eabi_attribute 25, 1
   7              		.eabi_attribute 26, 1
   8              		.eabi_attribute 30, 6
   9              		.eabi_attribute 34, 1
  10              		.eabi_attribute 18, 4
  11              		.file	"neighbors.c"
  12              		.text
  13              	.Ltext0:
  14              		.cfi_sections	.debug_frame
  15              		.section	.rodata
  16              		.align	2
  19              	rreg_uriquery:
  20 0000 683D7563 		.ascii	"h=ucb\000"
  20      6200
  21 0006 0000     		.align	2
  24              	infoBoardname:
  25 0008 43433235 		.ascii	"CC2538\000"
  25      333800
  26 000f 00       		.align	2
  29              	infouCName:
  30 0010 43433235 		.ascii	"CC2538\000"
  30      333800
  31 0017 00       		.align	2
  34              	infoRadioName:
  35 0018 43433235 		.ascii	"CC2538 SoC\000"
  35      33382053 
  35      6F4300
  36 0023 00       		.align	2
  39              	infoStackName:
  40 0024 4F70656E 		.ascii	"OpenWSN \000"
  40      57534E20 
  40      00
  41 002d 000000   		.align	2
  44              	all_routers_multicast:
  45 0030 FF       		.byte	-1
  46 0031 02       		.byte	2
  47 0032 00       		.byte	0
  48 0033 00       		.byte	0
  49 0034 00       		.byte	0
  50 0035 00       		.byte	0
  51 0036 00       		.byte	0
  52 0037 00       		.byte	0
  53 0038 00       		.byte	0
  54 0039 00       		.byte	0
  55 003a 00       		.byte	0
  56 003b 00       		.byte	0
  57 003c 00       		.byte	0
  58 003d 00       		.byte	0
  59 003e 00       		.byte	0
  60 003f 1A       		.byte	26
  61              		.align	2
  64              	linklocalprefix:
  65 0040 FE       		.byte	-2
  66 0041 80       		.byte	-128
  67 0042 00       		.byte	0
  68 0043 00       		.byte	0
  69 0044 00       		.byte	0
  70 0045 00       		.byte	0
  71 0046 00       		.byte	0
  72 0047 00       		.byte	0
  73              		.align	2
  76              	chTemplate_default:
  77 0048 05       		.byte	5
  78 0049 06       		.byte	6
  79 004a 0C       		.byte	12
  80 004b 07       		.byte	7
  81 004c 0F       		.byte	15
  82 004d 04       		.byte	4
  83 004e 0E       		.byte	14
  84 004f 0B       		.byte	11
  85 0050 08       		.byte	8
  86 0051 00       		.byte	0
  87 0052 01       		.byte	1
  88 0053 02       		.byte	2
  89 0054 0D       		.byte	13
  90 0055 03       		.byte	3
  91 0056 09       		.byte	9
  92 0057 0A       		.byte	10
  93              		.align	2
  96              	ebIEsBytestream:
  97 0058 1A       		.byte	26
  98 0059 88       		.byte	-120
  99 005a 06       		.byte	6
 100 005b 1A       		.byte	26
 101 005c 00       		.byte	0
 102 005d 00       		.byte	0
 103 005e 00       		.byte	0
 104 005f 00       		.byte	0
 105 0060 00       		.byte	0
 106 0061 00       		.byte	0
 107 0062 01       		.byte	1
 108 0063 1C       		.byte	28
 109 0064 00       		.byte	0
 110 0065 01       		.byte	1
 111 0066 C8       		.byte	-56
 112 0067 00       		.byte	0
 113 0068 0A       		.byte	10
 114 0069 1B       		.byte	27
 115 006a 01       		.byte	1
 116 006b 00       		.byte	0
 117 006c 0D       		.byte	13
 118 006d 00       		.byte	0
 119 006e 01       		.byte	1
 120 006f 00       		.byte	0
 121 0070 00       		.byte	0
 122 0071 00       		.byte	0
 123 0072 00       		.byte	0
 124 0073 0F       		.byte	15
 125              		.bss
 126              		.align	2
 127              	neighbors_vars:
 128 0000 00000000 		.space	1204
 128      00000000 
 128      00000000 
 128      00000000 
 128      00000000 
 130              		.text
 131              		.align	1
 132              		.global	neighbors_init
 133              		.syntax unified
 134              		.thumb
 135              		.thumb_func
 136              		.fpu softvfp
 138              	neighbors_init:
 139              	.LFB3:
 140              		.file 1 "build\\openmote-cc2538_armgcc\\openstack\\02b-MAChigh\\neighbors.c"
   1:build\openmote-cc2538_armgcc\openstack\02b-MAChigh/neighbors.c **** #include "opendefs.h"
   2:build\openmote-cc2538_armgcc\openstack\02b-MAChigh/neighbors.c **** #include "neighbors.h"
   3:build\openmote-cc2538_armgcc\openstack\02b-MAChigh/neighbors.c **** #include "openqueue.h"
   4:build\openmote-cc2538_armgcc\openstack\02b-MAChigh/neighbors.c **** #include "packetfunctions.h"
   5:build\openmote-cc2538_armgcc\openstack\02b-MAChigh/neighbors.c **** #include "idmanager.h"
   6:build\openmote-cc2538_armgcc\openstack\02b-MAChigh/neighbors.c **** #include "openserial.h"
   7:build\openmote-cc2538_armgcc\openstack\02b-MAChigh/neighbors.c **** #include "IEEE802154E.h"
   8:build\openmote-cc2538_armgcc\openstack\02b-MAChigh/neighbors.c **** #include "openrandom.h"
   9:build\openmote-cc2538_armgcc\openstack\02b-MAChigh/neighbors.c **** #include "msf.h"
  10:build\openmote-cc2538_armgcc\openstack\02b-MAChigh/neighbors.c **** 
  11:build\openmote-cc2538_armgcc\openstack\02b-MAChigh/neighbors.c **** //=========================== variables =======================================
  12:build\openmote-cc2538_armgcc\openstack\02b-MAChigh/neighbors.c **** 
  13:build\openmote-cc2538_armgcc\openstack\02b-MAChigh/neighbors.c **** static neighbors_vars_t neighbors_vars;
  14:build\openmote-cc2538_armgcc\openstack\02b-MAChigh/neighbors.c **** 
  15:build\openmote-cc2538_armgcc\openstack\02b-MAChigh/neighbors.c **** //=========================== prototypes ======================================
  16:build\openmote-cc2538_armgcc\openstack\02b-MAChigh/neighbors.c **** 
  17:build\openmote-cc2538_armgcc\openstack\02b-MAChigh/neighbors.c **** void registerNewNeighbor(
  18:build\openmote-cc2538_armgcc\openstack\02b-MAChigh/neighbors.c ****         open_addr_t* neighborID,
  19:build\openmote-cc2538_armgcc\openstack\02b-MAChigh/neighbors.c ****         int8_t       rssi,
  20:build\openmote-cc2538_armgcc\openstack\02b-MAChigh/neighbors.c ****         asn_t*       asnTimestamp,
  21:build\openmote-cc2538_armgcc\openstack\02b-MAChigh/neighbors.c ****         bool         joinPrioPresent,
  22:build\openmote-cc2538_armgcc\openstack\02b-MAChigh/neighbors.c ****         uint8_t      joinPrio,
  23:build\openmote-cc2538_armgcc\openstack\02b-MAChigh/neighbors.c ****         bool         insecure
  24:build\openmote-cc2538_armgcc\openstack\02b-MAChigh/neighbors.c ****      );
  25:build\openmote-cc2538_armgcc\openstack\02b-MAChigh/neighbors.c **** bool isNeighbor(open_addr_t* neighbor);
  26:build\openmote-cc2538_armgcc\openstack\02b-MAChigh/neighbors.c **** void removeNeighbor(uint8_t neighborIndex);
  27:build\openmote-cc2538_armgcc\openstack\02b-MAChigh/neighbors.c **** bool isThisRowMatching(
  28:build\openmote-cc2538_armgcc\openstack\02b-MAChigh/neighbors.c ****         open_addr_t* address,
  29:build\openmote-cc2538_armgcc\openstack\02b-MAChigh/neighbors.c ****         uint8_t      rowNumber
  30:build\openmote-cc2538_armgcc\openstack\02b-MAChigh/neighbors.c ****      );
  31:build\openmote-cc2538_armgcc\openstack\02b-MAChigh/neighbors.c **** 
  32:build\openmote-cc2538_armgcc\openstack\02b-MAChigh/neighbors.c **** //=========================== public ==========================================
  33:build\openmote-cc2538_armgcc\openstack\02b-MAChigh/neighbors.c **** 
  34:build\openmote-cc2538_armgcc\openstack\02b-MAChigh/neighbors.c **** /**
  35:build\openmote-cc2538_armgcc\openstack\02b-MAChigh/neighbors.c **** \brief Initializes this module.
  36:build\openmote-cc2538_armgcc\openstack\02b-MAChigh/neighbors.c **** */
  37:build\openmote-cc2538_armgcc\openstack\02b-MAChigh/neighbors.c **** void neighbors_init(void) {
 141              		.loc 1 37 0
 142              		.cfi_startproc
 143              		@ args = 0, pretend = 0, frame = 0
 144              		@ frame_needed = 1, uses_anonymous_args = 0
 145 0000 80B5     		push	{r7, lr}
 146              		.cfi_def_cfa_offset 8
 147              		.cfi_offset 7, -8
 148              		.cfi_offset 14, -4
 149 0002 00AF     		add	r7, sp, #0
 150              		.cfi_def_cfa_register 7
  38:build\openmote-cc2538_armgcc\openstack\02b-MAChigh/neighbors.c **** 
  39:build\openmote-cc2538_armgcc\openstack\02b-MAChigh/neighbors.c ****    // clear module variables
  40:build\openmote-cc2538_armgcc\openstack\02b-MAChigh/neighbors.c ****    memset(&neighbors_vars,0,sizeof(neighbors_vars_t));
 151              		.loc 1 40 0
 152 0004 40F2B442 		movw	r2, #1204
 153 0008 0021     		movs	r1, #0
 154 000a 0248     		ldr	r0, .L2
 155 000c FFF7FEFF 		bl	memset
  41:build\openmote-cc2538_armgcc\openstack\02b-MAChigh/neighbors.c ****    // The .used fields get reset to FALSE by this memset.
  42:build\openmote-cc2538_armgcc\openstack\02b-MAChigh/neighbors.c **** 
  43:build\openmote-cc2538_armgcc\openstack\02b-MAChigh/neighbors.c **** }
 156              		.loc 1 43 0
 157 0010 00BF     		nop
 158 0012 80BD     		pop	{r7, pc}
 159              	.L3:
 160              		.align	2
 161              	.L2:
 162 0014 00000000 		.word	neighbors_vars
 163              		.cfi_endproc
 164              	.LFE3:
 166              		.align	1
 167              		.global	neighbors_getNumNeighbors
 168              		.syntax unified
 169              		.thumb
 170              		.thumb_func
 171              		.fpu softvfp
 173              	neighbors_getNumNeighbors:
 174              	.LFB4:
  44:build\openmote-cc2538_armgcc\openstack\02b-MAChigh/neighbors.c **** 
  45:build\openmote-cc2538_armgcc\openstack\02b-MAChigh/neighbors.c **** //===== getters
  46:build\openmote-cc2538_armgcc\openstack\02b-MAChigh/neighbors.c **** 
  47:build\openmote-cc2538_armgcc\openstack\02b-MAChigh/neighbors.c **** /**
  48:build\openmote-cc2538_armgcc\openstack\02b-MAChigh/neighbors.c **** \brief Retrieve the number of neighbors this mote's currently knows of.
  49:build\openmote-cc2538_armgcc\openstack\02b-MAChigh/neighbors.c **** 
  50:build\openmote-cc2538_armgcc\openstack\02b-MAChigh/neighbors.c **** \returns The number of neighbors this mote's currently knows of.
  51:build\openmote-cc2538_armgcc\openstack\02b-MAChigh/neighbors.c **** */
  52:build\openmote-cc2538_armgcc\openstack\02b-MAChigh/neighbors.c **** uint8_t neighbors_getNumNeighbors(void) {
 175              		.loc 1 52 0
 176              		.cfi_startproc
 177              		@ args = 0, pretend = 0, frame = 8
 178              		@ frame_needed = 1, uses_anonymous_args = 0
 179              		@ link register save eliminated.
 180 0018 80B4     		push	{r7}
 181              		.cfi_def_cfa_offset 4
 182              		.cfi_offset 7, -4
 183 001a 83B0     		sub	sp, sp, #12
 184              		.cfi_def_cfa_offset 16
 185 001c 00AF     		add	r7, sp, #0
 186              		.cfi_def_cfa_register 7
  53:build\openmote-cc2538_armgcc\openstack\02b-MAChigh/neighbors.c ****    uint8_t i;
  54:build\openmote-cc2538_armgcc\openstack\02b-MAChigh/neighbors.c ****    uint8_t returnVal;
  55:build\openmote-cc2538_armgcc\openstack\02b-MAChigh/neighbors.c **** 
  56:build\openmote-cc2538_armgcc\openstack\02b-MAChigh/neighbors.c ****    returnVal=0;
 187              		.loc 1 56 0
 188 001e 0023     		movs	r3, #0
 189 0020 BB71     		strb	r3, [r7, #6]
  57:build\openmote-cc2538_armgcc\openstack\02b-MAChigh/neighbors.c ****    for (i=0;i<MAXNUMNEIGHBORS;i++) {
 190              		.loc 1 57 0
 191 0022 0023     		movs	r3, #0
 192 0024 FB71     		strb	r3, [r7, #7]
 193 0026 0FE0     		b	.L5
 194              	.L7:
  58:build\openmote-cc2538_armgcc\openstack\02b-MAChigh/neighbors.c ****       if (neighbors_vars.neighbors[i].used==TRUE) {
 195              		.loc 1 58 0
 196 0028 FA79     		ldrb	r2, [r7, #7]	@ zero_extendqisi2
 197 002a 0C49     		ldr	r1, .L9
 198 002c 1346     		mov	r3, r2
 199 002e 9B00     		lsls	r3, r3, #2
 200 0030 1344     		add	r3, r3, r2
 201 0032 DB00     		lsls	r3, r3, #3
 202 0034 0B44     		add	r3, r3, r1
 203 0036 1B78     		ldrb	r3, [r3]	@ zero_extendqisi2
 204 0038 002B     		cmp	r3, #0
 205 003a 02D0     		beq	.L6
  59:build\openmote-cc2538_armgcc\openstack\02b-MAChigh/neighbors.c ****          returnVal++;
 206              		.loc 1 59 0
 207 003c BB79     		ldrb	r3, [r7, #6]	@ zero_extendqisi2
 208 003e 0133     		adds	r3, r3, #1
 209 0040 BB71     		strb	r3, [r7, #6]
 210              	.L6:
  57:build\openmote-cc2538_armgcc\openstack\02b-MAChigh/neighbors.c ****    for (i=0;i<MAXNUMNEIGHBORS;i++) {
 211              		.loc 1 57 0 discriminator 2
 212 0042 FB79     		ldrb	r3, [r7, #7]	@ zero_extendqisi2
 213 0044 0133     		adds	r3, r3, #1
 214 0046 FB71     		strb	r3, [r7, #7]
 215              	.L5:
  57:build\openmote-cc2538_armgcc\openstack\02b-MAChigh/neighbors.c ****    for (i=0;i<MAXNUMNEIGHBORS;i++) {
 216              		.loc 1 57 0 is_stmt 0 discriminator 1
 217 0048 FB79     		ldrb	r3, [r7, #7]	@ zero_extendqisi2
 218 004a 1D2B     		cmp	r3, #29
 219 004c ECD9     		bls	.L7
  60:build\openmote-cc2538_armgcc\openstack\02b-MAChigh/neighbors.c ****       }
  61:build\openmote-cc2538_armgcc\openstack\02b-MAChigh/neighbors.c ****    }
  62:build\openmote-cc2538_armgcc\openstack\02b-MAChigh/neighbors.c ****    return returnVal;
 220              		.loc 1 62 0 is_stmt 1
 221 004e BB79     		ldrb	r3, [r7, #6]	@ zero_extendqisi2
  63:build\openmote-cc2538_armgcc\openstack\02b-MAChigh/neighbors.c **** }
 222              		.loc 1 63 0
 223 0050 1846     		mov	r0, r3
 224 0052 0C37     		adds	r7, r7, #12
 225              		.cfi_def_cfa_offset 4
 226 0054 BD46     		mov	sp, r7
 227              		.cfi_def_cfa_register 13
 228              		@ sp needed
 229 0056 80BC     		pop	{r7}
 230              		.cfi_restore 7
 231              		.cfi_def_cfa_offset 0
 232 0058 7047     		bx	lr
 233              	.L10:
 234 005a 00BF     		.align	2
 235              	.L9:
 236 005c 00000000 		.word	neighbors_vars
 237              		.cfi_endproc
 238              	.LFE4:
 240              		.align	1
 241              		.global	neighbors_getNeighborRank
 242              		.syntax unified
 243              		.thumb
 244              		.thumb_func
 245              		.fpu softvfp
 247              	neighbors_getNeighborRank:
 248              	.LFB5:
  64:build\openmote-cc2538_armgcc\openstack\02b-MAChigh/neighbors.c **** 
  65:build\openmote-cc2538_armgcc\openstack\02b-MAChigh/neighbors.c **** dagrank_t neighbors_getNeighborRank(uint8_t index) {
 249              		.loc 1 65 0
 250              		.cfi_startproc
 251              		@ args = 0, pretend = 0, frame = 8
 252              		@ frame_needed = 1, uses_anonymous_args = 0
 253              		@ link register save eliminated.
 254 0060 80B4     		push	{r7}
 255              		.cfi_def_cfa_offset 4
 256              		.cfi_offset 7, -4
 257 0062 83B0     		sub	sp, sp, #12
 258              		.cfi_def_cfa_offset 16
 259 0064 00AF     		add	r7, sp, #0
 260              		.cfi_def_cfa_register 7
 261 0066 0346     		mov	r3, r0
 262 0068 FB71     		strb	r3, [r7, #7]
  66:build\openmote-cc2538_armgcc\openstack\02b-MAChigh/neighbors.c ****    return neighbors_vars.neighbors[index].DAGrank;
 263              		.loc 1 66 0
 264 006a FA79     		ldrb	r2, [r7, #7]	@ zero_extendqisi2
 265 006c 0649     		ldr	r1, .L13
 266 006e 1346     		mov	r3, r2
 267 0070 9B00     		lsls	r3, r3, #2
 268 0072 1344     		add	r3, r3, r2
 269 0074 DB00     		lsls	r3, r3, #3
 270 0076 0B44     		add	r3, r3, r1
 271 0078 1633     		adds	r3, r3, #22
 272 007a 1B88     		ldrh	r3, [r3]
  67:build\openmote-cc2538_armgcc\openstack\02b-MAChigh/neighbors.c **** }
 273              		.loc 1 67 0
 274 007c 1846     		mov	r0, r3
 275 007e 0C37     		adds	r7, r7, #12
 276              		.cfi_def_cfa_offset 4
 277 0080 BD46     		mov	sp, r7
 278              		.cfi_def_cfa_register 13
 279              		@ sp needed
 280 0082 80BC     		pop	{r7}
 281              		.cfi_restore 7
 282              		.cfi_def_cfa_offset 0
 283 0084 7047     		bx	lr
 284              	.L14:
 285 0086 00BF     		.align	2
 286              	.L13:
 287 0088 00000000 		.word	neighbors_vars
 288              		.cfi_endproc
 289              	.LFE5:
 291              		.align	1
 292              		.global	neighbors_getRssi
 293              		.syntax unified
 294              		.thumb
 295              		.thumb_func
 296              		.fpu softvfp
 298              	neighbors_getRssi:
 299              	.LFB6:
  68:build\openmote-cc2538_armgcc\openstack\02b-MAChigh/neighbors.c **** 
  69:build\openmote-cc2538_armgcc\openstack\02b-MAChigh/neighbors.c **** int8_t neighbors_getRssi(uint8_t index){
 300              		.loc 1 69 0
 301              		.cfi_startproc
 302              		@ args = 0, pretend = 0, frame = 8
 303              		@ frame_needed = 1, uses_anonymous_args = 0
 304              		@ link register save eliminated.
 305 008c 80B4     		push	{r7}
 306              		.cfi_def_cfa_offset 4
 307              		.cfi_offset 7, -4
 308 008e 83B0     		sub	sp, sp, #12
 309              		.cfi_def_cfa_offset 16
 310 0090 00AF     		add	r7, sp, #0
 311              		.cfi_def_cfa_register 7
 312 0092 0346     		mov	r3, r0
 313 0094 FB71     		strb	r3, [r7, #7]
  70:build\openmote-cc2538_armgcc\openstack\02b-MAChigh/neighbors.c ****    return neighbors_vars.neighbors[index].rssi;
 314              		.loc 1 70 0
 315 0096 FA79     		ldrb	r2, [r7, #7]	@ zero_extendqisi2
 316 0098 0649     		ldr	r1, .L17
 317 009a 1346     		mov	r3, r2
 318 009c 9B00     		lsls	r3, r3, #2
 319 009e 1344     		add	r3, r3, r2
 320 00a0 DB00     		lsls	r3, r3, #3
 321 00a2 0B44     		add	r3, r3, r1
 322 00a4 1833     		adds	r3, r3, #24
 323 00a6 93F90030 		ldrsb	r3, [r3]
  71:build\openmote-cc2538_armgcc\openstack\02b-MAChigh/neighbors.c **** }
 324              		.loc 1 71 0
 325 00aa 1846     		mov	r0, r3
 326 00ac 0C37     		adds	r7, r7, #12
 327              		.cfi_def_cfa_offset 4
 328 00ae BD46     		mov	sp, r7
 329              		.cfi_def_cfa_register 13
 330              		@ sp needed
 331 00b0 80BC     		pop	{r7}
 332              		.cfi_restore 7
 333              		.cfi_def_cfa_offset 0
 334 00b2 7047     		bx	lr
 335              	.L18:
 336              		.align	2
 337              	.L17:
 338 00b4 00000000 		.word	neighbors_vars
 339              		.cfi_endproc
 340              	.LFE6:
 342              		.align	1
 343              		.global	neighbors_getNumTx
 344              		.syntax unified
 345              		.thumb
 346              		.thumb_func
 347              		.fpu softvfp
 349              	neighbors_getNumTx:
 350              	.LFB7:
  72:build\openmote-cc2538_armgcc\openstack\02b-MAChigh/neighbors.c **** 
  73:build\openmote-cc2538_armgcc\openstack\02b-MAChigh/neighbors.c **** uint8_t neighbors_getNumTx(uint8_t index){
 351              		.loc 1 73 0
 352              		.cfi_startproc
 353              		@ args = 0, pretend = 0, frame = 8
 354              		@ frame_needed = 1, uses_anonymous_args = 0
 355              		@ link register save eliminated.
 356 00b8 80B4     		push	{r7}
 357              		.cfi_def_cfa_offset 4
 358              		.cfi_offset 7, -4
 359 00ba 83B0     		sub	sp, sp, #12
 360              		.cfi_def_cfa_offset 16
 361 00bc 00AF     		add	r7, sp, #0
 362              		.cfi_def_cfa_register 7
 363 00be 0346     		mov	r3, r0
 364 00c0 FB71     		strb	r3, [r7, #7]
  74:build\openmote-cc2538_armgcc\openstack\02b-MAChigh/neighbors.c ****    return neighbors_vars.neighbors[index].numTx;
 365              		.loc 1 74 0
 366 00c2 FA79     		ldrb	r2, [r7, #7]	@ zero_extendqisi2
 367 00c4 0649     		ldr	r1, .L21
 368 00c6 1346     		mov	r3, r2
 369 00c8 9B00     		lsls	r3, r3, #2
 370 00ca 1344     		add	r3, r3, r2
 371 00cc DB00     		lsls	r3, r3, #3
 372 00ce 0B44     		add	r3, r3, r1
 373 00d0 1A33     		adds	r3, r3, #26
 374 00d2 1B78     		ldrb	r3, [r3]	@ zero_extendqisi2
  75:build\openmote-cc2538_armgcc\openstack\02b-MAChigh/neighbors.c **** }
 375              		.loc 1 75 0
 376 00d4 1846     		mov	r0, r3
 377 00d6 0C37     		adds	r7, r7, #12
 378              		.cfi_def_cfa_offset 4
 379 00d8 BD46     		mov	sp, r7
 380              		.cfi_def_cfa_register 13
 381              		@ sp needed
 382 00da 80BC     		pop	{r7}
 383              		.cfi_restore 7
 384              		.cfi_def_cfa_offset 0
 385 00dc 7047     		bx	lr
 386              	.L22:
 387 00de 00BF     		.align	2
 388              	.L21:
 389 00e0 00000000 		.word	neighbors_vars
 390              		.cfi_endproc
 391              	.LFE7:
 393              		.align	1
 394              		.global	neighbors_getKANeighbor
 395              		.syntax unified
 396              		.thumb
 397              		.thumb_func
 398              		.fpu softvfp
 400              	neighbors_getKANeighbor:
 401              	.LFB8:
  76:build\openmote-cc2538_armgcc\openstack\02b-MAChigh/neighbors.c **** /**
  77:build\openmote-cc2538_armgcc\openstack\02b-MAChigh/neighbors.c **** \brief Find neighbor to which to send KA.
  78:build\openmote-cc2538_armgcc\openstack\02b-MAChigh/neighbors.c **** 
  79:build\openmote-cc2538_armgcc\openstack\02b-MAChigh/neighbors.c **** This function iterates through the neighbor table and identifies the neighbor
  80:build\openmote-cc2538_armgcc\openstack\02b-MAChigh/neighbors.c **** we need to send a KA to, if any. This neighbor satisfies the following
  81:build\openmote-cc2538_armgcc\openstack\02b-MAChigh/neighbors.c **** conditions:
  82:build\openmote-cc2538_armgcc\openstack\02b-MAChigh/neighbors.c **** - it is one of our preferred parents
  83:build\openmote-cc2538_armgcc\openstack\02b-MAChigh/neighbors.c **** - we haven't heard it for over kaPeriod
  84:build\openmote-cc2538_armgcc\openstack\02b-MAChigh/neighbors.c **** 
  85:build\openmote-cc2538_armgcc\openstack\02b-MAChigh/neighbors.c **** \param[in] kaPeriod The maximum number of slots I'm allowed not to have heard
  86:build\openmote-cc2538_armgcc\openstack\02b-MAChigh/neighbors.c ****    it.
  87:build\openmote-cc2538_armgcc\openstack\02b-MAChigh/neighbors.c **** 
  88:build\openmote-cc2538_armgcc\openstack\02b-MAChigh/neighbors.c **** \returns A pointer to the neighbor's address, or NULL if no KA is needed.
  89:build\openmote-cc2538_armgcc\openstack\02b-MAChigh/neighbors.c **** */
  90:build\openmote-cc2538_armgcc\openstack\02b-MAChigh/neighbors.c **** open_addr_t* neighbors_getKANeighbor(uint16_t kaPeriod) {
 402              		.loc 1 90 0
 403              		.cfi_startproc
 404              		@ args = 0, pretend = 0, frame = 16
 405              		@ frame_needed = 1, uses_anonymous_args = 0
 406 00e4 80B5     		push	{r7, lr}
 407              		.cfi_def_cfa_offset 8
 408              		.cfi_offset 7, -8
 409              		.cfi_offset 14, -4
 410 00e6 84B0     		sub	sp, sp, #16
 411              		.cfi_def_cfa_offset 24
 412 00e8 00AF     		add	r7, sp, #0
 413              		.cfi_def_cfa_register 7
 414 00ea 0346     		mov	r3, r0
 415 00ec FB80     		strh	r3, [r7, #6]	@ movhi
  91:build\openmote-cc2538_armgcc\openstack\02b-MAChigh/neighbors.c ****    uint8_t         i;
  92:build\openmote-cc2538_armgcc\openstack\02b-MAChigh/neighbors.c ****    uint16_t        timeSinceHeard;
  93:build\openmote-cc2538_armgcc\openstack\02b-MAChigh/neighbors.c **** 
  94:build\openmote-cc2538_armgcc\openstack\02b-MAChigh/neighbors.c ****    // policy is not to KA to non-preferred parents so go strait to check if Preferred Parent is agi
  95:build\openmote-cc2538_armgcc\openstack\02b-MAChigh/neighbors.c ****    if (icmpv6rpl_getPreferredParentIndex(&i)) {      // we have a Parent
 416              		.loc 1 95 0
 417 00ee 07F10D03 		add	r3, r7, #13
 418 00f2 1846     		mov	r0, r3
 419 00f4 FFF7FEFF 		bl	icmpv6rpl_getPreferredParentIndex
 420 00f8 0346     		mov	r3, r0
 421 00fa 002B     		cmp	r3, #0
 422 00fc 27D0     		beq	.L24
  96:build\openmote-cc2538_armgcc\openstack\02b-MAChigh/neighbors.c ****       if (neighbors_vars.neighbors[i].used==1) {     // that resolves to a neighbor in use (should 
 423              		.loc 1 96 0
 424 00fe 7B7B     		ldrb	r3, [r7, #13]	@ zero_extendqisi2
 425 0100 1946     		mov	r1, r3
 426 0102 154A     		ldr	r2, .L27
 427 0104 0B46     		mov	r3, r1
 428 0106 9B00     		lsls	r3, r3, #2
 429 0108 0B44     		add	r3, r3, r1
 430 010a DB00     		lsls	r3, r3, #3
 431 010c 1344     		add	r3, r3, r2
 432 010e 1B78     		ldrb	r3, [r3]	@ zero_extendqisi2
 433 0110 002B     		cmp	r3, #0
 434 0112 1CD0     		beq	.L24
  97:build\openmote-cc2538_armgcc\openstack\02b-MAChigh/neighbors.c ****          timeSinceHeard = ieee154e_asnDiff(&neighbors_vars.neighbors[i].asn);
 435              		.loc 1 97 0
 436 0114 7B7B     		ldrb	r3, [r7, #13]	@ zero_extendqisi2
 437 0116 1A46     		mov	r2, r3
 438 0118 1346     		mov	r3, r2
 439 011a 9B00     		lsls	r3, r3, #2
 440 011c 1344     		add	r3, r3, r2
 441 011e DB00     		lsls	r3, r3, #3
 442 0120 1833     		adds	r3, r3, #24
 443 0122 0D4A     		ldr	r2, .L27
 444 0124 1344     		add	r3, r3, r2
 445 0126 0533     		adds	r3, r3, #5
 446 0128 1846     		mov	r0, r3
 447 012a FFF7FEFF 		bl	ieee154e_asnDiff
 448 012e 0346     		mov	r3, r0
 449 0130 FB81     		strh	r3, [r7, #14]	@ movhi
  98:build\openmote-cc2538_armgcc\openstack\02b-MAChigh/neighbors.c ****          if (timeSinceHeard>kaPeriod) {
 450              		.loc 1 98 0
 451 0132 FA89     		ldrh	r2, [r7, #14]
 452 0134 FB88     		ldrh	r3, [r7, #6]
 453 0136 9A42     		cmp	r2, r3
 454 0138 09D9     		bls	.L24
  99:build\openmote-cc2538_armgcc\openstack\02b-MAChigh/neighbors.c ****             // this neighbor needs to be KA'ed to
 100:build\openmote-cc2538_armgcc\openstack\02b-MAChigh/neighbors.c ****             return &(neighbors_vars.neighbors[i].addr_64b);
 455              		.loc 1 100 0
 456 013a 7B7B     		ldrb	r3, [r7, #13]	@ zero_extendqisi2
 457 013c 1A46     		mov	r2, r3
 458 013e 1346     		mov	r3, r2
 459 0140 9B00     		lsls	r3, r3, #2
 460 0142 1344     		add	r3, r3, r2
 461 0144 DB00     		lsls	r3, r3, #3
 462 0146 044A     		ldr	r2, .L27
 463 0148 1344     		add	r3, r3, r2
 464 014a 0533     		adds	r3, r3, #5
 465 014c 00E0     		b	.L26
 466              	.L24:
 101:build\openmote-cc2538_armgcc\openstack\02b-MAChigh/neighbors.c ****          }
 102:build\openmote-cc2538_armgcc\openstack\02b-MAChigh/neighbors.c ****       }
 103:build\openmote-cc2538_armgcc\openstack\02b-MAChigh/neighbors.c ****    }
 104:build\openmote-cc2538_armgcc\openstack\02b-MAChigh/neighbors.c ****    return NULL;
 467              		.loc 1 104 0
 468 014e 0023     		movs	r3, #0
 469              	.L26:
 105:build\openmote-cc2538_armgcc\openstack\02b-MAChigh/neighbors.c **** }
 470              		.loc 1 105 0 discriminator 1
 471 0150 1846     		mov	r0, r3
 472 0152 1037     		adds	r7, r7, #16
 473              		.cfi_def_cfa_offset 8
 474 0154 BD46     		mov	sp, r7
 475              		.cfi_def_cfa_register 13
 476              		@ sp needed
 477 0156 80BD     		pop	{r7, pc}
 478              	.L28:
 479              		.align	2
 480              	.L27:
 481 0158 00000000 		.word	neighbors_vars
 482              		.cfi_endproc
 483              	.LFE8:
 485              		.align	1
 486              		.global	neighbors_getJoinProxy
 487              		.syntax unified
 488              		.thumb
 489              		.thumb_func
 490              		.fpu softvfp
 492              	neighbors_getJoinProxy:
 493              	.LFB9:
 106:build\openmote-cc2538_armgcc\openstack\02b-MAChigh/neighbors.c **** 
 107:build\openmote-cc2538_armgcc\openstack\02b-MAChigh/neighbors.c **** /**
 108:build\openmote-cc2538_armgcc\openstack\02b-MAChigh/neighbors.c **** \brief Find neighbor which should act as a Join Proxy during the join process.
 109:build\openmote-cc2538_armgcc\openstack\02b-MAChigh/neighbors.c **** 
 110:build\openmote-cc2538_armgcc\openstack\02b-MAChigh/neighbors.c **** This function iterates through the neighbor table and identifies the neighbor
 111:build\openmote-cc2538_armgcc\openstack\02b-MAChigh/neighbors.c **** with lowest join priority metric to send join traffic through.
 112:build\openmote-cc2538_armgcc\openstack\02b-MAChigh/neighbors.c **** 
 113:build\openmote-cc2538_armgcc\openstack\02b-MAChigh/neighbors.c **** \returns A pointer to the neighbor's address, or NULL if no join proxy is found.
 114:build\openmote-cc2538_armgcc\openstack\02b-MAChigh/neighbors.c **** */
 115:build\openmote-cc2538_armgcc\openstack\02b-MAChigh/neighbors.c **** open_addr_t* neighbors_getJoinProxy(void) {
 494              		.loc 1 115 0
 495              		.cfi_startproc
 496              		@ args = 0, pretend = 0, frame = 16
 497              		@ frame_needed = 1, uses_anonymous_args = 0
 498 015c 80B5     		push	{r7, lr}
 499              		.cfi_def_cfa_offset 8
 500              		.cfi_offset 7, -8
 501              		.cfi_offset 14, -4
 502 015e 86B0     		sub	sp, sp, #24
 503              		.cfi_def_cfa_offset 32
 504 0160 02AF     		add	r7, sp, #8
 505              		.cfi_def_cfa 7, 24
 116:build\openmote-cc2538_armgcc\openstack\02b-MAChigh/neighbors.c ****     uint8_t i;
 117:build\openmote-cc2538_armgcc\openstack\02b-MAChigh/neighbors.c ****     uint8_t joinPrioMinimum;
 118:build\openmote-cc2538_armgcc\openstack\02b-MAChigh/neighbors.c ****     open_addr_t* joinProxy;
 119:build\openmote-cc2538_armgcc\openstack\02b-MAChigh/neighbors.c **** 
 120:build\openmote-cc2538_armgcc\openstack\02b-MAChigh/neighbors.c ****     uint16_t moteId;
 121:build\openmote-cc2538_armgcc\openstack\02b-MAChigh/neighbors.c ****     uint16_t slotoffset;
 122:build\openmote-cc2538_armgcc\openstack\02b-MAChigh/neighbors.c ****     uint8_t  channeloffset;
 123:build\openmote-cc2538_armgcc\openstack\02b-MAChigh/neighbors.c ****     uint16_t temp_slotoffset;
 124:build\openmote-cc2538_armgcc\openstack\02b-MAChigh/neighbors.c **** 
 125:build\openmote-cc2538_armgcc\openstack\02b-MAChigh/neighbors.c ****     joinPrioMinimum = 0xff;
 506              		.loc 1 125 0
 507 0162 FF23     		movs	r3, #255
 508 0164 BB73     		strb	r3, [r7, #14]
 126:build\openmote-cc2538_armgcc\openstack\02b-MAChigh/neighbors.c ****     joinProxy = NULL;
 509              		.loc 1 126 0
 510 0166 0023     		movs	r3, #0
 511 0168 BB60     		str	r3, [r7, #8]
 127:build\openmote-cc2538_armgcc\openstack\02b-MAChigh/neighbors.c ****     for (i=0;i<MAXNUMNEIGHBORS;i++) {
 512              		.loc 1 127 0
 513 016a 0023     		movs	r3, #0
 514 016c FB73     		strb	r3, [r7, #15]
 515 016e 36E0     		b	.L30
 516              	.L32:
 128:build\openmote-cc2538_armgcc\openstack\02b-MAChigh/neighbors.c ****         if (
 129:build\openmote-cc2538_armgcc\openstack\02b-MAChigh/neighbors.c ****             neighbors_vars.neighbors[i].used==TRUE &&
 517              		.loc 1 129 0
 518 0170 FA7B     		ldrb	r2, [r7, #15]	@ zero_extendqisi2
 519 0172 3849     		ldr	r1, .L36
 520 0174 1346     		mov	r3, r2
 521 0176 9B00     		lsls	r3, r3, #2
 522 0178 1344     		add	r3, r3, r2
 523 017a DB00     		lsls	r3, r3, #3
 524 017c 0B44     		add	r3, r3, r1
 525 017e 1B78     		ldrb	r3, [r3]	@ zero_extendqisi2
 128:build\openmote-cc2538_armgcc\openstack\02b-MAChigh/neighbors.c ****         if (
 526              		.loc 1 128 0
 527 0180 002B     		cmp	r3, #0
 528 0182 29D0     		beq	.L31
 130:build\openmote-cc2538_armgcc\openstack\02b-MAChigh/neighbors.c ****             neighbors_vars.neighbors[i].stableNeighbor==TRUE &&
 529              		.loc 1 130 0
 530 0184 FA7B     		ldrb	r2, [r7, #15]	@ zero_extendqisi2
 531 0186 3349     		ldr	r1, .L36
 532 0188 1346     		mov	r3, r2
 533 018a 9B00     		lsls	r3, r3, #2
 534 018c 1344     		add	r3, r3, r2
 535 018e DB00     		lsls	r3, r3, #3
 536 0190 0B44     		add	r3, r3, r1
 537 0192 0333     		adds	r3, r3, #3
 538 0194 1B78     		ldrb	r3, [r3]	@ zero_extendqisi2
 129:build\openmote-cc2538_armgcc\openstack\02b-MAChigh/neighbors.c ****             neighbors_vars.neighbors[i].stableNeighbor==TRUE &&
 539              		.loc 1 129 0
 540 0196 002B     		cmp	r3, #0
 541 0198 1ED0     		beq	.L31
 131:build\openmote-cc2538_armgcc\openstack\02b-MAChigh/neighbors.c ****             neighbors_vars.neighbors[i].joinPrio <= joinPrioMinimum
 542              		.loc 1 131 0
 543 019a FA7B     		ldrb	r2, [r7, #15]	@ zero_extendqisi2
 544 019c 2D49     		ldr	r1, .L36
 545 019e 1346     		mov	r3, r2
 546 01a0 9B00     		lsls	r3, r3, #2
 547 01a2 1344     		add	r3, r3, r2
 548 01a4 DB00     		lsls	r3, r3, #3
 549 01a6 0B44     		add	r3, r3, r1
 550 01a8 2233     		adds	r3, r3, #34
 551 01aa 1B78     		ldrb	r3, [r3]	@ zero_extendqisi2
 130:build\openmote-cc2538_armgcc\openstack\02b-MAChigh/neighbors.c ****             neighbors_vars.neighbors[i].stableNeighbor==TRUE &&
 552              		.loc 1 130 0
 553 01ac BA7B     		ldrb	r2, [r7, #14]	@ zero_extendqisi2
 554 01ae 9A42     		cmp	r2, r3
 555 01b0 12D3     		bcc	.L31
 132:build\openmote-cc2538_armgcc\openstack\02b-MAChigh/neighbors.c ****         ) {
 133:build\openmote-cc2538_armgcc\openstack\02b-MAChigh/neighbors.c ****             joinProxy = &(neighbors_vars.neighbors[i].addr_64b);
 556              		.loc 1 133 0
 557 01b2 FA7B     		ldrb	r2, [r7, #15]	@ zero_extendqisi2
 558 01b4 1346     		mov	r3, r2
 559 01b6 9B00     		lsls	r3, r3, #2
 560 01b8 1344     		add	r3, r3, r2
 561 01ba DB00     		lsls	r3, r3, #3
 562 01bc 254A     		ldr	r2, .L36
 563 01be 1344     		add	r3, r3, r2
 564 01c0 0533     		adds	r3, r3, #5
 565 01c2 BB60     		str	r3, [r7, #8]
 134:build\openmote-cc2538_armgcc\openstack\02b-MAChigh/neighbors.c ****             joinPrioMinimum = neighbors_vars.neighbors[i].joinPrio;
 566              		.loc 1 134 0
 567 01c4 FA7B     		ldrb	r2, [r7, #15]	@ zero_extendqisi2
 568 01c6 2349     		ldr	r1, .L36
 569 01c8 1346     		mov	r3, r2
 570 01ca 9B00     		lsls	r3, r3, #2
 571 01cc 1344     		add	r3, r3, r2
 572 01ce DB00     		lsls	r3, r3, #3
 573 01d0 0B44     		add	r3, r3, r1
 574 01d2 2233     		adds	r3, r3, #34
 575 01d4 1B78     		ldrb	r3, [r3]
 576 01d6 BB73     		strb	r3, [r7, #14]
 577              	.L31:
 127:build\openmote-cc2538_armgcc\openstack\02b-MAChigh/neighbors.c ****         if (
 578              		.loc 1 127 0 discriminator 2
 579 01d8 FB7B     		ldrb	r3, [r7, #15]	@ zero_extendqisi2
 580 01da 0133     		adds	r3, r3, #1
 581 01dc FB73     		strb	r3, [r7, #15]
 582              	.L30:
 127:build\openmote-cc2538_armgcc\openstack\02b-MAChigh/neighbors.c ****         if (
 583              		.loc 1 127 0 is_stmt 0 discriminator 1
 584 01de FB7B     		ldrb	r3, [r7, #15]	@ zero_extendqisi2
 585 01e0 1D2B     		cmp	r3, #29
 586 01e2 C5D9     		bls	.L32
 135:build\openmote-cc2538_armgcc\openstack\02b-MAChigh/neighbors.c ****         }
 136:build\openmote-cc2538_armgcc\openstack\02b-MAChigh/neighbors.c ****     }
 137:build\openmote-cc2538_armgcc\openstack\02b-MAChigh/neighbors.c **** 
 138:build\openmote-cc2538_armgcc\openstack\02b-MAChigh/neighbors.c ****     if (joinProxy){
 587              		.loc 1 138 0 is_stmt 1
 588 01e4 BB68     		ldr	r3, [r7, #8]
 589 01e6 002B     		cmp	r3, #0
 590 01e8 2FD0     		beq	.L33
 139:build\openmote-cc2538_armgcc\openstack\02b-MAChigh/neighbors.c ****         // remove all previous installed autonomous cell
 140:build\openmote-cc2538_armgcc\openstack\02b-MAChigh/neighbors.c ****         neighbor_removeAllAutonomousTxRxCellUnicast();
 591              		.loc 1 140 0
 592 01ea FFF7FEFF 		bl	neighbor_removeAllAutonomousTxRxCellUnicast
 141:build\openmote-cc2538_armgcc\openstack\02b-MAChigh/neighbors.c ****         moteId = 256*joinProxy->addr_64b[6]+joinProxy->addr_64b[7];
 593              		.loc 1 141 0
 594 01ee BB68     		ldr	r3, [r7, #8]
 595 01f0 DB79     		ldrb	r3, [r3, #7]	@ zero_extendqisi2
 596 01f2 9BB2     		uxth	r3, r3
 597 01f4 1B02     		lsls	r3, r3, #8
 598 01f6 9AB2     		uxth	r2, r3
 599 01f8 BB68     		ldr	r3, [r7, #8]
 600 01fa 1B7A     		ldrb	r3, [r3, #8]	@ zero_extendqisi2
 601 01fc 9BB2     		uxth	r3, r3
 602 01fe 1344     		add	r3, r3, r2
 603 0200 FB80     		strh	r3, [r7, #6]	@ movhi
 142:build\openmote-cc2538_armgcc\openstack\02b-MAChigh/neighbors.c ****         slotoffset          = msf_hashFunction_getSlotoffset(moteId);
 604              		.loc 1 142 0
 605 0202 FB88     		ldrh	r3, [r7, #6]
 606 0204 1846     		mov	r0, r3
 607 0206 FFF7FEFF 		bl	msf_hashFunction_getSlotoffset
 608 020a 0346     		mov	r3, r0
 609 020c BB80     		strh	r3, [r7, #4]	@ movhi
 143:build\openmote-cc2538_armgcc\openstack\02b-MAChigh/neighbors.c ****         channeloffset       = msf_hashFunction_getChanneloffset(moteId);
 610              		.loc 1 143 0
 611 020e FB88     		ldrh	r3, [r7, #6]
 612 0210 1846     		mov	r0, r3
 613 0212 FFF7FEFF 		bl	msf_hashFunction_getChanneloffset
 614 0216 0346     		mov	r3, r0
 615 0218 FB70     		strb	r3, [r7, #3]
 144:build\openmote-cc2538_armgcc\openstack\02b-MAChigh/neighbors.c ****         if (
 145:build\openmote-cc2538_armgcc\openstack\02b-MAChigh/neighbors.c ****             schedule_getAutonomousTxRxCellAnycast(&temp_slotoffset) &&
 616              		.loc 1 145 0
 617 021a 3B46     		mov	r3, r7
 618 021c 1846     		mov	r0, r3
 619 021e FFF7FEFF 		bl	schedule_getAutonomousTxRxCellAnycast
 620 0222 0346     		mov	r3, r0
 144:build\openmote-cc2538_armgcc\openstack\02b-MAChigh/neighbors.c ****         if (
 621              		.loc 1 144 0
 622 0224 002B     		cmp	r3, #0
 623 0226 07D0     		beq	.L34
 146:build\openmote-cc2538_armgcc\openstack\02b-MAChigh/neighbors.c ****             temp_slotoffset == slotoffset
 624              		.loc 1 146 0
 625 0228 3B88     		ldrh	r3, [r7]
 145:build\openmote-cc2538_armgcc\openstack\02b-MAChigh/neighbors.c ****             temp_slotoffset == slotoffset
 626              		.loc 1 145 0
 627 022a BA88     		ldrh	r2, [r7, #4]
 628 022c 9A42     		cmp	r2, r3
 629 022e 03D1     		bne	.L34
 147:build\openmote-cc2538_armgcc\openstack\02b-MAChigh/neighbors.c ****         ){
 148:build\openmote-cc2538_armgcc\openstack\02b-MAChigh/neighbors.c ****             msf_setHashCollisionFlag(TRUE);
 630              		.loc 1 148 0
 631 0230 0120     		movs	r0, #1
 632 0232 FFF7FEFF 		bl	msf_setHashCollisionFlag
 633 0236 08E0     		b	.L33
 634              	.L34:
 149:build\openmote-cc2538_armgcc\openstack\02b-MAChigh/neighbors.c ****         } else {
 150:build\openmote-cc2538_armgcc\openstack\02b-MAChigh/neighbors.c ****             // reserve the autonomous cell to joinproxy
 151:build\openmote-cc2538_armgcc\openstack\02b-MAChigh/neighbors.c ****             schedule_addActiveSlot(
 635              		.loc 1 151 0
 636 0238 FA78     		ldrb	r2, [r7, #3]	@ zero_extendqisi2
 637 023a B888     		ldrh	r0, [r7, #4]
 638 023c BB68     		ldr	r3, [r7, #8]
 639 023e 0093     		str	r3, [sp]
 640 0240 1346     		mov	r3, r2
 641 0242 0122     		movs	r2, #1
 642 0244 0321     		movs	r1, #3
 643 0246 FFF7FEFF 		bl	schedule_addActiveSlot
 644              	.L33:
 152:build\openmote-cc2538_armgcc\openstack\02b-MAChigh/neighbors.c ****                 slotoffset,                                 // slot offset
 153:build\openmote-cc2538_armgcc\openstack\02b-MAChigh/neighbors.c ****                 CELLTYPE_TXRX,                              // type of slot
 154:build\openmote-cc2538_armgcc\openstack\02b-MAChigh/neighbors.c ****                 TRUE,                                       // shared?
 155:build\openmote-cc2538_armgcc\openstack\02b-MAChigh/neighbors.c ****                 channeloffset,                              // channel offset
 156:build\openmote-cc2538_armgcc\openstack\02b-MAChigh/neighbors.c ****                 joinProxy                                   // neighbor
 157:build\openmote-cc2538_armgcc\openstack\02b-MAChigh/neighbors.c ****             );
 158:build\openmote-cc2538_armgcc\openstack\02b-MAChigh/neighbors.c ****         }
 159:build\openmote-cc2538_armgcc\openstack\02b-MAChigh/neighbors.c ****     }
 160:build\openmote-cc2538_armgcc\openstack\02b-MAChigh/neighbors.c **** 
 161:build\openmote-cc2538_armgcc\openstack\02b-MAChigh/neighbors.c ****     return joinProxy;
 645              		.loc 1 161 0
 646 024a BB68     		ldr	r3, [r7, #8]
 162:build\openmote-cc2538_armgcc\openstack\02b-MAChigh/neighbors.c **** }
 647              		.loc 1 162 0
 648 024c 1846     		mov	r0, r3
 649 024e 1037     		adds	r7, r7, #16
 650              		.cfi_def_cfa_offset 8
 651 0250 BD46     		mov	sp, r7
 652              		.cfi_def_cfa_register 13
 653              		@ sp needed
 654 0252 80BD     		pop	{r7, pc}
 655              	.L37:
 656              		.align	2
 657              	.L36:
 658 0254 00000000 		.word	neighbors_vars
 659              		.cfi_endproc
 660              	.LFE9:
 662              		.align	1
 663              		.global	neighbors_getNeighborNoResource
 664              		.syntax unified
 665              		.thumb
 666              		.thumb_func
 667              		.fpu softvfp
 669              	neighbors_getNeighborNoResource:
 670              	.LFB10:
 163:build\openmote-cc2538_armgcc\openstack\02b-MAChigh/neighbors.c **** 
 164:build\openmote-cc2538_armgcc\openstack\02b-MAChigh/neighbors.c **** bool neighbors_getNeighborNoResource(uint8_t index){
 671              		.loc 1 164 0
 672              		.cfi_startproc
 673              		@ args = 0, pretend = 0, frame = 8
 674              		@ frame_needed = 1, uses_anonymous_args = 0
 675              		@ link register save eliminated.
 676 0258 80B4     		push	{r7}
 677              		.cfi_def_cfa_offset 4
 678              		.cfi_offset 7, -4
 679 025a 83B0     		sub	sp, sp, #12
 680              		.cfi_def_cfa_offset 16
 681 025c 00AF     		add	r7, sp, #0
 682              		.cfi_def_cfa_register 7
 683 025e 0346     		mov	r3, r0
 684 0260 FB71     		strb	r3, [r7, #7]
 165:build\openmote-cc2538_armgcc\openstack\02b-MAChigh/neighbors.c ****     return neighbors_vars.neighbors[index].f6PNORES;
 685              		.loc 1 165 0
 686 0262 FA79     		ldrb	r2, [r7, #7]	@ zero_extendqisi2
 687 0264 0649     		ldr	r1, .L40
 688 0266 1346     		mov	r3, r2
 689 0268 9B00     		lsls	r3, r3, #2
 690 026a 1344     		add	r3, r3, r2
 691 026c DB00     		lsls	r3, r3, #3
 692 026e 0B44     		add	r3, r3, r1
 693 0270 2333     		adds	r3, r3, #35
 694 0272 1B78     		ldrb	r3, [r3]	@ zero_extendqisi2
 166:build\openmote-cc2538_armgcc\openstack\02b-MAChigh/neighbors.c **** }
 695              		.loc 1 166 0
 696 0274 1846     		mov	r0, r3
 697 0276 0C37     		adds	r7, r7, #12
 698              		.cfi_def_cfa_offset 4
 699 0278 BD46     		mov	sp, r7
 700              		.cfi_def_cfa_register 13
 701              		@ sp needed
 702 027a 80BC     		pop	{r7}
 703              		.cfi_restore 7
 704              		.cfi_def_cfa_offset 0
 705 027c 7047     		bx	lr
 706              	.L41:
 707 027e 00BF     		.align	2
 708              	.L40:
 709 0280 00000000 		.word	neighbors_vars
 710              		.cfi_endproc
 711              	.LFE10:
 713              		.align	1
 714              		.global	neighbors_getNeighborIsInBlacklist
 715              		.syntax unified
 716              		.thumb
 717              		.thumb_func
 718              		.fpu softvfp
 720              	neighbors_getNeighborIsInBlacklist:
 721              	.LFB11:
 167:build\openmote-cc2538_armgcc\openstack\02b-MAChigh/neighbors.c **** 
 168:build\openmote-cc2538_armgcc\openstack\02b-MAChigh/neighbors.c **** bool neighbors_getNeighborIsInBlacklist(uint8_t index){
 722              		.loc 1 168 0
 723              		.cfi_startproc
 724              		@ args = 0, pretend = 0, frame = 8
 725              		@ frame_needed = 1, uses_anonymous_args = 0
 726              		@ link register save eliminated.
 727 0284 80B4     		push	{r7}
 728              		.cfi_def_cfa_offset 4
 729              		.cfi_offset 7, -4
 730 0286 83B0     		sub	sp, sp, #12
 731              		.cfi_def_cfa_offset 16
 732 0288 00AF     		add	r7, sp, #0
 733              		.cfi_def_cfa_register 7
 734 028a 0346     		mov	r3, r0
 735 028c FB71     		strb	r3, [r7, #7]
 169:build\openmote-cc2538_armgcc\openstack\02b-MAChigh/neighbors.c ****     return neighbors_vars.neighbors[index].inBlacklist;
 736              		.loc 1 169 0
 737 028e FA79     		ldrb	r2, [r7, #7]	@ zero_extendqisi2
 738 0290 0649     		ldr	r1, .L44
 739 0292 1346     		mov	r3, r2
 740 0294 9B00     		lsls	r3, r3, #2
 741 0296 1344     		add	r3, r3, r2
 742 0298 DB00     		lsls	r3, r3, #3
 743 029a 0B44     		add	r3, r3, r1
 744 029c 2433     		adds	r3, r3, #36
 745 029e 1B78     		ldrb	r3, [r3]	@ zero_extendqisi2
 170:build\openmote-cc2538_armgcc\openstack\02b-MAChigh/neighbors.c **** }
 746              		.loc 1 170 0
 747 02a0 1846     		mov	r0, r3
 748 02a2 0C37     		adds	r7, r7, #12
 749              		.cfi_def_cfa_offset 4
 750 02a4 BD46     		mov	sp, r7
 751              		.cfi_def_cfa_register 13
 752              		@ sp needed
 753 02a6 80BC     		pop	{r7}
 754              		.cfi_restore 7
 755              		.cfi_def_cfa_offset 0
 756 02a8 7047     		bx	lr
 757              	.L45:
 758 02aa 00BF     		.align	2
 759              	.L44:
 760 02ac 00000000 		.word	neighbors_vars
 761              		.cfi_endproc
 762              	.LFE11:
 764              		.align	1
 765              		.global	neighbors_getSequenceNumber
 766              		.syntax unified
 767              		.thumb
 768              		.thumb_func
 769              		.fpu softvfp
 771              	neighbors_getSequenceNumber:
 772              	.LFB12:
 171:build\openmote-cc2538_armgcc\openstack\02b-MAChigh/neighbors.c **** 
 172:build\openmote-cc2538_armgcc\openstack\02b-MAChigh/neighbors.c **** uint8_t neighbors_getSequenceNumber(open_addr_t* address){
 773              		.loc 1 172 0
 774              		.cfi_startproc
 775              		@ args = 0, pretend = 0, frame = 16
 776              		@ frame_needed = 1, uses_anonymous_args = 0
 777 02b0 80B5     		push	{r7, lr}
 778              		.cfi_def_cfa_offset 8
 779              		.cfi_offset 7, -8
 780              		.cfi_offset 14, -4
 781 02b2 84B0     		sub	sp, sp, #16
 782              		.cfi_def_cfa_offset 24
 783 02b4 00AF     		add	r7, sp, #0
 784              		.cfi_def_cfa_register 7
 785 02b6 7860     		str	r0, [r7, #4]
 173:build\openmote-cc2538_armgcc\openstack\02b-MAChigh/neighbors.c ****     uint8_t i;
 174:build\openmote-cc2538_armgcc\openstack\02b-MAChigh/neighbors.c ****     for (i=0;i<MAXNUMNEIGHBORS;i++){
 786              		.loc 1 174 0
 787 02b8 0023     		movs	r3, #0
 788 02ba FB73     		strb	r3, [r7, #15]
 789 02bc 11E0     		b	.L47
 790              	.L50:
 175:build\openmote-cc2538_armgcc\openstack\02b-MAChigh/neighbors.c ****         if (packetfunctions_sameAddress(address, &neighbors_vars.neighbors[i].addr_64b)){
 791              		.loc 1 175 0
 792 02be FA7B     		ldrb	r2, [r7, #15]	@ zero_extendqisi2
 793 02c0 1346     		mov	r3, r2
 794 02c2 9B00     		lsls	r3, r3, #2
 795 02c4 1344     		add	r3, r3, r2
 796 02c6 DB00     		lsls	r3, r3, #3
 797 02c8 0F4A     		ldr	r2, .L53
 798 02ca 1344     		add	r3, r3, r2
 799 02cc 0533     		adds	r3, r3, #5
 800 02ce 1946     		mov	r1, r3
 801 02d0 7868     		ldr	r0, [r7, #4]
 802 02d2 FFF7FEFF 		bl	packetfunctions_sameAddress
 803 02d6 0346     		mov	r3, r0
 804 02d8 002B     		cmp	r3, #0
 805 02da 06D1     		bne	.L52
 174:build\openmote-cc2538_armgcc\openstack\02b-MAChigh/neighbors.c ****         if (packetfunctions_sameAddress(address, &neighbors_vars.neighbors[i].addr_64b)){
 806              		.loc 1 174 0 discriminator 2
 807 02dc FB7B     		ldrb	r3, [r7, #15]	@ zero_extendqisi2
 808 02de 0133     		adds	r3, r3, #1
 809 02e0 FB73     		strb	r3, [r7, #15]
 810              	.L47:
 174:build\openmote-cc2538_armgcc\openstack\02b-MAChigh/neighbors.c ****         if (packetfunctions_sameAddress(address, &neighbors_vars.neighbors[i].addr_64b)){
 811              		.loc 1 174 0 is_stmt 0 discriminator 1
 812 02e2 FB7B     		ldrb	r3, [r7, #15]	@ zero_extendqisi2
 813 02e4 1D2B     		cmp	r3, #29
 814 02e6 EAD9     		bls	.L50
 815 02e8 00E0     		b	.L49
 816              	.L52:
 176:build\openmote-cc2538_armgcc\openstack\02b-MAChigh/neighbors.c ****             break;
 817              		.loc 1 176 0 is_stmt 1
 818 02ea 00BF     		nop
 819              	.L49:
 177:build\openmote-cc2538_armgcc\openstack\02b-MAChigh/neighbors.c ****         }
 178:build\openmote-cc2538_armgcc\openstack\02b-MAChigh/neighbors.c ****     }
 179:build\openmote-cc2538_armgcc\openstack\02b-MAChigh/neighbors.c ****     return neighbors_vars.neighbors[i].sequenceNumber;
 820              		.loc 1 179 0
 821 02ec FA7B     		ldrb	r2, [r7, #15]	@ zero_extendqisi2
 822 02ee 0649     		ldr	r1, .L53
 823 02f0 1346     		mov	r3, r2
 824 02f2 9B00     		lsls	r3, r3, #2
 825 02f4 1344     		add	r3, r3, r2
 826 02f6 DB00     		lsls	r3, r3, #3
 827 02f8 0B44     		add	r3, r3, r1
 828 02fa 2533     		adds	r3, r3, #37
 829 02fc 1B78     		ldrb	r3, [r3]	@ zero_extendqisi2
 180:build\openmote-cc2538_armgcc\openstack\02b-MAChigh/neighbors.c **** 
 181:build\openmote-cc2538_armgcc\openstack\02b-MAChigh/neighbors.c **** }
 830              		.loc 1 181 0
 831 02fe 1846     		mov	r0, r3
 832 0300 1037     		adds	r7, r7, #16
 833              		.cfi_def_cfa_offset 8
 834 0302 BD46     		mov	sp, r7
 835              		.cfi_def_cfa_register 13
 836              		@ sp needed
 837 0304 80BD     		pop	{r7, pc}
 838              	.L54:
 839 0306 00BF     		.align	2
 840              	.L53:
 841 0308 00000000 		.word	neighbors_vars
 842              		.cfi_endproc
 843              	.LFE12:
 845              		.align	1
 846              		.global	neighbors_isStableNeighbor
 847              		.syntax unified
 848              		.thumb
 849              		.thumb_func
 850              		.fpu softvfp
 852              	neighbors_isStableNeighbor:
 853              	.LFB13:
 182:build\openmote-cc2538_armgcc\openstack\02b-MAChigh/neighbors.c **** 
 183:build\openmote-cc2538_armgcc\openstack\02b-MAChigh/neighbors.c **** //===== interrogators
 184:build\openmote-cc2538_armgcc\openstack\02b-MAChigh/neighbors.c **** 
 185:build\openmote-cc2538_armgcc\openstack\02b-MAChigh/neighbors.c **** /**
 186:build\openmote-cc2538_armgcc\openstack\02b-MAChigh/neighbors.c **** \brief Indicate whether some neighbor is a stable neighbor
 187:build\openmote-cc2538_armgcc\openstack\02b-MAChigh/neighbors.c **** 
 188:build\openmote-cc2538_armgcc\openstack\02b-MAChigh/neighbors.c **** \param[in] address The address of the neighbor, a full 128-bit IPv6 addres.
 189:build\openmote-cc2538_armgcc\openstack\02b-MAChigh/neighbors.c **** 
 190:build\openmote-cc2538_armgcc\openstack\02b-MAChigh/neighbors.c **** \returns TRUE if that neighbor is stable, FALSE otherwise.
 191:build\openmote-cc2538_armgcc\openstack\02b-MAChigh/neighbors.c **** */
 192:build\openmote-cc2538_armgcc\openstack\02b-MAChigh/neighbors.c **** bool neighbors_isStableNeighbor(open_addr_t* address) {
 854              		.loc 1 192 0
 855              		.cfi_startproc
 856              		@ args = 0, pretend = 0, frame = 48
 857              		@ frame_needed = 1, uses_anonymous_args = 0
 858 030c 80B5     		push	{r7, lr}
 859              		.cfi_def_cfa_offset 8
 860              		.cfi_offset 7, -8
 861              		.cfi_offset 14, -4
 862 030e 8CB0     		sub	sp, sp, #48
 863              		.cfi_def_cfa_offset 56
 864 0310 00AF     		add	r7, sp, #0
 865              		.cfi_def_cfa_register 7
 866 0312 7860     		str	r0, [r7, #4]
 193:build\openmote-cc2538_armgcc\openstack\02b-MAChigh/neighbors.c ****    uint8_t     i;
 194:build\openmote-cc2538_armgcc\openstack\02b-MAChigh/neighbors.c ****    open_addr_t temp_addr_64b;
 195:build\openmote-cc2538_armgcc\openstack\02b-MAChigh/neighbors.c ****    open_addr_t temp_prefix;
 196:build\openmote-cc2538_armgcc\openstack\02b-MAChigh/neighbors.c ****    bool        returnVal;
 197:build\openmote-cc2538_armgcc\openstack\02b-MAChigh/neighbors.c **** 
 198:build\openmote-cc2538_armgcc\openstack\02b-MAChigh/neighbors.c ****    // by default, not stable
 199:build\openmote-cc2538_armgcc\openstack\02b-MAChigh/neighbors.c ****    returnVal  = FALSE;
 867              		.loc 1 199 0
 868 0314 0023     		movs	r3, #0
 869 0316 87F82E30 		strb	r3, [r7, #46]
 200:build\openmote-cc2538_armgcc\openstack\02b-MAChigh/neighbors.c **** 
 201:build\openmote-cc2538_armgcc\openstack\02b-MAChigh/neighbors.c ****    // but neighbor's IPv6 address in prefix and EUI64
 202:build\openmote-cc2538_armgcc\openstack\02b-MAChigh/neighbors.c ****    switch (address->type) {
 870              		.loc 1 202 0
 871 031a 7B68     		ldr	r3, [r7, #4]
 872 031c 1B78     		ldrb	r3, [r3]	@ zero_extendqisi2
 873 031e 032B     		cmp	r3, #3
 874 0320 0CD1     		bne	.L65
 203:build\openmote-cc2538_armgcc\openstack\02b-MAChigh/neighbors.c ****       case ADDR_128B:
 204:build\openmote-cc2538_armgcc\openstack\02b-MAChigh/neighbors.c ****          packetfunctions_ip128bToMac64b(address,&temp_prefix,&temp_addr_64b);
 875              		.loc 1 204 0
 876 0322 07F11C02 		add	r2, r7, #28
 877 0326 07F10803 		add	r3, r7, #8
 878 032a 1946     		mov	r1, r3
 879 032c 7868     		ldr	r0, [r7, #4]
 880 032e FFF7FEFF 		bl	packetfunctions_ip128bToMac64b
 205:build\openmote-cc2538_armgcc\openstack\02b-MAChigh/neighbors.c ****          break;
 881              		.loc 1 205 0
 882 0332 00BF     		nop
 206:build\openmote-cc2538_armgcc\openstack\02b-MAChigh/neighbors.c ****       default:
 207:build\openmote-cc2538_armgcc\openstack\02b-MAChigh/neighbors.c ****          openserial_printCritical(COMPONENT_NEIGHBORS,ERR_WRONG_ADDR_TYPE,
 208:build\openmote-cc2538_armgcc\openstack\02b-MAChigh/neighbors.c ****                                (errorparameter_t)address->type,
 209:build\openmote-cc2538_armgcc\openstack\02b-MAChigh/neighbors.c ****                                (errorparameter_t)0);
 210:build\openmote-cc2538_armgcc\openstack\02b-MAChigh/neighbors.c ****          return returnVal;
 211:build\openmote-cc2538_armgcc\openstack\02b-MAChigh/neighbors.c ****    }
 212:build\openmote-cc2538_armgcc\openstack\02b-MAChigh/neighbors.c **** 
 213:build\openmote-cc2538_armgcc\openstack\02b-MAChigh/neighbors.c ****    // iterate through neighbor table
 214:build\openmote-cc2538_armgcc\openstack\02b-MAChigh/neighbors.c ****    for (i=0;i<MAXNUMNEIGHBORS;i++) {
 883              		.loc 1 214 0
 884 0334 0023     		movs	r3, #0
 885 0336 87F82F30 		strb	r3, [r7, #47]
 886 033a 2AE0     		b	.L60
 887              	.L65:
 208:build\openmote-cc2538_armgcc\openstack\02b-MAChigh/neighbors.c ****                                (errorparameter_t)0);
 888              		.loc 1 208 0
 889 033c 7B68     		ldr	r3, [r7, #4]
 890 033e 1B78     		ldrb	r3, [r3]	@ zero_extendqisi2
 207:build\openmote-cc2538_armgcc\openstack\02b-MAChigh/neighbors.c ****                                (errorparameter_t)address->type,
 891              		.loc 1 207 0
 892 0340 9AB2     		uxth	r2, r3
 893 0342 0023     		movs	r3, #0
 894 0344 3221     		movs	r1, #50
 895 0346 0D20     		movs	r0, #13
 896 0348 FFF7FEFF 		bl	openserial_printCritical
 210:build\openmote-cc2538_armgcc\openstack\02b-MAChigh/neighbors.c ****    }
 897              		.loc 1 210 0
 898 034c 97F82E30 		ldrb	r3, [r7, #46]	@ zero_extendqisi2
 899 0350 25E0     		b	.L64
 900              	.L63:
 215:build\openmote-cc2538_armgcc\openstack\02b-MAChigh/neighbors.c ****       if (isThisRowMatching(&temp_addr_64b,i) && neighbors_vars.neighbors[i].stableNeighbor==TRUE) 
 901              		.loc 1 215 0
 902 0352 97F82F20 		ldrb	r2, [r7, #47]	@ zero_extendqisi2
 903 0356 07F11C03 		add	r3, r7, #28
 904 035a 1146     		mov	r1, r2
 905 035c 1846     		mov	r0, r3
 906 035e FFF7FEFF 		bl	isThisRowMatching
 907 0362 0346     		mov	r3, r0
 908 0364 002B     		cmp	r3, #0
 909 0366 0FD0     		beq	.L61
 910              		.loc 1 215 0 is_stmt 0 discriminator 1
 911 0368 97F82F20 		ldrb	r2, [r7, #47]	@ zero_extendqisi2
 912 036c 0E49     		ldr	r1, .L66
 913 036e 1346     		mov	r3, r2
 914 0370 9B00     		lsls	r3, r3, #2
 915 0372 1344     		add	r3, r3, r2
 916 0374 DB00     		lsls	r3, r3, #3
 917 0376 0B44     		add	r3, r3, r1
 918 0378 0333     		adds	r3, r3, #3
 919 037a 1B78     		ldrb	r3, [r3]	@ zero_extendqisi2
 920 037c 002B     		cmp	r3, #0
 921 037e 03D0     		beq	.L61
 216:build\openmote-cc2538_armgcc\openstack\02b-MAChigh/neighbors.c ****          returnVal  = TRUE;
 922              		.loc 1 216 0 is_stmt 1
 923 0380 0123     		movs	r3, #1
 924 0382 87F82E30 		strb	r3, [r7, #46]
 217:build\openmote-cc2538_armgcc\openstack\02b-MAChigh/neighbors.c ****          break;
 925              		.loc 1 217 0
 926 0386 08E0     		b	.L62
 927              	.L61:
 214:build\openmote-cc2538_armgcc\openstack\02b-MAChigh/neighbors.c ****       if (isThisRowMatching(&temp_addr_64b,i) && neighbors_vars.neighbors[i].stableNeighbor==TRUE) 
 928              		.loc 1 214 0 discriminator 2
 929 0388 97F82F30 		ldrb	r3, [r7, #47]	@ zero_extendqisi2
 930 038c 0133     		adds	r3, r3, #1
 931 038e 87F82F30 		strb	r3, [r7, #47]
 932              	.L60:
 214:build\openmote-cc2538_armgcc\openstack\02b-MAChigh/neighbors.c ****       if (isThisRowMatching(&temp_addr_64b,i) && neighbors_vars.neighbors[i].stableNeighbor==TRUE) 
 933              		.loc 1 214 0 is_stmt 0 discriminator 1
 934 0392 97F82F30 		ldrb	r3, [r7, #47]	@ zero_extendqisi2
 935 0396 1D2B     		cmp	r3, #29
 936 0398 DBD9     		bls	.L63
 937              	.L62:
 218:build\openmote-cc2538_armgcc\openstack\02b-MAChigh/neighbors.c ****       }
 219:build\openmote-cc2538_armgcc\openstack\02b-MAChigh/neighbors.c ****    }
 220:build\openmote-cc2538_armgcc\openstack\02b-MAChigh/neighbors.c **** 
 221:build\openmote-cc2538_armgcc\openstack\02b-MAChigh/neighbors.c ****    return returnVal;
 938              		.loc 1 221 0 is_stmt 1
 939 039a 97F82E30 		ldrb	r3, [r7, #46]	@ zero_extendqisi2
 940              	.L64:
 222:build\openmote-cc2538_armgcc\openstack\02b-MAChigh/neighbors.c **** }
 941              		.loc 1 222 0 discriminator 1
 942 039e 1846     		mov	r0, r3
 943 03a0 3037     		adds	r7, r7, #48
 944              		.cfi_def_cfa_offset 8
 945 03a2 BD46     		mov	sp, r7
 946              		.cfi_def_cfa_register 13
 947              		@ sp needed
 948 03a4 80BD     		pop	{r7, pc}
 949              	.L67:
 950 03a6 00BF     		.align	2
 951              	.L66:
 952 03a8 00000000 		.word	neighbors_vars
 953              		.cfi_endproc
 954              	.LFE13:
 956              		.align	1
 957              		.global	neighbors_isStableNeighborByIndex
 958              		.syntax unified
 959              		.thumb
 960              		.thumb_func
 961              		.fpu softvfp
 963              	neighbors_isStableNeighborByIndex:
 964              	.LFB14:
 223:build\openmote-cc2538_armgcc\openstack\02b-MAChigh/neighbors.c **** 
 224:build\openmote-cc2538_armgcc\openstack\02b-MAChigh/neighbors.c **** /**
 225:build\openmote-cc2538_armgcc\openstack\02b-MAChigh/neighbors.c **** \brief Indicate whether some neighbor is a stable neighbor
 226:build\openmote-cc2538_armgcc\openstack\02b-MAChigh/neighbors.c **** 
 227:build\openmote-cc2538_armgcc\openstack\02b-MAChigh/neighbors.c **** \param[in] index into the neighbor table.
 228:build\openmote-cc2538_armgcc\openstack\02b-MAChigh/neighbors.c **** 
 229:build\openmote-cc2538_armgcc\openstack\02b-MAChigh/neighbors.c **** \returns TRUE if that neighbor is in use and stable, FALSE otherwise.
 230:build\openmote-cc2538_armgcc\openstack\02b-MAChigh/neighbors.c **** */
 231:build\openmote-cc2538_armgcc\openstack\02b-MAChigh/neighbors.c **** bool neighbors_isStableNeighborByIndex(uint8_t index) {
 965              		.loc 1 231 0
 966              		.cfi_startproc
 967              		@ args = 0, pretend = 0, frame = 8
 968              		@ frame_needed = 1, uses_anonymous_args = 0
 969              		@ link register save eliminated.
 970 03ac 80B4     		push	{r7}
 971              		.cfi_def_cfa_offset 4
 972              		.cfi_offset 7, -4
 973 03ae 83B0     		sub	sp, sp, #12
 974              		.cfi_def_cfa_offset 16
 975 03b0 00AF     		add	r7, sp, #0
 976              		.cfi_def_cfa_register 7
 977 03b2 0346     		mov	r3, r0
 978 03b4 FB71     		strb	r3, [r7, #7]
 232:build\openmote-cc2538_armgcc\openstack\02b-MAChigh/neighbors.c ****    return (neighbors_vars.neighbors[index].stableNeighbor &&
 979              		.loc 1 232 0
 980 03b6 FA79     		ldrb	r2, [r7, #7]	@ zero_extendqisi2
 981 03b8 0F49     		ldr	r1, .L72
 982 03ba 1346     		mov	r3, r2
 983 03bc 9B00     		lsls	r3, r3, #2
 984 03be 1344     		add	r3, r3, r2
 985 03c0 DB00     		lsls	r3, r3, #3
 986 03c2 0B44     		add	r3, r3, r1
 987 03c4 0333     		adds	r3, r3, #3
 988 03c6 1B78     		ldrb	r3, [r3]	@ zero_extendqisi2
 989 03c8 002B     		cmp	r3, #0
 990 03ca 0BD0     		beq	.L69
 233:build\openmote-cc2538_armgcc\openstack\02b-MAChigh/neighbors.c ****            neighbors_vars.neighbors[index].used);
 991              		.loc 1 233 0 discriminator 1
 992 03cc FA79     		ldrb	r2, [r7, #7]	@ zero_extendqisi2
 993 03ce 0A49     		ldr	r1, .L72
 994 03d0 1346     		mov	r3, r2
 995 03d2 9B00     		lsls	r3, r3, #2
 996 03d4 1344     		add	r3, r3, r2
 997 03d6 DB00     		lsls	r3, r3, #3
 998 03d8 0B44     		add	r3, r3, r1
 999 03da 1B78     		ldrb	r3, [r3]	@ zero_extendqisi2
 232:build\openmote-cc2538_armgcc\openstack\02b-MAChigh/neighbors.c ****    return (neighbors_vars.neighbors[index].stableNeighbor &&
 1000              		.loc 1 232 0 discriminator 1
 1001 03dc 002B     		cmp	r3, #0
 1002 03de 01D0     		beq	.L69
 232:build\openmote-cc2538_armgcc\openstack\02b-MAChigh/neighbors.c ****    return (neighbors_vars.neighbors[index].stableNeighbor &&
 1003              		.loc 1 232 0 is_stmt 0 discriminator 3
 1004 03e0 0123     		movs	r3, #1
 1005 03e2 00E0     		b	.L70
 1006              	.L69:
 232:build\openmote-cc2538_armgcc\openstack\02b-MAChigh/neighbors.c ****    return (neighbors_vars.neighbors[index].stableNeighbor &&
 1007              		.loc 1 232 0 discriminator 4
 1008 03e4 0023     		movs	r3, #0
 1009              	.L70:
 232:build\openmote-cc2538_armgcc\openstack\02b-MAChigh/neighbors.c ****    return (neighbors_vars.neighbors[index].stableNeighbor &&
 1010              		.loc 1 232 0 discriminator 6
 1011 03e6 03F00103 		and	r3, r3, #1
 1012 03ea DBB2     		uxtb	r3, r3
 234:build\openmote-cc2538_armgcc\openstack\02b-MAChigh/neighbors.c **** }
 1013              		.loc 1 234 0 is_stmt 1 discriminator 6
 1014 03ec 1846     		mov	r0, r3
 1015 03ee 0C37     		adds	r7, r7, #12
 1016              		.cfi_def_cfa_offset 4
 1017 03f0 BD46     		mov	sp, r7
 1018              		.cfi_def_cfa_register 13
 1019              		@ sp needed
 1020 03f2 80BC     		pop	{r7}
 1021              		.cfi_restore 7
 1022              		.cfi_def_cfa_offset 0
 1023 03f4 7047     		bx	lr
 1024              	.L73:
 1025 03f6 00BF     		.align	2
 1026              	.L72:
 1027 03f8 00000000 		.word	neighbors_vars
 1028              		.cfi_endproc
 1029              	.LFE14:
 1031              		.align	1
 1032              		.global	neighbors_isInsecureNeighbor
 1033              		.syntax unified
 1034              		.thumb
 1035              		.thumb_func
 1036              		.fpu softvfp
 1038              	neighbors_isInsecureNeighbor:
 1039              	.LFB15:
 235:build\openmote-cc2538_armgcc\openstack\02b-MAChigh/neighbors.c **** 
 236:build\openmote-cc2538_armgcc\openstack\02b-MAChigh/neighbors.c **** /**
 237:build\openmote-cc2538_armgcc\openstack\02b-MAChigh/neighbors.c **** \brief Indicate whether some neighbor is an insecure neighbor
 238:build\openmote-cc2538_armgcc\openstack\02b-MAChigh/neighbors.c **** 
 239:build\openmote-cc2538_armgcc\openstack\02b-MAChigh/neighbors.c **** \param[in] address The address of the neighbor, a 64-bit address.
 240:build\openmote-cc2538_armgcc\openstack\02b-MAChigh/neighbors.c **** 
 241:build\openmote-cc2538_armgcc\openstack\02b-MAChigh/neighbors.c **** \returns TRUE if that neighbor is insecure, FALSE otherwise.
 242:build\openmote-cc2538_armgcc\openstack\02b-MAChigh/neighbors.c **** */
 243:build\openmote-cc2538_armgcc\openstack\02b-MAChigh/neighbors.c **** bool neighbors_isInsecureNeighbor(open_addr_t* address) {
 1040              		.loc 1 243 0
 1041              		.cfi_startproc
 1042              		@ args = 0, pretend = 0, frame = 16
 1043              		@ frame_needed = 1, uses_anonymous_args = 0
 1044 03fc 80B5     		push	{r7, lr}
 1045              		.cfi_def_cfa_offset 8
 1046              		.cfi_offset 7, -8
 1047              		.cfi_offset 14, -4
 1048 03fe 84B0     		sub	sp, sp, #16
 1049              		.cfi_def_cfa_offset 24
 1050 0400 00AF     		add	r7, sp, #0
 1051              		.cfi_def_cfa_register 7
 1052 0402 7860     		str	r0, [r7, #4]
 244:build\openmote-cc2538_armgcc\openstack\02b-MAChigh/neighbors.c ****    uint8_t     i;
 245:build\openmote-cc2538_armgcc\openstack\02b-MAChigh/neighbors.c ****    bool        returnVal;
 246:build\openmote-cc2538_armgcc\openstack\02b-MAChigh/neighbors.c **** 
 247:build\openmote-cc2538_armgcc\openstack\02b-MAChigh/neighbors.c ****    // if not found, insecure
 248:build\openmote-cc2538_armgcc\openstack\02b-MAChigh/neighbors.c ****    returnVal  = TRUE;
 1053              		.loc 1 248 0
 1054 0404 0123     		movs	r3, #1
 1055 0406 BB73     		strb	r3, [r7, #14]
 249:build\openmote-cc2538_armgcc\openstack\02b-MAChigh/neighbors.c **** 
 250:build\openmote-cc2538_armgcc\openstack\02b-MAChigh/neighbors.c ****    switch (address->type) {
 1056              		.loc 1 250 0
 1057 0408 7B68     		ldr	r3, [r7, #4]
 1058 040a 1B78     		ldrb	r3, [r3]	@ zero_extendqisi2
 1059 040c 022B     		cmp	r3, #2
 1060 040e 09D0     		beq	.L83
 251:build\openmote-cc2538_armgcc\openstack\02b-MAChigh/neighbors.c ****       case ADDR_64B:
 252:build\openmote-cc2538_armgcc\openstack\02b-MAChigh/neighbors.c ****          break;
 253:build\openmote-cc2538_armgcc\openstack\02b-MAChigh/neighbors.c ****       default:
 254:build\openmote-cc2538_armgcc\openstack\02b-MAChigh/neighbors.c ****          openserial_printCritical(COMPONENT_NEIGHBORS,ERR_WRONG_ADDR_TYPE,
 255:build\openmote-cc2538_armgcc\openstack\02b-MAChigh/neighbors.c ****                                (errorparameter_t)address->type,
 1061              		.loc 1 255 0
 1062 0410 7B68     		ldr	r3, [r7, #4]
 1063 0412 1B78     		ldrb	r3, [r3]	@ zero_extendqisi2
 254:build\openmote-cc2538_armgcc\openstack\02b-MAChigh/neighbors.c ****                                (errorparameter_t)address->type,
 1064              		.loc 1 254 0
 1065 0414 9AB2     		uxth	r2, r3
 1066 0416 0023     		movs	r3, #0
 1067 0418 3221     		movs	r1, #50
 1068 041a 0D20     		movs	r0, #13
 1069 041c FFF7FEFF 		bl	openserial_printCritical
 256:build\openmote-cc2538_armgcc\openstack\02b-MAChigh/neighbors.c ****                                (errorparameter_t)0);
 257:build\openmote-cc2538_armgcc\openstack\02b-MAChigh/neighbors.c ****          return returnVal;
 1070              		.loc 1 257 0
 1071 0420 BB7B     		ldrb	r3, [r7, #14]	@ zero_extendqisi2
 1072 0422 1DE0     		b	.L78
 1073              	.L83:
 252:build\openmote-cc2538_armgcc\openstack\02b-MAChigh/neighbors.c ****       default:
 1074              		.loc 1 252 0
 1075 0424 00BF     		nop
 258:build\openmote-cc2538_armgcc\openstack\02b-MAChigh/neighbors.c ****    }
 259:build\openmote-cc2538_armgcc\openstack\02b-MAChigh/neighbors.c **** 
 260:build\openmote-cc2538_armgcc\openstack\02b-MAChigh/neighbors.c ****    // iterate through neighbor table
 261:build\openmote-cc2538_armgcc\openstack\02b-MAChigh/neighbors.c ****    for (i=0;i<MAXNUMNEIGHBORS;i++) {
 1076              		.loc 1 261 0
 1077 0426 0023     		movs	r3, #0
 1078 0428 FB73     		strb	r3, [r7, #15]
 1079 042a 15E0     		b	.L79
 1080              	.L82:
 262:build\openmote-cc2538_armgcc\openstack\02b-MAChigh/neighbors.c ****       if (isThisRowMatching(address,i)) {
 1081              		.loc 1 262 0
 1082 042c FB7B     		ldrb	r3, [r7, #15]	@ zero_extendqisi2
 1083 042e 1946     		mov	r1, r3
 1084 0430 7868     		ldr	r0, [r7, #4]
 1085 0432 FFF7FEFF 		bl	isThisRowMatching
 1086 0436 0346     		mov	r3, r0
 1087 0438 002B     		cmp	r3, #0
 1088 043a 0AD0     		beq	.L80
 263:build\openmote-cc2538_armgcc\openstack\02b-MAChigh/neighbors.c ****          returnVal  = neighbors_vars.neighbors[i].insecure;
 1089              		.loc 1 263 0
 1090 043c FA7B     		ldrb	r2, [r7, #15]	@ zero_extendqisi2
 1091 043e 0A49     		ldr	r1, .L84
 1092 0440 1346     		mov	r3, r2
 1093 0442 9B00     		lsls	r3, r3, #2
 1094 0444 1344     		add	r3, r3, r2
 1095 0446 DB00     		lsls	r3, r3, #3
 1096 0448 0B44     		add	r3, r3, r1
 1097 044a 0133     		adds	r3, r3, #1
 1098 044c 1B78     		ldrb	r3, [r3]
 1099 044e BB73     		strb	r3, [r7, #14]
 264:build\openmote-cc2538_armgcc\openstack\02b-MAChigh/neighbors.c ****          break;
 1100              		.loc 1 264 0
 1101 0450 05E0     		b	.L81
 1102              	.L80:
 261:build\openmote-cc2538_armgcc\openstack\02b-MAChigh/neighbors.c ****       if (isThisRowMatching(address,i)) {
 1103              		.loc 1 261 0 discriminator 2
 1104 0452 FB7B     		ldrb	r3, [r7, #15]	@ zero_extendqisi2
 1105 0454 0133     		adds	r3, r3, #1
 1106 0456 FB73     		strb	r3, [r7, #15]
 1107              	.L79:
 261:build\openmote-cc2538_armgcc\openstack\02b-MAChigh/neighbors.c ****       if (isThisRowMatching(address,i)) {
 1108              		.loc 1 261 0 is_stmt 0 discriminator 1
 1109 0458 FB7B     		ldrb	r3, [r7, #15]	@ zero_extendqisi2
 1110 045a 1D2B     		cmp	r3, #29
 1111 045c E6D9     		bls	.L82
 1112              	.L81:
 265:build\openmote-cc2538_armgcc\openstack\02b-MAChigh/neighbors.c ****       }
 266:build\openmote-cc2538_armgcc\openstack\02b-MAChigh/neighbors.c ****    }
 267:build\openmote-cc2538_armgcc\openstack\02b-MAChigh/neighbors.c **** 
 268:build\openmote-cc2538_armgcc\openstack\02b-MAChigh/neighbors.c ****    return returnVal;
 1113              		.loc 1 268 0 is_stmt 1
 1114 045e BB7B     		ldrb	r3, [r7, #14]	@ zero_extendqisi2
 1115              	.L78:
 269:build\openmote-cc2538_armgcc\openstack\02b-MAChigh/neighbors.c **** }
 1116              		.loc 1 269 0
 1117 0460 1846     		mov	r0, r3
 1118 0462 1037     		adds	r7, r7, #16
 1119              		.cfi_def_cfa_offset 8
 1120 0464 BD46     		mov	sp, r7
 1121              		.cfi_def_cfa_register 13
 1122              		@ sp needed
 1123 0466 80BD     		pop	{r7, pc}
 1124              	.L85:
 1125              		.align	2
 1126              	.L84:
 1127 0468 00000000 		.word	neighbors_vars
 1128              		.cfi_endproc
 1129              	.LFE15:
 1131              		.align	1
 1132              		.global	neighbors_isNeighborWithHigherDAGrank
 1133              		.syntax unified
 1134              		.thumb
 1135              		.thumb_func
 1136              		.fpu softvfp
 1138              	neighbors_isNeighborWithHigherDAGrank:
 1139              	.LFB16:
 270:build\openmote-cc2538_armgcc\openstack\02b-MAChigh/neighbors.c **** 
 271:build\openmote-cc2538_armgcc\openstack\02b-MAChigh/neighbors.c **** /**
 272:build\openmote-cc2538_armgcc\openstack\02b-MAChigh/neighbors.c **** \brief Indicate whether some neighbor has a lower DAG rank that me.
 273:build\openmote-cc2538_armgcc\openstack\02b-MAChigh/neighbors.c **** 
 274:build\openmote-cc2538_armgcc\openstack\02b-MAChigh/neighbors.c **** \param[in] index The index of that neighbor in the neighbor table.
 275:build\openmote-cc2538_armgcc\openstack\02b-MAChigh/neighbors.c **** 
 276:build\openmote-cc2538_armgcc\openstack\02b-MAChigh/neighbors.c **** \returns TRUE if that neighbor is in use and has a higher DAG rank than me, FALSE otherwise.
 277:build\openmote-cc2538_armgcc\openstack\02b-MAChigh/neighbors.c **** */
 278:build\openmote-cc2538_armgcc\openstack\02b-MAChigh/neighbors.c **** bool neighbors_isNeighborWithHigherDAGrank(uint8_t index) {
 1140              		.loc 1 278 0
 1141              		.cfi_startproc
 1142              		@ args = 0, pretend = 0, frame = 16
 1143              		@ frame_needed = 1, uses_anonymous_args = 0
 1144 046c 90B5     		push	{r4, r7, lr}
 1145              		.cfi_def_cfa_offset 12
 1146              		.cfi_offset 4, -12
 1147              		.cfi_offset 7, -8
 1148              		.cfi_offset 14, -4
 1149 046e 85B0     		sub	sp, sp, #20
 1150              		.cfi_def_cfa_offset 32
 1151 0470 00AF     		add	r7, sp, #0
 1152              		.cfi_def_cfa_register 7
 1153 0472 0346     		mov	r3, r0
 1154 0474 FB71     		strb	r3, [r7, #7]
 279:build\openmote-cc2538_armgcc\openstack\02b-MAChigh/neighbors.c ****    bool    returnVal;
 280:build\openmote-cc2538_armgcc\openstack\02b-MAChigh/neighbors.c **** 
 281:build\openmote-cc2538_armgcc\openstack\02b-MAChigh/neighbors.c ****    if (neighbors_vars.neighbors[index].used==TRUE &&
 1155              		.loc 1 281 0
 1156 0476 FA79     		ldrb	r2, [r7, #7]	@ zero_extendqisi2
 1157 0478 1049     		ldr	r1, .L90
 1158 047a 1346     		mov	r3, r2
 1159 047c 9B00     		lsls	r3, r3, #2
 1160 047e 1344     		add	r3, r3, r2
 1161 0480 DB00     		lsls	r3, r3, #3
 1162 0482 0B44     		add	r3, r3, r1
 1163 0484 1B78     		ldrb	r3, [r3]	@ zero_extendqisi2
 1164 0486 002B     		cmp	r3, #0
 1165 0488 10D0     		beq	.L87
 282:build\openmote-cc2538_armgcc\openstack\02b-MAChigh/neighbors.c ****        neighbors_vars.neighbors[index].DAGrank >= icmpv6rpl_getMyDAGrank()) {
 1166              		.loc 1 282 0 discriminator 1
 1167 048a FA79     		ldrb	r2, [r7, #7]	@ zero_extendqisi2
 1168 048c 0B49     		ldr	r1, .L90
 1169 048e 1346     		mov	r3, r2
 1170 0490 9B00     		lsls	r3, r3, #2
 1171 0492 1344     		add	r3, r3, r2
 1172 0494 DB00     		lsls	r3, r3, #3
 1173 0496 0B44     		add	r3, r3, r1
 1174 0498 1633     		adds	r3, r3, #22
 1175 049a 1C88     		ldrh	r4, [r3]
 1176 049c FFF7FEFF 		bl	icmpv6rpl_getMyDAGrank
 1177 04a0 0346     		mov	r3, r0
 281:build\openmote-cc2538_armgcc\openstack\02b-MAChigh/neighbors.c ****        neighbors_vars.neighbors[index].DAGrank >= icmpv6rpl_getMyDAGrank()) {
 1178              		.loc 1 281 0 discriminator 1
 1179 04a2 9C42     		cmp	r4, r3
 1180 04a4 02D3     		bcc	.L87
 283:build\openmote-cc2538_armgcc\openstack\02b-MAChigh/neighbors.c ****       returnVal = TRUE;
 1181              		.loc 1 283 0
 1182 04a6 0123     		movs	r3, #1
 1183 04a8 FB73     		strb	r3, [r7, #15]
 1184 04aa 01E0     		b	.L88
 1185              	.L87:
 284:build\openmote-cc2538_armgcc\openstack\02b-MAChigh/neighbors.c ****    } else {
 285:build\openmote-cc2538_armgcc\openstack\02b-MAChigh/neighbors.c ****       returnVal = FALSE;
 1186              		.loc 1 285 0
 1187 04ac 0023     		movs	r3, #0
 1188 04ae FB73     		strb	r3, [r7, #15]
 1189              	.L88:
 286:build\openmote-cc2538_armgcc\openstack\02b-MAChigh/neighbors.c ****    }
 287:build\openmote-cc2538_armgcc\openstack\02b-MAChigh/neighbors.c **** 
 288:build\openmote-cc2538_armgcc\openstack\02b-MAChigh/neighbors.c ****    return returnVal;
 1190              		.loc 1 288 0
 1191 04b0 FB7B     		ldrb	r3, [r7, #15]	@ zero_extendqisi2
 289:build\openmote-cc2538_armgcc\openstack\02b-MAChigh/neighbors.c **** }
 1192              		.loc 1 289 0
 1193 04b2 1846     		mov	r0, r3
 1194 04b4 1437     		adds	r7, r7, #20
 1195              		.cfi_def_cfa_offset 12
 1196 04b6 BD46     		mov	sp, r7
 1197              		.cfi_def_cfa_register 13
 1198              		@ sp needed
 1199 04b8 90BD     		pop	{r4, r7, pc}
 1200              	.L91:
 1201 04ba 00BF     		.align	2
 1202              	.L90:
 1203 04bc 00000000 		.word	neighbors_vars
 1204              		.cfi_endproc
 1205              	.LFE16:
 1207              		.align	1
 1208              		.global	neighbors_reachedMinimalTransmission
 1209              		.syntax unified
 1210              		.thumb
 1211              		.thumb_func
 1212              		.fpu softvfp
 1214              	neighbors_reachedMinimalTransmission:
 1215              	.LFB17:
 290:build\openmote-cc2538_armgcc\openstack\02b-MAChigh/neighbors.c **** 
 291:build\openmote-cc2538_armgcc\openstack\02b-MAChigh/neighbors.c **** bool neighbors_reachedMinimalTransmission(uint8_t index){
 1216              		.loc 1 291 0
 1217              		.cfi_startproc
 1218              		@ args = 0, pretend = 0, frame = 16
 1219              		@ frame_needed = 1, uses_anonymous_args = 0
 1220              		@ link register save eliminated.
 1221 04c0 80B4     		push	{r7}
 1222              		.cfi_def_cfa_offset 4
 1223              		.cfi_offset 7, -4
 1224 04c2 85B0     		sub	sp, sp, #20
 1225              		.cfi_def_cfa_offset 24
 1226 04c4 00AF     		add	r7, sp, #0
 1227              		.cfi_def_cfa_register 7
 1228 04c6 0346     		mov	r3, r0
 1229 04c8 FB71     		strb	r3, [r7, #7]
 292:build\openmote-cc2538_armgcc\openstack\02b-MAChigh/neighbors.c ****     bool    returnVal;
 293:build\openmote-cc2538_armgcc\openstack\02b-MAChigh/neighbors.c **** 
 294:build\openmote-cc2538_armgcc\openstack\02b-MAChigh/neighbors.c ****     if (
 295:build\openmote-cc2538_armgcc\openstack\02b-MAChigh/neighbors.c ****         neighbors_vars.neighbors[index].used  == TRUE &&
 1230              		.loc 1 295 0
 1231 04ca FA79     		ldrb	r2, [r7, #7]	@ zero_extendqisi2
 1232 04cc 0F49     		ldr	r1, .L96
 1233 04ce 1346     		mov	r3, r2
 1234 04d0 9B00     		lsls	r3, r3, #2
 1235 04d2 1344     		add	r3, r3, r2
 1236 04d4 DB00     		lsls	r3, r3, #3
 1237 04d6 0B44     		add	r3, r3, r1
 1238 04d8 1B78     		ldrb	r3, [r3]	@ zero_extendqisi2
 294:build\openmote-cc2538_armgcc\openstack\02b-MAChigh/neighbors.c ****         neighbors_vars.neighbors[index].used  == TRUE &&
 1239              		.loc 1 294 0
 1240 04da 002B     		cmp	r3, #0
 1241 04dc 0DD0     		beq	.L93
 296:build\openmote-cc2538_armgcc\openstack\02b-MAChigh/neighbors.c ****         neighbors_vars.neighbors[index].numTx >  MINIMAL_NUM_TX
 1242              		.loc 1 296 0
 1243 04de FA79     		ldrb	r2, [r7, #7]	@ zero_extendqisi2
 1244 04e0 0A49     		ldr	r1, .L96
 1245 04e2 1346     		mov	r3, r2
 1246 04e4 9B00     		lsls	r3, r3, #2
 1247 04e6 1344     		add	r3, r3, r2
 1248 04e8 DB00     		lsls	r3, r3, #3
 1249 04ea 0B44     		add	r3, r3, r1
 1250 04ec 1A33     		adds	r3, r3, #26
 1251 04ee 1B78     		ldrb	r3, [r3]	@ zero_extendqisi2
 295:build\openmote-cc2538_armgcc\openstack\02b-MAChigh/neighbors.c ****         neighbors_vars.neighbors[index].numTx >  MINIMAL_NUM_TX
 1252              		.loc 1 295 0
 1253 04f0 102B     		cmp	r3, #16
 1254 04f2 02D9     		bls	.L93
 297:build\openmote-cc2538_armgcc\openstack\02b-MAChigh/neighbors.c ****     ) {
 298:build\openmote-cc2538_armgcc\openstack\02b-MAChigh/neighbors.c ****         returnVal = TRUE;
 1255              		.loc 1 298 0
 1256 04f4 0123     		movs	r3, #1
 1257 04f6 FB73     		strb	r3, [r7, #15]
 1258 04f8 01E0     		b	.L94
 1259              	.L93:
 299:build\openmote-cc2538_armgcc\openstack\02b-MAChigh/neighbors.c ****     } else {
 300:build\openmote-cc2538_armgcc\openstack\02b-MAChigh/neighbors.c ****         returnVal = FALSE;
 1260              		.loc 1 300 0
 1261 04fa 0023     		movs	r3, #0
 1262 04fc FB73     		strb	r3, [r7, #15]
 1263              	.L94:
 301:build\openmote-cc2538_armgcc\openstack\02b-MAChigh/neighbors.c ****     }
 302:build\openmote-cc2538_armgcc\openstack\02b-MAChigh/neighbors.c **** 
 303:build\openmote-cc2538_armgcc\openstack\02b-MAChigh/neighbors.c ****     return returnVal;
 1264              		.loc 1 303 0
 1265 04fe FB7B     		ldrb	r3, [r7, #15]	@ zero_extendqisi2
 304:build\openmote-cc2538_armgcc\openstack\02b-MAChigh/neighbors.c **** }
 1266              		.loc 1 304 0
 1267 0500 1846     		mov	r0, r3
 1268 0502 1437     		adds	r7, r7, #20
 1269              		.cfi_def_cfa_offset 4
 1270 0504 BD46     		mov	sp, r7
 1271              		.cfi_def_cfa_register 13
 1272              		@ sp needed
 1273 0506 80BC     		pop	{r7}
 1274              		.cfi_restore 7
 1275              		.cfi_def_cfa_offset 0
 1276 0508 7047     		bx	lr
 1277              	.L97:
 1278 050a 00BF     		.align	2
 1279              	.L96:
 1280 050c 00000000 		.word	neighbors_vars
 1281              		.cfi_endproc
 1282              	.LFE17:
 1284              		.align	1
 1285              		.global	neighbors_indicateRx
 1286              		.syntax unified
 1287              		.thumb
 1288              		.thumb_func
 1289              		.fpu softvfp
 1291              	neighbors_indicateRx:
 1292              	.LFB18:
 305:build\openmote-cc2538_armgcc\openstack\02b-MAChigh/neighbors.c **** 
 306:build\openmote-cc2538_armgcc\openstack\02b-MAChigh/neighbors.c **** //===== updating neighbor information
 307:build\openmote-cc2538_armgcc\openstack\02b-MAChigh/neighbors.c **** 
 308:build\openmote-cc2538_armgcc\openstack\02b-MAChigh/neighbors.c **** /**
 309:build\openmote-cc2538_armgcc\openstack\02b-MAChigh/neighbors.c **** \brief Indicate some (non-ACK) packet was received from a neighbor.
 310:build\openmote-cc2538_armgcc\openstack\02b-MAChigh/neighbors.c **** 
 311:build\openmote-cc2538_armgcc\openstack\02b-MAChigh/neighbors.c **** This function should be called for each received (non-ACK) packet so neighbor
 312:build\openmote-cc2538_armgcc\openstack\02b-MAChigh/neighbors.c **** statistics in the neighbor table can be updated.
 313:build\openmote-cc2538_armgcc\openstack\02b-MAChigh/neighbors.c **** 
 314:build\openmote-cc2538_armgcc\openstack\02b-MAChigh/neighbors.c **** The fields which are updated are:
 315:build\openmote-cc2538_armgcc\openstack\02b-MAChigh/neighbors.c **** - numRx
 316:build\openmote-cc2538_armgcc\openstack\02b-MAChigh/neighbors.c **** - rssi
 317:build\openmote-cc2538_armgcc\openstack\02b-MAChigh/neighbors.c **** - asn
 318:build\openmote-cc2538_armgcc\openstack\02b-MAChigh/neighbors.c **** - stableNeighbor
 319:build\openmote-cc2538_armgcc\openstack\02b-MAChigh/neighbors.c **** - switchStabilityCounter
 320:build\openmote-cc2538_armgcc\openstack\02b-MAChigh/neighbors.c **** 
 321:build\openmote-cc2538_armgcc\openstack\02b-MAChigh/neighbors.c **** \param[in] l2_src MAC source address of the packet, i.e. the neighbor who sent
 322:build\openmote-cc2538_armgcc\openstack\02b-MAChigh/neighbors.c ****    the packet just received.
 323:build\openmote-cc2538_armgcc\openstack\02b-MAChigh/neighbors.c **** \param[in] rssi   RSSI with which this packet was received.
 324:build\openmote-cc2538_armgcc\openstack\02b-MAChigh/neighbors.c **** \param[in] asnTs  ASN at which this packet was received.
 325:build\openmote-cc2538_armgcc\openstack\02b-MAChigh/neighbors.c **** \param[in] joinPrioPresent Whether a join priority was present in the received
 326:build\openmote-cc2538_armgcc\openstack\02b-MAChigh/neighbors.c ****    packet.
 327:build\openmote-cc2538_armgcc\openstack\02b-MAChigh/neighbors.c **** \param[in] joinPrio The join priority present in the packet, if any.
 328:build\openmote-cc2538_armgcc\openstack\02b-MAChigh/neighbors.c **** */
 329:build\openmote-cc2538_armgcc\openstack\02b-MAChigh/neighbors.c **** void neighbors_indicateRx(open_addr_t* l2_src,
 330:build\openmote-cc2538_armgcc\openstack\02b-MAChigh/neighbors.c ****                           int8_t       rssi,
 331:build\openmote-cc2538_armgcc\openstack\02b-MAChigh/neighbors.c ****                           asn_t*       asnTs,
 332:build\openmote-cc2538_armgcc\openstack\02b-MAChigh/neighbors.c ****                           bool         joinPrioPresent,
 333:build\openmote-cc2538_armgcc\openstack\02b-MAChigh/neighbors.c ****                           uint8_t      joinPrio,
 334:build\openmote-cc2538_armgcc\openstack\02b-MAChigh/neighbors.c ****                           bool         insecure) {
 1293              		.loc 1 334 0
 1294              		.cfi_startproc
 1295              		@ args = 8, pretend = 0, frame = 24
 1296              		@ frame_needed = 1, uses_anonymous_args = 0
 1297 0510 80B5     		push	{r7, lr}
 1298              		.cfi_def_cfa_offset 8
 1299              		.cfi_offset 7, -8
 1300              		.cfi_offset 14, -4
 1301 0512 88B0     		sub	sp, sp, #32
 1302              		.cfi_def_cfa_offset 40
 1303 0514 02AF     		add	r7, sp, #8
 1304              		.cfi_def_cfa 7, 32
 1305 0516 F860     		str	r0, [r7, #12]
 1306 0518 7A60     		str	r2, [r7, #4]
 1307 051a 1A46     		mov	r2, r3
 1308 051c 0B46     		mov	r3, r1
 1309 051e FB72     		strb	r3, [r7, #11]
 1310 0520 1346     		mov	r3, r2
 1311 0522 BB72     		strb	r3, [r7, #10]
 335:build\openmote-cc2538_armgcc\openstack\02b-MAChigh/neighbors.c ****    uint8_t i;
 336:build\openmote-cc2538_armgcc\openstack\02b-MAChigh/neighbors.c ****    bool    newNeighbor;
 337:build\openmote-cc2538_armgcc\openstack\02b-MAChigh/neighbors.c **** 
 338:build\openmote-cc2538_armgcc\openstack\02b-MAChigh/neighbors.c ****    // update existing neighbor
 339:build\openmote-cc2538_armgcc\openstack\02b-MAChigh/neighbors.c ****    newNeighbor = TRUE;
 1312              		.loc 1 339 0
 1313 0524 0123     		movs	r3, #1
 1314 0526 BB75     		strb	r3, [r7, #22]
 340:build\openmote-cc2538_armgcc\openstack\02b-MAChigh/neighbors.c ****    for (i=0;i<MAXNUMNEIGHBORS;i++) {
 1315              		.loc 1 340 0
 1316 0528 0023     		movs	r3, #0
 1317 052a FB75     		strb	r3, [r7, #23]
 1318 052c 03E1     		b	.L99
 1319              	.L110:
 341:build\openmote-cc2538_armgcc\openstack\02b-MAChigh/neighbors.c ****       if (isThisRowMatching(l2_src,i)) {
 1320              		.loc 1 341 0
 1321 052e FB7D     		ldrb	r3, [r7, #23]	@ zero_extendqisi2
 1322 0530 1946     		mov	r1, r3
 1323 0532 F868     		ldr	r0, [r7, #12]
 1324 0534 FFF7FEFF 		bl	isThisRowMatching
 1325 0538 0346     		mov	r3, r0
 1326 053a 002B     		cmp	r3, #0
 1327 053c 00F0F880 		beq	.L100
 342:build\openmote-cc2538_armgcc\openstack\02b-MAChigh/neighbors.c **** 
 343:build\openmote-cc2538_armgcc\openstack\02b-MAChigh/neighbors.c ****          // this is not a new neighbor
 344:build\openmote-cc2538_armgcc\openstack\02b-MAChigh/neighbors.c ****          newNeighbor = FALSE;
 1328              		.loc 1 344 0
 1329 0540 0023     		movs	r3, #0
 1330 0542 BB75     		strb	r3, [r7, #22]
 345:build\openmote-cc2538_armgcc\openstack\02b-MAChigh/neighbors.c **** 
 346:build\openmote-cc2538_armgcc\openstack\02b-MAChigh/neighbors.c ****          // whether the neighbor is considered as secure or not
 347:build\openmote-cc2538_armgcc\openstack\02b-MAChigh/neighbors.c ****          neighbors_vars.neighbors[i].insecure = insecure;
 1331              		.loc 1 347 0
 1332 0544 FA7D     		ldrb	r2, [r7, #23]	@ zero_extendqisi2
 1333 0546 8949     		ldr	r1, .L114
 1334 0548 1346     		mov	r3, r2
 1335 054a 9B00     		lsls	r3, r3, #2
 1336 054c 1344     		add	r3, r3, r2
 1337 054e DB00     		lsls	r3, r3, #3
 1338 0550 0B44     		add	r3, r3, r1
 1339 0552 0133     		adds	r3, r3, #1
 1340 0554 97F82420 		ldrb	r2, [r7, #36]
 1341 0558 1A70     		strb	r2, [r3]
 348:build\openmote-cc2538_armgcc\openstack\02b-MAChigh/neighbors.c **** 
 349:build\openmote-cc2538_armgcc\openstack\02b-MAChigh/neighbors.c ****          // update numRx, rssi, asn
 350:build\openmote-cc2538_armgcc\openstack\02b-MAChigh/neighbors.c ****          neighbors_vars.neighbors[i].numRx++;
 1342              		.loc 1 350 0
 1343 055a FA7D     		ldrb	r2, [r7, #23]	@ zero_extendqisi2
 1344 055c 8349     		ldr	r1, .L114
 1345 055e 1346     		mov	r3, r2
 1346 0560 9B00     		lsls	r3, r3, #2
 1347 0562 1344     		add	r3, r3, r2
 1348 0564 DB00     		lsls	r3, r3, #3
 1349 0566 0B44     		add	r3, r3, r1
 1350 0568 1933     		adds	r3, r3, #25
 1351 056a 1B78     		ldrb	r3, [r3]	@ zero_extendqisi2
 1352 056c 0133     		adds	r3, r3, #1
 1353 056e D8B2     		uxtb	r0, r3
 1354 0570 7E49     		ldr	r1, .L114
 1355 0572 1346     		mov	r3, r2
 1356 0574 9B00     		lsls	r3, r3, #2
 1357 0576 1344     		add	r3, r3, r2
 1358 0578 DB00     		lsls	r3, r3, #3
 1359 057a 0B44     		add	r3, r3, r1
 1360 057c 1933     		adds	r3, r3, #25
 1361 057e 0246     		mov	r2, r0
 1362 0580 1A70     		strb	r2, [r3]
 351:build\openmote-cc2538_armgcc\openstack\02b-MAChigh/neighbors.c ****          neighbors_vars.neighbors[i].rssi=rssi;
 1363              		.loc 1 351 0
 1364 0582 FA7D     		ldrb	r2, [r7, #23]	@ zero_extendqisi2
 1365 0584 7949     		ldr	r1, .L114
 1366 0586 1346     		mov	r3, r2
 1367 0588 9B00     		lsls	r3, r3, #2
 1368 058a 1344     		add	r3, r3, r2
 1369 058c DB00     		lsls	r3, r3, #3
 1370 058e 0B44     		add	r3, r3, r1
 1371 0590 1833     		adds	r3, r3, #24
 1372 0592 FA7A     		ldrb	r2, [r7, #11]
 1373 0594 1A70     		strb	r2, [r3]
 352:build\openmote-cc2538_armgcc\openstack\02b-MAChigh/neighbors.c ****          memcpy(&neighbors_vars.neighbors[i].asn,asnTs,sizeof(asn_t));
 1374              		.loc 1 352 0
 1375 0596 FA7D     		ldrb	r2, [r7, #23]	@ zero_extendqisi2
 1376 0598 1346     		mov	r3, r2
 1377 059a 9B00     		lsls	r3, r3, #2
 1378 059c 1344     		add	r3, r3, r2
 1379 059e DB00     		lsls	r3, r3, #3
 1380 05a0 1833     		adds	r3, r3, #24
 1381 05a2 724A     		ldr	r2, .L114
 1382 05a4 1344     		add	r3, r3, r2
 1383 05a6 0533     		adds	r3, r3, #5
 1384 05a8 0522     		movs	r2, #5
 1385 05aa 7968     		ldr	r1, [r7, #4]
 1386 05ac 1846     		mov	r0, r3
 1387 05ae FFF7FEFF 		bl	memcpy
 353:build\openmote-cc2538_armgcc\openstack\02b-MAChigh/neighbors.c ****          //update jp
 354:build\openmote-cc2538_armgcc\openstack\02b-MAChigh/neighbors.c ****          if (joinPrioPresent==TRUE){
 1388              		.loc 1 354 0
 1389 05b2 BB7A     		ldrb	r3, [r7, #10]	@ zero_extendqisi2
 1390 05b4 002B     		cmp	r3, #0
 1391 05b6 0AD0     		beq	.L101
 355:build\openmote-cc2538_armgcc\openstack\02b-MAChigh/neighbors.c ****             neighbors_vars.neighbors[i].joinPrio=joinPrio;
 1392              		.loc 1 355 0
 1393 05b8 FA7D     		ldrb	r2, [r7, #23]	@ zero_extendqisi2
 1394 05ba 6C49     		ldr	r1, .L114
 1395 05bc 1346     		mov	r3, r2
 1396 05be 9B00     		lsls	r3, r3, #2
 1397 05c0 1344     		add	r3, r3, r2
 1398 05c2 DB00     		lsls	r3, r3, #3
 1399 05c4 0B44     		add	r3, r3, r1
 1400 05c6 2233     		adds	r3, r3, #34
 1401 05c8 97F82020 		ldrb	r2, [r7, #32]
 1402 05cc 1A70     		strb	r2, [r3]
 1403              	.L101:
 356:build\openmote-cc2538_armgcc\openstack\02b-MAChigh/neighbors.c ****          }
 357:build\openmote-cc2538_armgcc\openstack\02b-MAChigh/neighbors.c **** 
 358:build\openmote-cc2538_armgcc\openstack\02b-MAChigh/neighbors.c ****          // update stableNeighbor, switchStabilityCounter
 359:build\openmote-cc2538_armgcc\openstack\02b-MAChigh/neighbors.c ****          if (neighbors_vars.neighbors[i].stableNeighbor==FALSE) {
 1404              		.loc 1 359 0
 1405 05ce FA7D     		ldrb	r2, [r7, #23]	@ zero_extendqisi2
 1406 05d0 6649     		ldr	r1, .L114
 1407 05d2 1346     		mov	r3, r2
 1408 05d4 9B00     		lsls	r3, r3, #2
 1409 05d6 1344     		add	r3, r3, r2
 1410 05d8 DB00     		lsls	r3, r3, #3
 1411 05da 0B44     		add	r3, r3, r1
 1412 05dc 0333     		adds	r3, r3, #3
 1413 05de 1B78     		ldrb	r3, [r3]	@ zero_extendqisi2
 1414 05e0 83F00103 		eor	r3, r3, #1
 1415 05e4 DBB2     		uxtb	r3, r3
 1416 05e6 002B     		cmp	r3, #0
 1417 05e8 4BD0     		beq	.L102
 360:build\openmote-cc2538_armgcc\openstack\02b-MAChigh/neighbors.c ****             if (neighbors_vars.neighbors[i].rssi>BADNEIGHBORMAXRSSI) {
 1418              		.loc 1 360 0
 1419 05ea FA7D     		ldrb	r2, [r7, #23]	@ zero_extendqisi2
 1420 05ec 5F49     		ldr	r1, .L114
 1421 05ee 1346     		mov	r3, r2
 1422 05f0 9B00     		lsls	r3, r3, #2
 1423 05f2 1344     		add	r3, r3, r2
 1424 05f4 DB00     		lsls	r3, r3, #3
 1425 05f6 0B44     		add	r3, r3, r1
 1426 05f8 1833     		adds	r3, r3, #24
 1427 05fa 93F90030 		ldrsb	r3, [r3]
 1428 05fe 13F1450F 		cmn	r3, #69
 1429 0602 33DB     		blt	.L103
 361:build\openmote-cc2538_armgcc\openstack\02b-MAChigh/neighbors.c ****                neighbors_vars.neighbors[i].switchStabilityCounter++;
 1430              		.loc 1 361 0
 1431 0604 FA7D     		ldrb	r2, [r7, #23]	@ zero_extendqisi2
 1432 0606 5949     		ldr	r1, .L114
 1433 0608 1346     		mov	r3, r2
 1434 060a 9B00     		lsls	r3, r3, #2
 1435 060c 1344     		add	r3, r3, r2
 1436 060e DB00     		lsls	r3, r3, #3
 1437 0610 0B44     		add	r3, r3, r1
 1438 0612 0433     		adds	r3, r3, #4
 1439 0614 1B78     		ldrb	r3, [r3]	@ zero_extendqisi2
 1440 0616 0133     		adds	r3, r3, #1
 1441 0618 D8B2     		uxtb	r0, r3
 1442 061a 5449     		ldr	r1, .L114
 1443 061c 1346     		mov	r3, r2
 1444 061e 9B00     		lsls	r3, r3, #2
 1445 0620 1344     		add	r3, r3, r2
 1446 0622 DB00     		lsls	r3, r3, #3
 1447 0624 0B44     		add	r3, r3, r1
 1448 0626 0433     		adds	r3, r3, #4
 1449 0628 0246     		mov	r2, r0
 1450 062a 1A70     		strb	r2, [r3]
 362:build\openmote-cc2538_armgcc\openstack\02b-MAChigh/neighbors.c ****                if (neighbors_vars.neighbors[i].switchStabilityCounter>=SWITCHSTABILITYTHRESHOLD) {
 1451              		.loc 1 362 0
 1452 062c FA7D     		ldrb	r2, [r7, #23]	@ zero_extendqisi2
 1453 062e 4F49     		ldr	r1, .L114
 1454 0630 1346     		mov	r3, r2
 1455 0632 9B00     		lsls	r3, r3, #2
 1456 0634 1344     		add	r3, r3, r2
 1457 0636 DB00     		lsls	r3, r3, #3
 1458 0638 0B44     		add	r3, r3, r1
 1459 063a 0433     		adds	r3, r3, #4
 1460 063c 1B78     		ldrb	r3, [r3]	@ zero_extendqisi2
 1461 063e 022B     		cmp	r3, #2
 1462 0640 7ED9     		bls	.L112
 363:build\openmote-cc2538_armgcc\openstack\02b-MAChigh/neighbors.c ****                   neighbors_vars.neighbors[i].switchStabilityCounter=0;
 1463              		.loc 1 363 0
 1464 0642 FA7D     		ldrb	r2, [r7, #23]	@ zero_extendqisi2
 1465 0644 4949     		ldr	r1, .L114
 1466 0646 1346     		mov	r3, r2
 1467 0648 9B00     		lsls	r3, r3, #2
 1468 064a 1344     		add	r3, r3, r2
 1469 064c DB00     		lsls	r3, r3, #3
 1470 064e 0B44     		add	r3, r3, r1
 1471 0650 0433     		adds	r3, r3, #4
 1472 0652 0022     		movs	r2, #0
 1473 0654 1A70     		strb	r2, [r3]
 364:build\openmote-cc2538_armgcc\openstack\02b-MAChigh/neighbors.c ****                   neighbors_vars.neighbors[i].stableNeighbor=TRUE;
 1474              		.loc 1 364 0
 1475 0656 FA7D     		ldrb	r2, [r7, #23]	@ zero_extendqisi2
 1476 0658 4449     		ldr	r1, .L114
 1477 065a 1346     		mov	r3, r2
 1478 065c 9B00     		lsls	r3, r3, #2
 1479 065e 1344     		add	r3, r3, r2
 1480 0660 DB00     		lsls	r3, r3, #3
 1481 0662 0B44     		add	r3, r3, r1
 1482 0664 0333     		adds	r3, r3, #3
 1483 0666 0122     		movs	r2, #1
 1484 0668 1A70     		strb	r2, [r3]
 365:build\openmote-cc2538_armgcc\openstack\02b-MAChigh/neighbors.c ****                }
 366:build\openmote-cc2538_armgcc\openstack\02b-MAChigh/neighbors.c ****             } else {
 367:build\openmote-cc2538_armgcc\openstack\02b-MAChigh/neighbors.c ****                neighbors_vars.neighbors[i].switchStabilityCounter=0;
 368:build\openmote-cc2538_armgcc\openstack\02b-MAChigh/neighbors.c ****             }
 369:build\openmote-cc2538_armgcc\openstack\02b-MAChigh/neighbors.c ****          } else if (neighbors_vars.neighbors[i].stableNeighbor==TRUE) {
 370:build\openmote-cc2538_armgcc\openstack\02b-MAChigh/neighbors.c ****             if (neighbors_vars.neighbors[i].rssi<GOODNEIGHBORMINRSSI) {
 371:build\openmote-cc2538_armgcc\openstack\02b-MAChigh/neighbors.c ****                neighbors_vars.neighbors[i].switchStabilityCounter++;
 372:build\openmote-cc2538_armgcc\openstack\02b-MAChigh/neighbors.c ****                if (neighbors_vars.neighbors[i].switchStabilityCounter>=SWITCHSTABILITYTHRESHOLD) {
 373:build\openmote-cc2538_armgcc\openstack\02b-MAChigh/neighbors.c ****                   neighbors_vars.neighbors[i].switchStabilityCounter=0;
 374:build\openmote-cc2538_armgcc\openstack\02b-MAChigh/neighbors.c ****                    neighbors_vars.neighbors[i].stableNeighbor=FALSE;
 375:build\openmote-cc2538_armgcc\openstack\02b-MAChigh/neighbors.c ****                }
 376:build\openmote-cc2538_armgcc\openstack\02b-MAChigh/neighbors.c ****             } else {
 377:build\openmote-cc2538_armgcc\openstack\02b-MAChigh/neighbors.c ****                neighbors_vars.neighbors[i].switchStabilityCounter=0;
 378:build\openmote-cc2538_armgcc\openstack\02b-MAChigh/neighbors.c ****             }
 379:build\openmote-cc2538_armgcc\openstack\02b-MAChigh/neighbors.c ****          }
 380:build\openmote-cc2538_armgcc\openstack\02b-MAChigh/neighbors.c **** 
 381:build\openmote-cc2538_armgcc\openstack\02b-MAChigh/neighbors.c ****          // stop looping
 382:build\openmote-cc2538_armgcc\openstack\02b-MAChigh/neighbors.c ****          break;
 1485              		.loc 1 382 0
 1486 066a 69E0     		b	.L112
 1487              	.L103:
 367:build\openmote-cc2538_armgcc\openstack\02b-MAChigh/neighbors.c ****             }
 1488              		.loc 1 367 0
 1489 066c FA7D     		ldrb	r2, [r7, #23]	@ zero_extendqisi2
 1490 066e 3F49     		ldr	r1, .L114
 1491 0670 1346     		mov	r3, r2
 1492 0672 9B00     		lsls	r3, r3, #2
 1493 0674 1344     		add	r3, r3, r2
 1494 0676 DB00     		lsls	r3, r3, #3
 1495 0678 0B44     		add	r3, r3, r1
 1496 067a 0433     		adds	r3, r3, #4
 1497 067c 0022     		movs	r2, #0
 1498 067e 1A70     		strb	r2, [r3]
 1499              		.loc 1 382 0
 1500 0680 5EE0     		b	.L112
 1501              	.L102:
 369:build\openmote-cc2538_armgcc\openstack\02b-MAChigh/neighbors.c ****             if (neighbors_vars.neighbors[i].rssi<GOODNEIGHBORMINRSSI) {
 1502              		.loc 1 369 0
 1503 0682 FA7D     		ldrb	r2, [r7, #23]	@ zero_extendqisi2
 1504 0684 3949     		ldr	r1, .L114
 1505 0686 1346     		mov	r3, r2
 1506 0688 9B00     		lsls	r3, r3, #2
 1507 068a 1344     		add	r3, r3, r2
 1508 068c DB00     		lsls	r3, r3, #3
 1509 068e 0B44     		add	r3, r3, r1
 1510 0690 0333     		adds	r3, r3, #3
 1511 0692 1B78     		ldrb	r3, [r3]	@ zero_extendqisi2
 1512 0694 002B     		cmp	r3, #0
 1513 0696 53D0     		beq	.L112
 370:build\openmote-cc2538_armgcc\openstack\02b-MAChigh/neighbors.c ****                neighbors_vars.neighbors[i].switchStabilityCounter++;
 1514              		.loc 1 370 0
 1515 0698 FA7D     		ldrb	r2, [r7, #23]	@ zero_extendqisi2
 1516 069a 3449     		ldr	r1, .L114
 1517 069c 1346     		mov	r3, r2
 1518 069e 9B00     		lsls	r3, r3, #2
 1519 06a0 1344     		add	r3, r3, r2
 1520 06a2 DB00     		lsls	r3, r3, #3
 1521 06a4 0B44     		add	r3, r3, r1
 1522 06a6 1833     		adds	r3, r3, #24
 1523 06a8 93F90030 		ldrsb	r3, [r3]
 1524 06ac 13F1500F 		cmn	r3, #80
 1525 06b0 33DA     		bge	.L107
 371:build\openmote-cc2538_armgcc\openstack\02b-MAChigh/neighbors.c ****                if (neighbors_vars.neighbors[i].switchStabilityCounter>=SWITCHSTABILITYTHRESHOLD) {
 1526              		.loc 1 371 0
 1527 06b2 FA7D     		ldrb	r2, [r7, #23]	@ zero_extendqisi2
 1528 06b4 2D49     		ldr	r1, .L114
 1529 06b6 1346     		mov	r3, r2
 1530 06b8 9B00     		lsls	r3, r3, #2
 1531 06ba 1344     		add	r3, r3, r2
 1532 06bc DB00     		lsls	r3, r3, #3
 1533 06be 0B44     		add	r3, r3, r1
 1534 06c0 0433     		adds	r3, r3, #4
 1535 06c2 1B78     		ldrb	r3, [r3]	@ zero_extendqisi2
 1536 06c4 0133     		adds	r3, r3, #1
 1537 06c6 D8B2     		uxtb	r0, r3
 1538 06c8 2849     		ldr	r1, .L114
 1539 06ca 1346     		mov	r3, r2
 1540 06cc 9B00     		lsls	r3, r3, #2
 1541 06ce 1344     		add	r3, r3, r2
 1542 06d0 DB00     		lsls	r3, r3, #3
 1543 06d2 0B44     		add	r3, r3, r1
 1544 06d4 0433     		adds	r3, r3, #4
 1545 06d6 0246     		mov	r2, r0
 1546 06d8 1A70     		strb	r2, [r3]
 372:build\openmote-cc2538_armgcc\openstack\02b-MAChigh/neighbors.c ****                   neighbors_vars.neighbors[i].switchStabilityCounter=0;
 1547              		.loc 1 372 0
 1548 06da FA7D     		ldrb	r2, [r7, #23]	@ zero_extendqisi2
 1549 06dc 2349     		ldr	r1, .L114
 1550 06de 1346     		mov	r3, r2
 1551 06e0 9B00     		lsls	r3, r3, #2
 1552 06e2 1344     		add	r3, r3, r2
 1553 06e4 DB00     		lsls	r3, r3, #3
 1554 06e6 0B44     		add	r3, r3, r1
 1555 06e8 0433     		adds	r3, r3, #4
 1556 06ea 1B78     		ldrb	r3, [r3]	@ zero_extendqisi2
 1557 06ec 022B     		cmp	r3, #2
 1558 06ee 27D9     		bls	.L112
 373:build\openmote-cc2538_armgcc\openstack\02b-MAChigh/neighbors.c ****                    neighbors_vars.neighbors[i].stableNeighbor=FALSE;
 1559              		.loc 1 373 0
 1560 06f0 FA7D     		ldrb	r2, [r7, #23]	@ zero_extendqisi2
 1561 06f2 1E49     		ldr	r1, .L114
 1562 06f4 1346     		mov	r3, r2
 1563 06f6 9B00     		lsls	r3, r3, #2
 1564 06f8 1344     		add	r3, r3, r2
 1565 06fa DB00     		lsls	r3, r3, #3
 1566 06fc 0B44     		add	r3, r3, r1
 1567 06fe 0433     		adds	r3, r3, #4
 1568 0700 0022     		movs	r2, #0
 1569 0702 1A70     		strb	r2, [r3]
 374:build\openmote-cc2538_armgcc\openstack\02b-MAChigh/neighbors.c ****                }
 1570              		.loc 1 374 0
 1571 0704 FA7D     		ldrb	r2, [r7, #23]	@ zero_extendqisi2
 1572 0706 1949     		ldr	r1, .L114
 1573 0708 1346     		mov	r3, r2
 1574 070a 9B00     		lsls	r3, r3, #2
 1575 070c 1344     		add	r3, r3, r2
 1576 070e DB00     		lsls	r3, r3, #3
 1577 0710 0B44     		add	r3, r3, r1
 1578 0712 0333     		adds	r3, r3, #3
 1579 0714 0022     		movs	r2, #0
 1580 0716 1A70     		strb	r2, [r3]
 1581              		.loc 1 382 0
 1582 0718 12E0     		b	.L112
 1583              	.L107:
 377:build\openmote-cc2538_armgcc\openstack\02b-MAChigh/neighbors.c ****             }
 1584              		.loc 1 377 0
 1585 071a FA7D     		ldrb	r2, [r7, #23]	@ zero_extendqisi2
 1586 071c 1349     		ldr	r1, .L114
 1587 071e 1346     		mov	r3, r2
 1588 0720 9B00     		lsls	r3, r3, #2
 1589 0722 1344     		add	r3, r3, r2
 1590 0724 DB00     		lsls	r3, r3, #3
 1591 0726 0B44     		add	r3, r3, r1
 1592 0728 0433     		adds	r3, r3, #4
 1593 072a 0022     		movs	r2, #0
 1594 072c 1A70     		strb	r2, [r3]
 1595              		.loc 1 382 0
 1596 072e 07E0     		b	.L112
 1597              	.L100:
 340:build\openmote-cc2538_armgcc\openstack\02b-MAChigh/neighbors.c ****       if (isThisRowMatching(l2_src,i)) {
 1598              		.loc 1 340 0 discriminator 2
 1599 0730 FB7D     		ldrb	r3, [r7, #23]	@ zero_extendqisi2
 1600 0732 0133     		adds	r3, r3, #1
 1601 0734 FB75     		strb	r3, [r7, #23]
 1602              	.L99:
 340:build\openmote-cc2538_armgcc\openstack\02b-MAChigh/neighbors.c ****       if (isThisRowMatching(l2_src,i)) {
 1603              		.loc 1 340 0 is_stmt 0 discriminator 1
 1604 0736 FB7D     		ldrb	r3, [r7, #23]	@ zero_extendqisi2
 1605 0738 1D2B     		cmp	r3, #29
 1606 073a 7FF6F8AE 		bls	.L110
 1607 073e 00E0     		b	.L109
 1608              	.L112:
 1609              		.loc 1 382 0 is_stmt 1
 1610 0740 00BF     		nop
 1611              	.L109:
 383:build\openmote-cc2538_armgcc\openstack\02b-MAChigh/neighbors.c ****       }
 384:build\openmote-cc2538_armgcc\openstack\02b-MAChigh/neighbors.c ****    }
 385:build\openmote-cc2538_armgcc\openstack\02b-MAChigh/neighbors.c **** 
 386:build\openmote-cc2538_armgcc\openstack\02b-MAChigh/neighbors.c ****    // register new neighbor
 387:build\openmote-cc2538_armgcc\openstack\02b-MAChigh/neighbors.c ****    if (newNeighbor==TRUE) {
 1612              		.loc 1 387 0
 1613 0742 BB7D     		ldrb	r3, [r7, #22]	@ zero_extendqisi2
 1614 0744 002B     		cmp	r3, #0
 1615 0746 0DD0     		beq	.L113
 388:build\openmote-cc2538_armgcc\openstack\02b-MAChigh/neighbors.c ****       registerNewNeighbor(l2_src, rssi, asnTs, joinPrioPresent, joinPrio, insecure);
 1616              		.loc 1 388 0
 1617 0748 BA7A     		ldrb	r2, [r7, #10]	@ zero_extendqisi2
 1618 074a 97F90B10 		ldrsb	r1, [r7, #11]
 1619 074e 97F82430 		ldrb	r3, [r7, #36]	@ zero_extendqisi2
 1620 0752 0193     		str	r3, [sp, #4]
 1621 0754 97F82030 		ldrb	r3, [r7, #32]	@ zero_extendqisi2
 1622 0758 0093     		str	r3, [sp]
 1623 075a 1346     		mov	r3, r2
 1624 075c 7A68     		ldr	r2, [r7, #4]
 1625 075e F868     		ldr	r0, [r7, #12]
 1626 0760 FFF7FEFF 		bl	registerNewNeighbor
 1627              	.L113:
 389:build\openmote-cc2538_armgcc\openstack\02b-MAChigh/neighbors.c ****    }
 390:build\openmote-cc2538_armgcc\openstack\02b-MAChigh/neighbors.c **** }
 1628              		.loc 1 390 0
 1629 0764 00BF     		nop
 1630 0766 1837     		adds	r7, r7, #24
 1631              		.cfi_def_cfa_offset 8
 1632 0768 BD46     		mov	sp, r7
 1633              		.cfi_def_cfa_register 13
 1634              		@ sp needed
 1635 076a 80BD     		pop	{r7, pc}
 1636              	.L115:
 1637              		.align	2
 1638              	.L114:
 1639 076c 00000000 		.word	neighbors_vars
 1640              		.cfi_endproc
 1641              	.LFE18:
 1643              		.align	1
 1644              		.global	neighbors_indicateTx
 1645              		.syntax unified
 1646              		.thumb
 1647              		.thumb_func
 1648              		.fpu softvfp
 1650              	neighbors_indicateTx:
 1651              	.LFB19:
 391:build\openmote-cc2538_armgcc\openstack\02b-MAChigh/neighbors.c **** 
 392:build\openmote-cc2538_armgcc\openstack\02b-MAChigh/neighbors.c **** /**
 393:build\openmote-cc2538_armgcc\openstack\02b-MAChigh/neighbors.c **** \brief Indicate some packet was sent to some neighbor.
 394:build\openmote-cc2538_armgcc\openstack\02b-MAChigh/neighbors.c **** 
 395:build\openmote-cc2538_armgcc\openstack\02b-MAChigh/neighbors.c **** This function should be called for each transmitted (non-ACK) packet so
 396:build\openmote-cc2538_armgcc\openstack\02b-MAChigh/neighbors.c **** neighbor statistics in the neighbor table can be updated.
 397:build\openmote-cc2538_armgcc\openstack\02b-MAChigh/neighbors.c **** 
 398:build\openmote-cc2538_armgcc\openstack\02b-MAChigh/neighbors.c **** The fields which are updated are:
 399:build\openmote-cc2538_armgcc\openstack\02b-MAChigh/neighbors.c **** - numTx
 400:build\openmote-cc2538_armgcc\openstack\02b-MAChigh/neighbors.c **** - numTxACK
 401:build\openmote-cc2538_armgcc\openstack\02b-MAChigh/neighbors.c **** - asn
 402:build\openmote-cc2538_armgcc\openstack\02b-MAChigh/neighbors.c **** 
 403:build\openmote-cc2538_armgcc\openstack\02b-MAChigh/neighbors.c **** \param[in] l2_dest MAC destination address of the packet, i.e. the neighbor
 404:build\openmote-cc2538_armgcc\openstack\02b-MAChigh/neighbors.c ****    who I just sent the packet to.
 405:build\openmote-cc2538_armgcc\openstack\02b-MAChigh/neighbors.c **** \param[in] numTxAttempts Number of transmission attempts to this neighbor.
 406:build\openmote-cc2538_armgcc\openstack\02b-MAChigh/neighbors.c **** \param[in] was_finally_acked TRUE iff the packet was ACK'ed by the neighbor
 407:build\openmote-cc2538_armgcc\openstack\02b-MAChigh/neighbors.c ****    on final transmission attempt.
 408:build\openmote-cc2538_armgcc\openstack\02b-MAChigh/neighbors.c **** \param[in] asnTs ASN of the last transmission attempt.
 409:build\openmote-cc2538_armgcc\openstack\02b-MAChigh/neighbors.c **** */
 410:build\openmote-cc2538_armgcc\openstack\02b-MAChigh/neighbors.c **** void neighbors_indicateTx(
 411:build\openmote-cc2538_armgcc\openstack\02b-MAChigh/neighbors.c ****     open_addr_t* l2_dest,
 412:build\openmote-cc2538_armgcc\openstack\02b-MAChigh/neighbors.c ****     uint8_t      numTxAttempts,
 413:build\openmote-cc2538_armgcc\openstack\02b-MAChigh/neighbors.c ****     bool         sentOnTxCell,
 414:build\openmote-cc2538_armgcc\openstack\02b-MAChigh/neighbors.c ****     bool         was_finally_acked,
 415:build\openmote-cc2538_armgcc\openstack\02b-MAChigh/neighbors.c ****     asn_t*       asnTs
 416:build\openmote-cc2538_armgcc\openstack\02b-MAChigh/neighbors.c **** ) {
 1652              		.loc 1 416 0
 1653              		.cfi_startproc
 1654              		@ args = 4, pretend = 0, frame = 16
 1655              		@ frame_needed = 1, uses_anonymous_args = 0
 1656 0770 80B5     		push	{r7, lr}
 1657              		.cfi_def_cfa_offset 8
 1658              		.cfi_offset 7, -8
 1659              		.cfi_offset 14, -4
 1660 0772 84B0     		sub	sp, sp, #16
 1661              		.cfi_def_cfa_offset 24
 1662 0774 00AF     		add	r7, sp, #0
 1663              		.cfi_def_cfa_register 7
 1664 0776 7860     		str	r0, [r7, #4]
 1665 0778 0846     		mov	r0, r1
 1666 077a 1146     		mov	r1, r2
 1667 077c 1A46     		mov	r2, r3
 1668 077e 0346     		mov	r3, r0
 1669 0780 FB70     		strb	r3, [r7, #3]
 1670 0782 0B46     		mov	r3, r1
 1671 0784 BB70     		strb	r3, [r7, #2]
 1672 0786 1346     		mov	r3, r2
 1673 0788 7B70     		strb	r3, [r7, #1]
 417:build\openmote-cc2538_armgcc\openstack\02b-MAChigh/neighbors.c ****     uint8_t i;
 418:build\openmote-cc2538_armgcc\openstack\02b-MAChigh/neighbors.c ****     // don't run through this function if packet was sent to broadcast address
 419:build\openmote-cc2538_armgcc\openstack\02b-MAChigh/neighbors.c ****     if (packetfunctions_isBroadcastMulticast(l2_dest)==TRUE) {
 1674              		.loc 1 419 0
 1675 078a 7868     		ldr	r0, [r7, #4]
 1676 078c FFF7FEFF 		bl	packetfunctions_isBroadcastMulticast
 1677 0790 0346     		mov	r3, r0
 1678 0792 002B     		cmp	r3, #0
 1679 0794 40F0BA80 		bne	.L126
 420:build\openmote-cc2538_armgcc\openstack\02b-MAChigh/neighbors.c ****         return;
 421:build\openmote-cc2538_armgcc\openstack\02b-MAChigh/neighbors.c ****     }
 422:build\openmote-cc2538_armgcc\openstack\02b-MAChigh/neighbors.c **** 
 423:build\openmote-cc2538_armgcc\openstack\02b-MAChigh/neighbors.c ****     // loop through neighbor table
 424:build\openmote-cc2538_armgcc\openstack\02b-MAChigh/neighbors.c ****     for (i=0;i<MAXNUMNEIGHBORS;i++) {
 1680              		.loc 1 424 0
 1681 0798 0023     		movs	r3, #0
 1682 079a FB73     		strb	r3, [r7, #15]
 1683 079c B1E0     		b	.L119
 1684              	.L125:
 425:build\openmote-cc2538_armgcc\openstack\02b-MAChigh/neighbors.c ****         if (isThisRowMatching(l2_dest,i)) {
 1685              		.loc 1 425 0
 1686 079e FB7B     		ldrb	r3, [r7, #15]	@ zero_extendqisi2
 1687 07a0 1946     		mov	r1, r3
 1688 07a2 7868     		ldr	r0, [r7, #4]
 1689 07a4 FFF7FEFF 		bl	isThisRowMatching
 1690 07a8 0346     		mov	r3, r0
 1691 07aa 002B     		cmp	r3, #0
 1692 07ac 00F0A680 		beq	.L120
 426:build\openmote-cc2538_armgcc\openstack\02b-MAChigh/neighbors.c ****             // found the target neighbor
 427:build\openmote-cc2538_armgcc\openstack\02b-MAChigh/neighbors.c **** 
 428:build\openmote-cc2538_armgcc\openstack\02b-MAChigh/neighbors.c ****             // reset backoff variable
 429:build\openmote-cc2538_armgcc\openstack\02b-MAChigh/neighbors.c ****             neighbors_vars.neighbors[i].backoffExponenton     = MINBE-1;
 1693              		.loc 1 429 0
 1694 07b0 FA7B     		ldrb	r2, [r7, #15]	@ zero_extendqisi2
 1695 07b2 5949     		ldr	r1, .L128
 1696 07b4 1346     		mov	r3, r2
 1697 07b6 9B00     		lsls	r3, r3, #2
 1698 07b8 1344     		add	r3, r3, r2
 1699 07ba DB00     		lsls	r3, r3, #3
 1700 07bc 0B44     		add	r3, r3, r1
 1701 07be 2633     		adds	r3, r3, #38
 1702 07c0 0122     		movs	r2, #1
 1703 07c2 1A70     		strb	r2, [r3]
 430:build\openmote-cc2538_armgcc\openstack\02b-MAChigh/neighbors.c ****             neighbors_vars.neighbors[i].backoff               = 0;
 1704              		.loc 1 430 0
 1705 07c4 FA7B     		ldrb	r2, [r7, #15]	@ zero_extendqisi2
 1706 07c6 5449     		ldr	r1, .L128
 1707 07c8 1346     		mov	r3, r2
 1708 07ca 9B00     		lsls	r3, r3, #2
 1709 07cc 1344     		add	r3, r3, r2
 1710 07ce DB00     		lsls	r3, r3, #3
 1711 07d0 0B44     		add	r3, r3, r1
 1712 07d2 2733     		adds	r3, r3, #39
 1713 07d4 0022     		movs	r2, #0
 1714 07d6 1A70     		strb	r2, [r3]
 431:build\openmote-cc2538_armgcc\openstack\02b-MAChigh/neighbors.c **** 
 432:build\openmote-cc2538_armgcc\openstack\02b-MAChigh/neighbors.c ****             // update asn if ack'ed
 433:build\openmote-cc2538_armgcc\openstack\02b-MAChigh/neighbors.c ****             if (was_finally_acked==TRUE) {
 1715              		.loc 1 433 0
 1716 07d8 7B78     		ldrb	r3, [r7, #1]	@ zero_extendqisi2
 1717 07da 002B     		cmp	r3, #0
 1718 07dc 0DD0     		beq	.L121
 434:build\openmote-cc2538_armgcc\openstack\02b-MAChigh/neighbors.c ****                 memcpy(&neighbors_vars.neighbors[i].asn,asnTs,sizeof(asn_t));
 1719              		.loc 1 434 0
 1720 07de FA7B     		ldrb	r2, [r7, #15]	@ zero_extendqisi2
 1721 07e0 1346     		mov	r3, r2
 1722 07e2 9B00     		lsls	r3, r3, #2
 1723 07e4 1344     		add	r3, r3, r2
 1724 07e6 DB00     		lsls	r3, r3, #3
 1725 07e8 1833     		adds	r3, r3, #24
 1726 07ea 4B4A     		ldr	r2, .L128
 1727 07ec 1344     		add	r3, r3, r2
 1728 07ee 0533     		adds	r3, r3, #5
 1729 07f0 0522     		movs	r2, #5
 1730 07f2 B969     		ldr	r1, [r7, #24]
 1731 07f4 1846     		mov	r0, r3
 1732 07f6 FFF7FEFF 		bl	memcpy
 1733              	.L121:
 435:build\openmote-cc2538_armgcc\openstack\02b-MAChigh/neighbors.c ****             }
 436:build\openmote-cc2538_armgcc\openstack\02b-MAChigh/neighbors.c **** 
 437:build\openmote-cc2538_armgcc\openstack\02b-MAChigh/neighbors.c ****             // only update numTx/numTxAck on Tx cell
 438:build\openmote-cc2538_armgcc\openstack\02b-MAChigh/neighbors.c ****             if (sentOnTxCell) {
 1734              		.loc 1 438 0
 1735 07fa BB78     		ldrb	r3, [r7, #2]	@ zero_extendqisi2
 1736 07fc 002B     		cmp	r3, #0
 1737 07fe 00F08780 		beq	.L127
 439:build\openmote-cc2538_armgcc\openstack\02b-MAChigh/neighbors.c ****                 if (neighbors_vars.neighbors[i].numTx>(0xff-numTxAttempts)) {
 1738              		.loc 1 439 0
 1739 0802 FA7B     		ldrb	r2, [r7, #15]	@ zero_extendqisi2
 1740 0804 4449     		ldr	r1, .L128
 1741 0806 1346     		mov	r3, r2
 1742 0808 9B00     		lsls	r3, r3, #2
 1743 080a 1344     		add	r3, r3, r2
 1744 080c DB00     		lsls	r3, r3, #3
 1745 080e 0B44     		add	r3, r3, r1
 1746 0810 1A33     		adds	r3, r3, #26
 1747 0812 1B78     		ldrb	r3, [r3]	@ zero_extendqisi2
 1748 0814 1A46     		mov	r2, r3
 1749 0816 FB78     		ldrb	r3, [r7, #3]	@ zero_extendqisi2
 1750 0818 C3F1FF03 		rsb	r3, r3, #255
 1751 081c 9A42     		cmp	r2, r3
 1752 081e 3DDD     		ble	.L123
 440:build\openmote-cc2538_armgcc\openstack\02b-MAChigh/neighbors.c ****                     neighbors_vars.neighbors[i].numWraps++; //counting the number of times that tx 
 1753              		.loc 1 440 0
 1754 0820 FA7B     		ldrb	r2, [r7, #15]	@ zero_extendqisi2
 1755 0822 3D49     		ldr	r1, .L128
 1756 0824 1346     		mov	r3, r2
 1757 0826 9B00     		lsls	r3, r3, #2
 1758 0828 1344     		add	r3, r3, r2
 1759 082a DB00     		lsls	r3, r3, #3
 1760 082c 0B44     		add	r3, r3, r1
 1761 082e 1C33     		adds	r3, r3, #28
 1762 0830 1B78     		ldrb	r3, [r3]	@ zero_extendqisi2
 1763 0832 0133     		adds	r3, r3, #1
 1764 0834 D8B2     		uxtb	r0, r3
 1765 0836 3849     		ldr	r1, .L128
 1766 0838 1346     		mov	r3, r2
 1767 083a 9B00     		lsls	r3, r3, #2
 1768 083c 1344     		add	r3, r3, r2
 1769 083e DB00     		lsls	r3, r3, #3
 1770 0840 0B44     		add	r3, r3, r1
 1771 0842 1C33     		adds	r3, r3, #28
 1772 0844 0246     		mov	r2, r0
 1773 0846 1A70     		strb	r2, [r3]
 441:build\openmote-cc2538_armgcc\openstack\02b-MAChigh/neighbors.c ****                     neighbors_vars.neighbors[i].numTx/=2;
 1774              		.loc 1 441 0
 1775 0848 FA7B     		ldrb	r2, [r7, #15]	@ zero_extendqisi2
 1776 084a 3349     		ldr	r1, .L128
 1777 084c 1346     		mov	r3, r2
 1778 084e 9B00     		lsls	r3, r3, #2
 1779 0850 1344     		add	r3, r3, r2
 1780 0852 DB00     		lsls	r3, r3, #3
 1781 0854 0B44     		add	r3, r3, r1
 1782 0856 1A33     		adds	r3, r3, #26
 1783 0858 1B78     		ldrb	r3, [r3]	@ zero_extendqisi2
 1784 085a FA7B     		ldrb	r2, [r7, #15]	@ zero_extendqisi2
 1785 085c 5B08     		lsrs	r3, r3, #1
 1786 085e D8B2     		uxtb	r0, r3
 1787 0860 2D49     		ldr	r1, .L128
 1788 0862 1346     		mov	r3, r2
 1789 0864 9B00     		lsls	r3, r3, #2
 1790 0866 1344     		add	r3, r3, r2
 1791 0868 DB00     		lsls	r3, r3, #3
 1792 086a 0B44     		add	r3, r3, r1
 1793 086c 1A33     		adds	r3, r3, #26
 1794 086e 0246     		mov	r2, r0
 1795 0870 1A70     		strb	r2, [r3]
 442:build\openmote-cc2538_armgcc\openstack\02b-MAChigh/neighbors.c ****                     neighbors_vars.neighbors[i].numTxACK/=2;
 1796              		.loc 1 442 0
 1797 0872 FA7B     		ldrb	r2, [r7, #15]	@ zero_extendqisi2
 1798 0874 2849     		ldr	r1, .L128
 1799 0876 1346     		mov	r3, r2
 1800 0878 9B00     		lsls	r3, r3, #2
 1801 087a 1344     		add	r3, r3, r2
 1802 087c DB00     		lsls	r3, r3, #3
 1803 087e 0B44     		add	r3, r3, r1
 1804 0880 1B33     		adds	r3, r3, #27
 1805 0882 1B78     		ldrb	r3, [r3]	@ zero_extendqisi2
 1806 0884 FA7B     		ldrb	r2, [r7, #15]	@ zero_extendqisi2
 1807 0886 5B08     		lsrs	r3, r3, #1
 1808 0888 D8B2     		uxtb	r0, r3
 1809 088a 2349     		ldr	r1, .L128
 1810 088c 1346     		mov	r3, r2
 1811 088e 9B00     		lsls	r3, r3, #2
 1812 0890 1344     		add	r3, r3, r2
 1813 0892 DB00     		lsls	r3, r3, #3
 1814 0894 0B44     		add	r3, r3, r1
 1815 0896 1B33     		adds	r3, r3, #27
 1816 0898 0246     		mov	r2, r0
 1817 089a 1A70     		strb	r2, [r3]
 1818              	.L123:
 443:build\openmote-cc2538_armgcc\openstack\02b-MAChigh/neighbors.c ****                 }
 444:build\openmote-cc2538_armgcc\openstack\02b-MAChigh/neighbors.c ****                 // update statistics
 445:build\openmote-cc2538_armgcc\openstack\02b-MAChigh/neighbors.c ****                 neighbors_vars.neighbors[i].numTx += numTxAttempts;
 1819              		.loc 1 445 0
 1820 089c FA7B     		ldrb	r2, [r7, #15]	@ zero_extendqisi2
 1821 089e 1E49     		ldr	r1, .L128
 1822 08a0 1346     		mov	r3, r2
 1823 08a2 9B00     		lsls	r3, r3, #2
 1824 08a4 1344     		add	r3, r3, r2
 1825 08a6 DB00     		lsls	r3, r3, #3
 1826 08a8 0B44     		add	r3, r3, r1
 1827 08aa 1A33     		adds	r3, r3, #26
 1828 08ac 1978     		ldrb	r1, [r3]	@ zero_extendqisi2
 1829 08ae FA7B     		ldrb	r2, [r7, #15]	@ zero_extendqisi2
 1830 08b0 FB78     		ldrb	r3, [r7, #3]
 1831 08b2 0B44     		add	r3, r3, r1
 1832 08b4 D8B2     		uxtb	r0, r3
 1833 08b6 1849     		ldr	r1, .L128
 1834 08b8 1346     		mov	r3, r2
 1835 08ba 9B00     		lsls	r3, r3, #2
 1836 08bc 1344     		add	r3, r3, r2
 1837 08be DB00     		lsls	r3, r3, #3
 1838 08c0 0B44     		add	r3, r3, r1
 1839 08c2 1A33     		adds	r3, r3, #26
 1840 08c4 0246     		mov	r2, r0
 1841 08c6 1A70     		strb	r2, [r3]
 446:build\openmote-cc2538_armgcc\openstack\02b-MAChigh/neighbors.c **** 
 447:build\openmote-cc2538_armgcc\openstack\02b-MAChigh/neighbors.c ****                 if (was_finally_acked==TRUE) {
 1842              		.loc 1 447 0
 1843 08c8 7B78     		ldrb	r3, [r7, #1]	@ zero_extendqisi2
 1844 08ca 002B     		cmp	r3, #0
 1845 08cc 13D0     		beq	.L124
 448:build\openmote-cc2538_armgcc\openstack\02b-MAChigh/neighbors.c ****                     neighbors_vars.neighbors[i].numTxACK++;
 1846              		.loc 1 448 0
 1847 08ce FA7B     		ldrb	r2, [r7, #15]	@ zero_extendqisi2
 1848 08d0 1149     		ldr	r1, .L128
 1849 08d2 1346     		mov	r3, r2
 1850 08d4 9B00     		lsls	r3, r3, #2
 1851 08d6 1344     		add	r3, r3, r2
 1852 08d8 DB00     		lsls	r3, r3, #3
 1853 08da 0B44     		add	r3, r3, r1
 1854 08dc 1B33     		adds	r3, r3, #27
 1855 08de 1B78     		ldrb	r3, [r3]	@ zero_extendqisi2
 1856 08e0 0133     		adds	r3, r3, #1
 1857 08e2 D8B2     		uxtb	r0, r3
 1858 08e4 0C49     		ldr	r1, .L128
 1859 08e6 1346     		mov	r3, r2
 1860 08e8 9B00     		lsls	r3, r3, #2
 1861 08ea 1344     		add	r3, r3, r2
 1862 08ec DB00     		lsls	r3, r3, #3
 1863 08ee 0B44     		add	r3, r3, r1
 1864 08f0 1B33     		adds	r3, r3, #27
 1865 08f2 0246     		mov	r2, r0
 1866 08f4 1A70     		strb	r2, [r3]
 1867              	.L124:
 449:build\openmote-cc2538_armgcc\openstack\02b-MAChigh/neighbors.c ****                 }
 450:build\openmote-cc2538_armgcc\openstack\02b-MAChigh/neighbors.c **** 
 451:build\openmote-cc2538_armgcc\openstack\02b-MAChigh/neighbors.c ****                 // numTx and numTxAck changed,, update my rank
 452:build\openmote-cc2538_armgcc\openstack\02b-MAChigh/neighbors.c ****                 icmpv6rpl_updateMyDAGrankAndParentSelection();
 1868              		.loc 1 452 0
 1869 08f6 FFF7FEFF 		bl	icmpv6rpl_updateMyDAGrankAndParentSelection
 453:build\openmote-cc2538_armgcc\openstack\02b-MAChigh/neighbors.c ****             }
 454:build\openmote-cc2538_armgcc\openstack\02b-MAChigh/neighbors.c ****             break;
 1870              		.loc 1 454 0
 1871 08fa 09E0     		b	.L127
 1872              	.L120:
 424:build\openmote-cc2538_armgcc\openstack\02b-MAChigh/neighbors.c ****         if (isThisRowMatching(l2_dest,i)) {
 1873              		.loc 1 424 0 discriminator 2
 1874 08fc FB7B     		ldrb	r3, [r7, #15]	@ zero_extendqisi2
 1875 08fe 0133     		adds	r3, r3, #1
 1876 0900 FB73     		strb	r3, [r7, #15]
 1877              	.L119:
 424:build\openmote-cc2538_armgcc\openstack\02b-MAChigh/neighbors.c ****         if (isThisRowMatching(l2_dest,i)) {
 1878              		.loc 1 424 0 is_stmt 0 discriminator 1
 1879 0902 FB7B     		ldrb	r3, [r7, #15]	@ zero_extendqisi2
 1880 0904 1D2B     		cmp	r3, #29
 1881 0906 7FF64AAF 		bls	.L125
 1882 090a 02E0     		b	.L116
 1883              	.L126:
 420:build\openmote-cc2538_armgcc\openstack\02b-MAChigh/neighbors.c ****     }
 1884              		.loc 1 420 0 is_stmt 1
 1885 090c 00BF     		nop
 1886 090e 00E0     		b	.L116
 1887              	.L127:
 1888              		.loc 1 454 0
 1889 0910 00BF     		nop
 1890              	.L116:
 455:build\openmote-cc2538_armgcc\openstack\02b-MAChigh/neighbors.c ****         }
 456:build\openmote-cc2538_armgcc\openstack\02b-MAChigh/neighbors.c ****     }
 457:build\openmote-cc2538_armgcc\openstack\02b-MAChigh/neighbors.c **** }
 1891              		.loc 1 457 0
 1892 0912 1037     		adds	r7, r7, #16
 1893              		.cfi_def_cfa_offset 8
 1894 0914 BD46     		mov	sp, r7
 1895              		.cfi_def_cfa_register 13
 1896              		@ sp needed
 1897 0916 80BD     		pop	{r7, pc}
 1898              	.L129:
 1899              		.align	2
 1900              	.L128:
 1901 0918 00000000 		.word	neighbors_vars
 1902              		.cfi_endproc
 1903              	.LFE19:
 1905              		.align	1
 1906              		.global	neighbors_updateSequenceNumber
 1907              		.syntax unified
 1908              		.thumb
 1909              		.thumb_func
 1910              		.fpu softvfp
 1912              	neighbors_updateSequenceNumber:
 1913              	.LFB20:
 458:build\openmote-cc2538_armgcc\openstack\02b-MAChigh/neighbors.c **** 
 459:build\openmote-cc2538_armgcc\openstack\02b-MAChigh/neighbors.c **** void neighbors_updateSequenceNumber(open_addr_t* address){
 1914              		.loc 1 459 0
 1915              		.cfi_startproc
 1916              		@ args = 0, pretend = 0, frame = 16
 1917              		@ frame_needed = 1, uses_anonymous_args = 0
 1918 091c 80B5     		push	{r7, lr}
 1919              		.cfi_def_cfa_offset 8
 1920              		.cfi_offset 7, -8
 1921              		.cfi_offset 14, -4
 1922 091e 84B0     		sub	sp, sp, #16
 1923              		.cfi_def_cfa_offset 24
 1924 0920 00AF     		add	r7, sp, #0
 1925              		.cfi_def_cfa_register 7
 1926 0922 7860     		str	r0, [r7, #4]
 460:build\openmote-cc2538_armgcc\openstack\02b-MAChigh/neighbors.c ****     uint8_t i;
 461:build\openmote-cc2538_armgcc\openstack\02b-MAChigh/neighbors.c ****     for (i=0;i<MAXNUMNEIGHBORS;i++){
 1927              		.loc 1 461 0
 1928 0924 0023     		movs	r3, #0
 1929 0926 FB73     		strb	r3, [r7, #15]
 1930 0928 3CE0     		b	.L131
 1931              	.L135:
 462:build\openmote-cc2538_armgcc\openstack\02b-MAChigh/neighbors.c ****         if (packetfunctions_sameAddress(address, &neighbors_vars.neighbors[i].addr_64b)){
 1932              		.loc 1 462 0
 1933 092a FA7B     		ldrb	r2, [r7, #15]	@ zero_extendqisi2
 1934 092c 1346     		mov	r3, r2
 1935 092e 9B00     		lsls	r3, r3, #2
 1936 0930 1344     		add	r3, r3, r2
 1937 0932 DB00     		lsls	r3, r3, #3
 1938 0934 204A     		ldr	r2, .L137
 1939 0936 1344     		add	r3, r3, r2
 1940 0938 0533     		adds	r3, r3, #5
 1941 093a 1946     		mov	r1, r3
 1942 093c 7868     		ldr	r0, [r7, #4]
 1943 093e FFF7FEFF 		bl	packetfunctions_sameAddress
 1944 0942 0346     		mov	r3, r0
 1945 0944 002B     		cmp	r3, #0
 1946 0946 2AD0     		beq	.L132
 463:build\openmote-cc2538_armgcc\openstack\02b-MAChigh/neighbors.c ****             neighbors_vars.neighbors[i].sequenceNumber = (neighbors_vars.neighbors[i].sequenceNumbe
 1947              		.loc 1 463 0
 1948 0948 FA7B     		ldrb	r2, [r7, #15]	@ zero_extendqisi2
 1949 094a 1B49     		ldr	r1, .L137
 1950 094c 1346     		mov	r3, r2
 1951 094e 9B00     		lsls	r3, r3, #2
 1952 0950 1344     		add	r3, r3, r2
 1953 0952 DB00     		lsls	r3, r3, #3
 1954 0954 0B44     		add	r3, r3, r1
 1955 0956 2533     		adds	r3, r3, #37
 1956 0958 1B78     		ldrb	r3, [r3]	@ zero_extendqisi2
 1957 095a FA7B     		ldrb	r2, [r7, #15]	@ zero_extendqisi2
 1958 095c 0133     		adds	r3, r3, #1
 1959 095e D8B2     		uxtb	r0, r3
 1960 0960 1549     		ldr	r1, .L137
 1961 0962 1346     		mov	r3, r2
 1962 0964 9B00     		lsls	r3, r3, #2
 1963 0966 1344     		add	r3, r3, r2
 1964 0968 DB00     		lsls	r3, r3, #3
 1965 096a 0B44     		add	r3, r3, r1
 1966 096c 2533     		adds	r3, r3, #37
 1967 096e 0246     		mov	r2, r0
 1968 0970 1A70     		strb	r2, [r3]
 464:build\openmote-cc2538_armgcc\openstack\02b-MAChigh/neighbors.c ****             // rollover from 0xff to 0x01
 465:build\openmote-cc2538_armgcc\openstack\02b-MAChigh/neighbors.c ****             if (neighbors_vars.neighbors[i].sequenceNumber == 0){
 1969              		.loc 1 465 0
 1970 0972 FA7B     		ldrb	r2, [r7, #15]	@ zero_extendqisi2
 1971 0974 1049     		ldr	r1, .L137
 1972 0976 1346     		mov	r3, r2
 1973 0978 9B00     		lsls	r3, r3, #2
 1974 097a 1344     		add	r3, r3, r2
 1975 097c DB00     		lsls	r3, r3, #3
 1976 097e 0B44     		add	r3, r3, r1
 1977 0980 2533     		adds	r3, r3, #37
 1978 0982 1B78     		ldrb	r3, [r3]	@ zero_extendqisi2
 1979 0984 002B     		cmp	r3, #0
 1980 0986 11D1     		bne	.L136
 466:build\openmote-cc2538_armgcc\openstack\02b-MAChigh/neighbors.c ****                 neighbors_vars.neighbors[i].sequenceNumber = 1;
 1981              		.loc 1 466 0
 1982 0988 FA7B     		ldrb	r2, [r7, #15]	@ zero_extendqisi2
 1983 098a 0B49     		ldr	r1, .L137
 1984 098c 1346     		mov	r3, r2
 1985 098e 9B00     		lsls	r3, r3, #2
 1986 0990 1344     		add	r3, r3, r2
 1987 0992 DB00     		lsls	r3, r3, #3
 1988 0994 0B44     		add	r3, r3, r1
 1989 0996 2533     		adds	r3, r3, #37
 1990 0998 0122     		movs	r2, #1
 1991 099a 1A70     		strb	r2, [r3]
 467:build\openmote-cc2538_armgcc\openstack\02b-MAChigh/neighbors.c ****             }
 468:build\openmote-cc2538_armgcc\openstack\02b-MAChigh/neighbors.c ****             break;
 1992              		.loc 1 468 0
 1993 099c 06E0     		b	.L136
 1994              	.L132:
 461:build\openmote-cc2538_armgcc\openstack\02b-MAChigh/neighbors.c ****         if (packetfunctions_sameAddress(address, &neighbors_vars.neighbors[i].addr_64b)){
 1995              		.loc 1 461 0 discriminator 2
 1996 099e FB7B     		ldrb	r3, [r7, #15]	@ zero_extendqisi2
 1997 09a0 0133     		adds	r3, r3, #1
 1998 09a2 FB73     		strb	r3, [r7, #15]
 1999              	.L131:
 461:build\openmote-cc2538_armgcc\openstack\02b-MAChigh/neighbors.c ****         if (packetfunctions_sameAddress(address, &neighbors_vars.neighbors[i].addr_64b)){
 2000              		.loc 1 461 0 is_stmt 0 discriminator 1
 2001 09a4 FB7B     		ldrb	r3, [r7, #15]	@ zero_extendqisi2
 2002 09a6 1D2B     		cmp	r3, #29
 2003 09a8 BFD9     		bls	.L135
 469:build\openmote-cc2538_armgcc\openstack\02b-MAChigh/neighbors.c ****         }
 470:build\openmote-cc2538_armgcc\openstack\02b-MAChigh/neighbors.c ****     }
 471:build\openmote-cc2538_armgcc\openstack\02b-MAChigh/neighbors.c **** }
 2004              		.loc 1 471 0 is_stmt 1
 2005 09aa 00E0     		b	.L134
 2006              	.L136:
 468:build\openmote-cc2538_armgcc\openstack\02b-MAChigh/neighbors.c ****         }
 2007              		.loc 1 468 0
 2008 09ac 00BF     		nop
 2009              	.L134:
 2010              		.loc 1 471 0
 2011 09ae 00BF     		nop
 2012 09b0 1037     		adds	r7, r7, #16
 2013              		.cfi_def_cfa_offset 8
 2014 09b2 BD46     		mov	sp, r7
 2015              		.cfi_def_cfa_register 13
 2016              		@ sp needed
 2017 09b4 80BD     		pop	{r7, pc}
 2018              	.L138:
 2019 09b6 00BF     		.align	2
 2020              	.L137:
 2021 09b8 00000000 		.word	neighbors_vars
 2022              		.cfi_endproc
 2023              	.LFE20:
 2025              		.align	1
 2026              		.global	neighbors_resetSequenceNumber
 2027              		.syntax unified
 2028              		.thumb
 2029              		.thumb_func
 2030              		.fpu softvfp
 2032              	neighbors_resetSequenceNumber:
 2033              	.LFB21:
 472:build\openmote-cc2538_armgcc\openstack\02b-MAChigh/neighbors.c **** 
 473:build\openmote-cc2538_armgcc\openstack\02b-MAChigh/neighbors.c **** void neighbors_resetSequenceNumber(open_addr_t* address){
 2034              		.loc 1 473 0
 2035              		.cfi_startproc
 2036              		@ args = 0, pretend = 0, frame = 16
 2037              		@ frame_needed = 1, uses_anonymous_args = 0
 2038 09bc 80B5     		push	{r7, lr}
 2039              		.cfi_def_cfa_offset 8
 2040              		.cfi_offset 7, -8
 2041              		.cfi_offset 14, -4
 2042 09be 84B0     		sub	sp, sp, #16
 2043              		.cfi_def_cfa_offset 24
 2044 09c0 00AF     		add	r7, sp, #0
 2045              		.cfi_def_cfa_register 7
 2046 09c2 7860     		str	r0, [r7, #4]
 474:build\openmote-cc2538_armgcc\openstack\02b-MAChigh/neighbors.c ****     uint8_t i;
 475:build\openmote-cc2538_armgcc\openstack\02b-MAChigh/neighbors.c ****     for (i=0;i<MAXNUMNEIGHBORS;i++){
 2047              		.loc 1 475 0
 2048 09c4 0023     		movs	r3, #0
 2049 09c6 FB73     		strb	r3, [r7, #15]
 2050 09c8 1CE0     		b	.L140
 2051              	.L143:
 476:build\openmote-cc2538_armgcc\openstack\02b-MAChigh/neighbors.c ****         if (packetfunctions_sameAddress(address, &neighbors_vars.neighbors[i].addr_64b)){
 2052              		.loc 1 476 0
 2053 09ca FA7B     		ldrb	r2, [r7, #15]	@ zero_extendqisi2
 2054 09cc 1346     		mov	r3, r2
 2055 09ce 9B00     		lsls	r3, r3, #2
 2056 09d0 1344     		add	r3, r3, r2
 2057 09d2 DB00     		lsls	r3, r3, #3
 2058 09d4 0F4A     		ldr	r2, .L144
 2059 09d6 1344     		add	r3, r3, r2
 2060 09d8 0533     		adds	r3, r3, #5
 2061 09da 1946     		mov	r1, r3
 2062 09dc 7868     		ldr	r0, [r7, #4]
 2063 09de FFF7FEFF 		bl	packetfunctions_sameAddress
 2064 09e2 0346     		mov	r3, r0
 2065 09e4 002B     		cmp	r3, #0
 2066 09e6 0AD0     		beq	.L141
 477:build\openmote-cc2538_armgcc\openstack\02b-MAChigh/neighbors.c ****             neighbors_vars.neighbors[i].sequenceNumber = 0;
 2067              		.loc 1 477 0
 2068 09e8 FA7B     		ldrb	r2, [r7, #15]	@ zero_extendqisi2
 2069 09ea 0A49     		ldr	r1, .L144
 2070 09ec 1346     		mov	r3, r2
 2071 09ee 9B00     		lsls	r3, r3, #2
 2072 09f0 1344     		add	r3, r3, r2
 2073 09f2 DB00     		lsls	r3, r3, #3
 2074 09f4 0B44     		add	r3, r3, r1
 2075 09f6 2533     		adds	r3, r3, #37
 2076 09f8 0022     		movs	r2, #0
 2077 09fa 1A70     		strb	r2, [r3]
 478:build\openmote-cc2538_armgcc\openstack\02b-MAChigh/neighbors.c ****             break;
 2078              		.loc 1 478 0
 2079 09fc 05E0     		b	.L142
 2080              	.L141:
 475:build\openmote-cc2538_armgcc\openstack\02b-MAChigh/neighbors.c ****         if (packetfunctions_sameAddress(address, &neighbors_vars.neighbors[i].addr_64b)){
 2081              		.loc 1 475 0 discriminator 2
 2082 09fe FB7B     		ldrb	r3, [r7, #15]	@ zero_extendqisi2
 2083 0a00 0133     		adds	r3, r3, #1
 2084 0a02 FB73     		strb	r3, [r7, #15]
 2085              	.L140:
 475:build\openmote-cc2538_armgcc\openstack\02b-MAChigh/neighbors.c ****         if (packetfunctions_sameAddress(address, &neighbors_vars.neighbors[i].addr_64b)){
 2086              		.loc 1 475 0 is_stmt 0 discriminator 1
 2087 0a04 FB7B     		ldrb	r3, [r7, #15]	@ zero_extendqisi2
 2088 0a06 1D2B     		cmp	r3, #29
 2089 0a08 DFD9     		bls	.L143
 2090              	.L142:
 479:build\openmote-cc2538_armgcc\openstack\02b-MAChigh/neighbors.c ****         }
 480:build\openmote-cc2538_armgcc\openstack\02b-MAChigh/neighbors.c ****     }
 481:build\openmote-cc2538_armgcc\openstack\02b-MAChigh/neighbors.c **** }
 2091              		.loc 1 481 0 is_stmt 1
 2092 0a0a 00BF     		nop
 2093 0a0c 1037     		adds	r7, r7, #16
 2094              		.cfi_def_cfa_offset 8
 2095 0a0e BD46     		mov	sp, r7
 2096              		.cfi_def_cfa_register 13
 2097              		@ sp needed
 2098 0a10 80BD     		pop	{r7, pc}
 2099              	.L145:
 2100 0a12 00BF     		.align	2
 2101              	.L144:
 2102 0a14 00000000 		.word	neighbors_vars
 2103              		.cfi_endproc
 2104              	.LFE21:
 2106              		.align	1
 2107              		.global	neighbors_getNeighborEui64
 2108              		.syntax unified
 2109              		.thumb
 2110              		.thumb_func
 2111              		.fpu softvfp
 2113              	neighbors_getNeighborEui64:
 2114              	.LFB22:
 482:build\openmote-cc2538_armgcc\openstack\02b-MAChigh/neighbors.c **** 
 483:build\openmote-cc2538_armgcc\openstack\02b-MAChigh/neighbors.c **** //===== write addresses
 484:build\openmote-cc2538_armgcc\openstack\02b-MAChigh/neighbors.c **** 
 485:build\openmote-cc2538_armgcc\openstack\02b-MAChigh/neighbors.c **** /**
 486:build\openmote-cc2538_armgcc\openstack\02b-MAChigh/neighbors.c **** \brief Write the 64-bit address of some neighbor to some location.
 487:build\openmote-cc2538_armgcc\openstack\02b-MAChigh/neighbors.c **** // Returns false if neighbor not in use or address type is not 64bits
 488:build\openmote-cc2538_armgcc\openstack\02b-MAChigh/neighbors.c **** */
 489:build\openmote-cc2538_armgcc\openstack\02b-MAChigh/neighbors.c **** bool  neighbors_getNeighborEui64(open_addr_t* address, uint8_t addr_type, uint8_t index){
 2115              		.loc 1 489 0
 2116              		.cfi_startproc
 2117              		@ args = 0, pretend = 0, frame = 16
 2118              		@ frame_needed = 1, uses_anonymous_args = 0
 2119 0a18 80B5     		push	{r7, lr}
 2120              		.cfi_def_cfa_offset 8
 2121              		.cfi_offset 7, -8
 2122              		.cfi_offset 14, -4
 2123 0a1a 84B0     		sub	sp, sp, #16
 2124              		.cfi_def_cfa_offset 24
 2125 0a1c 00AF     		add	r7, sp, #0
 2126              		.cfi_def_cfa_register 7
 2127 0a1e 7860     		str	r0, [r7, #4]
 2128 0a20 0B46     		mov	r3, r1
 2129 0a22 FB70     		strb	r3, [r7, #3]
 2130 0a24 1346     		mov	r3, r2
 2131 0a26 BB70     		strb	r3, [r7, #2]
 490:build\openmote-cc2538_armgcc\openstack\02b-MAChigh/neighbors.c ****    bool ReturnVal = FALSE;
 2132              		.loc 1 490 0
 2133 0a28 0023     		movs	r3, #0
 2134 0a2a FB73     		strb	r3, [r7, #15]
 491:build\openmote-cc2538_armgcc\openstack\02b-MAChigh/neighbors.c ****    switch(addr_type) {
 2135              		.loc 1 491 0
 2136 0a2c FB78     		ldrb	r3, [r7, #3]	@ zero_extendqisi2
 2137 0a2e 022B     		cmp	r3, #2
 2138 0a30 1AD1     		bne	.L151
 492:build\openmote-cc2538_armgcc\openstack\02b-MAChigh/neighbors.c ****       case ADDR_64B:
 493:build\openmote-cc2538_armgcc\openstack\02b-MAChigh/neighbors.c ****          memcpy(&(address->addr_64b),&(neighbors_vars.neighbors[index].addr_64b.addr_64b),LENGTH_AD
 2139              		.loc 1 493 0
 2140 0a32 7B68     		ldr	r3, [r7, #4]
 2141 0a34 581C     		adds	r0, r3, #1
 2142 0a36 BA78     		ldrb	r2, [r7, #2]	@ zero_extendqisi2
 2143 0a38 1346     		mov	r3, r2
 2144 0a3a 9B00     		lsls	r3, r3, #2
 2145 0a3c 1344     		add	r3, r3, r2
 2146 0a3e DB00     		lsls	r3, r3, #3
 2147 0a40 104A     		ldr	r2, .L152
 2148 0a42 1344     		add	r3, r3, r2
 2149 0a44 0633     		adds	r3, r3, #6
 2150 0a46 0822     		movs	r2, #8
 2151 0a48 1946     		mov	r1, r3
 2152 0a4a FFF7FEFF 		bl	memcpy
 494:build\openmote-cc2538_armgcc\openstack\02b-MAChigh/neighbors.c ****          address->type=ADDR_64B;
 2153              		.loc 1 494 0
 2154 0a4e 7B68     		ldr	r3, [r7, #4]
 2155 0a50 0222     		movs	r2, #2
 2156 0a52 1A70     		strb	r2, [r3]
 495:build\openmote-cc2538_armgcc\openstack\02b-MAChigh/neighbors.c ****          ReturnVal=neighbors_vars.neighbors[index].used;
 2157              		.loc 1 495 0
 2158 0a54 BA78     		ldrb	r2, [r7, #2]	@ zero_extendqisi2
 2159 0a56 0B49     		ldr	r1, .L152
 2160 0a58 1346     		mov	r3, r2
 2161 0a5a 9B00     		lsls	r3, r3, #2
 2162 0a5c 1344     		add	r3, r3, r2
 2163 0a5e DB00     		lsls	r3, r3, #3
 2164 0a60 0B44     		add	r3, r3, r1
 2165 0a62 1B78     		ldrb	r3, [r3]
 2166 0a64 FB73     		strb	r3, [r7, #15]
 496:build\openmote-cc2538_armgcc\openstack\02b-MAChigh/neighbors.c ****          break;
 2167              		.loc 1 496 0
 2168 0a66 07E0     		b	.L149
 2169              	.L151:
 497:build\openmote-cc2538_armgcc\openstack\02b-MAChigh/neighbors.c ****       default:
 498:build\openmote-cc2538_armgcc\openstack\02b-MAChigh/neighbors.c ****          openserial_printCritical(COMPONENT_NEIGHBORS,ERR_WRONG_ADDR_TYPE,
 2170              		.loc 1 498 0
 2171 0a68 FB78     		ldrb	r3, [r7, #3]	@ zero_extendqisi2
 2172 0a6a 9AB2     		uxth	r2, r3
 2173 0a6c 0123     		movs	r3, #1
 2174 0a6e 3221     		movs	r1, #50
 2175 0a70 0D20     		movs	r0, #13
 2176 0a72 FFF7FEFF 		bl	openserial_printCritical
 499:build\openmote-cc2538_armgcc\openstack\02b-MAChigh/neighbors.c ****                                (errorparameter_t)addr_type,
 500:build\openmote-cc2538_armgcc\openstack\02b-MAChigh/neighbors.c ****                                (errorparameter_t)1);
 501:build\openmote-cc2538_armgcc\openstack\02b-MAChigh/neighbors.c ****          break;
 2177              		.loc 1 501 0
 2178 0a76 00BF     		nop
 2179              	.L149:
 502:build\openmote-cc2538_armgcc\openstack\02b-MAChigh/neighbors.c ****    }
 503:build\openmote-cc2538_armgcc\openstack\02b-MAChigh/neighbors.c ****    return ReturnVal;
 2180              		.loc 1 503 0
 2181 0a78 FB7B     		ldrb	r3, [r7, #15]	@ zero_extendqisi2
 504:build\openmote-cc2538_armgcc\openstack\02b-MAChigh/neighbors.c **** }
 2182              		.loc 1 504 0
 2183 0a7a 1846     		mov	r0, r3
 2184 0a7c 1037     		adds	r7, r7, #16
 2185              		.cfi_def_cfa_offset 8
 2186 0a7e BD46     		mov	sp, r7
 2187              		.cfi_def_cfa_register 13
 2188              		@ sp needed
 2189 0a80 80BD     		pop	{r7, pc}
 2190              	.L153:
 2191 0a82 00BF     		.align	2
 2192              	.L152:
 2193 0a84 00000000 		.word	neighbors_vars
 2194              		.cfi_endproc
 2195              	.LFE22:
 2197              		.align	1
 2198              		.global	neighbors_updateBackoff
 2199              		.syntax unified
 2200              		.thumb
 2201              		.thumb_func
 2202              		.fpu softvfp
 2204              	neighbors_updateBackoff:
 2205              	.LFB23:
 505:build\openmote-cc2538_armgcc\openstack\02b-MAChigh/neighbors.c **** // ==== update backoff
 506:build\openmote-cc2538_armgcc\openstack\02b-MAChigh/neighbors.c **** void neighbors_updateBackoff(open_addr_t* address){
 2206              		.loc 1 506 0
 2207              		.cfi_startproc
 2208              		@ args = 0, pretend = 0, frame = 16
 2209              		@ frame_needed = 1, uses_anonymous_args = 0
 2210 0a88 80B5     		push	{r7, lr}
 2211              		.cfi_def_cfa_offset 8
 2212              		.cfi_offset 7, -8
 2213              		.cfi_offset 14, -4
 2214 0a8a 84B0     		sub	sp, sp, #16
 2215              		.cfi_def_cfa_offset 24
 2216 0a8c 00AF     		add	r7, sp, #0
 2217              		.cfi_def_cfa_register 7
 2218 0a8e 7860     		str	r0, [r7, #4]
 507:build\openmote-cc2538_armgcc\openstack\02b-MAChigh/neighbors.c ****     uint8_t i;
 508:build\openmote-cc2538_armgcc\openstack\02b-MAChigh/neighbors.c ****     for (i=0;i<MAXNUMNEIGHBORS;i++){
 2219              		.loc 1 508 0
 2220 0a90 0023     		movs	r3, #0
 2221 0a92 FB73     		strb	r3, [r7, #15]
 2222 0a94 52E0     		b	.L155
 2223              	.L159:
 509:build\openmote-cc2538_armgcc\openstack\02b-MAChigh/neighbors.c ****         if (packetfunctions_sameAddress(address, &neighbors_vars.neighbors[i].addr_64b)){
 2224              		.loc 1 509 0
 2225 0a96 FA7B     		ldrb	r2, [r7, #15]	@ zero_extendqisi2
 2226 0a98 1346     		mov	r3, r2
 2227 0a9a 9B00     		lsls	r3, r3, #2
 2228 0a9c 1344     		add	r3, r3, r2
 2229 0a9e DB00     		lsls	r3, r3, #3
 2230 0aa0 2A4A     		ldr	r2, .L160
 2231 0aa2 1344     		add	r3, r3, r2
 2232 0aa4 0533     		adds	r3, r3, #5
 2233 0aa6 1946     		mov	r1, r3
 2234 0aa8 7868     		ldr	r0, [r7, #4]
 2235 0aaa FFF7FEFF 		bl	packetfunctions_sameAddress
 2236 0aae 0346     		mov	r3, r0
 2237 0ab0 002B     		cmp	r3, #0
 2238 0ab2 40D0     		beq	.L156
 510:build\openmote-cc2538_armgcc\openstack\02b-MAChigh/neighbors.c ****             // increase the backoffExponent
 511:build\openmote-cc2538_armgcc\openstack\02b-MAChigh/neighbors.c ****             if (neighbors_vars.neighbors[i].backoffExponenton<MAXBE) {
 2239              		.loc 1 511 0
 2240 0ab4 FA7B     		ldrb	r2, [r7, #15]	@ zero_extendqisi2
 2241 0ab6 2549     		ldr	r1, .L160
 2242 0ab8 1346     		mov	r3, r2
 2243 0aba 9B00     		lsls	r3, r3, #2
 2244 0abc 1344     		add	r3, r3, r2
 2245 0abe DB00     		lsls	r3, r3, #3
 2246 0ac0 0B44     		add	r3, r3, r1
 2247 0ac2 2633     		adds	r3, r3, #38
 2248 0ac4 1B78     		ldrb	r3, [r3]	@ zero_extendqisi2
 2249 0ac6 042B     		cmp	r3, #4
 2250 0ac8 13D8     		bhi	.L157
 512:build\openmote-cc2538_armgcc\openstack\02b-MAChigh/neighbors.c ****                 neighbors_vars.neighbors[i].backoffExponenton++;
 2251              		.loc 1 512 0
 2252 0aca FA7B     		ldrb	r2, [r7, #15]	@ zero_extendqisi2
 2253 0acc 1F49     		ldr	r1, .L160
 2254 0ace 1346     		mov	r3, r2
 2255 0ad0 9B00     		lsls	r3, r3, #2
 2256 0ad2 1344     		add	r3, r3, r2
 2257 0ad4 DB00     		lsls	r3, r3, #3
 2258 0ad6 0B44     		add	r3, r3, r1
 2259 0ad8 2633     		adds	r3, r3, #38
 2260 0ada 1B78     		ldrb	r3, [r3]	@ zero_extendqisi2
 2261 0adc 0133     		adds	r3, r3, #1
 2262 0ade D8B2     		uxtb	r0, r3
 2263 0ae0 1A49     		ldr	r1, .L160
 2264 0ae2 1346     		mov	r3, r2
 2265 0ae4 9B00     		lsls	r3, r3, #2
 2266 0ae6 1344     		add	r3, r3, r2
 2267 0ae8 DB00     		lsls	r3, r3, #3
 2268 0aea 0B44     		add	r3, r3, r1
 2269 0aec 2633     		adds	r3, r3, #38
 2270 0aee 0246     		mov	r2, r0
 2271 0af0 1A70     		strb	r2, [r3]
 2272              	.L157:
 513:build\openmote-cc2538_armgcc\openstack\02b-MAChigh/neighbors.c ****             }
 514:build\openmote-cc2538_armgcc\openstack\02b-MAChigh/neighbors.c ****             // set the backoff to a random value in [0..2^BE]
 515:build\openmote-cc2538_armgcc\openstack\02b-MAChigh/neighbors.c ****             neighbors_vars.neighbors[i].backoff = openrandom_get16b()%(1<<neighbors_vars.neighbors[
 2273              		.loc 1 515 0
 2274 0af2 FFF7FEFF 		bl	openrandom_get16b
 2275 0af6 0346     		mov	r3, r0
 2276 0af8 59B2     		sxtb	r1, r3
 2277 0afa FA7B     		ldrb	r2, [r7, #15]	@ zero_extendqisi2
 2278 0afc 1348     		ldr	r0, .L160
 2279 0afe 1346     		mov	r3, r2
 2280 0b00 9B00     		lsls	r3, r3, #2
 2281 0b02 1344     		add	r3, r3, r2
 2282 0b04 DB00     		lsls	r3, r3, #3
 2283 0b06 0344     		add	r3, r3, r0
 2284 0b08 2633     		adds	r3, r3, #38
 2285 0b0a 1B78     		ldrb	r3, [r3]	@ zero_extendqisi2
 2286 0b0c 1A46     		mov	r2, r3
 2287 0b0e 0123     		movs	r3, #1
 2288 0b10 9340     		lsls	r3, r3, r2
 2289 0b12 DBB2     		uxtb	r3, r3
 2290 0b14 013B     		subs	r3, r3, #1
 2291 0b16 DBB2     		uxtb	r3, r3
 2292 0b18 5BB2     		sxtb	r3, r3
 2293 0b1a 0B40     		ands	r3, r3, r1
 2294 0b1c 5BB2     		sxtb	r3, r3
 2295 0b1e FA7B     		ldrb	r2, [r7, #15]	@ zero_extendqisi2
 2296 0b20 D8B2     		uxtb	r0, r3
 2297 0b22 0A49     		ldr	r1, .L160
 2298 0b24 1346     		mov	r3, r2
 2299 0b26 9B00     		lsls	r3, r3, #2
 2300 0b28 1344     		add	r3, r3, r2
 2301 0b2a DB00     		lsls	r3, r3, #3
 2302 0b2c 0B44     		add	r3, r3, r1
 2303 0b2e 2733     		adds	r3, r3, #39
 2304 0b30 0246     		mov	r2, r0
 2305 0b32 1A70     		strb	r2, [r3]
 516:build\openmote-cc2538_armgcc\openstack\02b-MAChigh/neighbors.c ****             break;
 2306              		.loc 1 516 0
 2307 0b34 05E0     		b	.L158
 2308              	.L156:
 508:build\openmote-cc2538_armgcc\openstack\02b-MAChigh/neighbors.c ****         if (packetfunctions_sameAddress(address, &neighbors_vars.neighbors[i].addr_64b)){
 2309              		.loc 1 508 0 discriminator 2
 2310 0b36 FB7B     		ldrb	r3, [r7, #15]	@ zero_extendqisi2
 2311 0b38 0133     		adds	r3, r3, #1
 2312 0b3a FB73     		strb	r3, [r7, #15]
 2313              	.L155:
 508:build\openmote-cc2538_armgcc\openstack\02b-MAChigh/neighbors.c ****         if (packetfunctions_sameAddress(address, &neighbors_vars.neighbors[i].addr_64b)){
 2314              		.loc 1 508 0 is_stmt 0 discriminator 1
 2315 0b3c FB7B     		ldrb	r3, [r7, #15]	@ zero_extendqisi2
 2316 0b3e 1D2B     		cmp	r3, #29
 2317 0b40 A9D9     		bls	.L159
 2318              	.L158:
 517:build\openmote-cc2538_armgcc\openstack\02b-MAChigh/neighbors.c ****         }
 518:build\openmote-cc2538_armgcc\openstack\02b-MAChigh/neighbors.c ****     }
 519:build\openmote-cc2538_armgcc\openstack\02b-MAChigh/neighbors.c **** }
 2319              		.loc 1 519 0 is_stmt 1
 2320 0b42 00BF     		nop
 2321 0b44 1037     		adds	r7, r7, #16
 2322              		.cfi_def_cfa_offset 8
 2323 0b46 BD46     		mov	sp, r7
 2324              		.cfi_def_cfa_register 13
 2325              		@ sp needed
 2326 0b48 80BD     		pop	{r7, pc}
 2327              	.L161:
 2328 0b4a 00BF     		.align	2
 2329              	.L160:
 2330 0b4c 00000000 		.word	neighbors_vars
 2331              		.cfi_endproc
 2332              	.LFE23:
 2334              		.align	1
 2335              		.global	neighbors_decreaseBackoff
 2336              		.syntax unified
 2337              		.thumb
 2338              		.thumb_func
 2339              		.fpu softvfp
 2341              	neighbors_decreaseBackoff:
 2342              	.LFB24:
 520:build\openmote-cc2538_armgcc\openstack\02b-MAChigh/neighbors.c **** void neighbors_decreaseBackoff(open_addr_t* address){
 2343              		.loc 1 520 0
 2344              		.cfi_startproc
 2345              		@ args = 0, pretend = 0, frame = 16
 2346              		@ frame_needed = 1, uses_anonymous_args = 0
 2347 0b50 80B5     		push	{r7, lr}
 2348              		.cfi_def_cfa_offset 8
 2349              		.cfi_offset 7, -8
 2350              		.cfi_offset 14, -4
 2351 0b52 84B0     		sub	sp, sp, #16
 2352              		.cfi_def_cfa_offset 24
 2353 0b54 00AF     		add	r7, sp, #0
 2354              		.cfi_def_cfa_register 7
 2355 0b56 7860     		str	r0, [r7, #4]
 521:build\openmote-cc2538_armgcc\openstack\02b-MAChigh/neighbors.c ****     uint8_t i;
 522:build\openmote-cc2538_armgcc\openstack\02b-MAChigh/neighbors.c ****     for (i=0;i<MAXNUMNEIGHBORS;i++){
 2356              		.loc 1 522 0
 2357 0b58 0023     		movs	r3, #0
 2358 0b5a FB73     		strb	r3, [r7, #15]
 2359 0b5c 31E0     		b	.L163
 2360              	.L167:
 523:build\openmote-cc2538_armgcc\openstack\02b-MAChigh/neighbors.c ****         if (packetfunctions_sameAddress(address, &neighbors_vars.neighbors[i].addr_64b)){
 2361              		.loc 1 523 0
 2362 0b5e FA7B     		ldrb	r2, [r7, #15]	@ zero_extendqisi2
 2363 0b60 1346     		mov	r3, r2
 2364 0b62 9B00     		lsls	r3, r3, #2
 2365 0b64 1344     		add	r3, r3, r2
 2366 0b66 DB00     		lsls	r3, r3, #3
 2367 0b68 1A4A     		ldr	r2, .L169
 2368 0b6a 1344     		add	r3, r3, r2
 2369 0b6c 0533     		adds	r3, r3, #5
 2370 0b6e 1946     		mov	r1, r3
 2371 0b70 7868     		ldr	r0, [r7, #4]
 2372 0b72 FFF7FEFF 		bl	packetfunctions_sameAddress
 2373 0b76 0346     		mov	r3, r0
 2374 0b78 002B     		cmp	r3, #0
 2375 0b7a 1FD0     		beq	.L164
 524:build\openmote-cc2538_armgcc\openstack\02b-MAChigh/neighbors.c ****             if (neighbors_vars.neighbors[i].backoff>0) {
 2376              		.loc 1 524 0
 2377 0b7c FA7B     		ldrb	r2, [r7, #15]	@ zero_extendqisi2
 2378 0b7e 1549     		ldr	r1, .L169
 2379 0b80 1346     		mov	r3, r2
 2380 0b82 9B00     		lsls	r3, r3, #2
 2381 0b84 1344     		add	r3, r3, r2
 2382 0b86 DB00     		lsls	r3, r3, #3
 2383 0b88 0B44     		add	r3, r3, r1
 2384 0b8a 2733     		adds	r3, r3, #39
 2385 0b8c 1B78     		ldrb	r3, [r3]	@ zero_extendqisi2
 2386 0b8e 002B     		cmp	r3, #0
 2387 0b90 1BD0     		beq	.L168
 525:build\openmote-cc2538_armgcc\openstack\02b-MAChigh/neighbors.c ****                 neighbors_vars.neighbors[i].backoff--;
 2388              		.loc 1 525 0
 2389 0b92 FA7B     		ldrb	r2, [r7, #15]	@ zero_extendqisi2
 2390 0b94 0F49     		ldr	r1, .L169
 2391 0b96 1346     		mov	r3, r2
 2392 0b98 9B00     		lsls	r3, r3, #2
 2393 0b9a 1344     		add	r3, r3, r2
 2394 0b9c DB00     		lsls	r3, r3, #3
 2395 0b9e 0B44     		add	r3, r3, r1
 2396 0ba0 2733     		adds	r3, r3, #39
 2397 0ba2 1B78     		ldrb	r3, [r3]	@ zero_extendqisi2
 2398 0ba4 013B     		subs	r3, r3, #1
 2399 0ba6 D8B2     		uxtb	r0, r3
 2400 0ba8 0A49     		ldr	r1, .L169
 2401 0baa 1346     		mov	r3, r2
 2402 0bac 9B00     		lsls	r3, r3, #2
 2403 0bae 1344     		add	r3, r3, r2
 2404 0bb0 DB00     		lsls	r3, r3, #3
 2405 0bb2 0B44     		add	r3, r3, r1
 2406 0bb4 2733     		adds	r3, r3, #39
 2407 0bb6 0246     		mov	r2, r0
 2408 0bb8 1A70     		strb	r2, [r3]
 526:build\openmote-cc2538_armgcc\openstack\02b-MAChigh/neighbors.c ****             }
 527:build\openmote-cc2538_armgcc\openstack\02b-MAChigh/neighbors.c ****             break;
 2409              		.loc 1 527 0
 2410 0bba 06E0     		b	.L168
 2411              	.L164:
 522:build\openmote-cc2538_armgcc\openstack\02b-MAChigh/neighbors.c ****         if (packetfunctions_sameAddress(address, &neighbors_vars.neighbors[i].addr_64b)){
 2412              		.loc 1 522 0 discriminator 2
 2413 0bbc FB7B     		ldrb	r3, [r7, #15]	@ zero_extendqisi2
 2414 0bbe 0133     		adds	r3, r3, #1
 2415 0bc0 FB73     		strb	r3, [r7, #15]
 2416              	.L163:
 522:build\openmote-cc2538_armgcc\openstack\02b-MAChigh/neighbors.c ****         if (packetfunctions_sameAddress(address, &neighbors_vars.neighbors[i].addr_64b)){
 2417              		.loc 1 522 0 is_stmt 0 discriminator 1
 2418 0bc2 FB7B     		ldrb	r3, [r7, #15]	@ zero_extendqisi2
 2419 0bc4 1D2B     		cmp	r3, #29
 2420 0bc6 CAD9     		bls	.L167
 528:build\openmote-cc2538_armgcc\openstack\02b-MAChigh/neighbors.c ****         }
 529:build\openmote-cc2538_armgcc\openstack\02b-MAChigh/neighbors.c ****     }
 530:build\openmote-cc2538_armgcc\openstack\02b-MAChigh/neighbors.c **** }
 2421              		.loc 1 530 0 is_stmt 1
 2422 0bc8 00E0     		b	.L166
 2423              	.L168:
 527:build\openmote-cc2538_armgcc\openstack\02b-MAChigh/neighbors.c ****         }
 2424              		.loc 1 527 0
 2425 0bca 00BF     		nop
 2426              	.L166:
 2427              		.loc 1 530 0
 2428 0bcc 00BF     		nop
 2429 0bce 1037     		adds	r7, r7, #16
 2430              		.cfi_def_cfa_offset 8
 2431 0bd0 BD46     		mov	sp, r7
 2432              		.cfi_def_cfa_register 13
 2433              		@ sp needed
 2434 0bd2 80BD     		pop	{r7, pc}
 2435              	.L170:
 2436              		.align	2
 2437              	.L169:
 2438 0bd4 00000000 		.word	neighbors_vars
 2439              		.cfi_endproc
 2440              	.LFE24:
 2442              		.align	1
 2443              		.global	neighbors_backoffHitZero
 2444              		.syntax unified
 2445              		.thumb
 2446              		.thumb_func
 2447              		.fpu softvfp
 2449              	neighbors_backoffHitZero:
 2450              	.LFB25:
 531:build\openmote-cc2538_armgcc\openstack\02b-MAChigh/neighbors.c **** bool neighbors_backoffHitZero(open_addr_t* address){
 2451              		.loc 1 531 0
 2452              		.cfi_startproc
 2453              		@ args = 0, pretend = 0, frame = 16
 2454              		@ frame_needed = 1, uses_anonymous_args = 0
 2455 0bd8 80B5     		push	{r7, lr}
 2456              		.cfi_def_cfa_offset 8
 2457              		.cfi_offset 7, -8
 2458              		.cfi_offset 14, -4
 2459 0bda 84B0     		sub	sp, sp, #16
 2460              		.cfi_def_cfa_offset 24
 2461 0bdc 00AF     		add	r7, sp, #0
 2462              		.cfi_def_cfa_register 7
 2463 0bde 7860     		str	r0, [r7, #4]
 532:build\openmote-cc2538_armgcc\openstack\02b-MAChigh/neighbors.c ****     uint8_t i;
 533:build\openmote-cc2538_armgcc\openstack\02b-MAChigh/neighbors.c ****     bool returnVal;
 534:build\openmote-cc2538_armgcc\openstack\02b-MAChigh/neighbors.c **** 
 535:build\openmote-cc2538_armgcc\openstack\02b-MAChigh/neighbors.c ****     returnVal = FALSE;
 2464              		.loc 1 535 0
 2465 0be0 0023     		movs	r3, #0
 2466 0be2 BB73     		strb	r3, [r7, #14]
 536:build\openmote-cc2538_armgcc\openstack\02b-MAChigh/neighbors.c ****     for (i=0;i<MAXNUMNEIGHBORS;i++){
 2467              		.loc 1 536 0
 2468 0be4 0023     		movs	r3, #0
 2469 0be6 FB73     		strb	r3, [r7, #15]
 2470 0be8 20E0     		b	.L172
 2471              	.L175:
 537:build\openmote-cc2538_armgcc\openstack\02b-MAChigh/neighbors.c ****         if (packetfunctions_sameAddress(address, &neighbors_vars.neighbors[i].addr_64b)){
 2472              		.loc 1 537 0
 2473 0bea FA7B     		ldrb	r2, [r7, #15]	@ zero_extendqisi2
 2474 0bec 1346     		mov	r3, r2
 2475 0bee 9B00     		lsls	r3, r3, #2
 2476 0bf0 1344     		add	r3, r3, r2
 2477 0bf2 DB00     		lsls	r3, r3, #3
 2478 0bf4 114A     		ldr	r2, .L177
 2479 0bf6 1344     		add	r3, r3, r2
 2480 0bf8 0533     		adds	r3, r3, #5
 2481 0bfa 1946     		mov	r1, r3
 2482 0bfc 7868     		ldr	r0, [r7, #4]
 2483 0bfe FFF7FEFF 		bl	packetfunctions_sameAddress
 2484 0c02 0346     		mov	r3, r0
 2485 0c04 002B     		cmp	r3, #0
 2486 0c06 0ED0     		beq	.L173
 538:build\openmote-cc2538_armgcc\openstack\02b-MAChigh/neighbors.c ****             returnVal = (neighbors_vars.neighbors[i].backoff==0);
 2487              		.loc 1 538 0
 2488 0c08 FA7B     		ldrb	r2, [r7, #15]	@ zero_extendqisi2
 2489 0c0a 0C49     		ldr	r1, .L177
 2490 0c0c 1346     		mov	r3, r2
 2491 0c0e 9B00     		lsls	r3, r3, #2
 2492 0c10 1344     		add	r3, r3, r2
 2493 0c12 DB00     		lsls	r3, r3, #3
 2494 0c14 0B44     		add	r3, r3, r1
 2495 0c16 2733     		adds	r3, r3, #39
 2496 0c18 1B78     		ldrb	r3, [r3]	@ zero_extendqisi2
 2497 0c1a 002B     		cmp	r3, #0
 2498 0c1c 0CBF     		ite	eq
 2499 0c1e 0123     		moveq	r3, #1
 2500 0c20 0023     		movne	r3, #0
 2501 0c22 BB73     		strb	r3, [r7, #14]
 539:build\openmote-cc2538_armgcc\openstack\02b-MAChigh/neighbors.c ****             break;
 2502              		.loc 1 539 0
 2503 0c24 05E0     		b	.L174
 2504              	.L173:
 536:build\openmote-cc2538_armgcc\openstack\02b-MAChigh/neighbors.c ****         if (packetfunctions_sameAddress(address, &neighbors_vars.neighbors[i].addr_64b)){
 2505              		.loc 1 536 0 discriminator 2
 2506 0c26 FB7B     		ldrb	r3, [r7, #15]	@ zero_extendqisi2
 2507 0c28 0133     		adds	r3, r3, #1
 2508 0c2a FB73     		strb	r3, [r7, #15]
 2509              	.L172:
 536:build\openmote-cc2538_armgcc\openstack\02b-MAChigh/neighbors.c ****         if (packetfunctions_sameAddress(address, &neighbors_vars.neighbors[i].addr_64b)){
 2510              		.loc 1 536 0 is_stmt 0 discriminator 1
 2511 0c2c FB7B     		ldrb	r3, [r7, #15]	@ zero_extendqisi2
 2512 0c2e 1D2B     		cmp	r3, #29
 2513 0c30 DBD9     		bls	.L175
 2514              	.L174:
 540:build\openmote-cc2538_armgcc\openstack\02b-MAChigh/neighbors.c ****         }
 541:build\openmote-cc2538_armgcc\openstack\02b-MAChigh/neighbors.c ****     }
 542:build\openmote-cc2538_armgcc\openstack\02b-MAChigh/neighbors.c ****     return returnVal;
 2515              		.loc 1 542 0 is_stmt 1
 2516 0c32 BB7B     		ldrb	r3, [r7, #14]	@ zero_extendqisi2
 543:build\openmote-cc2538_armgcc\openstack\02b-MAChigh/neighbors.c **** }
 2517              		.loc 1 543 0
 2518 0c34 1846     		mov	r0, r3
 2519 0c36 1037     		adds	r7, r7, #16
 2520              		.cfi_def_cfa_offset 8
 2521 0c38 BD46     		mov	sp, r7
 2522              		.cfi_def_cfa_register 13
 2523              		@ sp needed
 2524 0c3a 80BD     		pop	{r7, pc}
 2525              	.L178:
 2526              		.align	2
 2527              	.L177:
 2528 0c3c 00000000 		.word	neighbors_vars
 2529              		.cfi_endproc
 2530              	.LFE25:
 2532              		.align	1
 2533              		.global	neighbors_resetBackoff
 2534              		.syntax unified
 2535              		.thumb
 2536              		.thumb_func
 2537              		.fpu softvfp
 2539              	neighbors_resetBackoff:
 2540              	.LFB26:
 544:build\openmote-cc2538_armgcc\openstack\02b-MAChigh/neighbors.c **** 
 545:build\openmote-cc2538_armgcc\openstack\02b-MAChigh/neighbors.c **** void neighbors_resetBackoff(open_addr_t* address){
 2541              		.loc 1 545 0
 2542              		.cfi_startproc
 2543              		@ args = 0, pretend = 0, frame = 16
 2544              		@ frame_needed = 1, uses_anonymous_args = 0
 2545 0c40 80B5     		push	{r7, lr}
 2546              		.cfi_def_cfa_offset 8
 2547              		.cfi_offset 7, -8
 2548              		.cfi_offset 14, -4
 2549 0c42 84B0     		sub	sp, sp, #16
 2550              		.cfi_def_cfa_offset 24
 2551 0c44 00AF     		add	r7, sp, #0
 2552              		.cfi_def_cfa_register 7
 2553 0c46 7860     		str	r0, [r7, #4]
 546:build\openmote-cc2538_armgcc\openstack\02b-MAChigh/neighbors.c ****     uint8_t i;
 547:build\openmote-cc2538_armgcc\openstack\02b-MAChigh/neighbors.c **** 
 548:build\openmote-cc2538_armgcc\openstack\02b-MAChigh/neighbors.c ****     for (i=0;i<MAXNUMNEIGHBORS;i++){
 2554              		.loc 1 548 0
 2555 0c48 0023     		movs	r3, #0
 2556 0c4a FB73     		strb	r3, [r7, #15]
 2557 0c4c 26E0     		b	.L180
 2558              	.L183:
 549:build\openmote-cc2538_armgcc\openstack\02b-MAChigh/neighbors.c ****         if (packetfunctions_sameAddress(address, &neighbors_vars.neighbors[i].addr_64b)){
 2559              		.loc 1 549 0
 2560 0c4e FA7B     		ldrb	r2, [r7, #15]	@ zero_extendqisi2
 2561 0c50 1346     		mov	r3, r2
 2562 0c52 9B00     		lsls	r3, r3, #2
 2563 0c54 1344     		add	r3, r3, r2
 2564 0c56 DB00     		lsls	r3, r3, #3
 2565 0c58 144A     		ldr	r2, .L184
 2566 0c5a 1344     		add	r3, r3, r2
 2567 0c5c 0533     		adds	r3, r3, #5
 2568 0c5e 1946     		mov	r1, r3
 2569 0c60 7868     		ldr	r0, [r7, #4]
 2570 0c62 FFF7FEFF 		bl	packetfunctions_sameAddress
 2571 0c66 0346     		mov	r3, r0
 2572 0c68 002B     		cmp	r3, #0
 2573 0c6a 14D0     		beq	.L181
 550:build\openmote-cc2538_armgcc\openstack\02b-MAChigh/neighbors.c ****             neighbors_vars.neighbors[i].backoffExponenton     = MINBE-1;
 2574              		.loc 1 550 0
 2575 0c6c FA7B     		ldrb	r2, [r7, #15]	@ zero_extendqisi2
 2576 0c6e 0F49     		ldr	r1, .L184
 2577 0c70 1346     		mov	r3, r2
 2578 0c72 9B00     		lsls	r3, r3, #2
 2579 0c74 1344     		add	r3, r3, r2
 2580 0c76 DB00     		lsls	r3, r3, #3
 2581 0c78 0B44     		add	r3, r3, r1
 2582 0c7a 2633     		adds	r3, r3, #38
 2583 0c7c 0122     		movs	r2, #1
 2584 0c7e 1A70     		strb	r2, [r3]
 551:build\openmote-cc2538_armgcc\openstack\02b-MAChigh/neighbors.c ****             neighbors_vars.neighbors[i].backoff               = 0;
 2585              		.loc 1 551 0
 2586 0c80 FA7B     		ldrb	r2, [r7, #15]	@ zero_extendqisi2
 2587 0c82 0A49     		ldr	r1, .L184
 2588 0c84 1346     		mov	r3, r2
 2589 0c86 9B00     		lsls	r3, r3, #2
 2590 0c88 1344     		add	r3, r3, r2
 2591 0c8a DB00     		lsls	r3, r3, #3
 2592 0c8c 0B44     		add	r3, r3, r1
 2593 0c8e 2733     		adds	r3, r3, #39
 2594 0c90 0022     		movs	r2, #0
 2595 0c92 1A70     		strb	r2, [r3]
 552:build\openmote-cc2538_armgcc\openstack\02b-MAChigh/neighbors.c ****             break;
 2596              		.loc 1 552 0
 2597 0c94 05E0     		b	.L182
 2598              	.L181:
 548:build\openmote-cc2538_armgcc\openstack\02b-MAChigh/neighbors.c ****         if (packetfunctions_sameAddress(address, &neighbors_vars.neighbors[i].addr_64b)){
 2599              		.loc 1 548 0 discriminator 2
 2600 0c96 FB7B     		ldrb	r3, [r7, #15]	@ zero_extendqisi2
 2601 0c98 0133     		adds	r3, r3, #1
 2602 0c9a FB73     		strb	r3, [r7, #15]
 2603              	.L180:
 548:build\openmote-cc2538_armgcc\openstack\02b-MAChigh/neighbors.c ****         if (packetfunctions_sameAddress(address, &neighbors_vars.neighbors[i].addr_64b)){
 2604              		.loc 1 548 0 is_stmt 0 discriminator 1
 2605 0c9c FB7B     		ldrb	r3, [r7, #15]	@ zero_extendqisi2
 2606 0c9e 1D2B     		cmp	r3, #29
 2607 0ca0 D5D9     		bls	.L183
 2608              	.L182:
 553:build\openmote-cc2538_armgcc\openstack\02b-MAChigh/neighbors.c ****         }
 554:build\openmote-cc2538_armgcc\openstack\02b-MAChigh/neighbors.c ****     }
 555:build\openmote-cc2538_armgcc\openstack\02b-MAChigh/neighbors.c **** }
 2609              		.loc 1 555 0 is_stmt 1
 2610 0ca2 00BF     		nop
 2611 0ca4 1037     		adds	r7, r7, #16
 2612              		.cfi_def_cfa_offset 8
 2613 0ca6 BD46     		mov	sp, r7
 2614              		.cfi_def_cfa_register 13
 2615              		@ sp needed
 2616 0ca8 80BD     		pop	{r7, pc}
 2617              	.L185:
 2618 0caa 00BF     		.align	2
 2619              	.L184:
 2620 0cac 00000000 		.word	neighbors_vars
 2621              		.cfi_endproc
 2622              	.LFE26:
 2624              		.align	1
 2625              		.global	neighbors_setNeighborRank
 2626              		.syntax unified
 2627              		.thumb
 2628              		.thumb_func
 2629              		.fpu softvfp
 2631              	neighbors_setNeighborRank:
 2632              	.LFB27:
 556:build\openmote-cc2538_armgcc\openstack\02b-MAChigh/neighbors.c **** 
 557:build\openmote-cc2538_armgcc\openstack\02b-MAChigh/neighbors.c **** //===== setters
 558:build\openmote-cc2538_armgcc\openstack\02b-MAChigh/neighbors.c **** 
 559:build\openmote-cc2538_armgcc\openstack\02b-MAChigh/neighbors.c **** void neighbors_setNeighborRank(uint8_t index, dagrank_t rank) {
 2633              		.loc 1 559 0
 2634              		.cfi_startproc
 2635              		@ args = 0, pretend = 0, frame = 8
 2636              		@ frame_needed = 1, uses_anonymous_args = 0
 2637              		@ link register save eliminated.
 2638 0cb0 80B4     		push	{r7}
 2639              		.cfi_def_cfa_offset 4
 2640              		.cfi_offset 7, -4
 2641 0cb2 83B0     		sub	sp, sp, #12
 2642              		.cfi_def_cfa_offset 16
 2643 0cb4 00AF     		add	r7, sp, #0
 2644              		.cfi_def_cfa_register 7
 2645 0cb6 0346     		mov	r3, r0
 2646 0cb8 0A46     		mov	r2, r1
 2647 0cba FB71     		strb	r3, [r7, #7]
 2648 0cbc 1346     		mov	r3, r2	@ movhi
 2649 0cbe BB80     		strh	r3, [r7, #4]	@ movhi
 560:build\openmote-cc2538_armgcc\openstack\02b-MAChigh/neighbors.c ****    neighbors_vars.neighbors[index].DAGrank=rank;
 2650              		.loc 1 560 0
 2651 0cc0 FA79     		ldrb	r2, [r7, #7]	@ zero_extendqisi2
 2652 0cc2 0749     		ldr	r1, .L187
 2653 0cc4 1346     		mov	r3, r2
 2654 0cc6 9B00     		lsls	r3, r3, #2
 2655 0cc8 1344     		add	r3, r3, r2
 2656 0cca DB00     		lsls	r3, r3, #3
 2657 0ccc 0B44     		add	r3, r3, r1
 2658 0cce 1633     		adds	r3, r3, #22
 2659 0cd0 BA88     		ldrh	r2, [r7, #4]	@ movhi
 2660 0cd2 1A80     		strh	r2, [r3]	@ movhi
 561:build\openmote-cc2538_armgcc\openstack\02b-MAChigh/neighbors.c **** 
 562:build\openmote-cc2538_armgcc\openstack\02b-MAChigh/neighbors.c **** }
 2661              		.loc 1 562 0
 2662 0cd4 00BF     		nop
 2663 0cd6 0C37     		adds	r7, r7, #12
 2664              		.cfi_def_cfa_offset 4
 2665 0cd8 BD46     		mov	sp, r7
 2666              		.cfi_def_cfa_register 13
 2667              		@ sp needed
 2668 0cda 80BC     		pop	{r7}
 2669              		.cfi_restore 7
 2670              		.cfi_def_cfa_offset 0
 2671 0cdc 7047     		bx	lr
 2672              	.L188:
 2673 0cde 00BF     		.align	2
 2674              	.L187:
 2675 0ce0 00000000 		.word	neighbors_vars
 2676              		.cfi_endproc
 2677              	.LFE27:
 2679              		.align	1
 2680              		.global	neighbors_setNeighborNoResource
 2681              		.syntax unified
 2682              		.thumb
 2683              		.thumb_func
 2684              		.fpu softvfp
 2686              	neighbors_setNeighborNoResource:
 2687              	.LFB28:
 563:build\openmote-cc2538_armgcc\openstack\02b-MAChigh/neighbors.c **** 
 564:build\openmote-cc2538_armgcc\openstack\02b-MAChigh/neighbors.c **** void neighbors_setNeighborNoResource(open_addr_t* address){
 2688              		.loc 1 564 0
 2689              		.cfi_startproc
 2690              		@ args = 0, pretend = 0, frame = 16
 2691              		@ frame_needed = 1, uses_anonymous_args = 0
 2692 0ce4 80B5     		push	{r7, lr}
 2693              		.cfi_def_cfa_offset 8
 2694              		.cfi_offset 7, -8
 2695              		.cfi_offset 14, -4
 2696 0ce6 84B0     		sub	sp, sp, #16
 2697              		.cfi_def_cfa_offset 24
 2698 0ce8 00AF     		add	r7, sp, #0
 2699              		.cfi_def_cfa_register 7
 2700 0cea 7860     		str	r0, [r7, #4]
 565:build\openmote-cc2538_armgcc\openstack\02b-MAChigh/neighbors.c ****    uint8_t i;
 566:build\openmote-cc2538_armgcc\openstack\02b-MAChigh/neighbors.c **** 
 567:build\openmote-cc2538_armgcc\openstack\02b-MAChigh/neighbors.c ****    // loop through neighbor table
 568:build\openmote-cc2538_armgcc\openstack\02b-MAChigh/neighbors.c ****    for (i=0;i<MAXNUMNEIGHBORS;i++) {
 2701              		.loc 1 568 0
 2702 0cec 0023     		movs	r3, #0
 2703 0cee FB73     		strb	r3, [r7, #15]
 2704 0cf0 17E0     		b	.L190
 2705              	.L193:
 569:build\openmote-cc2538_armgcc\openstack\02b-MAChigh/neighbors.c ****       if (isThisRowMatching(address,i)) {
 2706              		.loc 1 569 0
 2707 0cf2 FB7B     		ldrb	r3, [r7, #15]	@ zero_extendqisi2
 2708 0cf4 1946     		mov	r1, r3
 2709 0cf6 7868     		ldr	r0, [r7, #4]
 2710 0cf8 FFF7FEFF 		bl	isThisRowMatching
 2711 0cfc 0346     		mov	r3, r0
 2712 0cfe 002B     		cmp	r3, #0
 2713 0d00 0CD0     		beq	.L191
 570:build\openmote-cc2538_armgcc\openstack\02b-MAChigh/neighbors.c ****           neighbors_vars.neighbors[i].f6PNORES = TRUE;
 2714              		.loc 1 570 0
 2715 0d02 FA7B     		ldrb	r2, [r7, #15]	@ zero_extendqisi2
 2716 0d04 0A49     		ldr	r1, .L194
 2717 0d06 1346     		mov	r3, r2
 2718 0d08 9B00     		lsls	r3, r3, #2
 2719 0d0a 1344     		add	r3, r3, r2
 2720 0d0c DB00     		lsls	r3, r3, #3
 2721 0d0e 0B44     		add	r3, r3, r1
 2722 0d10 2333     		adds	r3, r3, #35
 2723 0d12 0122     		movs	r2, #1
 2724 0d14 1A70     		strb	r2, [r3]
 571:build\openmote-cc2538_armgcc\openstack\02b-MAChigh/neighbors.c ****           icmpv6rpl_updateMyDAGrankAndParentSelection();
 2725              		.loc 1 571 0
 2726 0d16 FFF7FEFF 		bl	icmpv6rpl_updateMyDAGrankAndParentSelection
 572:build\openmote-cc2538_armgcc\openstack\02b-MAChigh/neighbors.c ****           break;
 2727              		.loc 1 572 0
 2728 0d1a 05E0     		b	.L192
 2729              	.L191:
 568:build\openmote-cc2538_armgcc\openstack\02b-MAChigh/neighbors.c ****       if (isThisRowMatching(address,i)) {
 2730              		.loc 1 568 0 discriminator 2
 2731 0d1c FB7B     		ldrb	r3, [r7, #15]	@ zero_extendqisi2
 2732 0d1e 0133     		adds	r3, r3, #1
 2733 0d20 FB73     		strb	r3, [r7, #15]
 2734              	.L190:
 568:build\openmote-cc2538_armgcc\openstack\02b-MAChigh/neighbors.c ****       if (isThisRowMatching(address,i)) {
 2735              		.loc 1 568 0 is_stmt 0 discriminator 1
 2736 0d22 FB7B     		ldrb	r3, [r7, #15]	@ zero_extendqisi2
 2737 0d24 1D2B     		cmp	r3, #29
 2738 0d26 E4D9     		bls	.L193
 2739              	.L192:
 573:build\openmote-cc2538_armgcc\openstack\02b-MAChigh/neighbors.c ****       }
 574:build\openmote-cc2538_armgcc\openstack\02b-MAChigh/neighbors.c ****    }
 575:build\openmote-cc2538_armgcc\openstack\02b-MAChigh/neighbors.c **** }
 2740              		.loc 1 575 0 is_stmt 1
 2741 0d28 00BF     		nop
 2742 0d2a 1037     		adds	r7, r7, #16
 2743              		.cfi_def_cfa_offset 8
 2744 0d2c BD46     		mov	sp, r7
 2745              		.cfi_def_cfa_register 13
 2746              		@ sp needed
 2747 0d2e 80BD     		pop	{r7, pc}
 2748              	.L195:
 2749              		.align	2
 2750              	.L194:
 2751 0d30 00000000 		.word	neighbors_vars
 2752              		.cfi_endproc
 2753              	.LFE28:
 2755              		.align	1
 2756              		.global	neighbors_setPreferredParent
 2757              		.syntax unified
 2758              		.thumb
 2759              		.thumb_func
 2760              		.fpu softvfp
 2762              	neighbors_setPreferredParent:
 2763              	.LFB29:
 576:build\openmote-cc2538_armgcc\openstack\02b-MAChigh/neighbors.c **** 
 577:build\openmote-cc2538_armgcc\openstack\02b-MAChigh/neighbors.c **** void neighbors_setPreferredParent(uint8_t index, bool isPreferred){
 2764              		.loc 1 577 0
 2765              		.cfi_startproc
 2766              		@ args = 0, pretend = 0, frame = 8
 2767              		@ frame_needed = 1, uses_anonymous_args = 0
 2768              		@ link register save eliminated.
 2769 0d34 80B4     		push	{r7}
 2770              		.cfi_def_cfa_offset 4
 2771              		.cfi_offset 7, -4
 2772 0d36 83B0     		sub	sp, sp, #12
 2773              		.cfi_def_cfa_offset 16
 2774 0d38 00AF     		add	r7, sp, #0
 2775              		.cfi_def_cfa_register 7
 2776 0d3a 0346     		mov	r3, r0
 2777 0d3c 0A46     		mov	r2, r1
 2778 0d3e FB71     		strb	r3, [r7, #7]
 2779 0d40 1346     		mov	r3, r2
 2780 0d42 BB71     		strb	r3, [r7, #6]
 578:build\openmote-cc2538_armgcc\openstack\02b-MAChigh/neighbors.c **** 
 579:build\openmote-cc2538_armgcc\openstack\02b-MAChigh/neighbors.c ****     neighbors_vars.neighbors[index].parentPreference = isPreferred;
 2781              		.loc 1 579 0
 2782 0d44 FA79     		ldrb	r2, [r7, #7]	@ zero_extendqisi2
 2783 0d46 B879     		ldrb	r0, [r7, #6]	@ zero_extendqisi2
 2784 0d48 0649     		ldr	r1, .L197
 2785 0d4a 1346     		mov	r3, r2
 2786 0d4c 9B00     		lsls	r3, r3, #2
 2787 0d4e 1344     		add	r3, r3, r2
 2788 0d50 DB00     		lsls	r3, r3, #3
 2789 0d52 0B44     		add	r3, r3, r1
 2790 0d54 0233     		adds	r3, r3, #2
 2791 0d56 0246     		mov	r2, r0
 2792 0d58 1A70     		strb	r2, [r3]
 580:build\openmote-cc2538_armgcc\openstack\02b-MAChigh/neighbors.c **** }
 2793              		.loc 1 580 0
 2794 0d5a 00BF     		nop
 2795 0d5c 0C37     		adds	r7, r7, #12
 2796              		.cfi_def_cfa_offset 4
 2797 0d5e BD46     		mov	sp, r7
 2798              		.cfi_def_cfa_register 13
 2799              		@ sp needed
 2800 0d60 80BC     		pop	{r7}
 2801              		.cfi_restore 7
 2802              		.cfi_def_cfa_offset 0
 2803 0d62 7047     		bx	lr
 2804              	.L198:
 2805              		.align	2
 2806              	.L197:
 2807 0d64 00000000 		.word	neighbors_vars
 2808              		.cfi_endproc
 2809              	.LFE29:
 2811              		.align	1
 2812              		.global	neighbor_removeAutonomousTxRxCellUnicast
 2813              		.syntax unified
 2814              		.thumb
 2815              		.thumb_func
 2816              		.fpu softvfp
 2818              	neighbor_removeAutonomousTxRxCellUnicast:
 2819              	.LFB30:
 581:build\openmote-cc2538_armgcc\openstack\02b-MAChigh/neighbors.c **** 
 582:build\openmote-cc2538_armgcc\openstack\02b-MAChigh/neighbors.c **** void neighbor_removeAutonomousTxRxCellUnicast(open_addr_t* address){
 2820              		.loc 1 582 0
 2821              		.cfi_startproc
 2822              		@ args = 0, pretend = 0, frame = 16
 2823              		@ frame_needed = 1, uses_anonymous_args = 0
 2824 0d68 80B5     		push	{r7, lr}
 2825              		.cfi_def_cfa_offset 8
 2826              		.cfi_offset 7, -8
 2827              		.cfi_offset 14, -4
 2828 0d6a 84B0     		sub	sp, sp, #16
 2829              		.cfi_def_cfa_offset 24
 2830 0d6c 00AF     		add	r7, sp, #0
 2831              		.cfi_def_cfa_register 7
 2832 0d6e 7860     		str	r0, [r7, #4]
 583:build\openmote-cc2538_armgcc\openstack\02b-MAChigh/neighbors.c **** 
 584:build\openmote-cc2538_armgcc\openstack\02b-MAChigh/neighbors.c ****     uint16_t moteId;
 585:build\openmote-cc2538_armgcc\openstack\02b-MAChigh/neighbors.c ****     uint16_t slotoffset;
 586:build\openmote-cc2538_armgcc\openstack\02b-MAChigh/neighbors.c ****     uint16_t temp_slotoffset;
 587:build\openmote-cc2538_armgcc\openstack\02b-MAChigh/neighbors.c **** 
 588:build\openmote-cc2538_armgcc\openstack\02b-MAChigh/neighbors.c ****     moteId = 256*address->addr_64b[6]+address->addr_64b[7];
 2833              		.loc 1 588 0
 2834 0d70 7B68     		ldr	r3, [r7, #4]
 2835 0d72 DB79     		ldrb	r3, [r3, #7]	@ zero_extendqisi2
 2836 0d74 9BB2     		uxth	r3, r3
 2837 0d76 1B02     		lsls	r3, r3, #8
 2838 0d78 9AB2     		uxth	r2, r3
 2839 0d7a 7B68     		ldr	r3, [r7, #4]
 2840 0d7c 1B7A     		ldrb	r3, [r3, #8]	@ zero_extendqisi2
 2841 0d7e 9BB2     		uxth	r3, r3
 2842 0d80 1344     		add	r3, r3, r2
 2843 0d82 FB81     		strh	r3, [r7, #14]	@ movhi
 589:build\openmote-cc2538_armgcc\openstack\02b-MAChigh/neighbors.c ****     slotoffset          = msf_hashFunction_getSlotoffset(moteId);
 2844              		.loc 1 589 0
 2845 0d84 FB89     		ldrh	r3, [r7, #14]
 2846 0d86 1846     		mov	r0, r3
 2847 0d88 FFF7FEFF 		bl	msf_hashFunction_getSlotoffset
 2848 0d8c 0346     		mov	r3, r0
 2849 0d8e BB81     		strh	r3, [r7, #12]	@ movhi
 590:build\openmote-cc2538_armgcc\openstack\02b-MAChigh/neighbors.c **** 
 591:build\openmote-cc2538_armgcc\openstack\02b-MAChigh/neighbors.c ****     if (
 592:build\openmote-cc2538_armgcc\openstack\02b-MAChigh/neighbors.c ****         schedule_getAutonomousTxRxCellAnycast(&temp_slotoffset) &&
 2850              		.loc 1 592 0
 2851 0d90 07F10A03 		add	r3, r7, #10
 2852 0d94 1846     		mov	r0, r3
 2853 0d96 FFF7FEFF 		bl	schedule_getAutonomousTxRxCellAnycast
 2854 0d9a 0346     		mov	r3, r0
 591:build\openmote-cc2538_armgcc\openstack\02b-MAChigh/neighbors.c ****         schedule_getAutonomousTxRxCellAnycast(&temp_slotoffset) &&
 2855              		.loc 1 591 0
 2856 0d9c 002B     		cmp	r3, #0
 2857 0d9e 07D0     		beq	.L200
 593:build\openmote-cc2538_armgcc\openstack\02b-MAChigh/neighbors.c ****         temp_slotoffset == slotoffset
 2858              		.loc 1 593 0
 2859 0da0 7B89     		ldrh	r3, [r7, #10]
 592:build\openmote-cc2538_armgcc\openstack\02b-MAChigh/neighbors.c ****         temp_slotoffset == slotoffset
 2860              		.loc 1 592 0
 2861 0da2 BA89     		ldrh	r2, [r7, #12]
 2862 0da4 9A42     		cmp	r2, r3
 2863 0da6 03D1     		bne	.L200
 594:build\openmote-cc2538_armgcc\openstack\02b-MAChigh/neighbors.c ****     ){
 595:build\openmote-cc2538_armgcc\openstack\02b-MAChigh/neighbors.c ****         msf_setHashCollisionFlag(FALSE);
 2864              		.loc 1 595 0
 2865 0da8 0020     		movs	r0, #0
 2866 0daa FFF7FEFF 		bl	msf_setHashCollisionFlag
 2867 0dae 04E0     		b	.L201
 2868              	.L200:
 596:build\openmote-cc2538_armgcc\openstack\02b-MAChigh/neighbors.c ****     } else {
 597:build\openmote-cc2538_armgcc\openstack\02b-MAChigh/neighbors.c ****         schedule_removeActiveSlot(
 2869              		.loc 1 597 0
 2870 0db0 BB89     		ldrh	r3, [r7, #12]
 2871 0db2 7968     		ldr	r1, [r7, #4]
 2872 0db4 1846     		mov	r0, r3
 2873 0db6 FFF7FEFF 		bl	schedule_removeActiveSlot
 2874              	.L201:
 598:build\openmote-cc2538_armgcc\openstack\02b-MAChigh/neighbors.c ****             slotoffset,             // slotoffset
 599:build\openmote-cc2538_armgcc\openstack\02b-MAChigh/neighbors.c ****             address                 // neighbor
 600:build\openmote-cc2538_armgcc\openstack\02b-MAChigh/neighbors.c ****         );
 601:build\openmote-cc2538_armgcc\openstack\02b-MAChigh/neighbors.c ****     }
 602:build\openmote-cc2538_armgcc\openstack\02b-MAChigh/neighbors.c **** }
 2875              		.loc 1 602 0
 2876 0dba 00BF     		nop
 2877 0dbc 1037     		adds	r7, r7, #16
 2878              		.cfi_def_cfa_offset 8
 2879 0dbe BD46     		mov	sp, r7
 2880              		.cfi_def_cfa_register 13
 2881              		@ sp needed
 2882 0dc0 80BD     		pop	{r7, pc}
 2883              		.cfi_endproc
 2884              	.LFE30:
 2886              		.align	1
 2887              		.global	neighbor_removeAllAutonomousTxRxCellUnicast
 2888              		.syntax unified
 2889              		.thumb
 2890              		.thumb_func
 2891              		.fpu softvfp
 2893              	neighbor_removeAllAutonomousTxRxCellUnicast:
 2894              	.LFB31:
 603:build\openmote-cc2538_armgcc\openstack\02b-MAChigh/neighbors.c **** 
 604:build\openmote-cc2538_armgcc\openstack\02b-MAChigh/neighbors.c **** void neighbor_removeAllAutonomousTxRxCellUnicast(void){
 2895              		.loc 1 604 0
 2896              		.cfi_startproc
 2897              		@ args = 0, pretend = 0, frame = 0
 2898              		@ frame_needed = 1, uses_anonymous_args = 0
 2899 0dc2 80B5     		push	{r7, lr}
 2900              		.cfi_def_cfa_offset 8
 2901              		.cfi_offset 7, -8
 2902              		.cfi_offset 14, -4
 2903 0dc4 00AF     		add	r7, sp, #0
 2904              		.cfi_def_cfa_register 7
 605:build\openmote-cc2538_armgcc\openstack\02b-MAChigh/neighbors.c **** 
 606:build\openmote-cc2538_armgcc\openstack\02b-MAChigh/neighbors.c ****     schedule_removeAllAutonomousTxRxCellUnicast();
 2905              		.loc 1 606 0
 2906 0dc6 FFF7FEFF 		bl	schedule_removeAllAutonomousTxRxCellUnicast
 607:build\openmote-cc2538_armgcc\openstack\02b-MAChigh/neighbors.c **** }
 2907              		.loc 1 607 0
 2908 0dca 00BF     		nop
 2909 0dcc 80BD     		pop	{r7, pc}
 2910              		.cfi_endproc
 2911              	.LFE31:
 2913              		.align	1
 2914              		.global	neighbors_getLinkMetric
 2915              		.syntax unified
 2916              		.thumb
 2917              		.thumb_func
 2918              		.fpu softvfp
 2920              	neighbors_getLinkMetric:
 2921              	.LFB32:
 608:build\openmote-cc2538_armgcc\openstack\02b-MAChigh/neighbors.c **** 
 609:build\openmote-cc2538_armgcc\openstack\02b-MAChigh/neighbors.c **** //===== managing routing info
 610:build\openmote-cc2538_armgcc\openstack\02b-MAChigh/neighbors.c **** 
 611:build\openmote-cc2538_armgcc\openstack\02b-MAChigh/neighbors.c **** /**
 612:build\openmote-cc2538_armgcc\openstack\02b-MAChigh/neighbors.c **** \brief return the link cost to a neighbor, expressed as a rank increase from this neighbor to this 
 613:build\openmote-cc2538_armgcc\openstack\02b-MAChigh/neighbors.c **** 
 614:build\openmote-cc2538_armgcc\openstack\02b-MAChigh/neighbors.c **** This really belongs to icmpv6rpl but it would require a much more complex interface to the neighbor
 615:build\openmote-cc2538_armgcc\openstack\02b-MAChigh/neighbors.c **** */
 616:build\openmote-cc2538_armgcc\openstack\02b-MAChigh/neighbors.c **** 
 617:build\openmote-cc2538_armgcc\openstack\02b-MAChigh/neighbors.c **** uint16_t neighbors_getLinkMetric(uint8_t index) {
 2922              		.loc 1 617 0
 2923              		.cfi_startproc
 2924              		@ args = 0, pretend = 0, frame = 16
 2925              		@ frame_needed = 1, uses_anonymous_args = 0
 2926              		@ link register save eliminated.
 2927 0dce 80B4     		push	{r7}
 2928              		.cfi_def_cfa_offset 4
 2929              		.cfi_offset 7, -4
 2930 0dd0 85B0     		sub	sp, sp, #20
 2931              		.cfi_def_cfa_offset 24
 2932 0dd2 00AF     		add	r7, sp, #0
 2933              		.cfi_def_cfa_register 7
 2934 0dd4 0346     		mov	r3, r0
 2935 0dd6 FB71     		strb	r3, [r7, #7]
 618:build\openmote-cc2538_armgcc\openstack\02b-MAChigh/neighbors.c ****     uint16_t  rankIncrease;
 619:build\openmote-cc2538_armgcc\openstack\02b-MAChigh/neighbors.c ****     uint32_t  rankIncreaseIntermediary; // stores intermediary results of rankIncrease calculation
 620:build\openmote-cc2538_armgcc\openstack\02b-MAChigh/neighbors.c **** 
 621:build\openmote-cc2538_armgcc\openstack\02b-MAChigh/neighbors.c ****     // we assume that this neighbor has already been checked for being in use
 622:build\openmote-cc2538_armgcc\openstack\02b-MAChigh/neighbors.c ****     // calculate link cost to this neighbor
 623:build\openmote-cc2538_armgcc\openstack\02b-MAChigh/neighbors.c ****     if (neighbors_vars.neighbors[index].numTxACK==0) {
 2936              		.loc 1 623 0
 2937 0dd8 FA79     		ldrb	r2, [r7, #7]	@ zero_extendqisi2
 2938 0dda 4249     		ldr	r1, .L213
 2939 0ddc 1346     		mov	r3, r2
 2940 0dde 9B00     		lsls	r3, r3, #2
 2941 0de0 1344     		add	r3, r3, r2
 2942 0de2 DB00     		lsls	r3, r3, #3
 2943 0de4 0B44     		add	r3, r3, r1
 2944 0de6 1B33     		adds	r3, r3, #27
 2945 0de8 1B78     		ldrb	r3, [r3]	@ zero_extendqisi2
 2946 0dea 002B     		cmp	r3, #0
 2947 0dec 2FD1     		bne	.L204
 624:build\openmote-cc2538_armgcc\openstack\02b-MAChigh/neighbors.c ****         if (neighbors_vars.neighbors[index].numTx > DEFAULTLINKCOST){
 2948              		.loc 1 624 0
 2949 0dee FA79     		ldrb	r2, [r7, #7]	@ zero_extendqisi2
 2950 0df0 3C49     		ldr	r1, .L213
 2951 0df2 1346     		mov	r3, r2
 2952 0df4 9B00     		lsls	r3, r3, #2
 2953 0df6 1344     		add	r3, r3, r2
 2954 0df8 DB00     		lsls	r3, r3, #3
 2955 0dfa 0B44     		add	r3, r3, r1
 2956 0dfc 1A33     		adds	r3, r3, #26
 2957 0dfe 1B78     		ldrb	r3, [r3]	@ zero_extendqisi2
 2958 0e00 042B     		cmp	r3, #4
 2959 0e02 20D9     		bls	.L205
 625:build\openmote-cc2538_armgcc\openstack\02b-MAChigh/neighbors.c ****             if (neighbors_vars.neighbors[index].numTx < MINIMAL_NUM_TX){
 2960              		.loc 1 625 0
 2961 0e04 FA79     		ldrb	r2, [r7, #7]	@ zero_extendqisi2
 2962 0e06 3749     		ldr	r1, .L213
 2963 0e08 1346     		mov	r3, r2
 2964 0e0a 9B00     		lsls	r3, r3, #2
 2965 0e0c 1344     		add	r3, r3, r2
 2966 0e0e DB00     		lsls	r3, r3, #3
 2967 0e10 0B44     		add	r3, r3, r1
 2968 0e12 1A33     		adds	r3, r3, #26
 2969 0e14 1B78     		ldrb	r3, [r3]	@ zero_extendqisi2
 2970 0e16 0F2B     		cmp	r3, #15
 2971 0e18 11D8     		bhi	.L206
 626:build\openmote-cc2538_armgcc\openstack\02b-MAChigh/neighbors.c ****                 rankIncrease = (3*neighbors_vars.neighbors[index].numTx-2)*MINHOPRANKINCREASE;
 2972              		.loc 1 626 0
 2973 0e1a FA79     		ldrb	r2, [r7, #7]	@ zero_extendqisi2
 2974 0e1c 3149     		ldr	r1, .L213
 2975 0e1e 1346     		mov	r3, r2
 2976 0e20 9B00     		lsls	r3, r3, #2
 2977 0e22 1344     		add	r3, r3, r2
 2978 0e24 DB00     		lsls	r3, r3, #3
 2979 0e26 0B44     		add	r3, r3, r1
 2980 0e28 1A33     		adds	r3, r3, #26
 2981 0e2a 1B78     		ldrb	r3, [r3]	@ zero_extendqisi2
 2982 0e2c 1A46     		mov	r2, r3
 2983 0e2e 1346     		mov	r3, r2
 2984 0e30 5B00     		lsls	r3, r3, #1
 2985 0e32 1344     		add	r3, r3, r2
 2986 0e34 023B     		subs	r3, r3, #2
 2987 0e36 9BB2     		uxth	r3, r3
 2988 0e38 1B02     		lsls	r3, r3, #8
 2989 0e3a FB81     		strh	r3, [r7, #14]	@ movhi
 2990 0e3c 4CE0     		b	.L209
 2991              	.L206:
 627:build\openmote-cc2538_armgcc\openstack\02b-MAChigh/neighbors.c ****             } else {
 628:build\openmote-cc2538_armgcc\openstack\02b-MAChigh/neighbors.c ****                 rankIncrease = 65535;
 2992              		.loc 1 628 0
 2993 0e3e 4FF6FF73 		movw	r3, #65535
 2994 0e42 FB81     		strh	r3, [r7, #14]	@ movhi
 2995 0e44 48E0     		b	.L209
 2996              	.L205:
 629:build\openmote-cc2538_armgcc\openstack\02b-MAChigh/neighbors.c ****             }
 630:build\openmote-cc2538_armgcc\openstack\02b-MAChigh/neighbors.c ****         } else {
 631:build\openmote-cc2538_armgcc\openstack\02b-MAChigh/neighbors.c ****             rankIncrease = (3*DEFAULTLINKCOST-2)*MINHOPRANKINCREASE;
 2997              		.loc 1 631 0
 2998 0e46 4FF42063 		mov	r3, #2560
 2999 0e4a FB81     		strh	r3, [r7, #14]	@ movhi
 3000 0e4c 44E0     		b	.L209
 3001              	.L204:
 632:build\openmote-cc2538_armgcc\openstack\02b-MAChigh/neighbors.c ****         }
 633:build\openmote-cc2538_armgcc\openstack\02b-MAChigh/neighbors.c ****     } else {
 634:build\openmote-cc2538_armgcc\openstack\02b-MAChigh/neighbors.c ****         //6TiSCH minimal draft using OF0 for rank computation: ((3*numTx/numTxAck)-2)*minHopRankInc
 635:build\openmote-cc2538_armgcc\openstack\02b-MAChigh/neighbors.c ****         // numTx is on 8 bits, so scaling up 10 bits won't lead to saturation
 636:build\openmote-cc2538_armgcc\openstack\02b-MAChigh/neighbors.c ****         // but this <<10 followed by >>10 does not provide any benefit either. Result is the same.
 637:build\openmote-cc2538_armgcc\openstack\02b-MAChigh/neighbors.c ****         rankIncreaseIntermediary = (((uint32_t)neighbors_vars.neighbors[index].numTx) << 10);
 3002              		.loc 1 637 0
 3003 0e4e FA79     		ldrb	r2, [r7, #7]	@ zero_extendqisi2
 3004 0e50 2449     		ldr	r1, .L213
 3005 0e52 1346     		mov	r3, r2
 3006 0e54 9B00     		lsls	r3, r3, #2
 3007 0e56 1344     		add	r3, r3, r2
 3008 0e58 DB00     		lsls	r3, r3, #3
 3009 0e5a 0B44     		add	r3, r3, r1
 3010 0e5c 1A33     		adds	r3, r3, #26
 3011 0e5e 1B78     		ldrb	r3, [r3]	@ zero_extendqisi2
 3012 0e60 9B02     		lsls	r3, r3, #10
 3013 0e62 BB60     		str	r3, [r7, #8]
 638:build\openmote-cc2538_armgcc\openstack\02b-MAChigh/neighbors.c ****         rankIncreaseIntermediary = (3*rankIncreaseIntermediary * MINHOPRANKINCREASE) / ((uint32_t)n
 3014              		.loc 1 638 0
 3015 0e64 BA68     		ldr	r2, [r7, #8]
 3016 0e66 1346     		mov	r3, r2
 3017 0e68 5B00     		lsls	r3, r3, #1
 3018 0e6a 1344     		add	r3, r3, r2
 3019 0e6c 1B02     		lsls	r3, r3, #8
 3020 0e6e 1846     		mov	r0, r3
 3021 0e70 FA79     		ldrb	r2, [r7, #7]	@ zero_extendqisi2
 3022 0e72 1C49     		ldr	r1, .L213
 3023 0e74 1346     		mov	r3, r2
 3024 0e76 9B00     		lsls	r3, r3, #2
 3025 0e78 1344     		add	r3, r3, r2
 3026 0e7a DB00     		lsls	r3, r3, #3
 3027 0e7c 0B44     		add	r3, r3, r1
 3028 0e7e 1B33     		adds	r3, r3, #27
 3029 0e80 1B78     		ldrb	r3, [r3]	@ zero_extendqisi2
 3030 0e82 B0FBF3F3 		udiv	r3, r0, r3
 3031 0e86 BB60     		str	r3, [r7, #8]
 639:build\openmote-cc2538_armgcc\openstack\02b-MAChigh/neighbors.c ****         rankIncreaseIntermediary = rankIncreaseIntermediary - ((uint32_t)(2 * MINHOPRANKINCREASE)<<
 3032              		.loc 1 639 0
 3033 0e88 BB68     		ldr	r3, [r7, #8]
 3034 0e8a A3F50023 		sub	r3, r3, #524288
 3035 0e8e BB60     		str	r3, [r7, #8]
 640:build\openmote-cc2538_armgcc\openstack\02b-MAChigh/neighbors.c ****         // this could still overflow for numTx large and numTxAck small, Casting to 16 bits will yi
 641:build\openmote-cc2538_armgcc\openstack\02b-MAChigh/neighbors.c ****         if (rankIncreaseIntermediary >= (65536<<10)) {
 3036              		.loc 1 641 0
 3037 0e90 BB68     		ldr	r3, [r7, #8]
 3038 0e92 B3F1806F 		cmp	r3, #67108864
 3039 0e96 03D3     		bcc	.L210
 642:build\openmote-cc2538_armgcc\openstack\02b-MAChigh/neighbors.c ****             rankIncrease = 65535;
 3040              		.loc 1 642 0
 3041 0e98 4FF6FF73 		movw	r3, #65535
 3042 0e9c FB81     		strh	r3, [r7, #14]	@ movhi
 3043 0e9e 02E0     		b	.L211
 3044              	.L210:
 643:build\openmote-cc2538_armgcc\openstack\02b-MAChigh/neighbors.c ****         } else {
 644:build\openmote-cc2538_armgcc\openstack\02b-MAChigh/neighbors.c ****             rankIncrease = (uint16_t)(rankIncreaseIntermediary >> 10);
 3045              		.loc 1 644 0
 3046 0ea0 BB68     		ldr	r3, [r7, #8]
 3047 0ea2 9B0A     		lsrs	r3, r3, #10
 3048 0ea4 FB81     		strh	r3, [r7, #14]	@ movhi
 3049              	.L211:
 645:build\openmote-cc2538_armgcc\openstack\02b-MAChigh/neighbors.c ****         }
 646:build\openmote-cc2538_armgcc\openstack\02b-MAChigh/neighbors.c **** 
 647:build\openmote-cc2538_armgcc\openstack\02b-MAChigh/neighbors.c ****         if (
 3050              		.loc 1 647 0
 3051 0ea6 FB89     		ldrh	r3, [r7, #14]
 3052 0ea8 B3F5206F 		cmp	r3, #2560
 3053 0eac 14D9     		bls	.L209
 648:build\openmote-cc2538_armgcc\openstack\02b-MAChigh/neighbors.c ****             rankIncrease>(3*DEFAULTLINKCOST-2)*MINHOPRANKINCREASE &&
 649:build\openmote-cc2538_armgcc\openstack\02b-MAChigh/neighbors.c ****             neighbors_vars.neighbors[index].numTx > MINIMAL_NUM_TX
 3054              		.loc 1 649 0
 3055 0eae FA79     		ldrb	r2, [r7, #7]	@ zero_extendqisi2
 3056 0eb0 0C49     		ldr	r1, .L213
 3057 0eb2 1346     		mov	r3, r2
 3058 0eb4 9B00     		lsls	r3, r3, #2
 3059 0eb6 1344     		add	r3, r3, r2
 3060 0eb8 DB00     		lsls	r3, r3, #3
 3061 0eba 0B44     		add	r3, r3, r1
 3062 0ebc 1A33     		adds	r3, r3, #26
 3063 0ebe 1B78     		ldrb	r3, [r3]	@ zero_extendqisi2
 648:build\openmote-cc2538_armgcc\openstack\02b-MAChigh/neighbors.c ****             rankIncrease>(3*DEFAULTLINKCOST-2)*MINHOPRANKINCREASE &&
 3064              		.loc 1 648 0
 3065 0ec0 102B     		cmp	r3, #16
 3066 0ec2 09D9     		bls	.L209
 650:build\openmote-cc2538_armgcc\openstack\02b-MAChigh/neighbors.c ****         ){
 651:build\openmote-cc2538_armgcc\openstack\02b-MAChigh/neighbors.c ****             // PDR too low, put the neighbor in blacklist
 652:build\openmote-cc2538_armgcc\openstack\02b-MAChigh/neighbors.c ****             neighbors_vars.neighbors[index].inBlacklist = TRUE;
 3067              		.loc 1 652 0
 3068 0ec4 FA79     		ldrb	r2, [r7, #7]	@ zero_extendqisi2
 3069 0ec6 0749     		ldr	r1, .L213
 3070 0ec8 1346     		mov	r3, r2
 3071 0eca 9B00     		lsls	r3, r3, #2
 3072 0ecc 1344     		add	r3, r3, r2
 3073 0ece DB00     		lsls	r3, r3, #3
 3074 0ed0 0B44     		add	r3, r3, r1
 3075 0ed2 2433     		adds	r3, r3, #36
 3076 0ed4 0122     		movs	r2, #1
 3077 0ed6 1A70     		strb	r2, [r3]
 3078              	.L209:
 653:build\openmote-cc2538_armgcc\openstack\02b-MAChigh/neighbors.c ****         }
 654:build\openmote-cc2538_armgcc\openstack\02b-MAChigh/neighbors.c ****     }
 655:build\openmote-cc2538_armgcc\openstack\02b-MAChigh/neighbors.c ****     return rankIncrease;
 3079              		.loc 1 655 0
 3080 0ed8 FB89     		ldrh	r3, [r7, #14]
 656:build\openmote-cc2538_armgcc\openstack\02b-MAChigh/neighbors.c **** }
 3081              		.loc 1 656 0
 3082 0eda 1846     		mov	r0, r3
 3083 0edc 1437     		adds	r7, r7, #20
 3084              		.cfi_def_cfa_offset 4
 3085 0ede BD46     		mov	sp, r7
 3086              		.cfi_def_cfa_register 13
 3087              		@ sp needed
 3088 0ee0 80BC     		pop	{r7}
 3089              		.cfi_restore 7
 3090              		.cfi_def_cfa_offset 0
 3091 0ee2 7047     		bx	lr
 3092              	.L214:
 3093              		.align	2
 3094              	.L213:
 3095 0ee4 00000000 		.word	neighbors_vars
 3096              		.cfi_endproc
 3097              	.LFE32:
 3099              		.align	1
 3100              		.global	neighbors_removeOld
 3101              		.syntax unified
 3102              		.thumb
 3103              		.thumb_func
 3104              		.fpu softvfp
 3106              	neighbors_removeOld:
 3107              	.LFB33:
 657:build\openmote-cc2538_armgcc\openstack\02b-MAChigh/neighbors.c **** 
 658:build\openmote-cc2538_armgcc\openstack\02b-MAChigh/neighbors.c **** //===== maintenance
 659:build\openmote-cc2538_armgcc\openstack\02b-MAChigh/neighbors.c **** 
 660:build\openmote-cc2538_armgcc\openstack\02b-MAChigh/neighbors.c **** void  neighbors_removeOld(void) {
 3108              		.loc 1 660 0
 3109              		.cfi_startproc
 3110              		@ args = 0, pretend = 0, frame = 32
 3111              		@ frame_needed = 1, uses_anonymous_args = 0
 3112 0ee8 80B5     		push	{r7, lr}
 3113              		.cfi_def_cfa_offset 8
 3114              		.cfi_offset 7, -8
 3115              		.cfi_offset 14, -4
 3116 0eea 88B0     		sub	sp, sp, #32
 3117              		.cfi_def_cfa_offset 40
 3118 0eec 00AF     		add	r7, sp, #0
 3119              		.cfi_def_cfa_register 7
 661:build\openmote-cc2538_armgcc\openstack\02b-MAChigh/neighbors.c ****     uint8_t    i;
 662:build\openmote-cc2538_armgcc\openstack\02b-MAChigh/neighbors.c ****     PORT_TIMER_WIDTH timeSinceHeard;
 663:build\openmote-cc2538_armgcc\openstack\02b-MAChigh/neighbors.c ****     open_addr_t addressToWrite;
 664:build\openmote-cc2538_armgcc\openstack\02b-MAChigh/neighbors.c **** 
 665:build\openmote-cc2538_armgcc\openstack\02b-MAChigh/neighbors.c ****     if (
 666:build\openmote-cc2538_armgcc\openstack\02b-MAChigh/neighbors.c ****         icmpv6rpl_getPreferredParentEui64(&addressToWrite) == FALSE      ||
 3120              		.loc 1 666 0
 3121 0eee 3B1D     		adds	r3, r7, #4
 3122 0ef0 1846     		mov	r0, r3
 3123 0ef2 FFF7FEFF 		bl	icmpv6rpl_getPreferredParentEui64
 3124 0ef6 0346     		mov	r3, r0
 3125 0ef8 83F00103 		eor	r3, r3, #1
 3126 0efc DBB2     		uxtb	r3, r3
 665:build\openmote-cc2538_armgcc\openstack\02b-MAChigh/neighbors.c ****         icmpv6rpl_getPreferredParentEui64(&addressToWrite) == FALSE      ||
 3127              		.loc 1 665 0
 3128 0efe 002B     		cmp	r3, #0
 3129 0f00 61D1     		bne	.L222
 667:build\openmote-cc2538_armgcc\openstack\02b-MAChigh/neighbors.c ****         (
 668:build\openmote-cc2538_armgcc\openstack\02b-MAChigh/neighbors.c ****             icmpv6rpl_getPreferredParentEui64(&addressToWrite)           &&
 3130              		.loc 1 668 0
 3131 0f02 3B1D     		adds	r3, r7, #4
 3132 0f04 1846     		mov	r0, r3
 3133 0f06 FFF7FEFF 		bl	icmpv6rpl_getPreferredParentEui64
 3134 0f0a 0346     		mov	r3, r0
 666:build\openmote-cc2538_armgcc\openstack\02b-MAChigh/neighbors.c ****         (
 3135              		.loc 1 666 0
 3136 0f0c 002B     		cmp	r3, #0
 3137 0f0e 09D0     		beq	.L217
 669:build\openmote-cc2538_armgcc\openstack\02b-MAChigh/neighbors.c ****             schedule_hasAutonomousTxRxCellUnicast(&addressToWrite)== FALSE
 3138              		.loc 1 669 0
 3139 0f10 3B1D     		adds	r3, r7, #4
 3140 0f12 1846     		mov	r0, r3
 3141 0f14 FFF7FEFF 		bl	schedule_hasAutonomousTxRxCellUnicast
 3142 0f18 0346     		mov	r3, r0
 3143 0f1a 83F00103 		eor	r3, r3, #1
 3144 0f1e DBB2     		uxtb	r3, r3
 668:build\openmote-cc2538_armgcc\openstack\02b-MAChigh/neighbors.c ****             schedule_hasAutonomousTxRxCellUnicast(&addressToWrite)== FALSE
 3145              		.loc 1 668 0
 3146 0f20 002B     		cmp	r3, #0
 3147 0f22 50D1     		bne	.L222
 3148              	.L217:
 670:build\openmote-cc2538_armgcc\openstack\02b-MAChigh/neighbors.c ****         )
 671:build\openmote-cc2538_armgcc\openstack\02b-MAChigh/neighbors.c ****     ) {
 672:build\openmote-cc2538_armgcc\openstack\02b-MAChigh/neighbors.c ****         return;
 673:build\openmote-cc2538_armgcc\openstack\02b-MAChigh/neighbors.c ****     }
 674:build\openmote-cc2538_armgcc\openstack\02b-MAChigh/neighbors.c **** 
 675:build\openmote-cc2538_armgcc\openstack\02b-MAChigh/neighbors.c ****     // remove old neighbor
 676:build\openmote-cc2538_armgcc\openstack\02b-MAChigh/neighbors.c ****     for (i=0;i<MAXNUMNEIGHBORS;i++) {
 3149              		.loc 1 676 0
 3150 0f24 0023     		movs	r3, #0
 3151 0f26 FB77     		strb	r3, [r7, #31]
 3152 0f28 49E0     		b	.L219
 3153              	.L221:
 677:build\openmote-cc2538_armgcc\openstack\02b-MAChigh/neighbors.c ****         if (neighbors_vars.neighbors[i].used==1) {
 3154              		.loc 1 677 0
 3155 0f2a FA7F     		ldrb	r2, [r7, #31]	@ zero_extendqisi2
 3156 0f2c 2849     		ldr	r1, .L223
 3157 0f2e 1346     		mov	r3, r2
 3158 0f30 9B00     		lsls	r3, r3, #2
 3159 0f32 1344     		add	r3, r3, r2
 3160 0f34 DB00     		lsls	r3, r3, #3
 3161 0f36 0B44     		add	r3, r3, r1
 3162 0f38 1B78     		ldrb	r3, [r3]	@ zero_extendqisi2
 3163 0f3a 002B     		cmp	r3, #0
 3164 0f3c 3CD0     		beq	.L220
 678:build\openmote-cc2538_armgcc\openstack\02b-MAChigh/neighbors.c ****             timeSinceHeard = ieee154e_asnDiff(&neighbors_vars.neighbors[i].asn);
 3165              		.loc 1 678 0
 3166 0f3e FA7F     		ldrb	r2, [r7, #31]	@ zero_extendqisi2
 3167 0f40 1346     		mov	r3, r2
 3168 0f42 9B00     		lsls	r3, r3, #2
 3169 0f44 1344     		add	r3, r3, r2
 3170 0f46 DB00     		lsls	r3, r3, #3
 3171 0f48 1833     		adds	r3, r3, #24
 3172 0f4a 214A     		ldr	r2, .L223
 3173 0f4c 1344     		add	r3, r3, r2
 3174 0f4e 0533     		adds	r3, r3, #5
 3175 0f50 1846     		mov	r0, r3
 3176 0f52 FFF7FEFF 		bl	ieee154e_asnDiff
 3177 0f56 B861     		str	r0, [r7, #24]
 679:build\openmote-cc2538_armgcc\openstack\02b-MAChigh/neighbors.c ****             if (timeSinceHeard>(2*DESYNCTIMEOUT)) {
 3178              		.loc 1 679 0
 3179 0f58 BB69     		ldr	r3, [r7, #24]
 3180 0f5a 40F6AC52 		movw	r2, #3500
 3181 0f5e 9342     		cmp	r3, r2
 3182 0f60 2AD9     		bls	.L220
 680:build\openmote-cc2538_armgcc\openstack\02b-MAChigh/neighbors.c **** 
 681:build\openmote-cc2538_armgcc\openstack\02b-MAChigh/neighbors.c ****                 /**
 682:build\openmote-cc2538_armgcc\openstack\02b-MAChigh/neighbors.c ****                     don't remove neighbor marked as:
 683:build\openmote-cc2538_armgcc\openstack\02b-MAChigh/neighbors.c ****                     - 6P no resource
 684:build\openmote-cc2538_armgcc\openstack\02b-MAChigh/neighbors.c ****                     - in blacklist
 685:build\openmote-cc2538_armgcc\openstack\02b-MAChigh/neighbors.c ****                     - pareferred parent
 686:build\openmote-cc2538_armgcc\openstack\02b-MAChigh/neighbors.c ****                 */
 687:build\openmote-cc2538_armgcc\openstack\02b-MAChigh/neighbors.c **** 
 688:build\openmote-cc2538_armgcc\openstack\02b-MAChigh/neighbors.c ****                 if (
 689:build\openmote-cc2538_armgcc\openstack\02b-MAChigh/neighbors.c ****                     neighbors_vars.neighbors[i].f6PNORES         == FALSE &&
 3183              		.loc 1 689 0
 3184 0f62 FA7F     		ldrb	r2, [r7, #31]	@ zero_extendqisi2
 3185 0f64 1A49     		ldr	r1, .L223
 3186 0f66 1346     		mov	r3, r2
 3187 0f68 9B00     		lsls	r3, r3, #2
 3188 0f6a 1344     		add	r3, r3, r2
 3189 0f6c DB00     		lsls	r3, r3, #3
 3190 0f6e 0B44     		add	r3, r3, r1
 3191 0f70 2333     		adds	r3, r3, #35
 3192 0f72 1B78     		ldrb	r3, [r3]	@ zero_extendqisi2
 3193 0f74 83F00103 		eor	r3, r3, #1
 3194 0f78 DBB2     		uxtb	r3, r3
 688:build\openmote-cc2538_armgcc\openstack\02b-MAChigh/neighbors.c ****                     neighbors_vars.neighbors[i].f6PNORES         == FALSE &&
 3195              		.loc 1 688 0
 3196 0f7a 002B     		cmp	r3, #0
 3197 0f7c 1CD0     		beq	.L220
 690:build\openmote-cc2538_armgcc\openstack\02b-MAChigh/neighbors.c ****                     neighbors_vars.neighbors[i].inBlacklist      == FALSE &&
 3198              		.loc 1 690 0
 3199 0f7e FA7F     		ldrb	r2, [r7, #31]	@ zero_extendqisi2
 3200 0f80 1349     		ldr	r1, .L223
 3201 0f82 1346     		mov	r3, r2
 3202 0f84 9B00     		lsls	r3, r3, #2
 3203 0f86 1344     		add	r3, r3, r2
 3204 0f88 DB00     		lsls	r3, r3, #3
 3205 0f8a 0B44     		add	r3, r3, r1
 3206 0f8c 2433     		adds	r3, r3, #36
 3207 0f8e 1B78     		ldrb	r3, [r3]	@ zero_extendqisi2
 3208 0f90 83F00103 		eor	r3, r3, #1
 3209 0f94 DBB2     		uxtb	r3, r3
 689:build\openmote-cc2538_armgcc\openstack\02b-MAChigh/neighbors.c ****                     neighbors_vars.neighbors[i].inBlacklist      == FALSE &&
 3210              		.loc 1 689 0
 3211 0f96 002B     		cmp	r3, #0
 3212 0f98 0ED0     		beq	.L220
 691:build\openmote-cc2538_armgcc\openstack\02b-MAChigh/neighbors.c ****                     neighbors_vars.neighbors[i].parentPreference == 0
 3213              		.loc 1 691 0
 3214 0f9a FA7F     		ldrb	r2, [r7, #31]	@ zero_extendqisi2
 3215 0f9c 0C49     		ldr	r1, .L223
 3216 0f9e 1346     		mov	r3, r2
 3217 0fa0 9B00     		lsls	r3, r3, #2
 3218 0fa2 1344     		add	r3, r3, r2
 3219 0fa4 DB00     		lsls	r3, r3, #3
 3220 0fa6 0B44     		add	r3, r3, r1
 3221 0fa8 0233     		adds	r3, r3, #2
 3222 0faa 1B78     		ldrb	r3, [r3]	@ zero_extendqisi2
 690:build\openmote-cc2538_armgcc\openstack\02b-MAChigh/neighbors.c ****                     neighbors_vars.neighbors[i].inBlacklist      == FALSE &&
 3223              		.loc 1 690 0
 3224 0fac 002B     		cmp	r3, #0
 3225 0fae 03D1     		bne	.L220
 692:build\openmote-cc2538_armgcc\openstack\02b-MAChigh/neighbors.c ****                 ){
 693:build\openmote-cc2538_armgcc\openstack\02b-MAChigh/neighbors.c ****                     removeNeighbor(i);
 3226              		.loc 1 693 0
 3227 0fb0 FB7F     		ldrb	r3, [r7, #31]	@ zero_extendqisi2
 3228 0fb2 1846     		mov	r0, r3
 3229 0fb4 FFF7FEFF 		bl	removeNeighbor
 3230              	.L220:
 676:build\openmote-cc2538_armgcc\openstack\02b-MAChigh/neighbors.c ****         if (neighbors_vars.neighbors[i].used==1) {
 3231              		.loc 1 676 0 discriminator 2
 3232 0fb8 FB7F     		ldrb	r3, [r7, #31]	@ zero_extendqisi2
 3233 0fba 0133     		adds	r3, r3, #1
 3234 0fbc FB77     		strb	r3, [r7, #31]
 3235              	.L219:
 676:build\openmote-cc2538_armgcc\openstack\02b-MAChigh/neighbors.c ****         if (neighbors_vars.neighbors[i].used==1) {
 3236              		.loc 1 676 0 is_stmt 0 discriminator 1
 3237 0fbe FB7F     		ldrb	r3, [r7, #31]	@ zero_extendqisi2
 3238 0fc0 1D2B     		cmp	r3, #29
 3239 0fc2 B2D9     		bls	.L221
 3240 0fc4 00E0     		b	.L215
 3241              	.L222:
 672:build\openmote-cc2538_armgcc\openstack\02b-MAChigh/neighbors.c ****     }
 3242              		.loc 1 672 0 is_stmt 1
 3243 0fc6 00BF     		nop
 3244              	.L215:
 694:build\openmote-cc2538_armgcc\openstack\02b-MAChigh/neighbors.c ****                 }
 695:build\openmote-cc2538_armgcc\openstack\02b-MAChigh/neighbors.c ****             }
 696:build\openmote-cc2538_armgcc\openstack\02b-MAChigh/neighbors.c ****         }
 697:build\openmote-cc2538_armgcc\openstack\02b-MAChigh/neighbors.c ****     }
 698:build\openmote-cc2538_armgcc\openstack\02b-MAChigh/neighbors.c **** }
 3245              		.loc 1 698 0
 3246 0fc8 2037     		adds	r7, r7, #32
 3247              		.cfi_def_cfa_offset 8
 3248 0fca BD46     		mov	sp, r7
 3249              		.cfi_def_cfa_register 13
 3250              		@ sp needed
 3251 0fcc 80BD     		pop	{r7, pc}
 3252              	.L224:
 3253 0fce 00BF     		.align	2
 3254              	.L223:
 3255 0fd0 00000000 		.word	neighbors_vars
 3256              		.cfi_endproc
 3257              	.LFE33:
 3259              		.align	1
 3260              		.global	debugPrint_neighbors
 3261              		.syntax unified
 3262              		.thumb
 3263              		.thumb_func
 3264              		.fpu softvfp
 3266              	debugPrint_neighbors:
 3267              	.LFB34:
 699:build\openmote-cc2538_armgcc\openstack\02b-MAChigh/neighbors.c **** 
 700:build\openmote-cc2538_armgcc\openstack\02b-MAChigh/neighbors.c **** //===== debug
 701:build\openmote-cc2538_armgcc\openstack\02b-MAChigh/neighbors.c **** 
 702:build\openmote-cc2538_armgcc\openstack\02b-MAChigh/neighbors.c **** /**
 703:build\openmote-cc2538_armgcc\openstack\02b-MAChigh/neighbors.c **** \brief Triggers this module to print status information, over serial.
 704:build\openmote-cc2538_armgcc\openstack\02b-MAChigh/neighbors.c **** 
 705:build\openmote-cc2538_armgcc\openstack\02b-MAChigh/neighbors.c **** debugPrint_* functions are used by the openserial module to continuously print
 706:build\openmote-cc2538_armgcc\openstack\02b-MAChigh/neighbors.c **** status information about several modules in the OpenWSN stack.
 707:build\openmote-cc2538_armgcc\openstack\02b-MAChigh/neighbors.c **** 
 708:build\openmote-cc2538_armgcc\openstack\02b-MAChigh/neighbors.c **** \returns TRUE if this function printed something, FALSE otherwise.
 709:build\openmote-cc2538_armgcc\openstack\02b-MAChigh/neighbors.c **** */
 710:build\openmote-cc2538_armgcc\openstack\02b-MAChigh/neighbors.c **** bool debugPrint_neighbors(void) {
 3268              		.loc 1 710 0
 3269              		.cfi_startproc
 3270              		@ args = 0, pretend = 0, frame = 48
 3271              		@ frame_needed = 1, uses_anonymous_args = 0
 3272 0fd4 F0B5     		push	{r4, r5, r6, r7, lr}
 3273              		.cfi_def_cfa_offset 20
 3274              		.cfi_offset 4, -20
 3275              		.cfi_offset 5, -16
 3276              		.cfi_offset 6, -12
 3277              		.cfi_offset 7, -8
 3278              		.cfi_offset 14, -4
 3279 0fd6 8DB0     		sub	sp, sp, #52
 3280              		.cfi_def_cfa_offset 72
 3281 0fd8 00AF     		add	r7, sp, #0
 3282              		.cfi_def_cfa_register 7
 711:build\openmote-cc2538_armgcc\openstack\02b-MAChigh/neighbors.c ****     debugNeighborEntry_t temp;
 712:build\openmote-cc2538_armgcc\openstack\02b-MAChigh/neighbors.c ****     neighbors_vars.debugRow=(neighbors_vars.debugRow+1)%MAXNUMNEIGHBORS;
 3283              		.loc 1 712 0
 3284 0fda 214B     		ldr	r3, .L228
 3285 0fdc 93F8B234 		ldrb	r3, [r3, #1202]	@ zero_extendqisi2
 3286 0fe0 5A1C     		adds	r2, r3, #1
 3287 0fe2 204B     		ldr	r3, .L228+4
 3288 0fe4 83FB0213 		smull	r1, r3, r3, r2
 3289 0fe8 1344     		add	r3, r3, r2
 3290 0fea 1911     		asrs	r1, r3, #4
 3291 0fec D317     		asrs	r3, r2, #31
 3292 0fee C91A     		subs	r1, r1, r3
 3293 0ff0 0B46     		mov	r3, r1
 3294 0ff2 1B01     		lsls	r3, r3, #4
 3295 0ff4 5B1A     		subs	r3, r3, r1
 3296 0ff6 5B00     		lsls	r3, r3, #1
 3297 0ff8 D11A     		subs	r1, r2, r3
 3298 0ffa CAB2     		uxtb	r2, r1
 3299 0ffc 184B     		ldr	r3, .L228
 3300 0ffe 83F8B224 		strb	r2, [r3, #1202]
 713:build\openmote-cc2538_armgcc\openstack\02b-MAChigh/neighbors.c ****     temp.row=neighbors_vars.debugRow;
 3301              		.loc 1 713 0
 3302 1002 174B     		ldr	r3, .L228
 3303 1004 93F8B234 		ldrb	r3, [r3, #1202]	@ zero_extendqisi2
 3304 1008 3B71     		strb	r3, [r7, #4]
 714:build\openmote-cc2538_armgcc\openstack\02b-MAChigh/neighbors.c ****     temp.neighborEntry=neighbors_vars.neighbors[neighbors_vars.debugRow];
 3305              		.loc 1 714 0
 3306 100a 154B     		ldr	r3, .L228
 3307 100c 93F8B234 		ldrb	r3, [r3, #1202]	@ zero_extendqisi2
 3308 1010 1946     		mov	r1, r3
 3309 1012 134A     		ldr	r2, .L228
 3310 1014 0B46     		mov	r3, r1
 3311 1016 9B00     		lsls	r3, r3, #2
 3312 1018 0B44     		add	r3, r3, r1
 3313 101a DB00     		lsls	r3, r3, #3
 3314 101c 1344     		add	r3, r3, r2
 3315 101e 1C46     		mov	r4, r3
 3316 1020 07F1050C 		add	ip, r7, #5
 3317 1024 04F1200E 		add	lr, r4, #32
 3318              	.L226:
 3319 1028 6546     		mov	r5, ip
 3320 102a 2646     		mov	r6, r4
 3321 102c 0FCE     		ldmia	r6!, {r0, r1, r2, r3}
 3322 102e 2860     		str	r0, [r5]	@ unaligned
 3323 1030 6960     		str	r1, [r5, #4]	@ unaligned
 3324 1032 AA60     		str	r2, [r5, #8]	@ unaligned
 3325 1034 EB60     		str	r3, [r5, #12]	@ unaligned
 3326 1036 1034     		adds	r4, r4, #16
 3327 1038 0CF1100C 		add	ip, ip, #16
 3328 103c 7445     		cmp	r4, lr
 3329 103e F3D1     		bne	.L226
 3330 1040 6246     		mov	r2, ip
 3331 1042 2346     		mov	r3, r4
 3332 1044 03CB     		ldmia	r3!, {r0, r1}
 3333 1046 1060     		str	r0, [r2]	@ unaligned
 3334 1048 5160     		str	r1, [r2, #4]	@ unaligned
 715:build\openmote-cc2538_armgcc\openstack\02b-MAChigh/neighbors.c ****     openserial_printStatus(STATUS_NEIGHBORS,(uint8_t*)&temp,sizeof(debugNeighborEntry_t));
 3335              		.loc 1 715 0
 3336 104a 3B1D     		adds	r3, r7, #4
 3337 104c 2922     		movs	r2, #41
 3338 104e 1946     		mov	r1, r3
 3339 1050 0920     		movs	r0, #9
 3340 1052 FFF7FEFF 		bl	openserial_printStatus
 716:build\openmote-cc2538_armgcc\openstack\02b-MAChigh/neighbors.c ****     return TRUE;
 3341              		.loc 1 716 0
 3342 1056 0123     		movs	r3, #1
 717:build\openmote-cc2538_armgcc\openstack\02b-MAChigh/neighbors.c **** }
 3343              		.loc 1 717 0
 3344 1058 1846     		mov	r0, r3
 3345 105a 3437     		adds	r7, r7, #52
 3346              		.cfi_def_cfa_offset 20
 3347 105c BD46     		mov	sp, r7
 3348              		.cfi_def_cfa_register 13
 3349              		@ sp needed
 3350 105e F0BD     		pop	{r4, r5, r6, r7, pc}
 3351              	.L229:
 3352              		.align	2
 3353              	.L228:
 3354 1060 00000000 		.word	neighbors_vars
 3355 1064 89888888 		.word	-2004318071
 3356              		.cfi_endproc
 3357              	.LFE34:
 3359              		.align	1
 3360              		.global	registerNewNeighbor
 3361              		.syntax unified
 3362              		.thumb
 3363              		.thumb_func
 3364              		.fpu softvfp
 3366              	registerNewNeighbor:
 3367              	.LFB35:
 718:build\openmote-cc2538_armgcc\openstack\02b-MAChigh/neighbors.c **** 
 719:build\openmote-cc2538_armgcc\openstack\02b-MAChigh/neighbors.c **** //=========================== private =========================================
 720:build\openmote-cc2538_armgcc\openstack\02b-MAChigh/neighbors.c **** 
 721:build\openmote-cc2538_armgcc\openstack\02b-MAChigh/neighbors.c **** void registerNewNeighbor(open_addr_t* address,
 722:build\openmote-cc2538_armgcc\openstack\02b-MAChigh/neighbors.c ****                          int8_t       rssi,
 723:build\openmote-cc2538_armgcc\openstack\02b-MAChigh/neighbors.c ****                          asn_t*       asnTimestamp,
 724:build\openmote-cc2538_armgcc\openstack\02b-MAChigh/neighbors.c ****                          bool         joinPrioPresent,
 725:build\openmote-cc2538_armgcc\openstack\02b-MAChigh/neighbors.c ****                          uint8_t      joinPrio,
 726:build\openmote-cc2538_armgcc\openstack\02b-MAChigh/neighbors.c ****                          bool         insecure) {
 3368              		.loc 1 726 0
 3369              		.cfi_startproc
 3370              		@ args = 8, pretend = 0, frame = 24
 3371              		@ frame_needed = 1, uses_anonymous_args = 0
 3372 1068 80B5     		push	{r7, lr}
 3373              		.cfi_def_cfa_offset 8
 3374              		.cfi_offset 7, -8
 3375              		.cfi_offset 14, -4
 3376 106a 86B0     		sub	sp, sp, #24
 3377              		.cfi_def_cfa_offset 32
 3378 106c 00AF     		add	r7, sp, #0
 3379              		.cfi_def_cfa_register 7
 3380 106e F860     		str	r0, [r7, #12]
 3381 1070 7A60     		str	r2, [r7, #4]
 3382 1072 1A46     		mov	r2, r3
 3383 1074 0B46     		mov	r3, r1
 3384 1076 FB72     		strb	r3, [r7, #11]
 3385 1078 1346     		mov	r3, r2
 3386 107a BB72     		strb	r3, [r7, #10]
 727:build\openmote-cc2538_armgcc\openstack\02b-MAChigh/neighbors.c ****     uint8_t  i;
 728:build\openmote-cc2538_armgcc\openstack\02b-MAChigh/neighbors.c **** 
 729:build\openmote-cc2538_armgcc\openstack\02b-MAChigh/neighbors.c ****     // filter errors
 730:build\openmote-cc2538_armgcc\openstack\02b-MAChigh/neighbors.c ****     if (address->type!=ADDR_64B) {
 3387              		.loc 1 730 0
 3388 107c FB68     		ldr	r3, [r7, #12]
 3389 107e 1B78     		ldrb	r3, [r3]	@ zero_extendqisi2
 3390 1080 022B     		cmp	r3, #2
 3391 1082 08D0     		beq	.L231
 731:build\openmote-cc2538_armgcc\openstack\02b-MAChigh/neighbors.c ****         openserial_printCritical(COMPONENT_NEIGHBORS,ERR_WRONG_ADDR_TYPE,
 732:build\openmote-cc2538_armgcc\openstack\02b-MAChigh/neighbors.c ****                             (errorparameter_t)address->type,
 3392              		.loc 1 732 0
 3393 1084 FB68     		ldr	r3, [r7, #12]
 3394 1086 1B78     		ldrb	r3, [r3]	@ zero_extendqisi2
 731:build\openmote-cc2538_armgcc\openstack\02b-MAChigh/neighbors.c ****         openserial_printCritical(COMPONENT_NEIGHBORS,ERR_WRONG_ADDR_TYPE,
 3395              		.loc 1 731 0
 3396 1088 9AB2     		uxth	r2, r3
 3397 108a 0223     		movs	r3, #2
 3398 108c 3221     		movs	r1, #50
 3399 108e 0D20     		movs	r0, #13
 3400 1090 FFF7FEFF 		bl	openserial_printCritical
 733:build\openmote-cc2538_armgcc\openstack\02b-MAChigh/neighbors.c ****                             (errorparameter_t)2);
 734:build\openmote-cc2538_armgcc\openstack\02b-MAChigh/neighbors.c ****         return;
 3401              		.loc 1 734 0
 3402 1094 D7E0     		b	.L230
 3403              	.L231:
 735:build\openmote-cc2538_armgcc\openstack\02b-MAChigh/neighbors.c ****     }
 736:build\openmote-cc2538_armgcc\openstack\02b-MAChigh/neighbors.c ****     // add this neighbor
 737:build\openmote-cc2538_armgcc\openstack\02b-MAChigh/neighbors.c ****     if (isNeighbor(address)==FALSE) {
 3404              		.loc 1 737 0
 3405 1096 F868     		ldr	r0, [r7, #12]
 3406 1098 FFF7FEFF 		bl	isNeighbor
 3407 109c 0346     		mov	r3, r0
 3408 109e 83F00103 		eor	r3, r3, #1
 3409 10a2 DBB2     		uxtb	r3, r3
 3410 10a4 002B     		cmp	r3, #0
 3411 10a6 00F0CE80 		beq	.L230
 738:build\openmote-cc2538_armgcc\openstack\02b-MAChigh/neighbors.c ****         i=0;
 3412              		.loc 1 738 0
 3413 10aa 0023     		movs	r3, #0
 3414 10ac FB75     		strb	r3, [r7, #23]
 739:build\openmote-cc2538_armgcc\openstack\02b-MAChigh/neighbors.c ****         while(i<MAXNUMNEIGHBORS) {
 3415              		.loc 1 739 0
 3416 10ae BAE0     		b	.L233
 3417              	.L239:
 740:build\openmote-cc2538_armgcc\openstack\02b-MAChigh/neighbors.c ****             if (neighbors_vars.neighbors[i].used==FALSE) {
 3418              		.loc 1 740 0
 3419 10b0 FA7D     		ldrb	r2, [r7, #23]	@ zero_extendqisi2
 3420 10b2 6649     		ldr	r1, .L241
 3421 10b4 1346     		mov	r3, r2
 3422 10b6 9B00     		lsls	r3, r3, #2
 3423 10b8 1344     		add	r3, r3, r2
 3424 10ba DB00     		lsls	r3, r3, #3
 3425 10bc 0B44     		add	r3, r3, r1
 3426 10be 1B78     		ldrb	r3, [r3]	@ zero_extendqisi2
 3427 10c0 83F00103 		eor	r3, r3, #1
 3428 10c4 DBB2     		uxtb	r3, r3
 3429 10c6 002B     		cmp	r3, #0
 3430 10c8 00F0AA80 		beq	.L234
 741:build\openmote-cc2538_armgcc\openstack\02b-MAChigh/neighbors.c ****                 if (rssi < GOODNEIGHBORMINRSSI){
 3431              		.loc 1 741 0
 3432 10cc 97F90B30 		ldrsb	r3, [r7, #11]
 3433 10d0 13F1500F 		cmn	r3, #80
 3434 10d4 C0F2AC80 		blt	.L240
 742:build\openmote-cc2538_armgcc\openstack\02b-MAChigh/neighbors.c ****                     break;
 743:build\openmote-cc2538_armgcc\openstack\02b-MAChigh/neighbors.c ****                 }
 744:build\openmote-cc2538_armgcc\openstack\02b-MAChigh/neighbors.c ****                 // add this neighbor
 745:build\openmote-cc2538_armgcc\openstack\02b-MAChigh/neighbors.c ****                 neighbors_vars.neighbors[i].used                   = TRUE;
 3435              		.loc 1 745 0
 3436 10d8 FA7D     		ldrb	r2, [r7, #23]	@ zero_extendqisi2
 3437 10da 5C49     		ldr	r1, .L241
 3438 10dc 1346     		mov	r3, r2
 3439 10de 9B00     		lsls	r3, r3, #2
 3440 10e0 1344     		add	r3, r3, r2
 3441 10e2 DB00     		lsls	r3, r3, #3
 3442 10e4 0B44     		add	r3, r3, r1
 3443 10e6 0122     		movs	r2, #1
 3444 10e8 1A70     		strb	r2, [r3]
 746:build\openmote-cc2538_armgcc\openstack\02b-MAChigh/neighbors.c ****                 neighbors_vars.neighbors[i].insecure               = insecure;
 3445              		.loc 1 746 0
 3446 10ea FA7D     		ldrb	r2, [r7, #23]	@ zero_extendqisi2
 3447 10ec 5749     		ldr	r1, .L241
 3448 10ee 1346     		mov	r3, r2
 3449 10f0 9B00     		lsls	r3, r3, #2
 3450 10f2 1344     		add	r3, r3, r2
 3451 10f4 DB00     		lsls	r3, r3, #3
 3452 10f6 0B44     		add	r3, r3, r1
 3453 10f8 0133     		adds	r3, r3, #1
 3454 10fa 97F82420 		ldrb	r2, [r7, #36]
 3455 10fe 1A70     		strb	r2, [r3]
 747:build\openmote-cc2538_armgcc\openstack\02b-MAChigh/neighbors.c ****                 // neighbors_vars.neighbors[i].stableNeighbor         = FALSE;
 748:build\openmote-cc2538_armgcc\openstack\02b-MAChigh/neighbors.c ****                 // Note: all new neighbors are consider stable
 749:build\openmote-cc2538_armgcc\openstack\02b-MAChigh/neighbors.c ****                 neighbors_vars.neighbors[i].stableNeighbor         = TRUE;
 3456              		.loc 1 749 0
 3457 1100 FA7D     		ldrb	r2, [r7, #23]	@ zero_extendqisi2
 3458 1102 5249     		ldr	r1, .L241
 3459 1104 1346     		mov	r3, r2
 3460 1106 9B00     		lsls	r3, r3, #2
 3461 1108 1344     		add	r3, r3, r2
 3462 110a DB00     		lsls	r3, r3, #3
 3463 110c 0B44     		add	r3, r3, r1
 3464 110e 0333     		adds	r3, r3, #3
 3465 1110 0122     		movs	r2, #1
 3466 1112 1A70     		strb	r2, [r3]
 750:build\openmote-cc2538_armgcc\openstack\02b-MAChigh/neighbors.c ****                 neighbors_vars.neighbors[i].switchStabilityCounter = 0;
 3467              		.loc 1 750 0
 3468 1114 FA7D     		ldrb	r2, [r7, #23]	@ zero_extendqisi2
 3469 1116 4D49     		ldr	r1, .L241
 3470 1118 1346     		mov	r3, r2
 3471 111a 9B00     		lsls	r3, r3, #2
 3472 111c 1344     		add	r3, r3, r2
 3473 111e DB00     		lsls	r3, r3, #3
 3474 1120 0B44     		add	r3, r3, r1
 3475 1122 0433     		adds	r3, r3, #4
 3476 1124 0022     		movs	r2, #0
 3477 1126 1A70     		strb	r2, [r3]
 751:build\openmote-cc2538_armgcc\openstack\02b-MAChigh/neighbors.c ****                 memcpy(&neighbors_vars.neighbors[i].addr_64b,address,sizeof(open_addr_t));
 3478              		.loc 1 751 0
 3479 1128 FA7D     		ldrb	r2, [r7, #23]	@ zero_extendqisi2
 3480 112a 1346     		mov	r3, r2
 3481 112c 9B00     		lsls	r3, r3, #2
 3482 112e 1344     		add	r3, r3, r2
 3483 1130 DB00     		lsls	r3, r3, #3
 3484 1132 464A     		ldr	r2, .L241
 3485 1134 1344     		add	r3, r3, r2
 3486 1136 0533     		adds	r3, r3, #5
 3487 1138 1122     		movs	r2, #17
 3488 113a F968     		ldr	r1, [r7, #12]
 3489 113c 1846     		mov	r0, r3
 3490 113e FFF7FEFF 		bl	memcpy
 752:build\openmote-cc2538_armgcc\openstack\02b-MAChigh/neighbors.c ****                 neighbors_vars.neighbors[i].DAGrank                = DEFAULTDAGRANK;
 3491              		.loc 1 752 0
 3492 1142 FA7D     		ldrb	r2, [r7, #23]	@ zero_extendqisi2
 3493 1144 4149     		ldr	r1, .L241
 3494 1146 1346     		mov	r3, r2
 3495 1148 9B00     		lsls	r3, r3, #2
 3496 114a 1344     		add	r3, r3, r2
 3497 114c DB00     		lsls	r3, r3, #3
 3498 114e 0B44     		add	r3, r3, r1
 3499 1150 1633     		adds	r3, r3, #22
 3500 1152 4FF6FF72 		movw	r2, #65535
 3501 1156 1A80     		strh	r2, [r3]	@ movhi
 753:build\openmote-cc2538_armgcc\openstack\02b-MAChigh/neighbors.c ****                 // since we don't have a DAG rank at this point, no need to call for routing table 
 754:build\openmote-cc2538_armgcc\openstack\02b-MAChigh/neighbors.c ****                 neighbors_vars.neighbors[i].rssi                   = rssi;
 3502              		.loc 1 754 0
 3503 1158 FA7D     		ldrb	r2, [r7, #23]	@ zero_extendqisi2
 3504 115a 3C49     		ldr	r1, .L241
 3505 115c 1346     		mov	r3, r2
 3506 115e 9B00     		lsls	r3, r3, #2
 3507 1160 1344     		add	r3, r3, r2
 3508 1162 DB00     		lsls	r3, r3, #3
 3509 1164 0B44     		add	r3, r3, r1
 3510 1166 1833     		adds	r3, r3, #24
 3511 1168 FA7A     		ldrb	r2, [r7, #11]
 3512 116a 1A70     		strb	r2, [r3]
 755:build\openmote-cc2538_armgcc\openstack\02b-MAChigh/neighbors.c ****                 neighbors_vars.neighbors[i].numRx                  = 1;
 3513              		.loc 1 755 0
 3514 116c FA7D     		ldrb	r2, [r7, #23]	@ zero_extendqisi2
 3515 116e 3749     		ldr	r1, .L241
 3516 1170 1346     		mov	r3, r2
 3517 1172 9B00     		lsls	r3, r3, #2
 3518 1174 1344     		add	r3, r3, r2
 3519 1176 DB00     		lsls	r3, r3, #3
 3520 1178 0B44     		add	r3, r3, r1
 3521 117a 1933     		adds	r3, r3, #25
 3522 117c 0122     		movs	r2, #1
 3523 117e 1A70     		strb	r2, [r3]
 756:build\openmote-cc2538_armgcc\openstack\02b-MAChigh/neighbors.c ****                 neighbors_vars.neighbors[i].numTx                  = 0;
 3524              		.loc 1 756 0
 3525 1180 FA7D     		ldrb	r2, [r7, #23]	@ zero_extendqisi2
 3526 1182 3249     		ldr	r1, .L241
 3527 1184 1346     		mov	r3, r2
 3528 1186 9B00     		lsls	r3, r3, #2
 3529 1188 1344     		add	r3, r3, r2
 3530 118a DB00     		lsls	r3, r3, #3
 3531 118c 0B44     		add	r3, r3, r1
 3532 118e 1A33     		adds	r3, r3, #26
 3533 1190 0022     		movs	r2, #0
 3534 1192 1A70     		strb	r2, [r3]
 757:build\openmote-cc2538_armgcc\openstack\02b-MAChigh/neighbors.c ****                 neighbors_vars.neighbors[i].numTxACK               = 0;
 3535              		.loc 1 757 0
 3536 1194 FA7D     		ldrb	r2, [r7, #23]	@ zero_extendqisi2
 3537 1196 2D49     		ldr	r1, .L241
 3538 1198 1346     		mov	r3, r2
 3539 119a 9B00     		lsls	r3, r3, #2
 3540 119c 1344     		add	r3, r3, r2
 3541 119e DB00     		lsls	r3, r3, #3
 3542 11a0 0B44     		add	r3, r3, r1
 3543 11a2 1B33     		adds	r3, r3, #27
 3544 11a4 0022     		movs	r2, #0
 3545 11a6 1A70     		strb	r2, [r3]
 758:build\openmote-cc2538_armgcc\openstack\02b-MAChigh/neighbors.c ****                 memcpy(&neighbors_vars.neighbors[i].asn,asnTimestamp,sizeof(asn_t));
 3546              		.loc 1 758 0
 3547 11a8 FA7D     		ldrb	r2, [r7, #23]	@ zero_extendqisi2
 3548 11aa 1346     		mov	r3, r2
 3549 11ac 9B00     		lsls	r3, r3, #2
 3550 11ae 1344     		add	r3, r3, r2
 3551 11b0 DB00     		lsls	r3, r3, #3
 3552 11b2 1833     		adds	r3, r3, #24
 3553 11b4 254A     		ldr	r2, .L241
 3554 11b6 1344     		add	r3, r3, r2
 3555 11b8 0533     		adds	r3, r3, #5
 3556 11ba 0522     		movs	r2, #5
 3557 11bc 7968     		ldr	r1, [r7, #4]
 3558 11be 1846     		mov	r0, r3
 3559 11c0 FFF7FEFF 		bl	memcpy
 759:build\openmote-cc2538_armgcc\openstack\02b-MAChigh/neighbors.c ****                 neighbors_vars.neighbors[i].backoffExponenton      = MINBE-1;;
 3560              		.loc 1 759 0
 3561 11c4 FA7D     		ldrb	r2, [r7, #23]	@ zero_extendqisi2
 3562 11c6 2149     		ldr	r1, .L241
 3563 11c8 1346     		mov	r3, r2
 3564 11ca 9B00     		lsls	r3, r3, #2
 3565 11cc 1344     		add	r3, r3, r2
 3566 11ce DB00     		lsls	r3, r3, #3
 3567 11d0 0B44     		add	r3, r3, r1
 3568 11d2 2633     		adds	r3, r3, #38
 3569 11d4 0122     		movs	r2, #1
 3570 11d6 1A70     		strb	r2, [r3]
 760:build\openmote-cc2538_armgcc\openstack\02b-MAChigh/neighbors.c ****                 neighbors_vars.neighbors[i].backoff                = 0;
 3571              		.loc 1 760 0
 3572 11d8 FA7D     		ldrb	r2, [r7, #23]	@ zero_extendqisi2
 3573 11da 1C49     		ldr	r1, .L241
 3574 11dc 1346     		mov	r3, r2
 3575 11de 9B00     		lsls	r3, r3, #2
 3576 11e0 1344     		add	r3, r3, r2
 3577 11e2 DB00     		lsls	r3, r3, #3
 3578 11e4 0B44     		add	r3, r3, r1
 3579 11e6 2733     		adds	r3, r3, #39
 3580 11e8 0022     		movs	r2, #0
 3581 11ea 1A70     		strb	r2, [r3]
 761:build\openmote-cc2538_armgcc\openstack\02b-MAChigh/neighbors.c ****                 //update jp
 762:build\openmote-cc2538_armgcc\openstack\02b-MAChigh/neighbors.c ****                 if (joinPrioPresent==TRUE){
 3582              		.loc 1 762 0
 3583 11ec BB7A     		ldrb	r3, [r7, #10]	@ zero_extendqisi2
 3584 11ee 002B     		cmp	r3, #0
 3585 11f0 0BD0     		beq	.L237
 763:build\openmote-cc2538_armgcc\openstack\02b-MAChigh/neighbors.c ****                     neighbors_vars.neighbors[i].joinPrio=joinPrio;
 3586              		.loc 1 763 0
 3587 11f2 FA7D     		ldrb	r2, [r7, #23]	@ zero_extendqisi2
 3588 11f4 1549     		ldr	r1, .L241
 3589 11f6 1346     		mov	r3, r2
 3590 11f8 9B00     		lsls	r3, r3, #2
 3591 11fa 1344     		add	r3, r3, r2
 3592 11fc DB00     		lsls	r3, r3, #3
 3593 11fe 0B44     		add	r3, r3, r1
 3594 1200 2233     		adds	r3, r3, #34
 3595 1202 97F82020 		ldrb	r2, [r7, #32]
 3596 1206 1A70     		strb	r2, [r3]
 764:build\openmote-cc2538_armgcc\openstack\02b-MAChigh/neighbors.c ****                 } else {
 765:build\openmote-cc2538_armgcc\openstack\02b-MAChigh/neighbors.c ****                     neighbors_vars.neighbors[i].joinPrio=DEFAULTJOINPRIORITY;
 766:build\openmote-cc2538_armgcc\openstack\02b-MAChigh/neighbors.c ****                 }
 767:build\openmote-cc2538_armgcc\openstack\02b-MAChigh/neighbors.c ****                 break;
 3597              		.loc 1 767 0
 3598 1208 13E0     		b	.L236
 3599              	.L237:
 765:build\openmote-cc2538_armgcc\openstack\02b-MAChigh/neighbors.c ****                 }
 3600              		.loc 1 765 0
 3601 120a FA7D     		ldrb	r2, [r7, #23]	@ zero_extendqisi2
 3602 120c 0F49     		ldr	r1, .L241
 3603 120e 1346     		mov	r3, r2
 3604 1210 9B00     		lsls	r3, r3, #2
 3605 1212 1344     		add	r3, r3, r2
 3606 1214 DB00     		lsls	r3, r3, #3
 3607 1216 0B44     		add	r3, r3, r1
 3608 1218 2233     		adds	r3, r3, #34
 3609 121a FF22     		movs	r2, #255
 3610 121c 1A70     		strb	r2, [r3]
 3611              		.loc 1 767 0
 3612 121e 08E0     		b	.L236
 3613              	.L234:
 768:build\openmote-cc2538_armgcc\openstack\02b-MAChigh/neighbors.c ****             }
 769:build\openmote-cc2538_armgcc\openstack\02b-MAChigh/neighbors.c ****             i++;
 3614              		.loc 1 769 0
 3615 1220 FB7D     		ldrb	r3, [r7, #23]	@ zero_extendqisi2
 3616 1222 0133     		adds	r3, r3, #1
 3617 1224 FB75     		strb	r3, [r7, #23]
 3618              	.L233:
 739:build\openmote-cc2538_armgcc\openstack\02b-MAChigh/neighbors.c ****             if (neighbors_vars.neighbors[i].used==FALSE) {
 3619              		.loc 1 739 0
 3620 1226 FB7D     		ldrb	r3, [r7, #23]	@ zero_extendqisi2
 3621 1228 1D2B     		cmp	r3, #29
 3622 122a 7FF641AF 		bls	.L239
 3623 122e 00E0     		b	.L236
 3624              	.L240:
 742:build\openmote-cc2538_armgcc\openstack\02b-MAChigh/neighbors.c ****                 }
 3625              		.loc 1 742 0
 3626 1230 00BF     		nop
 3627              	.L236:
 770:build\openmote-cc2538_armgcc\openstack\02b-MAChigh/neighbors.c ****         }
 771:build\openmote-cc2538_armgcc\openstack\02b-MAChigh/neighbors.c ****         if (i==MAXNUMNEIGHBORS) {
 3628              		.loc 1 771 0
 3629 1232 FB7D     		ldrb	r3, [r7, #23]	@ zero_extendqisi2
 3630 1234 1E2B     		cmp	r3, #30
 3631 1236 06D1     		bne	.L230
 772:build\openmote-cc2538_armgcc\openstack\02b-MAChigh/neighbors.c ****             openserial_printError(COMPONENT_NEIGHBORS,ERR_NEIGHBORS_FULL,
 3632              		.loc 1 772 0
 3633 1238 0023     		movs	r3, #0
 3634 123a 1E22     		movs	r2, #30
 3635 123c 1521     		movs	r1, #21
 3636 123e 0D20     		movs	r0, #13
 3637 1240 FFF7FEFF 		bl	openserial_printError
 773:build\openmote-cc2538_armgcc\openstack\02b-MAChigh/neighbors.c ****                                (errorparameter_t)MAXNUMNEIGHBORS,
 774:build\openmote-cc2538_armgcc\openstack\02b-MAChigh/neighbors.c ****                                (errorparameter_t)0);
 775:build\openmote-cc2538_armgcc\openstack\02b-MAChigh/neighbors.c ****             return;
 3638              		.loc 1 775 0
 3639 1244 00BF     		nop
 3640              	.L230:
 776:build\openmote-cc2538_armgcc\openstack\02b-MAChigh/neighbors.c ****         }
 777:build\openmote-cc2538_armgcc\openstack\02b-MAChigh/neighbors.c ****     }
 778:build\openmote-cc2538_armgcc\openstack\02b-MAChigh/neighbors.c **** }
 3641              		.loc 1 778 0
 3642 1246 1837     		adds	r7, r7, #24
 3643              		.cfi_def_cfa_offset 8
 3644 1248 BD46     		mov	sp, r7
 3645              		.cfi_def_cfa_register 13
 3646              		@ sp needed
 3647 124a 80BD     		pop	{r7, pc}
 3648              	.L242:
 3649              		.align	2
 3650              	.L241:
 3651 124c 00000000 		.word	neighbors_vars
 3652              		.cfi_endproc
 3653              	.LFE35:
 3655              		.align	1
 3656              		.global	isNeighbor
 3657              		.syntax unified
 3658              		.thumb
 3659              		.thumb_func
 3660              		.fpu softvfp
 3662              	isNeighbor:
 3663              	.LFB36:
 779:build\openmote-cc2538_armgcc\openstack\02b-MAChigh/neighbors.c **** 
 780:build\openmote-cc2538_armgcc\openstack\02b-MAChigh/neighbors.c **** bool isNeighbor(open_addr_t* neighbor) {
 3664              		.loc 1 780 0
 3665              		.cfi_startproc
 3666              		@ args = 0, pretend = 0, frame = 16
 3667              		@ frame_needed = 1, uses_anonymous_args = 0
 3668 1250 80B5     		push	{r7, lr}
 3669              		.cfi_def_cfa_offset 8
 3670              		.cfi_offset 7, -8
 3671              		.cfi_offset 14, -4
 3672 1252 84B0     		sub	sp, sp, #16
 3673              		.cfi_def_cfa_offset 24
 3674 1254 00AF     		add	r7, sp, #0
 3675              		.cfi_def_cfa_register 7
 3676 1256 7860     		str	r0, [r7, #4]
 781:build\openmote-cc2538_armgcc\openstack\02b-MAChigh/neighbors.c ****    uint8_t i=0;
 3677              		.loc 1 781 0
 3678 1258 0023     		movs	r3, #0
 3679 125a FB73     		strb	r3, [r7, #15]
 782:build\openmote-cc2538_armgcc\openstack\02b-MAChigh/neighbors.c ****    for (i=0;i<MAXNUMNEIGHBORS;i++) {
 3680              		.loc 1 782 0
 3681 125c 0023     		movs	r3, #0
 3682 125e FB73     		strb	r3, [r7, #15]
 3683 1260 0CE0     		b	.L244
 3684              	.L247:
 783:build\openmote-cc2538_armgcc\openstack\02b-MAChigh/neighbors.c ****       if (isThisRowMatching(neighbor,i)) {
 3685              		.loc 1 783 0
 3686 1262 FB7B     		ldrb	r3, [r7, #15]	@ zero_extendqisi2
 3687 1264 1946     		mov	r1, r3
 3688 1266 7868     		ldr	r0, [r7, #4]
 3689 1268 FFF7FEFF 		bl	isThisRowMatching
 3690 126c 0346     		mov	r3, r0
 3691 126e 002B     		cmp	r3, #0
 3692 1270 01D0     		beq	.L245
 784:build\openmote-cc2538_armgcc\openstack\02b-MAChigh/neighbors.c ****          return TRUE;
 3693              		.loc 1 784 0
 3694 1272 0123     		movs	r3, #1
 3695 1274 06E0     		b	.L246
 3696              	.L245:
 782:build\openmote-cc2538_armgcc\openstack\02b-MAChigh/neighbors.c ****    for (i=0;i<MAXNUMNEIGHBORS;i++) {
 3697              		.loc 1 782 0 discriminator 2
 3698 1276 FB7B     		ldrb	r3, [r7, #15]	@ zero_extendqisi2
 3699 1278 0133     		adds	r3, r3, #1
 3700 127a FB73     		strb	r3, [r7, #15]
 3701              	.L244:
 782:build\openmote-cc2538_armgcc\openstack\02b-MAChigh/neighbors.c ****    for (i=0;i<MAXNUMNEIGHBORS;i++) {
 3702              		.loc 1 782 0 is_stmt 0 discriminator 1
 3703 127c FB7B     		ldrb	r3, [r7, #15]	@ zero_extendqisi2
 3704 127e 1D2B     		cmp	r3, #29
 3705 1280 EFD9     		bls	.L247
 785:build\openmote-cc2538_armgcc\openstack\02b-MAChigh/neighbors.c ****       }
 786:build\openmote-cc2538_armgcc\openstack\02b-MAChigh/neighbors.c ****    }
 787:build\openmote-cc2538_armgcc\openstack\02b-MAChigh/neighbors.c ****    return FALSE;
 3706              		.loc 1 787 0 is_stmt 1
 3707 1282 0023     		movs	r3, #0
 3708              	.L246:
 788:build\openmote-cc2538_armgcc\openstack\02b-MAChigh/neighbors.c **** }
 3709              		.loc 1 788 0
 3710 1284 1846     		mov	r0, r3
 3711 1286 1037     		adds	r7, r7, #16
 3712              		.cfi_def_cfa_offset 8
 3713 1288 BD46     		mov	sp, r7
 3714              		.cfi_def_cfa_register 13
 3715              		@ sp needed
 3716 128a 80BD     		pop	{r7, pc}
 3717              		.cfi_endproc
 3718              	.LFE36:
 3720              		.align	1
 3721              		.global	removeNeighbor
 3722              		.syntax unified
 3723              		.thumb
 3724              		.thumb_func
 3725              		.fpu softvfp
 3727              	removeNeighbor:
 3728              	.LFB37:
 789:build\openmote-cc2538_armgcc\openstack\02b-MAChigh/neighbors.c **** 
 790:build\openmote-cc2538_armgcc\openstack\02b-MAChigh/neighbors.c **** void removeNeighbor(uint8_t neighborIndex) {
 3729              		.loc 1 790 0
 3730              		.cfi_startproc
 3731              		@ args = 0, pretend = 0, frame = 8
 3732              		@ frame_needed = 1, uses_anonymous_args = 0
 3733              		@ link register save eliminated.
 3734 128c 80B4     		push	{r7}
 3735              		.cfi_def_cfa_offset 4
 3736              		.cfi_offset 7, -4
 3737 128e 83B0     		sub	sp, sp, #12
 3738              		.cfi_def_cfa_offset 16
 3739 1290 00AF     		add	r7, sp, #0
 3740              		.cfi_def_cfa_register 7
 3741 1292 0346     		mov	r3, r0
 3742 1294 FB71     		strb	r3, [r7, #7]
 791:build\openmote-cc2538_armgcc\openstack\02b-MAChigh/neighbors.c **** 
 792:build\openmote-cc2538_armgcc\openstack\02b-MAChigh/neighbors.c ****     neighbors_vars.neighbors[neighborIndex].used                      = FALSE;
 3743              		.loc 1 792 0
 3744 1296 FA79     		ldrb	r2, [r7, #7]	@ zero_extendqisi2
 3745 1298 5649     		ldr	r1, .L249
 3746 129a 1346     		mov	r3, r2
 3747 129c 9B00     		lsls	r3, r3, #2
 3748 129e 1344     		add	r3, r3, r2
 3749 12a0 DB00     		lsls	r3, r3, #3
 3750 12a2 0B44     		add	r3, r3, r1
 3751 12a4 0022     		movs	r2, #0
 3752 12a6 1A70     		strb	r2, [r3]
 793:build\openmote-cc2538_armgcc\openstack\02b-MAChigh/neighbors.c ****     neighbors_vars.neighbors[neighborIndex].parentPreference          = 0;
 3753              		.loc 1 793 0
 3754 12a8 FA79     		ldrb	r2, [r7, #7]	@ zero_extendqisi2
 3755 12aa 5249     		ldr	r1, .L249
 3756 12ac 1346     		mov	r3, r2
 3757 12ae 9B00     		lsls	r3, r3, #2
 3758 12b0 1344     		add	r3, r3, r2
 3759 12b2 DB00     		lsls	r3, r3, #3
 3760 12b4 0B44     		add	r3, r3, r1
 3761 12b6 0233     		adds	r3, r3, #2
 3762 12b8 0022     		movs	r2, #0
 3763 12ba 1A70     		strb	r2, [r3]
 794:build\openmote-cc2538_armgcc\openstack\02b-MAChigh/neighbors.c ****     neighbors_vars.neighbors[neighborIndex].stableNeighbor            = FALSE;
 3764              		.loc 1 794 0
 3765 12bc FA79     		ldrb	r2, [r7, #7]	@ zero_extendqisi2
 3766 12be 4D49     		ldr	r1, .L249
 3767 12c0 1346     		mov	r3, r2
 3768 12c2 9B00     		lsls	r3, r3, #2
 3769 12c4 1344     		add	r3, r3, r2
 3770 12c6 DB00     		lsls	r3, r3, #3
 3771 12c8 0B44     		add	r3, r3, r1
 3772 12ca 0333     		adds	r3, r3, #3
 3773 12cc 0022     		movs	r2, #0
 3774 12ce 1A70     		strb	r2, [r3]
 795:build\openmote-cc2538_armgcc\openstack\02b-MAChigh/neighbors.c ****     neighbors_vars.neighbors[neighborIndex].switchStabilityCounter    = 0;
 3775              		.loc 1 795 0
 3776 12d0 FA79     		ldrb	r2, [r7, #7]	@ zero_extendqisi2
 3777 12d2 4849     		ldr	r1, .L249
 3778 12d4 1346     		mov	r3, r2
 3779 12d6 9B00     		lsls	r3, r3, #2
 3780 12d8 1344     		add	r3, r3, r2
 3781 12da DB00     		lsls	r3, r3, #3
 3782 12dc 0B44     		add	r3, r3, r1
 3783 12de 0433     		adds	r3, r3, #4
 3784 12e0 0022     		movs	r2, #0
 3785 12e2 1A70     		strb	r2, [r3]
 796:build\openmote-cc2538_armgcc\openstack\02b-MAChigh/neighbors.c ****     neighbors_vars.neighbors[neighborIndex].DAGrank                   = DEFAULTDAGRANK;
 3786              		.loc 1 796 0
 3787 12e4 FA79     		ldrb	r2, [r7, #7]	@ zero_extendqisi2
 3788 12e6 4349     		ldr	r1, .L249
 3789 12e8 1346     		mov	r3, r2
 3790 12ea 9B00     		lsls	r3, r3, #2
 3791 12ec 1344     		add	r3, r3, r2
 3792 12ee DB00     		lsls	r3, r3, #3
 3793 12f0 0B44     		add	r3, r3, r1
 3794 12f2 1633     		adds	r3, r3, #22
 3795 12f4 4FF6FF72 		movw	r2, #65535
 3796 12f8 1A80     		strh	r2, [r3]	@ movhi
 797:build\openmote-cc2538_armgcc\openstack\02b-MAChigh/neighbors.c ****     neighbors_vars.neighbors[neighborIndex].rssi                      = 0;
 3797              		.loc 1 797 0
 3798 12fa FA79     		ldrb	r2, [r7, #7]	@ zero_extendqisi2
 3799 12fc 3D49     		ldr	r1, .L249
 3800 12fe 1346     		mov	r3, r2
 3801 1300 9B00     		lsls	r3, r3, #2
 3802 1302 1344     		add	r3, r3, r2
 3803 1304 DB00     		lsls	r3, r3, #3
 3804 1306 0B44     		add	r3, r3, r1
 3805 1308 1833     		adds	r3, r3, #24
 3806 130a 0022     		movs	r2, #0
 3807 130c 1A70     		strb	r2, [r3]
 798:build\openmote-cc2538_armgcc\openstack\02b-MAChigh/neighbors.c ****     neighbors_vars.neighbors[neighborIndex].numRx                     = 0;
 3808              		.loc 1 798 0
 3809 130e FA79     		ldrb	r2, [r7, #7]	@ zero_extendqisi2
 3810 1310 3849     		ldr	r1, .L249
 3811 1312 1346     		mov	r3, r2
 3812 1314 9B00     		lsls	r3, r3, #2
 3813 1316 1344     		add	r3, r3, r2
 3814 1318 DB00     		lsls	r3, r3, #3
 3815 131a 0B44     		add	r3, r3, r1
 3816 131c 1933     		adds	r3, r3, #25
 3817 131e 0022     		movs	r2, #0
 3818 1320 1A70     		strb	r2, [r3]
 799:build\openmote-cc2538_armgcc\openstack\02b-MAChigh/neighbors.c ****     neighbors_vars.neighbors[neighborIndex].numTx                     = 0;
 3819              		.loc 1 799 0
 3820 1322 FA79     		ldrb	r2, [r7, #7]	@ zero_extendqisi2
 3821 1324 3349     		ldr	r1, .L249
 3822 1326 1346     		mov	r3, r2
 3823 1328 9B00     		lsls	r3, r3, #2
 3824 132a 1344     		add	r3, r3, r2
 3825 132c DB00     		lsls	r3, r3, #3
 3826 132e 0B44     		add	r3, r3, r1
 3827 1330 1A33     		adds	r3, r3, #26
 3828 1332 0022     		movs	r2, #0
 3829 1334 1A70     		strb	r2, [r3]
 800:build\openmote-cc2538_armgcc\openstack\02b-MAChigh/neighbors.c ****     neighbors_vars.neighbors[neighborIndex].numTxACK                  = 0;
 3830              		.loc 1 800 0
 3831 1336 FA79     		ldrb	r2, [r7, #7]	@ zero_extendqisi2
 3832 1338 2E49     		ldr	r1, .L249
 3833 133a 1346     		mov	r3, r2
 3834 133c 9B00     		lsls	r3, r3, #2
 3835 133e 1344     		add	r3, r3, r2
 3836 1340 DB00     		lsls	r3, r3, #3
 3837 1342 0B44     		add	r3, r3, r1
 3838 1344 1B33     		adds	r3, r3, #27
 3839 1346 0022     		movs	r2, #0
 3840 1348 1A70     		strb	r2, [r3]
 801:build\openmote-cc2538_armgcc\openstack\02b-MAChigh/neighbors.c ****     neighbors_vars.neighbors[neighborIndex].asn.bytes0and1            = 0;
 3841              		.loc 1 801 0
 3842 134a FA79     		ldrb	r2, [r7, #7]	@ zero_extendqisi2
 3843 134c 2949     		ldr	r1, .L249
 3844 134e 1346     		mov	r3, r2
 3845 1350 9B00     		lsls	r3, r3, #2
 3846 1352 1344     		add	r3, r3, r2
 3847 1354 DB00     		lsls	r3, r3, #3
 3848 1356 0B44     		add	r3, r3, r1
 3849 1358 2033     		adds	r3, r3, #32
 3850 135a 0022     		movs	r2, #0
 3851 135c 1A80     		strh	r2, [r3]	@ movhi
 802:build\openmote-cc2538_armgcc\openstack\02b-MAChigh/neighbors.c ****     neighbors_vars.neighbors[neighborIndex].asn.bytes2and3            = 0;
 3852              		.loc 1 802 0
 3853 135e FA79     		ldrb	r2, [r7, #7]	@ zero_extendqisi2
 3854 1360 2449     		ldr	r1, .L249
 3855 1362 1346     		mov	r3, r2
 3856 1364 9B00     		lsls	r3, r3, #2
 3857 1366 1344     		add	r3, r3, r2
 3858 1368 DB00     		lsls	r3, r3, #3
 3859 136a 0B44     		add	r3, r3, r1
 3860 136c 1E33     		adds	r3, r3, #30
 3861 136e 0022     		movs	r2, #0
 3862 1370 1A80     		strh	r2, [r3]	@ movhi
 803:build\openmote-cc2538_armgcc\openstack\02b-MAChigh/neighbors.c ****     neighbors_vars.neighbors[neighborIndex].asn.byte4                 = 0;
 3863              		.loc 1 803 0
 3864 1372 FA79     		ldrb	r2, [r7, #7]	@ zero_extendqisi2
 3865 1374 1F49     		ldr	r1, .L249
 3866 1376 1346     		mov	r3, r2
 3867 1378 9B00     		lsls	r3, r3, #2
 3868 137a 1344     		add	r3, r3, r2
 3869 137c DB00     		lsls	r3, r3, #3
 3870 137e 0B44     		add	r3, r3, r1
 3871 1380 1D33     		adds	r3, r3, #29
 3872 1382 0022     		movs	r2, #0
 3873 1384 1A70     		strb	r2, [r3]
 804:build\openmote-cc2538_armgcc\openstack\02b-MAChigh/neighbors.c ****     neighbors_vars.neighbors[neighborIndex].f6PNORES                  = FALSE;
 3874              		.loc 1 804 0
 3875 1386 FA79     		ldrb	r2, [r7, #7]	@ zero_extendqisi2
 3876 1388 1A49     		ldr	r1, .L249
 3877 138a 1346     		mov	r3, r2
 3878 138c 9B00     		lsls	r3, r3, #2
 3879 138e 1344     		add	r3, r3, r2
 3880 1390 DB00     		lsls	r3, r3, #3
 3881 1392 0B44     		add	r3, r3, r1
 3882 1394 2333     		adds	r3, r3, #35
 3883 1396 0022     		movs	r2, #0
 3884 1398 1A70     		strb	r2, [r3]
 805:build\openmote-cc2538_armgcc\openstack\02b-MAChigh/neighbors.c ****     neighbors_vars.neighbors[neighborIndex].sequenceNumber            = 0;
 3885              		.loc 1 805 0
 3886 139a FA79     		ldrb	r2, [r7, #7]	@ zero_extendqisi2
 3887 139c 1549     		ldr	r1, .L249
 3888 139e 1346     		mov	r3, r2
 3889 13a0 9B00     		lsls	r3, r3, #2
 3890 13a2 1344     		add	r3, r3, r2
 3891 13a4 DB00     		lsls	r3, r3, #3
 3892 13a6 0B44     		add	r3, r3, r1
 3893 13a8 2533     		adds	r3, r3, #37
 3894 13aa 0022     		movs	r2, #0
 3895 13ac 1A70     		strb	r2, [r3]
 806:build\openmote-cc2538_armgcc\openstack\02b-MAChigh/neighbors.c ****     neighbors_vars.neighbors[neighborIndex].backoffExponenton         = MINBE-1;;
 3896              		.loc 1 806 0
 3897 13ae FA79     		ldrb	r2, [r7, #7]	@ zero_extendqisi2
 3898 13b0 1049     		ldr	r1, .L249
 3899 13b2 1346     		mov	r3, r2
 3900 13b4 9B00     		lsls	r3, r3, #2
 3901 13b6 1344     		add	r3, r3, r2
 3902 13b8 DB00     		lsls	r3, r3, #3
 3903 13ba 0B44     		add	r3, r3, r1
 3904 13bc 2633     		adds	r3, r3, #38
 3905 13be 0122     		movs	r2, #1
 3906 13c0 1A70     		strb	r2, [r3]
 807:build\openmote-cc2538_armgcc\openstack\02b-MAChigh/neighbors.c ****     neighbors_vars.neighbors[neighborIndex].backoff                   = 0;
 3907              		.loc 1 807 0
 3908 13c2 FA79     		ldrb	r2, [r7, #7]	@ zero_extendqisi2
 3909 13c4 0B49     		ldr	r1, .L249
 3910 13c6 1346     		mov	r3, r2
 3911 13c8 9B00     		lsls	r3, r3, #2
 3912 13ca 1344     		add	r3, r3, r2
 3913 13cc DB00     		lsls	r3, r3, #3
 3914 13ce 0B44     		add	r3, r3, r1
 3915 13d0 2733     		adds	r3, r3, #39
 3916 13d2 0022     		movs	r2, #0
 3917 13d4 1A70     		strb	r2, [r3]
 808:build\openmote-cc2538_armgcc\openstack\02b-MAChigh/neighbors.c ****     neighbors_vars.neighbors[neighborIndex].addr_64b.type             = ADDR_NONE;
 3918              		.loc 1 808 0
 3919 13d6 FA79     		ldrb	r2, [r7, #7]	@ zero_extendqisi2
 3920 13d8 0649     		ldr	r1, .L249
 3921 13da 1346     		mov	r3, r2
 3922 13dc 9B00     		lsls	r3, r3, #2
 3923 13de 1344     		add	r3, r3, r2
 3924 13e0 DB00     		lsls	r3, r3, #3
 3925 13e2 0B44     		add	r3, r3, r1
 3926 13e4 0533     		adds	r3, r3, #5
 3927 13e6 0022     		movs	r2, #0
 3928 13e8 1A70     		strb	r2, [r3]
 809:build\openmote-cc2538_armgcc\openstack\02b-MAChigh/neighbors.c **** }
 3929              		.loc 1 809 0
 3930 13ea 00BF     		nop
 3931 13ec 0C37     		adds	r7, r7, #12
 3932              		.cfi_def_cfa_offset 4
 3933 13ee BD46     		mov	sp, r7
 3934              		.cfi_def_cfa_register 13
 3935              		@ sp needed
 3936 13f0 80BC     		pop	{r7}
 3937              		.cfi_restore 7
 3938              		.cfi_def_cfa_offset 0
 3939 13f2 7047     		bx	lr
 3940              	.L250:
 3941              		.align	2
 3942              	.L249:
 3943 13f4 00000000 		.word	neighbors_vars
 3944              		.cfi_endproc
 3945              	.LFE37:
 3947              		.align	1
 3948              		.global	isThisRowMatching
 3949              		.syntax unified
 3950              		.thumb
 3951              		.thumb_func
 3952              		.fpu softvfp
 3954              	isThisRowMatching:
 3955              	.LFB38:
 810:build\openmote-cc2538_armgcc\openstack\02b-MAChigh/neighbors.c **** 
 811:build\openmote-cc2538_armgcc\openstack\02b-MAChigh/neighbors.c **** //=========================== helpers =========================================
 812:build\openmote-cc2538_armgcc\openstack\02b-MAChigh/neighbors.c **** 
 813:build\openmote-cc2538_armgcc\openstack\02b-MAChigh/neighbors.c **** bool isThisRowMatching(open_addr_t* address, uint8_t rowNumber) {
 3956              		.loc 1 813 0
 3957              		.cfi_startproc
 3958              		@ args = 0, pretend = 0, frame = 8
 3959              		@ frame_needed = 1, uses_anonymous_args = 0
 3960 13f8 80B5     		push	{r7, lr}
 3961              		.cfi_def_cfa_offset 8
 3962              		.cfi_offset 7, -8
 3963              		.cfi_offset 14, -4
 3964 13fa 82B0     		sub	sp, sp, #8
 3965              		.cfi_def_cfa_offset 16
 3966 13fc 00AF     		add	r7, sp, #0
 3967              		.cfi_def_cfa_register 7
 3968 13fe 7860     		str	r0, [r7, #4]
 3969 1400 0B46     		mov	r3, r1
 3970 1402 FB70     		strb	r3, [r7, #3]
 814:build\openmote-cc2538_armgcc\openstack\02b-MAChigh/neighbors.c ****    switch (address->type) {
 3971              		.loc 1 814 0
 3972 1404 7B68     		ldr	r3, [r7, #4]
 3973 1406 1B78     		ldrb	r3, [r3]	@ zero_extendqisi2
 3974 1408 022B     		cmp	r3, #2
 3975 140a 1FD1     		bne	.L257
 815:build\openmote-cc2538_armgcc\openstack\02b-MAChigh/neighbors.c ****       case ADDR_64B:
 816:build\openmote-cc2538_armgcc\openstack\02b-MAChigh/neighbors.c ****          return neighbors_vars.neighbors[rowNumber].used &&
 3976              		.loc 1 816 0
 3977 140c FA78     		ldrb	r2, [r7, #3]	@ zero_extendqisi2
 3978 140e 1649     		ldr	r1, .L258
 3979 1410 1346     		mov	r3, r2
 3980 1412 9B00     		lsls	r3, r3, #2
 3981 1414 1344     		add	r3, r3, r2
 3982 1416 DB00     		lsls	r3, r3, #3
 3983 1418 0B44     		add	r3, r3, r1
 3984 141a 1B78     		ldrb	r3, [r3]	@ zero_extendqisi2
 3985 141c 002B     		cmp	r3, #0
 3986 141e 10D0     		beq	.L254
 817:build\openmote-cc2538_armgcc\openstack\02b-MAChigh/neighbors.c ****                 packetfunctions_sameAddress(address,&neighbors_vars.neighbors[rowNumber].addr_64b);
 3987              		.loc 1 817 0 discriminator 1
 3988 1420 FA78     		ldrb	r2, [r7, #3]	@ zero_extendqisi2
 3989 1422 1346     		mov	r3, r2
 3990 1424 9B00     		lsls	r3, r3, #2
 3991 1426 1344     		add	r3, r3, r2
 3992 1428 DB00     		lsls	r3, r3, #3
 3993 142a 0F4A     		ldr	r2, .L258
 3994 142c 1344     		add	r3, r3, r2
 3995 142e 0533     		adds	r3, r3, #5
 3996 1430 1946     		mov	r1, r3
 3997 1432 7868     		ldr	r0, [r7, #4]
 3998 1434 FFF7FEFF 		bl	packetfunctions_sameAddress
 3999 1438 0346     		mov	r3, r0
 816:build\openmote-cc2538_armgcc\openstack\02b-MAChigh/neighbors.c ****                 packetfunctions_sameAddress(address,&neighbors_vars.neighbors[rowNumber].addr_64b);
 4000              		.loc 1 816 0 discriminator 1
 4001 143a 002B     		cmp	r3, #0
 4002 143c 01D0     		beq	.L254
 816:build\openmote-cc2538_armgcc\openstack\02b-MAChigh/neighbors.c ****                 packetfunctions_sameAddress(address,&neighbors_vars.neighbors[rowNumber].addr_64b);
 4003              		.loc 1 816 0 is_stmt 0 discriminator 3
 4004 143e 0123     		movs	r3, #1
 4005 1440 00E0     		b	.L255
 4006              	.L254:
 816:build\openmote-cc2538_armgcc\openstack\02b-MAChigh/neighbors.c ****                 packetfunctions_sameAddress(address,&neighbors_vars.neighbors[rowNumber].addr_64b);
 4007              		.loc 1 816 0 discriminator 4
 4008 1442 0023     		movs	r3, #0
 4009              	.L255:
 816:build\openmote-cc2538_armgcc\openstack\02b-MAChigh/neighbors.c ****                 packetfunctions_sameAddress(address,&neighbors_vars.neighbors[rowNumber].addr_64b);
 4010              		.loc 1 816 0 discriminator 6
 4011 1444 03F00103 		and	r3, r3, #1
 4012 1448 DBB2     		uxtb	r3, r3
 4013 144a 08E0     		b	.L256
 4014              	.L257:
 818:build\openmote-cc2538_armgcc\openstack\02b-MAChigh/neighbors.c ****       default:
 819:build\openmote-cc2538_armgcc\openstack\02b-MAChigh/neighbors.c ****          openserial_printCritical(COMPONENT_NEIGHBORS,ERR_WRONG_ADDR_TYPE,
 820:build\openmote-cc2538_armgcc\openstack\02b-MAChigh/neighbors.c ****                                (errorparameter_t)address->type,
 4015              		.loc 1 820 0 is_stmt 1
 4016 144c 7B68     		ldr	r3, [r7, #4]
 4017 144e 1B78     		ldrb	r3, [r3]	@ zero_extendqisi2
 819:build\openmote-cc2538_armgcc\openstack\02b-MAChigh/neighbors.c ****                                (errorparameter_t)address->type,
 4018              		.loc 1 819 0
 4019 1450 9AB2     		uxth	r2, r3
 4020 1452 0323     		movs	r3, #3
 4021 1454 3221     		movs	r1, #50
 4022 1456 0D20     		movs	r0, #13
 4023 1458 FFF7FEFF 		bl	openserial_printCritical
 821:build\openmote-cc2538_armgcc\openstack\02b-MAChigh/neighbors.c ****                                (errorparameter_t)3);
 822:build\openmote-cc2538_armgcc\openstack\02b-MAChigh/neighbors.c ****          return FALSE;
 4024              		.loc 1 822 0
 4025 145c 0023     		movs	r3, #0
 4026              	.L256:
 823:build\openmote-cc2538_armgcc\openstack\02b-MAChigh/neighbors.c ****    }
 824:build\openmote-cc2538_armgcc\openstack\02b-MAChigh/neighbors.c **** }
 4027              		.loc 1 824 0
 4028 145e 1846     		mov	r0, r3
 4029 1460 0837     		adds	r7, r7, #8
 4030              		.cfi_def_cfa_offset 8
 4031 1462 BD46     		mov	sp, r7
 4032              		.cfi_def_cfa_register 13
 4033              		@ sp needed
 4034 1464 80BD     		pop	{r7, pc}
 4035              	.L259:
 4036 1466 00BF     		.align	2
 4037              	.L258:
 4038 1468 00000000 		.word	neighbors_vars
 4039              		.cfi_endproc
 4040              	.LFE38:
 4042              	.Letext0:
 4043              		.file 2 "c:\\program files (x86)\\gnu tools arm embedded\\7 2018-q2-update\\arm-none-eabi\\include
 4044              		.file 3 "c:\\program files (x86)\\gnu tools arm embedded\\7 2018-q2-update\\arm-none-eabi\\include
 4045              		.file 4 "c:\\program files (x86)\\gnu tools arm embedded\\7 2018-q2-update\\arm-none-eabi\\include
 4046              		.file 5 "c:\\program files (x86)\\gnu tools arm embedded\\7 2018-q2-update\\arm-none-eabi\\include
 4047              		.file 6 "c:\\program files (x86)\\gnu tools arm embedded\\7 2018-q2-update\\lib\\gcc\\arm-none-eab
 4048              		.file 7 "c:\\program files (x86)\\gnu tools arm embedded\\7 2018-q2-update\\arm-none-eabi\\include
 4049              		.file 8 "bsp\\boards\\openmote-cc2538/board_info.h"
 4050              		.file 9 "inc/opendefs.h"
 4051              		.file 10 "openstack\\03b-IPv6/icmpv6rpl.h"
 4052              		.file 11 "build\\openmote-cc2538_armgcc\\openstack\\02b-MAChigh\\neighbors.h"
 4053              		.file 12 "openstack\\cross-layers/idmanager.h"
 4054              		.file 13 "openstack\\02b-MAChigh/schedule.h"
 4055              		.file 14 "openstack\\02a-MAClow/IEEE802154E.h"