   1              		.cpu cortex-m3
   2              		.eabi_attribute 20, 1
   3              		.eabi_attribute 21, 1
   4              		.eabi_attribute 23, 3
   5              		.eabi_attribute 24, 1
   6              		.eabi_attribute 25, 1
   7              		.eabi_attribute 26, 1
   8              		.eabi_attribute 30, 6
   9              		.eabi_attribute 34, 1
  10              		.eabi_attribute 18, 4
  11              		.file	"sixtop.c"
  12              		.text
  13              	.Ltext0:
  14              		.cfi_sections	.debug_frame
  15              		.section	.rodata
  16              		.align	2
  19              	rreg_uriquery:
  20 0000 683D7563 		.ascii	"h=ucb\000"
  20      6200
  21 0006 0000     		.align	2
  24              	infoBoardname:
  25 0008 43433235 		.ascii	"CC2538\000"
  25      333800
  26 000f 00       		.align	2
  29              	infouCName:
  30 0010 43433235 		.ascii	"CC2538\000"
  30      333800
  31 0017 00       		.align	2
  34              	infoRadioName:
  35 0018 43433235 		.ascii	"CC2538 SoC\000"
  35      33382053 
  35      6F4300
  36 0023 00       		.align	2
  39              	infoStackName:
  40 0024 4F70656E 		.ascii	"OpenWSN \000"
  40      57534E20 
  40      00
  41 002d 000000   		.align	2
  44              	all_routers_multicast:
  45 0030 FF       		.byte	-1
  46 0031 02       		.byte	2
  47 0032 00       		.byte	0
  48 0033 00       		.byte	0
  49 0034 00       		.byte	0
  50 0035 00       		.byte	0
  51 0036 00       		.byte	0
  52 0037 00       		.byte	0
  53 0038 00       		.byte	0
  54 0039 00       		.byte	0
  55 003a 00       		.byte	0
  56 003b 00       		.byte	0
  57 003c 00       		.byte	0
  58 003d 00       		.byte	0
  59 003e 00       		.byte	0
  60 003f 1A       		.byte	26
  61              		.align	2
  64              	chTemplate_default:
  65 0040 05       		.byte	5
  66 0041 06       		.byte	6
  67 0042 0C       		.byte	12
  68 0043 07       		.byte	7
  69 0044 0F       		.byte	15
  70 0045 04       		.byte	4
  71 0046 0E       		.byte	14
  72 0047 0B       		.byte	11
  73 0048 08       		.byte	8
  74 0049 00       		.byte	0
  75 004a 01       		.byte	1
  76 004b 02       		.byte	2
  77 004c 0D       		.byte	13
  78 004d 03       		.byte	3
  79 004e 09       		.byte	9
  80 004f 0A       		.byte	10
  81              		.align	2
  84              	ebIEsBytestream:
  85 0050 1A       		.byte	26
  86 0051 88       		.byte	-120
  87 0052 06       		.byte	6
  88 0053 1A       		.byte	26
  89 0054 00       		.byte	0
  90 0055 00       		.byte	0
  91 0056 00       		.byte	0
  92 0057 00       		.byte	0
  93 0058 00       		.byte	0
  94 0059 00       		.byte	0
  95 005a 01       		.byte	1
  96 005b 1C       		.byte	28
  97 005c 00       		.byte	0
  98 005d 01       		.byte	1
  99 005e C8       		.byte	-56
 100 005f 00       		.byte	0
 101 0060 0A       		.byte	10
 102 0061 1B       		.byte	27
 103 0062 01       		.byte	1
 104 0063 00       		.byte	0
 105 0064 0D       		.byte	13
 106 0065 00       		.byte	0
 107 0066 01       		.byte	1
 108 0067 00       		.byte	0
 109 0068 00       		.byte	0
 110 0069 00       		.byte	0
 111 006a 00       		.byte	0
 112 006b 0F       		.byte	15
 113              		.align	2
 116              	linklocalprefix:
 117 006c FE       		.byte	-2
 118 006d 80       		.byte	-128
 119 006e 00       		.byte	0
 120 006f 00       		.byte	0
 121 0070 00       		.byte	0
 122 0071 00       		.byte	0
 123 0072 00       		.byte	0
 124 0073 00       		.byte	0
 125              		.comm	sixtop_vars,80,4
 126              		.text
 127              		.align	1
 128              		.global	sixtop_init
 129              		.syntax unified
 130              		.thumb
 131              		.thumb_func
 132              		.fpu softvfp
 134              	sixtop_init:
 135              	.LFB3:
 136              		.file 1 "build\\openmote-cc2538_armgcc\\openstack\\02b-MAChigh\\sixtop.c"
   1:build\openmote-cc2538_armgcc\openstack\02b-MAChigh/sixtop.c **** #include "opendefs.h"
   2:build\openmote-cc2538_armgcc\openstack\02b-MAChigh/sixtop.c **** #include "sixtop.h"
   3:build\openmote-cc2538_armgcc\openstack\02b-MAChigh/sixtop.c **** #include "openserial.h"
   4:build\openmote-cc2538_armgcc\openstack\02b-MAChigh/sixtop.c **** #include "openqueue.h"
   5:build\openmote-cc2538_armgcc\openstack\02b-MAChigh/sixtop.c **** #include "neighbors.h"
   6:build\openmote-cc2538_armgcc\openstack\02b-MAChigh/sixtop.c **** #include "IEEE802154E.h"
   7:build\openmote-cc2538_armgcc\openstack\02b-MAChigh/sixtop.c **** #include "iphc.h"
   8:build\openmote-cc2538_armgcc\openstack\02b-MAChigh/sixtop.c **** #include "packetfunctions.h"
   9:build\openmote-cc2538_armgcc\openstack\02b-MAChigh/sixtop.c **** #include "openrandom.h"
  10:build\openmote-cc2538_armgcc\openstack\02b-MAChigh/sixtop.c **** #include "scheduler.h"
  11:build\openmote-cc2538_armgcc\openstack\02b-MAChigh/sixtop.c **** #include "opentimers.h"
  12:build\openmote-cc2538_armgcc\openstack\02b-MAChigh/sixtop.c **** #include "debugpins.h"
  13:build\openmote-cc2538_armgcc\openstack\02b-MAChigh/sixtop.c **** #include "leds.h"
  14:build\openmote-cc2538_armgcc\openstack\02b-MAChigh/sixtop.c **** #include "IEEE802154.h"
  15:build\openmote-cc2538_armgcc\openstack\02b-MAChigh/sixtop.c **** #include "IEEE802154_security.h"
  16:build\openmote-cc2538_armgcc\openstack\02b-MAChigh/sixtop.c **** #include "idmanager.h"
  17:build\openmote-cc2538_armgcc\openstack\02b-MAChigh/sixtop.c **** #include "schedule.h"
  18:build\openmote-cc2538_armgcc\openstack\02b-MAChigh/sixtop.c **** #include "msf.h"
  19:build\openmote-cc2538_armgcc\openstack\02b-MAChigh/sixtop.c **** 
  20:build\openmote-cc2538_armgcc\openstack\02b-MAChigh/sixtop.c **** //=========================== define ==========================================
  21:build\openmote-cc2538_armgcc\openstack\02b-MAChigh/sixtop.c **** 
  22:build\openmote-cc2538_armgcc\openstack\02b-MAChigh/sixtop.c **** // in seconds: sixtop maintaince is called every 30 seconds
  23:build\openmote-cc2538_armgcc\openstack\02b-MAChigh/sixtop.c **** #define MAINTENANCE_PERIOD        30
  24:build\openmote-cc2538_armgcc\openstack\02b-MAChigh/sixtop.c **** /**
  25:build\openmote-cc2538_armgcc\openstack\02b-MAChigh/sixtop.c ****  Drop the 6P request if number of 6P response with RC RESET in queue is larger
  26:build\openmote-cc2538_armgcc\openstack\02b-MAChigh/sixtop.c ****     than MAX6PRESPONSE. Value 0 means that alway drop 6P response when the node
  27:build\openmote-cc2538_armgcc\openstack\02b-MAChigh/sixtop.c ****     is in a 6P transcation.
  28:build\openmote-cc2538_armgcc\openstack\02b-MAChigh/sixtop.c **** */
  29:build\openmote-cc2538_armgcc\openstack\02b-MAChigh/sixtop.c **** #define MAX6PRESPONSE             1
  30:build\openmote-cc2538_armgcc\openstack\02b-MAChigh/sixtop.c **** 
  31:build\openmote-cc2538_armgcc\openstack\02b-MAChigh/sixtop.c **** //=========================== variables =======================================
  32:build\openmote-cc2538_armgcc\openstack\02b-MAChigh/sixtop.c **** 
  33:build\openmote-cc2538_armgcc\openstack\02b-MAChigh/sixtop.c **** sixtop_vars_t sixtop_vars;
  34:build\openmote-cc2538_armgcc\openstack\02b-MAChigh/sixtop.c **** 
  35:build\openmote-cc2538_armgcc\openstack\02b-MAChigh/sixtop.c **** //=========================== prototypes ======================================
  36:build\openmote-cc2538_armgcc\openstack\02b-MAChigh/sixtop.c **** 
  37:build\openmote-cc2538_armgcc\openstack\02b-MAChigh/sixtop.c **** // send internal
  38:build\openmote-cc2538_armgcc\openstack\02b-MAChigh/sixtop.c **** owerror_t     sixtop_send_internal(
  39:build\openmote-cc2538_armgcc\openstack\02b-MAChigh/sixtop.c ****    OpenQueueEntry_t*    msg,
  40:build\openmote-cc2538_armgcc\openstack\02b-MAChigh/sixtop.c ****    bool                 payloadIEPresent
  41:build\openmote-cc2538_armgcc\openstack\02b-MAChigh/sixtop.c **** );
  42:build\openmote-cc2538_armgcc\openstack\02b-MAChigh/sixtop.c **** 
  43:build\openmote-cc2538_armgcc\openstack\02b-MAChigh/sixtop.c **** // timer interrupt callbacks
  44:build\openmote-cc2538_armgcc\openstack\02b-MAChigh/sixtop.c **** void          sixtop_maintenance_timer_cb(opentimers_id_t id);
  45:build\openmote-cc2538_armgcc\openstack\02b-MAChigh/sixtop.c **** void          sixtop_timeout_timer_cb(opentimers_id_t id);
  46:build\openmote-cc2538_armgcc\openstack\02b-MAChigh/sixtop.c **** void          sixtop_sendingEb_timer_cb(opentimers_id_t id);
  47:build\openmote-cc2538_armgcc\openstack\02b-MAChigh/sixtop.c **** 
  48:build\openmote-cc2538_armgcc\openstack\02b-MAChigh/sixtop.c **** //=== EB/KA task
  49:build\openmote-cc2538_armgcc\openstack\02b-MAChigh/sixtop.c **** 
  50:build\openmote-cc2538_armgcc\openstack\02b-MAChigh/sixtop.c **** void          timer_sixtop_sendEb_fired(void);
  51:build\openmote-cc2538_armgcc\openstack\02b-MAChigh/sixtop.c **** void          timer_sixtop_management_fired(void);
  52:build\openmote-cc2538_armgcc\openstack\02b-MAChigh/sixtop.c **** void          sixtop_sendEB(void);
  53:build\openmote-cc2538_armgcc\openstack\02b-MAChigh/sixtop.c **** void          sixtop_sendKA(void);
  54:build\openmote-cc2538_armgcc\openstack\02b-MAChigh/sixtop.c **** 
  55:build\openmote-cc2538_armgcc\openstack\02b-MAChigh/sixtop.c **** //=== six2six task
  56:build\openmote-cc2538_armgcc\openstack\02b-MAChigh/sixtop.c **** 
  57:build\openmote-cc2538_armgcc\openstack\02b-MAChigh/sixtop.c **** void          timer_sixtop_six2six_timeout_fired(void);
  58:build\openmote-cc2538_armgcc\openstack\02b-MAChigh/sixtop.c **** void          sixtop_six2six_sendDone(
  59:build\openmote-cc2538_armgcc\openstack\02b-MAChigh/sixtop.c ****    OpenQueueEntry_t*    msg,
  60:build\openmote-cc2538_armgcc\openstack\02b-MAChigh/sixtop.c ****    owerror_t            error
  61:build\openmote-cc2538_armgcc\openstack\02b-MAChigh/sixtop.c **** );
  62:build\openmote-cc2538_armgcc\openstack\02b-MAChigh/sixtop.c **** bool          sixtop_processIEs(
  63:build\openmote-cc2538_armgcc\openstack\02b-MAChigh/sixtop.c ****    OpenQueueEntry_t*    pkt,
  64:build\openmote-cc2538_armgcc\openstack\02b-MAChigh/sixtop.c ****    uint16_t*            lenIE
  65:build\openmote-cc2538_armgcc\openstack\02b-MAChigh/sixtop.c **** );
  66:build\openmote-cc2538_armgcc\openstack\02b-MAChigh/sixtop.c **** void sixtop_six2six_notifyReceive(
  67:build\openmote-cc2538_armgcc\openstack\02b-MAChigh/sixtop.c ****    uint8_t              version,
  68:build\openmote-cc2538_armgcc\openstack\02b-MAChigh/sixtop.c ****    uint8_t              type,
  69:build\openmote-cc2538_armgcc\openstack\02b-MAChigh/sixtop.c ****    uint8_t              code,
  70:build\openmote-cc2538_armgcc\openstack\02b-MAChigh/sixtop.c ****    uint8_t              sfId,
  71:build\openmote-cc2538_armgcc\openstack\02b-MAChigh/sixtop.c ****    uint8_t              seqNum,
  72:build\openmote-cc2538_armgcc\openstack\02b-MAChigh/sixtop.c ****    uint8_t              ptr,
  73:build\openmote-cc2538_armgcc\openstack\02b-MAChigh/sixtop.c ****    uint8_t              length,
  74:build\openmote-cc2538_armgcc\openstack\02b-MAChigh/sixtop.c ****    OpenQueueEntry_t*    pkt
  75:build\openmote-cc2538_armgcc\openstack\02b-MAChigh/sixtop.c **** );
  76:build\openmote-cc2538_armgcc\openstack\02b-MAChigh/sixtop.c **** 
  77:build\openmote-cc2538_armgcc\openstack\02b-MAChigh/sixtop.c **** //=== helper functions
  78:build\openmote-cc2538_armgcc\openstack\02b-MAChigh/sixtop.c **** 
  79:build\openmote-cc2538_armgcc\openstack\02b-MAChigh/sixtop.c **** bool          sixtop_addCells(
  80:build\openmote-cc2538_armgcc\openstack\02b-MAChigh/sixtop.c ****    uint8_t              slotframeID,
  81:build\openmote-cc2538_armgcc\openstack\02b-MAChigh/sixtop.c ****    cellInfo_ht*         cellList,
  82:build\openmote-cc2538_armgcc\openstack\02b-MAChigh/sixtop.c ****    open_addr_t*         previousHop,
  83:build\openmote-cc2538_armgcc\openstack\02b-MAChigh/sixtop.c ****    uint8_t              cellOptions
  84:build\openmote-cc2538_armgcc\openstack\02b-MAChigh/sixtop.c **** );
  85:build\openmote-cc2538_armgcc\openstack\02b-MAChigh/sixtop.c **** bool          sixtop_removeCells(
  86:build\openmote-cc2538_armgcc\openstack\02b-MAChigh/sixtop.c ****    uint8_t              slotframeID,
  87:build\openmote-cc2538_armgcc\openstack\02b-MAChigh/sixtop.c ****    cellInfo_ht*         cellList,
  88:build\openmote-cc2538_armgcc\openstack\02b-MAChigh/sixtop.c ****    open_addr_t*         previousHop,
  89:build\openmote-cc2538_armgcc\openstack\02b-MAChigh/sixtop.c ****    uint8_t              cellOptions
  90:build\openmote-cc2538_armgcc\openstack\02b-MAChigh/sixtop.c **** );
  91:build\openmote-cc2538_armgcc\openstack\02b-MAChigh/sixtop.c **** bool          sixtop_areAvailableCellsToBeScheduled(
  92:build\openmote-cc2538_armgcc\openstack\02b-MAChigh/sixtop.c ****     uint8_t              frameID,
  93:build\openmote-cc2538_armgcc\openstack\02b-MAChigh/sixtop.c ****     uint8_t              numOfCells,
  94:build\openmote-cc2538_armgcc\openstack\02b-MAChigh/sixtop.c ****     cellInfo_ht*         cellList
  95:build\openmote-cc2538_armgcc\openstack\02b-MAChigh/sixtop.c **** );
  96:build\openmote-cc2538_armgcc\openstack\02b-MAChigh/sixtop.c **** bool sixtop_areAvailableCellsToBeRemoved(
  97:build\openmote-cc2538_armgcc\openstack\02b-MAChigh/sixtop.c ****     uint8_t      frameID,
  98:build\openmote-cc2538_armgcc\openstack\02b-MAChigh/sixtop.c ****     uint8_t      numOfCells,
  99:build\openmote-cc2538_armgcc\openstack\02b-MAChigh/sixtop.c ****     cellInfo_ht* cellList,
 100:build\openmote-cc2538_armgcc\openstack\02b-MAChigh/sixtop.c ****     open_addr_t* neighbor,
 101:build\openmote-cc2538_armgcc\openstack\02b-MAChigh/sixtop.c ****     uint8_t      cellOptions
 102:build\openmote-cc2538_armgcc\openstack\02b-MAChigh/sixtop.c **** );
 103:build\openmote-cc2538_armgcc\openstack\02b-MAChigh/sixtop.c **** 
 104:build\openmote-cc2538_armgcc\openstack\02b-MAChigh/sixtop.c **** //=========================== public ==========================================
 105:build\openmote-cc2538_armgcc\openstack\02b-MAChigh/sixtop.c **** 
 106:build\openmote-cc2538_armgcc\openstack\02b-MAChigh/sixtop.c **** void sixtop_init(void) {
 137              		.loc 1 106 0
 138              		.cfi_startproc
 139              		@ args = 0, pretend = 0, frame = 0
 140              		@ frame_needed = 1, uses_anonymous_args = 0
 141 0000 80B5     		push	{r7, lr}
 142              		.cfi_def_cfa_offset 8
 143              		.cfi_offset 7, -8
 144              		.cfi_offset 14, -4
 145 0002 82B0     		sub	sp, sp, #8
 146              		.cfi_def_cfa_offset 16
 147 0004 02AF     		add	r7, sp, #8
 148              		.cfi_def_cfa 7, 8
 107:build\openmote-cc2538_armgcc\openstack\02b-MAChigh/sixtop.c **** 
 108:build\openmote-cc2538_armgcc\openstack\02b-MAChigh/sixtop.c ****     sixtop_vars.periodMaintenance  = 872 +(openrandom_get16b()&0xff);
 149              		.loc 1 108 0
 150 0006 FFF7FEFF 		bl	openrandom_get16b
 151 000a 0346     		mov	r3, r0
 152 000c DBB2     		uxtb	r3, r3
 153 000e 9BB2     		uxth	r3, r3
 154 0010 03F55A73 		add	r3, r3, #872
 155 0014 9AB2     		uxth	r2, r3
 156 0016 234B     		ldr	r3, .L2
 157 0018 1A80     		strh	r2, [r3]	@ movhi
 109:build\openmote-cc2538_armgcc\openstack\02b-MAChigh/sixtop.c ****     sixtop_vars.busySendingKA      = FALSE;
 158              		.loc 1 109 0
 159 001a 224B     		ldr	r3, .L2
 160 001c 0022     		movs	r2, #0
 161 001e 9A70     		strb	r2, [r3, #2]
 110:build\openmote-cc2538_armgcc\openstack\02b-MAChigh/sixtop.c ****     sixtop_vars.busySendingEB      = FALSE;
 162              		.loc 1 110 0
 163 0020 204B     		ldr	r3, .L2
 164 0022 0022     		movs	r2, #0
 165 0024 DA70     		strb	r2, [r3, #3]
 111:build\openmote-cc2538_armgcc\openstack\02b-MAChigh/sixtop.c ****     sixtop_vars.dsn                = 0;
 166              		.loc 1 111 0
 167 0026 1F4B     		ldr	r3, .L2
 168 0028 0022     		movs	r2, #0
 169 002a 1A71     		strb	r2, [r3, #4]
 112:build\openmote-cc2538_armgcc\openstack\02b-MAChigh/sixtop.c ****     sixtop_vars.mgtTaskCounter     = 0;
 170              		.loc 1 112 0
 171 002c 1D4B     		ldr	r3, .L2
 172 002e 0022     		movs	r2, #0
 173 0030 5A71     		strb	r2, [r3, #5]
 113:build\openmote-cc2538_armgcc\openstack\02b-MAChigh/sixtop.c ****     sixtop_vars.kaPeriod           = MAXKAPERIOD;
 174              		.loc 1 113 0
 175 0032 1C4B     		ldr	r3, .L2
 176 0034 4FF47A72 		mov	r2, #1000
 177 0038 5A81     		strh	r2, [r3, #10]	@ movhi
 114:build\openmote-cc2538_armgcc\openstack\02b-MAChigh/sixtop.c ****     sixtop_vars.isResponseEnabled  = TRUE;
 178              		.loc 1 114 0
 179 003a 1A4B     		ldr	r3, .L2
 180 003c 0122     		movs	r2, #1
 181 003e 1A74     		strb	r2, [r3, #16]
 115:build\openmote-cc2538_armgcc\openstack\02b-MAChigh/sixtop.c ****     sixtop_vars.six2six_state      = SIX_STATE_IDLE;
 182              		.loc 1 115 0
 183 0040 184B     		ldr	r3, .L2
 184 0042 0022     		movs	r2, #0
 185 0044 9A73     		strb	r2, [r3, #14]
 116:build\openmote-cc2538_armgcc\openstack\02b-MAChigh/sixtop.c **** 
 117:build\openmote-cc2538_armgcc\openstack\02b-MAChigh/sixtop.c ****     sixtop_vars.ebSendingTimerId   = opentimers_create(TIMER_GENERAL_PURPOSE, TASKPRIO_SIXTOP);
 186              		.loc 1 117 0
 187 0046 0421     		movs	r1, #4
 188 0048 FF20     		movs	r0, #255
 189 004a FFF7FEFF 		bl	opentimers_create
 190 004e 0346     		mov	r3, r0
 191 0050 1A46     		mov	r2, r3
 192 0052 144B     		ldr	r3, .L2
 193 0054 DA71     		strb	r2, [r3, #7]
 118:build\openmote-cc2538_armgcc\openstack\02b-MAChigh/sixtop.c ****     opentimers_scheduleIn(
 194              		.loc 1 118 0
 195 0056 134B     		ldr	r3, .L2
 196 0058 D879     		ldrb	r0, [r3, #7]	@ zero_extendqisi2
 197 005a 134B     		ldr	r3, .L2+4
 198 005c 0093     		str	r3, [sp]
 199 005e 0023     		movs	r3, #0
 200 0060 0022     		movs	r2, #0
 201 0062 8221     		movs	r1, #130
 202 0064 FFF7FEFF 		bl	opentimers_scheduleIn
 119:build\openmote-cc2538_armgcc\openstack\02b-MAChigh/sixtop.c ****         sixtop_vars.ebSendingTimerId,
 120:build\openmote-cc2538_armgcc\openstack\02b-MAChigh/sixtop.c ****         SLOTFRAME_LENGTH *SLOTDURATION,
 121:build\openmote-cc2538_armgcc\openstack\02b-MAChigh/sixtop.c ****         TIME_MS,
 122:build\openmote-cc2538_armgcc\openstack\02b-MAChigh/sixtop.c ****         TIMER_PERIODIC,
 123:build\openmote-cc2538_armgcc\openstack\02b-MAChigh/sixtop.c ****         sixtop_sendingEb_timer_cb
 124:build\openmote-cc2538_armgcc\openstack\02b-MAChigh/sixtop.c ****     );
 125:build\openmote-cc2538_armgcc\openstack\02b-MAChigh/sixtop.c **** 
 126:build\openmote-cc2538_armgcc\openstack\02b-MAChigh/sixtop.c ****     sixtop_vars.maintenanceTimerId   = opentimers_create(TIMER_GENERAL_PURPOSE, TASKPRIO_SIXTOP);
 203              		.loc 1 126 0
 204 0068 0421     		movs	r1, #4
 205 006a FF20     		movs	r0, #255
 206 006c FFF7FEFF 		bl	opentimers_create
 207 0070 0346     		mov	r3, r0
 208 0072 1A46     		mov	r2, r3
 209 0074 0B4B     		ldr	r3, .L2
 210 0076 1A72     		strb	r2, [r3, #8]
 127:build\openmote-cc2538_armgcc\openstack\02b-MAChigh/sixtop.c ****     opentimers_scheduleIn(
 211              		.loc 1 127 0
 212 0078 0A4B     		ldr	r3, .L2
 213 007a 187A     		ldrb	r0, [r3, #8]	@ zero_extendqisi2
 128:build\openmote-cc2538_armgcc\openstack\02b-MAChigh/sixtop.c ****         sixtop_vars.maintenanceTimerId,
 129:build\openmote-cc2538_armgcc\openstack\02b-MAChigh/sixtop.c ****         sixtop_vars.periodMaintenance,
 214              		.loc 1 129 0
 215 007c 094B     		ldr	r3, .L2
 216 007e 1B88     		ldrh	r3, [r3]
 127:build\openmote-cc2538_armgcc\openstack\02b-MAChigh/sixtop.c ****     opentimers_scheduleIn(
 217              		.loc 1 127 0
 218 0080 1946     		mov	r1, r3
 219 0082 0A4B     		ldr	r3, .L2+8
 220 0084 0093     		str	r3, [sp]
 221 0086 0023     		movs	r3, #0
 222 0088 0022     		movs	r2, #0
 223 008a FFF7FEFF 		bl	opentimers_scheduleIn
 130:build\openmote-cc2538_armgcc\openstack\02b-MAChigh/sixtop.c ****         TIME_MS,
 131:build\openmote-cc2538_armgcc\openstack\02b-MAChigh/sixtop.c ****         TIMER_PERIODIC,
 132:build\openmote-cc2538_armgcc\openstack\02b-MAChigh/sixtop.c ****         sixtop_maintenance_timer_cb
 133:build\openmote-cc2538_armgcc\openstack\02b-MAChigh/sixtop.c ****     );
 134:build\openmote-cc2538_armgcc\openstack\02b-MAChigh/sixtop.c **** 
 135:build\openmote-cc2538_armgcc\openstack\02b-MAChigh/sixtop.c ****     sixtop_vars.timeoutTimerId      =  opentimers_create(TIMER_GENERAL_PURPOSE, TASKPRIO_SIXTOP);
 224              		.loc 1 135 0
 225 008e 0421     		movs	r1, #4
 226 0090 FF20     		movs	r0, #255
 227 0092 FFF7FEFF 		bl	opentimers_create
 228 0096 0346     		mov	r3, r0
 229 0098 1A46     		mov	r2, r3
 230 009a 024B     		ldr	r3, .L2
 231 009c 5A72     		strb	r2, [r3, #9]
 136:build\openmote-cc2538_armgcc\openstack\02b-MAChigh/sixtop.c **** }
 232              		.loc 1 136 0
 233 009e 00BF     		nop
 234 00a0 BD46     		mov	sp, r7
 235              		.cfi_def_cfa_register 13
 236              		@ sp needed
 237 00a2 80BD     		pop	{r7, pc}
 238              	.L3:
 239              		.align	2
 240              	.L2:
 241 00a4 00000000 		.word	sixtop_vars
 242 00a8 00000000 		.word	sixtop_sendingEb_timer_cb
 243 00ac 00000000 		.word	sixtop_maintenance_timer_cb
 244              		.cfi_endproc
 245              	.LFE3:
 247              		.align	1
 248              		.global	sixtop_setKaPeriod
 249              		.syntax unified
 250              		.thumb
 251              		.thumb_func
 252              		.fpu softvfp
 254              	sixtop_setKaPeriod:
 255              	.LFB4:
 137:build\openmote-cc2538_armgcc\openstack\02b-MAChigh/sixtop.c **** 
 138:build\openmote-cc2538_armgcc\openstack\02b-MAChigh/sixtop.c **** void sixtop_setKaPeriod(uint16_t kaPeriod) {
 256              		.loc 1 138 0
 257              		.cfi_startproc
 258              		@ args = 0, pretend = 0, frame = 8
 259              		@ frame_needed = 1, uses_anonymous_args = 0
 260              		@ link register save eliminated.
 261 00b0 80B4     		push	{r7}
 262              		.cfi_def_cfa_offset 4
 263              		.cfi_offset 7, -4
 264 00b2 83B0     		sub	sp, sp, #12
 265              		.cfi_def_cfa_offset 16
 266 00b4 00AF     		add	r7, sp, #0
 267              		.cfi_def_cfa_register 7
 268 00b6 0346     		mov	r3, r0
 269 00b8 FB80     		strh	r3, [r7, #6]	@ movhi
 139:build\openmote-cc2538_armgcc\openstack\02b-MAChigh/sixtop.c ****     if(kaPeriod > MAXKAPERIOD) {
 270              		.loc 1 139 0
 271 00ba FB88     		ldrh	r3, [r7, #6]
 272 00bc B3F57A7F 		cmp	r3, #1000
 273 00c0 04D9     		bls	.L5
 140:build\openmote-cc2538_armgcc\openstack\02b-MAChigh/sixtop.c ****         sixtop_vars.kaPeriod = MAXKAPERIOD;
 274              		.loc 1 140 0
 275 00c2 064B     		ldr	r3, .L8
 276 00c4 4FF47A72 		mov	r2, #1000
 277 00c8 5A81     		strh	r2, [r3, #10]	@ movhi
 141:build\openmote-cc2538_armgcc\openstack\02b-MAChigh/sixtop.c ****     } else {
 142:build\openmote-cc2538_armgcc\openstack\02b-MAChigh/sixtop.c ****         sixtop_vars.kaPeriod = kaPeriod;
 143:build\openmote-cc2538_armgcc\openstack\02b-MAChigh/sixtop.c ****     }
 144:build\openmote-cc2538_armgcc\openstack\02b-MAChigh/sixtop.c **** }
 278              		.loc 1 144 0
 279 00ca 02E0     		b	.L7
 280              	.L5:
 142:build\openmote-cc2538_armgcc\openstack\02b-MAChigh/sixtop.c ****     }
 281              		.loc 1 142 0
 282 00cc 034A     		ldr	r2, .L8
 283 00ce FB88     		ldrh	r3, [r7, #6]	@ movhi
 284 00d0 5381     		strh	r3, [r2, #10]	@ movhi
 285              	.L7:
 286              		.loc 1 144 0
 287 00d2 00BF     		nop
 288 00d4 0C37     		adds	r7, r7, #12
 289              		.cfi_def_cfa_offset 4
 290 00d6 BD46     		mov	sp, r7
 291              		.cfi_def_cfa_register 13
 292              		@ sp needed
 293 00d8 80BC     		pop	{r7}
 294              		.cfi_restore 7
 295              		.cfi_def_cfa_offset 0
 296 00da 7047     		bx	lr
 297              	.L9:
 298              		.align	2
 299              	.L8:
 300 00dc 00000000 		.word	sixtop_vars
 301              		.cfi_endproc
 302              	.LFE4:
 304              		.align	1
 305              		.global	sixtop_setEBPeriod
 306              		.syntax unified
 307              		.thumb
 308              		.thumb_func
 309              		.fpu softvfp
 311              	sixtop_setEBPeriod:
 312              	.LFB5:
 145:build\openmote-cc2538_armgcc\openstack\02b-MAChigh/sixtop.c **** 
 146:build\openmote-cc2538_armgcc\openstack\02b-MAChigh/sixtop.c **** void sixtop_setEBPeriod(uint8_t ebPeriod) {
 313              		.loc 1 146 0
 314              		.cfi_startproc
 315              		@ args = 0, pretend = 0, frame = 8
 316              		@ frame_needed = 1, uses_anonymous_args = 0
 317              		@ link register save eliminated.
 318 00e0 80B4     		push	{r7}
 319              		.cfi_def_cfa_offset 4
 320              		.cfi_offset 7, -4
 321 00e2 83B0     		sub	sp, sp, #12
 322              		.cfi_def_cfa_offset 16
 323 00e4 00AF     		add	r7, sp, #0
 324              		.cfi_def_cfa_register 7
 325 00e6 0346     		mov	r3, r0
 326 00e8 FB71     		strb	r3, [r7, #7]
 147:build\openmote-cc2538_armgcc\openstack\02b-MAChigh/sixtop.c ****     if(ebPeriod != 0) {
 327              		.loc 1 147 0
 328 00ea FB79     		ldrb	r3, [r7, #7]	@ zero_extendqisi2
 329 00ec 002B     		cmp	r3, #0
 330 00ee 03D0     		beq	.L12
 148:build\openmote-cc2538_armgcc\openstack\02b-MAChigh/sixtop.c ****         // convert parameter to miliseconds
 149:build\openmote-cc2538_armgcc\openstack\02b-MAChigh/sixtop.c ****         sixtop_vars.ebPeriod = ebPeriod;
 331              		.loc 1 149 0
 332 00f0 FB79     		ldrb	r3, [r7, #7]	@ zero_extendqisi2
 333 00f2 9AB2     		uxth	r2, r3
 334 00f4 034B     		ldr	r3, .L13
 335 00f6 9A81     		strh	r2, [r3, #12]	@ movhi
 336              	.L12:
 150:build\openmote-cc2538_armgcc\openstack\02b-MAChigh/sixtop.c ****     }
 151:build\openmote-cc2538_armgcc\openstack\02b-MAChigh/sixtop.c **** }
 337              		.loc 1 151 0
 338 00f8 00BF     		nop
 339 00fa 0C37     		adds	r7, r7, #12
 340              		.cfi_def_cfa_offset 4
 341 00fc BD46     		mov	sp, r7
 342              		.cfi_def_cfa_register 13
 343              		@ sp needed
 344 00fe 80BC     		pop	{r7}
 345              		.cfi_restore 7
 346              		.cfi_def_cfa_offset 0
 347 0100 7047     		bx	lr
 348              	.L14:
 349 0102 00BF     		.align	2
 350              	.L13:
 351 0104 00000000 		.word	sixtop_vars
 352              		.cfi_endproc
 353              	.LFE5:
 355              		.align	1
 356              		.global	sixtop_setSFcallback
 357              		.syntax unified
 358              		.thumb
 359              		.thumb_func
 360              		.fpu softvfp
 362              	sixtop_setSFcallback:
 363              	.LFB6:
 152:build\openmote-cc2538_armgcc\openstack\02b-MAChigh/sixtop.c **** 
 153:build\openmote-cc2538_armgcc\openstack\02b-MAChigh/sixtop.c **** void  sixtop_setSFcallback(
 154:build\openmote-cc2538_armgcc\openstack\02b-MAChigh/sixtop.c ****     sixtop_sf_getsfid           cb0,
 155:build\openmote-cc2538_armgcc\openstack\02b-MAChigh/sixtop.c ****     sixtop_sf_getmetadata       cb1,
 156:build\openmote-cc2538_armgcc\openstack\02b-MAChigh/sixtop.c ****     sixtop_sf_translatemetadata cb2,
 157:build\openmote-cc2538_armgcc\openstack\02b-MAChigh/sixtop.c ****     sixtop_sf_handle_callback   cb3
 158:build\openmote-cc2538_armgcc\openstack\02b-MAChigh/sixtop.c **** ){
 364              		.loc 1 158 0
 365              		.cfi_startproc
 366              		@ args = 0, pretend = 0, frame = 16
 367              		@ frame_needed = 1, uses_anonymous_args = 0
 368              		@ link register save eliminated.
 369 0108 80B4     		push	{r7}
 370              		.cfi_def_cfa_offset 4
 371              		.cfi_offset 7, -4
 372 010a 85B0     		sub	sp, sp, #20
 373              		.cfi_def_cfa_offset 24
 374 010c 00AF     		add	r7, sp, #0
 375              		.cfi_def_cfa_register 7
 376 010e F860     		str	r0, [r7, #12]
 377 0110 B960     		str	r1, [r7, #8]
 378 0112 7A60     		str	r2, [r7, #4]
 379 0114 3B60     		str	r3, [r7]
 159:build\openmote-cc2538_armgcc\openstack\02b-MAChigh/sixtop.c ****    sixtop_vars.cb_sf_getsfid            = cb0;
 380              		.loc 1 159 0
 381 0116 084A     		ldr	r2, .L16
 382 0118 FB68     		ldr	r3, [r7, #12]
 383 011a D362     		str	r3, [r2, #44]
 160:build\openmote-cc2538_armgcc\openstack\02b-MAChigh/sixtop.c ****    sixtop_vars.cb_sf_getMetadata        = cb1;
 384              		.loc 1 160 0
 385 011c 064A     		ldr	r2, .L16
 386 011e BB68     		ldr	r3, [r7, #8]
 387 0120 1363     		str	r3, [r2, #48]
 161:build\openmote-cc2538_armgcc\openstack\02b-MAChigh/sixtop.c ****    sixtop_vars.cb_sf_translateMetadata  = cb2;
 388              		.loc 1 161 0
 389 0122 054A     		ldr	r2, .L16
 390 0124 7B68     		ldr	r3, [r7, #4]
 391 0126 5363     		str	r3, [r2, #52]
 162:build\openmote-cc2538_armgcc\openstack\02b-MAChigh/sixtop.c ****    sixtop_vars.cb_sf_handleRCError      = cb3;
 392              		.loc 1 162 0
 393 0128 034A     		ldr	r2, .L16
 394 012a 3B68     		ldr	r3, [r7]
 395 012c 9363     		str	r3, [r2, #56]
 163:build\openmote-cc2538_armgcc\openstack\02b-MAChigh/sixtop.c **** }
 396              		.loc 1 163 0
 397 012e 00BF     		nop
 398 0130 1437     		adds	r7, r7, #20
 399              		.cfi_def_cfa_offset 4
 400 0132 BD46     		mov	sp, r7
 401              		.cfi_def_cfa_register 13
 402              		@ sp needed
 403 0134 80BC     		pop	{r7}
 404              		.cfi_restore 7
 405              		.cfi_def_cfa_offset 0
 406 0136 7047     		bx	lr
 407              	.L17:
 408              		.align	2
 409              	.L16:
 410 0138 00000000 		.word	sixtop_vars
 411              		.cfi_endproc
 412              	.LFE6:
 414              		.align	1
 415              		.global	sixtop_request
 416              		.syntax unified
 417              		.thumb
 418              		.thumb_func
 419              		.fpu softvfp
 421              	sixtop_request:
 422              	.LFB7:
 164:build\openmote-cc2538_armgcc\openstack\02b-MAChigh/sixtop.c **** 
 165:build\openmote-cc2538_armgcc\openstack\02b-MAChigh/sixtop.c **** //======= scheduling
 166:build\openmote-cc2538_armgcc\openstack\02b-MAChigh/sixtop.c **** 
 167:build\openmote-cc2538_armgcc\openstack\02b-MAChigh/sixtop.c **** owerror_t sixtop_request(
 168:build\openmote-cc2538_armgcc\openstack\02b-MAChigh/sixtop.c ****     uint8_t      code,
 169:build\openmote-cc2538_armgcc\openstack\02b-MAChigh/sixtop.c ****     open_addr_t* neighbor,
 170:build\openmote-cc2538_armgcc\openstack\02b-MAChigh/sixtop.c ****     uint8_t      numCells,
 171:build\openmote-cc2538_armgcc\openstack\02b-MAChigh/sixtop.c ****     uint8_t      cellOptions,
 172:build\openmote-cc2538_armgcc\openstack\02b-MAChigh/sixtop.c ****     cellInfo_ht* celllist_toBeAdded,
 173:build\openmote-cc2538_armgcc\openstack\02b-MAChigh/sixtop.c ****     cellInfo_ht* celllist_toBeDeleted,
 174:build\openmote-cc2538_armgcc\openstack\02b-MAChigh/sixtop.c ****     uint8_t      sfid,
 175:build\openmote-cc2538_armgcc\openstack\02b-MAChigh/sixtop.c ****     uint16_t     listingOffset,
 176:build\openmote-cc2538_armgcc\openstack\02b-MAChigh/sixtop.c ****     uint16_t     listingMaxNumCells
 177:build\openmote-cc2538_armgcc\openstack\02b-MAChigh/sixtop.c ****     ){
 423              		.loc 1 177 0
 424              		.cfi_startproc
 425              		@ args = 20, pretend = 0, frame = 24
 426              		@ frame_needed = 1, uses_anonymous_args = 0
 427 013c B0B5     		push	{r4, r5, r7, lr}
 428              		.cfi_def_cfa_offset 16
 429              		.cfi_offset 4, -16
 430              		.cfi_offset 5, -12
 431              		.cfi_offset 7, -8
 432              		.cfi_offset 14, -4
 433 013e 86B0     		sub	sp, sp, #24
 434              		.cfi_def_cfa_offset 40
 435 0140 00AF     		add	r7, sp, #0
 436              		.cfi_def_cfa_register 7
 437 0142 3960     		str	r1, [r7]
 438 0144 1146     		mov	r1, r2
 439 0146 1A46     		mov	r2, r3
 440 0148 0346     		mov	r3, r0
 441 014a FB71     		strb	r3, [r7, #7]
 442 014c 0B46     		mov	r3, r1
 443 014e BB71     		strb	r3, [r7, #6]
 444 0150 1346     		mov	r3, r2
 445 0152 7B71     		strb	r3, [r7, #5]
 178:build\openmote-cc2538_armgcc\openstack\02b-MAChigh/sixtop.c ****     OpenQueueEntry_t* pkt;
 179:build\openmote-cc2538_armgcc\openstack\02b-MAChigh/sixtop.c ****     uint8_t           i;
 180:build\openmote-cc2538_armgcc\openstack\02b-MAChigh/sixtop.c ****     uint8_t           len;
 181:build\openmote-cc2538_armgcc\openstack\02b-MAChigh/sixtop.c ****     uint16_t          length_groupid_type;
 182:build\openmote-cc2538_armgcc\openstack\02b-MAChigh/sixtop.c ****     uint8_t           sequenceNumber;
 183:build\openmote-cc2538_armgcc\openstack\02b-MAChigh/sixtop.c ****     owerror_t         outcome;
 184:build\openmote-cc2538_armgcc\openstack\02b-MAChigh/sixtop.c **** 
 185:build\openmote-cc2538_armgcc\openstack\02b-MAChigh/sixtop.c ****     // filter parameters: handler, status and neighbor
 186:build\openmote-cc2538_armgcc\openstack\02b-MAChigh/sixtop.c ****     if(
 187:build\openmote-cc2538_armgcc\openstack\02b-MAChigh/sixtop.c ****         sixtop_vars.six2six_state != SIX_STATE_IDLE   ||
 446              		.loc 1 187 0
 447 0154 A74B     		ldr	r3, .L50
 448 0156 9B7B     		ldrb	r3, [r3, #14]	@ zero_extendqisi2
 186:build\openmote-cc2538_armgcc\openstack\02b-MAChigh/sixtop.c ****         sixtop_vars.six2six_state != SIX_STATE_IDLE   ||
 449              		.loc 1 186 0
 450 0158 002B     		cmp	r3, #0
 451 015a 02D1     		bne	.L19
 452              		.loc 1 187 0
 453 015c 3B68     		ldr	r3, [r7]
 454 015e 002B     		cmp	r3, #0
 455 0160 01D1     		bne	.L20
 456              	.L19:
 188:build\openmote-cc2538_armgcc\openstack\02b-MAChigh/sixtop.c ****         neighbor                  == NULL
 189:build\openmote-cc2538_armgcc\openstack\02b-MAChigh/sixtop.c ****     ){
 190:build\openmote-cc2538_armgcc\openstack\02b-MAChigh/sixtop.c ****         // neighbor can't be none or previous transcation doesn't finishe yet
 191:build\openmote-cc2538_armgcc\openstack\02b-MAChigh/sixtop.c ****         return E_FAIL;
 457              		.loc 1 191 0
 458 0162 0123     		movs	r3, #1
 459 0164 0DE2     		b	.L21
 460              	.L20:
 192:build\openmote-cc2538_armgcc\openstack\02b-MAChigh/sixtop.c ****     }
 193:build\openmote-cc2538_armgcc\openstack\02b-MAChigh/sixtop.c **** 
 194:build\openmote-cc2538_armgcc\openstack\02b-MAChigh/sixtop.c ****     if (openqueue_getNum6PReq(neighbor)>0){
 461              		.loc 1 194 0
 462 0166 3868     		ldr	r0, [r7]
 463 0168 FFF7FEFF 		bl	openqueue_getNum6PReq
 464 016c 0346     		mov	r3, r0
 465 016e 002B     		cmp	r3, #0
 466 0170 02D0     		beq	.L22
 195:build\openmote-cc2538_armgcc\openstack\02b-MAChigh/sixtop.c ****         // remove previous request as it's not sent out
 196:build\openmote-cc2538_armgcc\openstack\02b-MAChigh/sixtop.c ****         openqueue_remove6PrequestToNeighbor(neighbor);
 467              		.loc 1 196 0
 468 0172 3868     		ldr	r0, [r7]
 469 0174 FFF7FEFF 		bl	openqueue_remove6PrequestToNeighbor
 470              	.L22:
 197:build\openmote-cc2538_armgcc\openstack\02b-MAChigh/sixtop.c ****     }
 198:build\openmote-cc2538_armgcc\openstack\02b-MAChigh/sixtop.c **** 
 199:build\openmote-cc2538_armgcc\openstack\02b-MAChigh/sixtop.c ****     // get a free packet buffer
 200:build\openmote-cc2538_armgcc\openstack\02b-MAChigh/sixtop.c ****     pkt = openqueue_getFreePacketBuffer(COMPONENT_SIXTOP_RES);
 471              		.loc 1 200 0
 472 0178 0F20     		movs	r0, #15
 473 017a FFF7FEFF 		bl	openqueue_getFreePacketBuffer
 474 017e 3861     		str	r0, [r7, #16]
 201:build\openmote-cc2538_armgcc\openstack\02b-MAChigh/sixtop.c ****     if (pkt==NULL) {
 475              		.loc 1 201 0
 476 0180 3B69     		ldr	r3, [r7, #16]
 477 0182 002B     		cmp	r3, #0
 478 0184 07D1     		bne	.L23
 202:build\openmote-cc2538_armgcc\openstack\02b-MAChigh/sixtop.c ****         openserial_printError(
 479              		.loc 1 202 0
 480 0186 0023     		movs	r3, #0
 481 0188 0022     		movs	r2, #0
 482 018a 2D21     		movs	r1, #45
 483 018c 0F20     		movs	r0, #15
 484 018e FFF7FEFF 		bl	openserial_printError
 203:build\openmote-cc2538_armgcc\openstack\02b-MAChigh/sixtop.c ****             COMPONENT_SIXTOP_RES,
 204:build\openmote-cc2538_armgcc\openstack\02b-MAChigh/sixtop.c ****             ERR_NO_FREE_PACKET_BUFFER,
 205:build\openmote-cc2538_armgcc\openstack\02b-MAChigh/sixtop.c ****             (errorparameter_t)0,
 206:build\openmote-cc2538_armgcc\openstack\02b-MAChigh/sixtop.c ****             (errorparameter_t)0
 207:build\openmote-cc2538_armgcc\openstack\02b-MAChigh/sixtop.c ****         );
 208:build\openmote-cc2538_armgcc\openstack\02b-MAChigh/sixtop.c ****         return E_FAIL;
 485              		.loc 1 208 0
 486 0192 0123     		movs	r3, #1
 487 0194 F5E1     		b	.L21
 488              	.L23:
 209:build\openmote-cc2538_armgcc\openstack\02b-MAChigh/sixtop.c ****     }
 210:build\openmote-cc2538_armgcc\openstack\02b-MAChigh/sixtop.c **** 
 211:build\openmote-cc2538_armgcc\openstack\02b-MAChigh/sixtop.c ****     // take ownership
 212:build\openmote-cc2538_armgcc\openstack\02b-MAChigh/sixtop.c ****     pkt->creator = COMPONENT_SIXTOP_RES;
 489              		.loc 1 212 0
 490 0196 3B69     		ldr	r3, [r7, #16]
 491 0198 0F22     		movs	r2, #15
 492 019a 1A70     		strb	r2, [r3]
 213:build\openmote-cc2538_armgcc\openstack\02b-MAChigh/sixtop.c ****     pkt->owner   = COMPONENT_SIXTOP_RES;
 493              		.loc 1 213 0
 494 019c 3B69     		ldr	r3, [r7, #16]
 495 019e 0F22     		movs	r2, #15
 496 01a0 5A70     		strb	r2, [r3, #1]
 214:build\openmote-cc2538_armgcc\openstack\02b-MAChigh/sixtop.c **** 
 215:build\openmote-cc2538_armgcc\openstack\02b-MAChigh/sixtop.c ****     memcpy(&(pkt->l2_nextORpreviousHop),neighbor,sizeof(open_addr_t));
 497              		.loc 1 215 0
 498 01a2 3B69     		ldr	r3, [r7, #16]
 499 01a4 4133     		adds	r3, r3, #65
 500 01a6 1122     		movs	r2, #17
 501 01a8 3968     		ldr	r1, [r7]
 502 01aa 1846     		mov	r0, r3
 503 01ac FFF7FEFF 		bl	memcpy
 216:build\openmote-cc2538_armgcc\openstack\02b-MAChigh/sixtop.c ****     if (celllist_toBeDeleted != NULL){
 504              		.loc 1 216 0
 505 01b0 FB6A     		ldr	r3, [r7, #44]
 506 01b2 002B     		cmp	r3, #0
 507 01b4 10D0     		beq	.L24
 217:build\openmote-cc2538_armgcc\openstack\02b-MAChigh/sixtop.c ****         memcpy(sixtop_vars.celllist_toDelete,celllist_toBeDeleted,CELLLIST_MAX_LEN*sizeof(cellInfo_
 508              		.loc 1 217 0
 509 01b6 8F4B     		ldr	r3, .L50
 510 01b8 FA6A     		ldr	r2, [r7, #44]
 511 01ba 1233     		adds	r3, r3, #18
 512 01bc 1068     		ldr	r0, [r2]	@ unaligned
 513 01be 5168     		ldr	r1, [r2, #4]	@ unaligned
 514 01c0 9568     		ldr	r5, [r2, #8]	@ unaligned
 515 01c2 D468     		ldr	r4, [r2, #12]	@ unaligned
 516 01c4 1860     		str	r0, [r3]	@ unaligned
 517 01c6 5960     		str	r1, [r3, #4]	@ unaligned
 518 01c8 9D60     		str	r5, [r3, #8]	@ unaligned
 519 01ca DC60     		str	r4, [r3, #12]	@ unaligned
 520 01cc 1069     		ldr	r0, [r2, #16]	@ unaligned
 521 01ce 5169     		ldr	r1, [r2, #20]	@ unaligned
 522 01d0 1861     		str	r0, [r3, #16]	@ unaligned
 523 01d2 5961     		str	r1, [r3, #20]	@ unaligned
 524 01d4 127E     		ldrb	r2, [r2, #24]
 525 01d6 1A76     		strb	r2, [r3, #24]
 526              	.L24:
 218:build\openmote-cc2538_armgcc\openstack\02b-MAChigh/sixtop.c ****     }
 219:build\openmote-cc2538_armgcc\openstack\02b-MAChigh/sixtop.c ****     sixtop_vars.cellOptions = cellOptions;
 527              		.loc 1 219 0
 528 01d8 864A     		ldr	r2, .L50
 529 01da 7B79     		ldrb	r3, [r7, #5]
 530 01dc 5374     		strb	r3, [r2, #17]
 220:build\openmote-cc2538_armgcc\openstack\02b-MAChigh/sixtop.c **** 
 221:build\openmote-cc2538_armgcc\openstack\02b-MAChigh/sixtop.c ****     len  = 0;
 531              		.loc 1 221 0
 532 01de 0023     		movs	r3, #0
 533 01e0 BB75     		strb	r3, [r7, #22]
 222:build\openmote-cc2538_armgcc\openstack\02b-MAChigh/sixtop.c ****     if (
 534              		.loc 1 222 0
 535 01e2 FB79     		ldrb	r3, [r7, #7]	@ zero_extendqisi2
 536 01e4 012B     		cmp	r3, #1
 537 01e6 06D0     		beq	.L25
 223:build\openmote-cc2538_armgcc\openstack\02b-MAChigh/sixtop.c ****         code == IANA_6TOP_CMD_ADD      ||
 538              		.loc 1 223 0
 539 01e8 FB79     		ldrb	r3, [r7, #7]	@ zero_extendqisi2
 540 01ea 022B     		cmp	r3, #2
 541 01ec 03D0     		beq	.L25
 224:build\openmote-cc2538_armgcc\openstack\02b-MAChigh/sixtop.c ****         code == IANA_6TOP_CMD_DELETE   ||
 542              		.loc 1 224 0
 543 01ee FB79     		ldrb	r3, [r7, #7]	@ zero_extendqisi2
 544 01f0 032B     		cmp	r3, #3
 545 01f2 40F0BF80 		bne	.L26
 546              	.L25:
 225:build\openmote-cc2538_armgcc\openstack\02b-MAChigh/sixtop.c ****         code == IANA_6TOP_CMD_RELOCATE
 226:build\openmote-cc2538_armgcc\openstack\02b-MAChigh/sixtop.c ****     ){
 227:build\openmote-cc2538_armgcc\openstack\02b-MAChigh/sixtop.c ****         // append 6p celllists
 228:build\openmote-cc2538_armgcc\openstack\02b-MAChigh/sixtop.c ****         if (code == IANA_6TOP_CMD_ADD || code == IANA_6TOP_CMD_RELOCATE){
 547              		.loc 1 228 0
 548 01f6 FB79     		ldrb	r3, [r7, #7]	@ zero_extendqisi2
 549 01f8 012B     		cmp	r3, #1
 550 01fa 02D0     		beq	.L27
 551              		.loc 1 228 0 is_stmt 0 discriminator 1
 552 01fc FB79     		ldrb	r3, [r7, #7]	@ zero_extendqisi2
 553 01fe 032B     		cmp	r3, #3
 554 0200 53D1     		bne	.L28
 555              	.L27:
 229:build\openmote-cc2538_armgcc\openstack\02b-MAChigh/sixtop.c ****             for(i=0;i<CELLLIST_MAX_LEN;i++) {
 556              		.loc 1 229 0 is_stmt 1
 557 0202 0023     		movs	r3, #0
 558 0204 FB75     		strb	r3, [r7, #23]
 559 0206 4DE0     		b	.L29
 560              	.L31:
 230:build\openmote-cc2538_armgcc\openstack\02b-MAChigh/sixtop.c ****                 if(celllist_toBeAdded[i].isUsed){
 561              		.loc 1 230 0
 562 0208 FA7D     		ldrb	r2, [r7, #23]	@ zero_extendqisi2
 563 020a 1346     		mov	r3, r2
 564 020c 9B00     		lsls	r3, r3, #2
 565 020e 1344     		add	r3, r3, r2
 566 0210 BA6A     		ldr	r2, [r7, #40]
 567 0212 1344     		add	r3, r3, r2
 568 0214 1B78     		ldrb	r3, [r3]	@ zero_extendqisi2
 569 0216 002B     		cmp	r3, #0
 570 0218 41D0     		beq	.L30
 231:build\openmote-cc2538_armgcc\openstack\02b-MAChigh/sixtop.c ****                     packetfunctions_reserveHeaderSize(pkt,4);
 571              		.loc 1 231 0
 572 021a 0421     		movs	r1, #4
 573 021c 3869     		ldr	r0, [r7, #16]
 574 021e FFF7FEFF 		bl	packetfunctions_reserveHeaderSize
 232:build\openmote-cc2538_armgcc\openstack\02b-MAChigh/sixtop.c ****                     pkt->payload[0] = (uint8_t)(celllist_toBeAdded[i].slotoffset         & 0x00FF);
 575              		.loc 1 232 0
 576 0222 FA7D     		ldrb	r2, [r7, #23]	@ zero_extendqisi2
 577 0224 1346     		mov	r3, r2
 578 0226 9B00     		lsls	r3, r3, #2
 579 0228 1344     		add	r3, r3, r2
 580 022a BA6A     		ldr	r2, [r7, #40]
 581 022c 1344     		add	r3, r3, r2
 582 022e B3F80130 		ldrh	r3, [r3, #1]	@ unaligned
 583 0232 9AB2     		uxth	r2, r3
 584 0234 3B69     		ldr	r3, [r7, #16]
 585 0236 5B68     		ldr	r3, [r3, #4]
 586 0238 D2B2     		uxtb	r2, r2
 587 023a 1A70     		strb	r2, [r3]
 233:build\openmote-cc2538_armgcc\openstack\02b-MAChigh/sixtop.c ****                     pkt->payload[1] = (uint8_t)((celllist_toBeAdded[i].slotoffset        & 0xFF00)>
 588              		.loc 1 233 0
 589 023c FA7D     		ldrb	r2, [r7, #23]	@ zero_extendqisi2
 590 023e 1346     		mov	r3, r2
 591 0240 9B00     		lsls	r3, r3, #2
 592 0242 1344     		add	r3, r3, r2
 593 0244 BA6A     		ldr	r2, [r7, #40]
 594 0246 1344     		add	r3, r3, r2
 595 0248 B3F80130 		ldrh	r3, [r3, #1]	@ unaligned
 596 024c 9BB2     		uxth	r3, r3
 597 024e 1B0A     		lsrs	r3, r3, #8
 598 0250 9AB2     		uxth	r2, r3
 599 0252 3B69     		ldr	r3, [r7, #16]
 600 0254 5B68     		ldr	r3, [r3, #4]
 601 0256 0133     		adds	r3, r3, #1
 602 0258 D2B2     		uxtb	r2, r2
 603 025a 1A70     		strb	r2, [r3]
 234:build\openmote-cc2538_armgcc\openstack\02b-MAChigh/sixtop.c ****                     pkt->payload[2] = (uint8_t)(celllist_toBeAdded[i].channeloffset      & 0x00FF);
 604              		.loc 1 234 0
 605 025c FA7D     		ldrb	r2, [r7, #23]	@ zero_extendqisi2
 606 025e 1346     		mov	r3, r2
 607 0260 9B00     		lsls	r3, r3, #2
 608 0262 1344     		add	r3, r3, r2
 609 0264 BA6A     		ldr	r2, [r7, #40]
 610 0266 1344     		add	r3, r3, r2
 611 0268 B3F80330 		ldrh	r3, [r3, #3]	@ unaligned
 612 026c 9AB2     		uxth	r2, r3
 613 026e 3B69     		ldr	r3, [r7, #16]
 614 0270 5B68     		ldr	r3, [r3, #4]
 615 0272 0233     		adds	r3, r3, #2
 616 0274 D2B2     		uxtb	r2, r2
 617 0276 1A70     		strb	r2, [r3]
 235:build\openmote-cc2538_armgcc\openstack\02b-MAChigh/sixtop.c ****                     pkt->payload[3] = (uint8_t)((celllist_toBeAdded[i].channeloffset     & 0xFF00)>
 618              		.loc 1 235 0
 619 0278 FA7D     		ldrb	r2, [r7, #23]	@ zero_extendqisi2
 620 027a 1346     		mov	r3, r2
 621 027c 9B00     		lsls	r3, r3, #2
 622 027e 1344     		add	r3, r3, r2
 623 0280 BA6A     		ldr	r2, [r7, #40]
 624 0282 1344     		add	r3, r3, r2
 625 0284 B3F80330 		ldrh	r3, [r3, #3]	@ unaligned
 626 0288 9BB2     		uxth	r3, r3
 627 028a 1B0A     		lsrs	r3, r3, #8
 628 028c 9AB2     		uxth	r2, r3
 629 028e 3B69     		ldr	r3, [r7, #16]
 630 0290 5B68     		ldr	r3, [r3, #4]
 631 0292 0333     		adds	r3, r3, #3
 632 0294 D2B2     		uxtb	r2, r2
 633 0296 1A70     		strb	r2, [r3]
 236:build\openmote-cc2538_armgcc\openstack\02b-MAChigh/sixtop.c ****                     len += 4;
 634              		.loc 1 236 0
 635 0298 BB7D     		ldrb	r3, [r7, #22]
 636 029a 0433     		adds	r3, r3, #4
 637 029c BB75     		strb	r3, [r7, #22]
 638              	.L30:
 229:build\openmote-cc2538_armgcc\openstack\02b-MAChigh/sixtop.c ****                 if(celllist_toBeAdded[i].isUsed){
 639              		.loc 1 229 0 discriminator 2
 640 029e FB7D     		ldrb	r3, [r7, #23]	@ zero_extendqisi2
 641 02a0 0133     		adds	r3, r3, #1
 642 02a2 FB75     		strb	r3, [r7, #23]
 643              	.L29:
 229:build\openmote-cc2538_armgcc\openstack\02b-MAChigh/sixtop.c ****                 if(celllist_toBeAdded[i].isUsed){
 644              		.loc 1 229 0 is_stmt 0 discriminator 1
 645 02a4 FB7D     		ldrb	r3, [r7, #23]	@ zero_extendqisi2
 646 02a6 042B     		cmp	r3, #4
 647 02a8 AED9     		bls	.L31
 648              	.L28:
 237:build\openmote-cc2538_armgcc\openstack\02b-MAChigh/sixtop.c ****                 }
 238:build\openmote-cc2538_armgcc\openstack\02b-MAChigh/sixtop.c ****             }
 239:build\openmote-cc2538_armgcc\openstack\02b-MAChigh/sixtop.c ****         }
 240:build\openmote-cc2538_armgcc\openstack\02b-MAChigh/sixtop.c ****         if (code == IANA_6TOP_CMD_DELETE || code == IANA_6TOP_CMD_RELOCATE){
 649              		.loc 1 240 0 is_stmt 1
 650 02aa FB79     		ldrb	r3, [r7, #7]	@ zero_extendqisi2
 651 02ac 022B     		cmp	r3, #2
 652 02ae 02D0     		beq	.L32
 653              		.loc 1 240 0 is_stmt 0 discriminator 1
 654 02b0 FB79     		ldrb	r3, [r7, #7]	@ zero_extendqisi2
 655 02b2 032B     		cmp	r3, #3
 656 02b4 53D1     		bne	.L33
 657              	.L32:
 241:build\openmote-cc2538_armgcc\openstack\02b-MAChigh/sixtop.c ****             for(i=0;i<CELLLIST_MAX_LEN;i++) {
 658              		.loc 1 241 0 is_stmt 1
 659 02b6 0023     		movs	r3, #0
 660 02b8 FB75     		strb	r3, [r7, #23]
 661 02ba 4DE0     		b	.L34
 662              	.L36:
 242:build\openmote-cc2538_armgcc\openstack\02b-MAChigh/sixtop.c ****                 if(celllist_toBeDeleted[i].isUsed){
 663              		.loc 1 242 0
 664 02bc FA7D     		ldrb	r2, [r7, #23]	@ zero_extendqisi2
 665 02be 1346     		mov	r3, r2
 666 02c0 9B00     		lsls	r3, r3, #2
 667 02c2 1344     		add	r3, r3, r2
 668 02c4 FA6A     		ldr	r2, [r7, #44]
 669 02c6 1344     		add	r3, r3, r2
 670 02c8 1B78     		ldrb	r3, [r3]	@ zero_extendqisi2
 671 02ca 002B     		cmp	r3, #0
 672 02cc 41D0     		beq	.L35
 243:build\openmote-cc2538_armgcc\openstack\02b-MAChigh/sixtop.c ****                     packetfunctions_reserveHeaderSize(pkt,4);
 673              		.loc 1 243 0
 674 02ce 0421     		movs	r1, #4
 675 02d0 3869     		ldr	r0, [r7, #16]
 676 02d2 FFF7FEFF 		bl	packetfunctions_reserveHeaderSize
 244:build\openmote-cc2538_armgcc\openstack\02b-MAChigh/sixtop.c ****                     pkt->payload[0] = (uint8_t)(celllist_toBeDeleted[i].slotoffset       & 0x00FF);
 677              		.loc 1 244 0
 678 02d6 FA7D     		ldrb	r2, [r7, #23]	@ zero_extendqisi2
 679 02d8 1346     		mov	r3, r2
 680 02da 9B00     		lsls	r3, r3, #2
 681 02dc 1344     		add	r3, r3, r2
 682 02de FA6A     		ldr	r2, [r7, #44]
 683 02e0 1344     		add	r3, r3, r2
 684 02e2 B3F80130 		ldrh	r3, [r3, #1]	@ unaligned
 685 02e6 9AB2     		uxth	r2, r3
 686 02e8 3B69     		ldr	r3, [r7, #16]
 687 02ea 5B68     		ldr	r3, [r3, #4]
 688 02ec D2B2     		uxtb	r2, r2
 689 02ee 1A70     		strb	r2, [r3]
 245:build\openmote-cc2538_armgcc\openstack\02b-MAChigh/sixtop.c ****                     pkt->payload[1] = (uint8_t)((celllist_toBeDeleted[i].slotoffset      & 0xFF00)>
 690              		.loc 1 245 0
 691 02f0 FA7D     		ldrb	r2, [r7, #23]	@ zero_extendqisi2
 692 02f2 1346     		mov	r3, r2
 693 02f4 9B00     		lsls	r3, r3, #2
 694 02f6 1344     		add	r3, r3, r2
 695 02f8 FA6A     		ldr	r2, [r7, #44]
 696 02fa 1344     		add	r3, r3, r2
 697 02fc B3F80130 		ldrh	r3, [r3, #1]	@ unaligned
 698 0300 9BB2     		uxth	r3, r3
 699 0302 1B0A     		lsrs	r3, r3, #8
 700 0304 9AB2     		uxth	r2, r3
 701 0306 3B69     		ldr	r3, [r7, #16]
 702 0308 5B68     		ldr	r3, [r3, #4]
 703 030a 0133     		adds	r3, r3, #1
 704 030c D2B2     		uxtb	r2, r2
 705 030e 1A70     		strb	r2, [r3]
 246:build\openmote-cc2538_armgcc\openstack\02b-MAChigh/sixtop.c ****                     pkt->payload[2] = (uint8_t)(celllist_toBeDeleted[i].channeloffset    & 0x00FF);
 706              		.loc 1 246 0
 707 0310 FA7D     		ldrb	r2, [r7, #23]	@ zero_extendqisi2
 708 0312 1346     		mov	r3, r2
 709 0314 9B00     		lsls	r3, r3, #2
 710 0316 1344     		add	r3, r3, r2
 711 0318 FA6A     		ldr	r2, [r7, #44]
 712 031a 1344     		add	r3, r3, r2
 713 031c B3F80330 		ldrh	r3, [r3, #3]	@ unaligned
 714 0320 9AB2     		uxth	r2, r3
 715 0322 3B69     		ldr	r3, [r7, #16]
 716 0324 5B68     		ldr	r3, [r3, #4]
 717 0326 0233     		adds	r3, r3, #2
 718 0328 D2B2     		uxtb	r2, r2
 719 032a 1A70     		strb	r2, [r3]
 247:build\openmote-cc2538_armgcc\openstack\02b-MAChigh/sixtop.c ****                     pkt->payload[3] = (uint8_t)((celllist_toBeDeleted[i].channeloffset   & 0xFF00)>
 720              		.loc 1 247 0
 721 032c FA7D     		ldrb	r2, [r7, #23]	@ zero_extendqisi2
 722 032e 1346     		mov	r3, r2
 723 0330 9B00     		lsls	r3, r3, #2
 724 0332 1344     		add	r3, r3, r2
 725 0334 FA6A     		ldr	r2, [r7, #44]
 726 0336 1344     		add	r3, r3, r2
 727 0338 B3F80330 		ldrh	r3, [r3, #3]	@ unaligned
 728 033c 9BB2     		uxth	r3, r3
 729 033e 1B0A     		lsrs	r3, r3, #8
 730 0340 9AB2     		uxth	r2, r3
 731 0342 3B69     		ldr	r3, [r7, #16]
 732 0344 5B68     		ldr	r3, [r3, #4]
 733 0346 0333     		adds	r3, r3, #3
 734 0348 D2B2     		uxtb	r2, r2
 735 034a 1A70     		strb	r2, [r3]
 248:build\openmote-cc2538_armgcc\openstack\02b-MAChigh/sixtop.c ****                     len += 4;
 736              		.loc 1 248 0
 737 034c BB7D     		ldrb	r3, [r7, #22]
 738 034e 0433     		adds	r3, r3, #4
 739 0350 BB75     		strb	r3, [r7, #22]
 740              	.L35:
 241:build\openmote-cc2538_armgcc\openstack\02b-MAChigh/sixtop.c ****                 if(celllist_toBeDeleted[i].isUsed){
 741              		.loc 1 241 0 discriminator 2
 742 0352 FB7D     		ldrb	r3, [r7, #23]	@ zero_extendqisi2
 743 0354 0133     		adds	r3, r3, #1
 744 0356 FB75     		strb	r3, [r7, #23]
 745              	.L34:
 241:build\openmote-cc2538_armgcc\openstack\02b-MAChigh/sixtop.c ****                 if(celllist_toBeDeleted[i].isUsed){
 746              		.loc 1 241 0 is_stmt 0 discriminator 1
 747 0358 FB7D     		ldrb	r3, [r7, #23]	@ zero_extendqisi2
 748 035a 042B     		cmp	r3, #4
 749 035c AED9     		bls	.L36
 750              	.L33:
 249:build\openmote-cc2538_armgcc\openstack\02b-MAChigh/sixtop.c ****                 }
 250:build\openmote-cc2538_armgcc\openstack\02b-MAChigh/sixtop.c ****             }
 251:build\openmote-cc2538_armgcc\openstack\02b-MAChigh/sixtop.c ****         }
 252:build\openmote-cc2538_armgcc\openstack\02b-MAChigh/sixtop.c ****         // append 6p numberCells
 253:build\openmote-cc2538_armgcc\openstack\02b-MAChigh/sixtop.c ****         packetfunctions_reserveHeaderSize(pkt,sizeof(uint8_t));
 751              		.loc 1 253 0 is_stmt 1
 752 035e 0121     		movs	r1, #1
 753 0360 3869     		ldr	r0, [r7, #16]
 754 0362 FFF7FEFF 		bl	packetfunctions_reserveHeaderSize
 254:build\openmote-cc2538_armgcc\openstack\02b-MAChigh/sixtop.c ****         *((uint8_t*)(pkt->payload)) = numCells;
 755              		.loc 1 254 0
 756 0366 3B69     		ldr	r3, [r7, #16]
 757 0368 5B68     		ldr	r3, [r3, #4]
 758 036a BA79     		ldrb	r2, [r7, #6]
 759 036c 1A70     		strb	r2, [r3]
 255:build\openmote-cc2538_armgcc\openstack\02b-MAChigh/sixtop.c ****         len += 1;
 760              		.loc 1 255 0
 761 036e BB7D     		ldrb	r3, [r7, #22]
 762 0370 0133     		adds	r3, r3, #1
 763 0372 BB75     		strb	r3, [r7, #22]
 764              	.L26:
 256:build\openmote-cc2538_armgcc\openstack\02b-MAChigh/sixtop.c ****     }
 257:build\openmote-cc2538_armgcc\openstack\02b-MAChigh/sixtop.c **** 
 258:build\openmote-cc2538_armgcc\openstack\02b-MAChigh/sixtop.c ****     if (code == IANA_6TOP_CMD_LIST){
 765              		.loc 1 258 0
 766 0374 FB79     		ldrb	r3, [r7, #7]	@ zero_extendqisi2
 767 0376 052B     		cmp	r3, #5
 768 0378 2CD1     		bne	.L37
 259:build\openmote-cc2538_armgcc\openstack\02b-MAChigh/sixtop.c ****         // append 6p max number of cells
 260:build\openmote-cc2538_armgcc\openstack\02b-MAChigh/sixtop.c ****         packetfunctions_reserveHeaderSize(pkt,sizeof(uint16_t));
 769              		.loc 1 260 0
 770 037a 0221     		movs	r1, #2
 771 037c 3869     		ldr	r0, [r7, #16]
 772 037e FFF7FEFF 		bl	packetfunctions_reserveHeaderSize
 261:build\openmote-cc2538_armgcc\openstack\02b-MAChigh/sixtop.c ****         *((uint8_t*)(pkt->payload))   = (uint8_t)(listingMaxNumCells & 0x00FF);
 773              		.loc 1 261 0
 774 0382 3B69     		ldr	r3, [r7, #16]
 775 0384 5B68     		ldr	r3, [r3, #4]
 776 0386 3A8F     		ldrh	r2, [r7, #56]	@ movhi
 777 0388 D2B2     		uxtb	r2, r2
 778 038a 1A70     		strb	r2, [r3]
 262:build\openmote-cc2538_armgcc\openstack\02b-MAChigh/sixtop.c ****         *((uint8_t*)(pkt->payload+1)) = (uint8_t)(listingMaxNumCells & 0xFF00)>>8;
 779              		.loc 1 262 0
 780 038c 3B69     		ldr	r3, [r7, #16]
 781 038e 5B68     		ldr	r3, [r3, #4]
 782 0390 0133     		adds	r3, r3, #1
 783 0392 0022     		movs	r2, #0
 784 0394 1A70     		strb	r2, [r3]
 263:build\openmote-cc2538_armgcc\openstack\02b-MAChigh/sixtop.c ****         len +=2;
 785              		.loc 1 263 0
 786 0396 BB7D     		ldrb	r3, [r7, #22]
 787 0398 0233     		adds	r3, r3, #2
 788 039a BB75     		strb	r3, [r7, #22]
 264:build\openmote-cc2538_armgcc\openstack\02b-MAChigh/sixtop.c ****         // append 6p listing offset
 265:build\openmote-cc2538_armgcc\openstack\02b-MAChigh/sixtop.c ****         packetfunctions_reserveHeaderSize(pkt,sizeof(uint16_t));
 789              		.loc 1 265 0
 790 039c 0221     		movs	r1, #2
 791 039e 3869     		ldr	r0, [r7, #16]
 792 03a0 FFF7FEFF 		bl	packetfunctions_reserveHeaderSize
 266:build\openmote-cc2538_armgcc\openstack\02b-MAChigh/sixtop.c ****         *((uint8_t*)(pkt->payload))   = (uint8_t)(listingOffset & 0x00FF);
 793              		.loc 1 266 0
 794 03a4 3B69     		ldr	r3, [r7, #16]
 795 03a6 5B68     		ldr	r3, [r3, #4]
 796 03a8 BA8E     		ldrh	r2, [r7, #52]	@ movhi
 797 03aa D2B2     		uxtb	r2, r2
 798 03ac 1A70     		strb	r2, [r3]
 267:build\openmote-cc2538_armgcc\openstack\02b-MAChigh/sixtop.c ****         *((uint8_t*)(pkt->payload+1)) = (uint8_t)(listingOffset & 0xFF00)>>8;
 799              		.loc 1 267 0
 800 03ae 3B69     		ldr	r3, [r7, #16]
 801 03b0 5B68     		ldr	r3, [r3, #4]
 802 03b2 0133     		adds	r3, r3, #1
 803 03b4 0022     		movs	r2, #0
 804 03b6 1A70     		strb	r2, [r3]
 268:build\openmote-cc2538_armgcc\openstack\02b-MAChigh/sixtop.c ****         len += 2;
 805              		.loc 1 268 0
 806 03b8 BB7D     		ldrb	r3, [r7, #22]
 807 03ba 0233     		adds	r3, r3, #2
 808 03bc BB75     		strb	r3, [r7, #22]
 269:build\openmote-cc2538_armgcc\openstack\02b-MAChigh/sixtop.c ****         // append 6p Reserved field
 270:build\openmote-cc2538_armgcc\openstack\02b-MAChigh/sixtop.c ****         packetfunctions_reserveHeaderSize(pkt,sizeof(uint8_t));
 809              		.loc 1 270 0
 810 03be 0121     		movs	r1, #1
 811 03c0 3869     		ldr	r0, [r7, #16]
 812 03c2 FFF7FEFF 		bl	packetfunctions_reserveHeaderSize
 271:build\openmote-cc2538_armgcc\openstack\02b-MAChigh/sixtop.c ****         *((uint8_t*)(pkt->payload)) = 0;
 813              		.loc 1 271 0
 814 03c6 3B69     		ldr	r3, [r7, #16]
 815 03c8 5B68     		ldr	r3, [r3, #4]
 816 03ca 0022     		movs	r2, #0
 817 03cc 1A70     		strb	r2, [r3]
 272:build\openmote-cc2538_armgcc\openstack\02b-MAChigh/sixtop.c ****         len += 1;
 818              		.loc 1 272 0
 819 03ce BB7D     		ldrb	r3, [r7, #22]
 820 03d0 0133     		adds	r3, r3, #1
 821 03d2 BB75     		strb	r3, [r7, #22]
 822              	.L37:
 273:build\openmote-cc2538_armgcc\openstack\02b-MAChigh/sixtop.c ****     }
 274:build\openmote-cc2538_armgcc\openstack\02b-MAChigh/sixtop.c **** 
 275:build\openmote-cc2538_armgcc\openstack\02b-MAChigh/sixtop.c ****     if (code != IANA_6TOP_CMD_CLEAR){
 823              		.loc 1 275 0
 824 03d4 FB79     		ldrb	r3, [r7, #7]	@ zero_extendqisi2
 825 03d6 072B     		cmp	r3, #7
 826 03d8 0ED0     		beq	.L38
 276:build\openmote-cc2538_armgcc\openstack\02b-MAChigh/sixtop.c ****         // append 6p celloptions
 277:build\openmote-cc2538_armgcc\openstack\02b-MAChigh/sixtop.c ****         packetfunctions_reserveHeaderSize(pkt,sizeof(uint8_t));
 827              		.loc 1 277 0
 828 03da 0121     		movs	r1, #1
 829 03dc 3869     		ldr	r0, [r7, #16]
 830 03de FFF7FEFF 		bl	packetfunctions_reserveHeaderSize
 278:build\openmote-cc2538_armgcc\openstack\02b-MAChigh/sixtop.c ****         *((uint8_t*)(pkt->payload)) = cellOptions;
 831              		.loc 1 278 0
 832 03e2 3B69     		ldr	r3, [r7, #16]
 833 03e4 5B68     		ldr	r3, [r3, #4]
 834 03e6 7A79     		ldrb	r2, [r7, #5]
 835 03e8 1A70     		strb	r2, [r3]
 279:build\openmote-cc2538_armgcc\openstack\02b-MAChigh/sixtop.c ****         len+=1;
 836              		.loc 1 279 0
 837 03ea BB7D     		ldrb	r3, [r7, #22]
 838 03ec 0133     		adds	r3, r3, #1
 839 03ee BB75     		strb	r3, [r7, #22]
 840 03f0 0EE0     		b	.L39
 841              	.L51:
 842 03f2 00BF     		.align	2
 843              	.L50:
 844 03f4 00000000 		.word	sixtop_vars
 845              	.L38:
 280:build\openmote-cc2538_armgcc\openstack\02b-MAChigh/sixtop.c ****     } else {
 281:build\openmote-cc2538_armgcc\openstack\02b-MAChigh/sixtop.c ****         // record the neighbor in case no response  for clear
 282:build\openmote-cc2538_armgcc\openstack\02b-MAChigh/sixtop.c ****         memcpy(&sixtop_vars.neighborToClearCells,neighbor,sizeof(open_addr_t));
 846              		.loc 1 282 0
 847 03f8 644B     		ldr	r3, .L52
 848 03fa 3A68     		ldr	r2, [r7]
 849 03fc 03F13C04 		add	r4, r3, #60
 850 0400 1546     		mov	r5, r2
 851 0402 2868     		ldr	r0, [r5]	@ unaligned
 852 0404 6968     		ldr	r1, [r5, #4]	@ unaligned
 853 0406 AA68     		ldr	r2, [r5, #8]	@ unaligned
 854 0408 EB68     		ldr	r3, [r5, #12]	@ unaligned
 855 040a 0FC4     		stmia	r4!, {r0, r1, r2, r3}
 856 040c 2B7C     		ldrb	r3, [r5, #16]
 857 040e 2370     		strb	r3, [r4]
 858              	.L39:
 283:build\openmote-cc2538_armgcc\openstack\02b-MAChigh/sixtop.c ****     }
 284:build\openmote-cc2538_armgcc\openstack\02b-MAChigh/sixtop.c **** 
 285:build\openmote-cc2538_armgcc\openstack\02b-MAChigh/sixtop.c ****     // append 6p metadata
 286:build\openmote-cc2538_armgcc\openstack\02b-MAChigh/sixtop.c ****     packetfunctions_reserveHeaderSize(pkt,sizeof(uint16_t));
 859              		.loc 1 286 0
 860 0410 0221     		movs	r1, #2
 861 0412 3869     		ldr	r0, [r7, #16]
 862 0414 FFF7FEFF 		bl	packetfunctions_reserveHeaderSize
 287:build\openmote-cc2538_armgcc\openstack\02b-MAChigh/sixtop.c ****     pkt->payload[0] = (uint8_t)( sixtop_vars.cb_sf_getMetadata() & 0x00FF);
 863              		.loc 1 287 0
 864 0418 5C4B     		ldr	r3, .L52
 865 041a 1B6B     		ldr	r3, [r3, #48]
 866 041c 9847     		blx	r3
 867              	.LVL0:
 868 041e 0346     		mov	r3, r0
 869 0420 1A46     		mov	r2, r3
 870 0422 3B69     		ldr	r3, [r7, #16]
 871 0424 5B68     		ldr	r3, [r3, #4]
 872 0426 D2B2     		uxtb	r2, r2
 873 0428 1A70     		strb	r2, [r3]
 288:build\openmote-cc2538_armgcc\openstack\02b-MAChigh/sixtop.c ****     pkt->payload[1] = (uint8_t)((sixtop_vars.cb_sf_getMetadata() & 0xFF00)>>8);
 874              		.loc 1 288 0
 875 042a 584B     		ldr	r3, .L52
 876 042c 1B6B     		ldr	r3, [r3, #48]
 877 042e 9847     		blx	r3
 878              	.LVL1:
 879 0430 0346     		mov	r3, r0
 880 0432 1A12     		asrs	r2, r3, #8
 881 0434 3B69     		ldr	r3, [r7, #16]
 882 0436 5B68     		ldr	r3, [r3, #4]
 883 0438 0133     		adds	r3, r3, #1
 884 043a D2B2     		uxtb	r2, r2
 885 043c 1A70     		strb	r2, [r3]
 289:build\openmote-cc2538_armgcc\openstack\02b-MAChigh/sixtop.c ****     len += 2;
 886              		.loc 1 289 0
 887 043e BB7D     		ldrb	r3, [r7, #22]
 888 0440 0233     		adds	r3, r3, #2
 889 0442 BB75     		strb	r3, [r7, #22]
 290:build\openmote-cc2538_armgcc\openstack\02b-MAChigh/sixtop.c **** 
 291:build\openmote-cc2538_armgcc\openstack\02b-MAChigh/sixtop.c ****     // append 6p Seqnum and schedule Generation
 292:build\openmote-cc2538_armgcc\openstack\02b-MAChigh/sixtop.c ****     packetfunctions_reserveHeaderSize(pkt,sizeof(uint8_t));
 890              		.loc 1 292 0
 891 0444 0121     		movs	r1, #1
 892 0446 3869     		ldr	r0, [r7, #16]
 893 0448 FFF7FEFF 		bl	packetfunctions_reserveHeaderSize
 293:build\openmote-cc2538_armgcc\openstack\02b-MAChigh/sixtop.c ****     sequenceNumber              = neighbors_getSequenceNumber(neighbor);
 894              		.loc 1 293 0
 895 044c 3868     		ldr	r0, [r7]
 896 044e FFF7FEFF 		bl	neighbors_getSequenceNumber
 897 0452 0346     		mov	r3, r0
 898 0454 FB73     		strb	r3, [r7, #15]
 294:build\openmote-cc2538_armgcc\openstack\02b-MAChigh/sixtop.c ****     *((uint8_t*)(pkt->payload)) = sequenceNumber;
 899              		.loc 1 294 0
 900 0456 3B69     		ldr	r3, [r7, #16]
 901 0458 5B68     		ldr	r3, [r3, #4]
 902 045a FA7B     		ldrb	r2, [r7, #15]
 903 045c 1A70     		strb	r2, [r3]
 295:build\openmote-cc2538_armgcc\openstack\02b-MAChigh/sixtop.c ****     len += 1;
 904              		.loc 1 295 0
 905 045e BB7D     		ldrb	r3, [r7, #22]
 906 0460 0133     		adds	r3, r3, #1
 907 0462 BB75     		strb	r3, [r7, #22]
 296:build\openmote-cc2538_armgcc\openstack\02b-MAChigh/sixtop.c **** 
 297:build\openmote-cc2538_armgcc\openstack\02b-MAChigh/sixtop.c ****     // append 6p sfid
 298:build\openmote-cc2538_armgcc\openstack\02b-MAChigh/sixtop.c ****     packetfunctions_reserveHeaderSize(pkt,sizeof(uint8_t));
 908              		.loc 1 298 0
 909 0464 0121     		movs	r1, #1
 910 0466 3869     		ldr	r0, [r7, #16]
 911 0468 FFF7FEFF 		bl	packetfunctions_reserveHeaderSize
 299:build\openmote-cc2538_armgcc\openstack\02b-MAChigh/sixtop.c ****     *((uint8_t*)(pkt->payload)) = sfid;
 912              		.loc 1 299 0
 913 046c 3B69     		ldr	r3, [r7, #16]
 914 046e 5B68     		ldr	r3, [r3, #4]
 915 0470 97F83020 		ldrb	r2, [r7, #48]
 916 0474 1A70     		strb	r2, [r3]
 300:build\openmote-cc2538_armgcc\openstack\02b-MAChigh/sixtop.c ****     len += 1;
 917              		.loc 1 300 0
 918 0476 BB7D     		ldrb	r3, [r7, #22]
 919 0478 0133     		adds	r3, r3, #1
 920 047a BB75     		strb	r3, [r7, #22]
 301:build\openmote-cc2538_armgcc\openstack\02b-MAChigh/sixtop.c **** 
 302:build\openmote-cc2538_armgcc\openstack\02b-MAChigh/sixtop.c ****     // append 6p code
 303:build\openmote-cc2538_armgcc\openstack\02b-MAChigh/sixtop.c ****     packetfunctions_reserveHeaderSize(pkt,sizeof(uint8_t));
 921              		.loc 1 303 0
 922 047c 0121     		movs	r1, #1
 923 047e 3869     		ldr	r0, [r7, #16]
 924 0480 FFF7FEFF 		bl	packetfunctions_reserveHeaderSize
 304:build\openmote-cc2538_armgcc\openstack\02b-MAChigh/sixtop.c ****     *((uint8_t*)(pkt->payload)) = code;
 925              		.loc 1 304 0
 926 0484 3B69     		ldr	r3, [r7, #16]
 927 0486 5B68     		ldr	r3, [r3, #4]
 928 0488 FA79     		ldrb	r2, [r7, #7]
 929 048a 1A70     		strb	r2, [r3]
 305:build\openmote-cc2538_armgcc\openstack\02b-MAChigh/sixtop.c ****     // record the code to determine the action after 6p senddone
 306:build\openmote-cc2538_armgcc\openstack\02b-MAChigh/sixtop.c ****     pkt->l2_sixtop_command      = code;
 930              		.loc 1 306 0
 931 048c 3B69     		ldr	r3, [r7, #16]
 932 048e FA79     		ldrb	r2, [r7, #7]
 933 0490 83F89520 		strb	r2, [r3, #149]
 307:build\openmote-cc2538_armgcc\openstack\02b-MAChigh/sixtop.c ****     len += 1;
 934              		.loc 1 307 0
 935 0494 BB7D     		ldrb	r3, [r7, #22]
 936 0496 0133     		adds	r3, r3, #1
 937 0498 BB75     		strb	r3, [r7, #22]
 308:build\openmote-cc2538_armgcc\openstack\02b-MAChigh/sixtop.c **** 
 309:build\openmote-cc2538_armgcc\openstack\02b-MAChigh/sixtop.c ****     // append 6p version, T(type) and  R(reserved)
 310:build\openmote-cc2538_armgcc\openstack\02b-MAChigh/sixtop.c ****     packetfunctions_reserveHeaderSize(pkt,sizeof(uint8_t));
 938              		.loc 1 310 0
 939 049a 0121     		movs	r1, #1
 940 049c 3869     		ldr	r0, [r7, #16]
 941 049e FFF7FEFF 		bl	packetfunctions_reserveHeaderSize
 311:build\openmote-cc2538_armgcc\openstack\02b-MAChigh/sixtop.c ****     *((uint8_t*)(pkt->payload)) = IANA_6TOP_6P_VERSION | IANA_6TOP_TYPE_REQUEST;
 942              		.loc 1 311 0
 943 04a2 3B69     		ldr	r3, [r7, #16]
 944 04a4 5B68     		ldr	r3, [r3, #4]
 945 04a6 0022     		movs	r2, #0
 946 04a8 1A70     		strb	r2, [r3]
 312:build\openmote-cc2538_armgcc\openstack\02b-MAChigh/sixtop.c ****     len += 1;
 947              		.loc 1 312 0
 948 04aa BB7D     		ldrb	r3, [r7, #22]
 949 04ac 0133     		adds	r3, r3, #1
 950 04ae BB75     		strb	r3, [r7, #22]
 313:build\openmote-cc2538_armgcc\openstack\02b-MAChigh/sixtop.c **** 
 314:build\openmote-cc2538_armgcc\openstack\02b-MAChigh/sixtop.c ****     // append 6p subtype id
 315:build\openmote-cc2538_armgcc\openstack\02b-MAChigh/sixtop.c ****     packetfunctions_reserveHeaderSize(pkt,sizeof(uint8_t));
 951              		.loc 1 315 0
 952 04b0 0121     		movs	r1, #1
 953 04b2 3869     		ldr	r0, [r7, #16]
 954 04b4 FFF7FEFF 		bl	packetfunctions_reserveHeaderSize
 316:build\openmote-cc2538_armgcc\openstack\02b-MAChigh/sixtop.c ****     *((uint8_t*)(pkt->payload)) = IANA_6TOP_SUBIE_ID;
 955              		.loc 1 316 0
 956 04b8 3B69     		ldr	r3, [r7, #16]
 957 04ba 5B68     		ldr	r3, [r3, #4]
 958 04bc C922     		movs	r2, #201
 959 04be 1A70     		strb	r2, [r3]
 317:build\openmote-cc2538_armgcc\openstack\02b-MAChigh/sixtop.c ****     len += 1;
 960              		.loc 1 317 0
 961 04c0 BB7D     		ldrb	r3, [r7, #22]
 962 04c2 0133     		adds	r3, r3, #1
 963 04c4 BB75     		strb	r3, [r7, #22]
 318:build\openmote-cc2538_armgcc\openstack\02b-MAChigh/sixtop.c **** 
 319:build\openmote-cc2538_armgcc\openstack\02b-MAChigh/sixtop.c ****     // append IETF IE header (length_groupid_type)
 320:build\openmote-cc2538_armgcc\openstack\02b-MAChigh/sixtop.c ****     packetfunctions_reserveHeaderSize(pkt, sizeof(uint16_t));
 964              		.loc 1 320 0
 965 04c6 0221     		movs	r1, #2
 966 04c8 3869     		ldr	r0, [r7, #16]
 967 04ca FFF7FEFF 		bl	packetfunctions_reserveHeaderSize
 321:build\openmote-cc2538_armgcc\openstack\02b-MAChigh/sixtop.c ****     length_groupid_type  = len;
 968              		.loc 1 321 0
 969 04ce BB7D     		ldrb	r3, [r7, #22]	@ zero_extendqisi2
 970 04d0 BB81     		strh	r3, [r7, #12]	@ movhi
 322:build\openmote-cc2538_armgcc\openstack\02b-MAChigh/sixtop.c ****     length_groupid_type |= (IANA_IETF_IE_GROUP_ID  | IANA_IETF_IE_TYPE);
 971              		.loc 1 322 0
 972 04d2 BB89     		ldrh	r3, [r7, #12]	@ movhi
 973 04d4 43F07F43 		orr	r3, r3, #-16777216
 974 04d8 43F47F03 		orr	r3, r3, #16711680
 975 04dc 43F42843 		orr	r3, r3, #43008
 976 04e0 BB81     		strh	r3, [r7, #12]	@ movhi
 323:build\openmote-cc2538_armgcc\openstack\02b-MAChigh/sixtop.c ****     pkt->payload[0]      = length_groupid_type        & 0xFF;
 977              		.loc 1 323 0
 978 04e2 3B69     		ldr	r3, [r7, #16]
 979 04e4 5B68     		ldr	r3, [r3, #4]
 980 04e6 BA89     		ldrh	r2, [r7, #12]	@ movhi
 981 04e8 D2B2     		uxtb	r2, r2
 982 04ea 1A70     		strb	r2, [r3]
 324:build\openmote-cc2538_armgcc\openstack\02b-MAChigh/sixtop.c ****     pkt->payload[1]      = (length_groupid_type >> 8) & 0xFF;
 983              		.loc 1 324 0
 984 04ec BB89     		ldrh	r3, [r7, #12]
 985 04ee 1B0A     		lsrs	r3, r3, #8
 986 04f0 9AB2     		uxth	r2, r3
 987 04f2 3B69     		ldr	r3, [r7, #16]
 988 04f4 5B68     		ldr	r3, [r3, #4]
 989 04f6 0133     		adds	r3, r3, #1
 990 04f8 D2B2     		uxtb	r2, r2
 991 04fa 1A70     		strb	r2, [r3]
 325:build\openmote-cc2538_armgcc\openstack\02b-MAChigh/sixtop.c **** 
 326:build\openmote-cc2538_armgcc\openstack\02b-MAChigh/sixtop.c ****     // indicate IEs present
 327:build\openmote-cc2538_armgcc\openstack\02b-MAChigh/sixtop.c ****     pkt->l2_payloadIEpresent = TRUE;
 992              		.loc 1 327 0
 993 04fc 3B69     		ldr	r3, [r7, #16]
 994 04fe 0122     		movs	r2, #1
 995 0500 83F8A220 		strb	r2, [r3, #162]
 328:build\openmote-cc2538_armgcc\openstack\02b-MAChigh/sixtop.c ****     // record this packet as sixtop request message
 329:build\openmote-cc2538_armgcc\openstack\02b-MAChigh/sixtop.c ****     pkt->l2_sixtop_messageType    = SIXTOP_CELL_REQUEST;
 996              		.loc 1 329 0
 997 0504 3B69     		ldr	r3, [r7, #16]
 998 0506 0022     		movs	r2, #0
 999 0508 83F89420 		strb	r2, [r3, #148]
 330:build\openmote-cc2538_armgcc\openstack\02b-MAChigh/sixtop.c **** 
 331:build\openmote-cc2538_armgcc\openstack\02b-MAChigh/sixtop.c ****     // send packet
 332:build\openmote-cc2538_armgcc\openstack\02b-MAChigh/sixtop.c ****     outcome = sixtop_send(pkt);
 1000              		.loc 1 332 0
 1001 050c 3869     		ldr	r0, [r7, #16]
 1002 050e FFF7FEFF 		bl	sixtop_send
 1003 0512 0346     		mov	r3, r0
 1004 0514 FB72     		strb	r3, [r7, #11]
 333:build\openmote-cc2538_armgcc\openstack\02b-MAChigh/sixtop.c **** 
 334:build\openmote-cc2538_armgcc\openstack\02b-MAChigh/sixtop.c ****     if (outcome == E_SUCCESS){
 1005              		.loc 1 334 0
 1006 0516 FB7A     		ldrb	r3, [r7, #11]	@ zero_extendqisi2
 1007 0518 002B     		cmp	r3, #0
 1008 051a 2ED1     		bne	.L40
 335:build\openmote-cc2538_armgcc\openstack\02b-MAChigh/sixtop.c ****         //update states
 336:build\openmote-cc2538_armgcc\openstack\02b-MAChigh/sixtop.c ****         switch(code){
 1009              		.loc 1 336 0
 1010 051c FB79     		ldrb	r3, [r7, #7]	@ zero_extendqisi2
 1011 051e 013B     		subs	r3, r3, #1
 1012 0520 062B     		cmp	r3, #6
 1013 0522 2DD8     		bhi	.L49
 1014 0524 01A2     		adr	r2, .L43
 1015 0526 52F823F0 		ldr	pc, [r2, r3, lsl #2]
 1016 052a 00BF     		.p2align 2
 1017              	.L43:
 1018 052c 49050000 		.word	.L42+1
 1019 0530 51050000 		.word	.L44+1
 1020 0534 59050000 		.word	.L45+1
 1021 0538 61050000 		.word	.L46+1
 1022 053c 69050000 		.word	.L47+1
 1023 0540 81050000 		.word	.L49+1
 1024 0544 71050000 		.word	.L48+1
 1025              		.p2align 1
 1026              	.L42:
 337:build\openmote-cc2538_armgcc\openstack\02b-MAChigh/sixtop.c ****         case IANA_6TOP_CMD_ADD:
 338:build\openmote-cc2538_armgcc\openstack\02b-MAChigh/sixtop.c ****             sixtop_vars.six2six_state = SIX_STATE_WAIT_ADDREQUEST_SENDDONE;
 1027              		.loc 1 338 0
 1028 0548 104B     		ldr	r3, .L52
 1029 054a 0122     		movs	r2, #1
 1030 054c 9A73     		strb	r2, [r3, #14]
 339:build\openmote-cc2538_armgcc\openstack\02b-MAChigh/sixtop.c ****             break;
 1031              		.loc 1 339 0
 1032 054e 17E0     		b	.L49
 1033              	.L44:
 340:build\openmote-cc2538_armgcc\openstack\02b-MAChigh/sixtop.c ****         case IANA_6TOP_CMD_DELETE:
 341:build\openmote-cc2538_armgcc\openstack\02b-MAChigh/sixtop.c ****             sixtop_vars.six2six_state = SIX_STATE_WAIT_DELETEREQUEST_SENDDONE;
 1034              		.loc 1 341 0
 1035 0550 0E4B     		ldr	r3, .L52
 1036 0552 0222     		movs	r2, #2
 1037 0554 9A73     		strb	r2, [r3, #14]
 342:build\openmote-cc2538_armgcc\openstack\02b-MAChigh/sixtop.c ****             break;
 1038              		.loc 1 342 0
 1039 0556 13E0     		b	.L49
 1040              	.L45:
 343:build\openmote-cc2538_armgcc\openstack\02b-MAChigh/sixtop.c ****         case IANA_6TOP_CMD_RELOCATE:
 344:build\openmote-cc2538_armgcc\openstack\02b-MAChigh/sixtop.c ****             sixtop_vars.six2six_state = SIX_STATE_WAIT_RELOCATEREQUEST_SENDDONE;
 1041              		.loc 1 344 0
 1042 0558 0C4B     		ldr	r3, .L52
 1043 055a 0322     		movs	r2, #3
 1044 055c 9A73     		strb	r2, [r3, #14]
 345:build\openmote-cc2538_armgcc\openstack\02b-MAChigh/sixtop.c ****             break;
 1045              		.loc 1 345 0
 1046 055e 0FE0     		b	.L49
 1047              	.L46:
 346:build\openmote-cc2538_armgcc\openstack\02b-MAChigh/sixtop.c ****         case IANA_6TOP_CMD_COUNT:
 347:build\openmote-cc2538_armgcc\openstack\02b-MAChigh/sixtop.c ****             sixtop_vars.six2six_state = SIX_STATE_WAIT_COUNTREQUEST_SENDDONE;
 1048              		.loc 1 347 0
 1049 0560 0A4B     		ldr	r3, .L52
 1050 0562 0422     		movs	r2, #4
 1051 0564 9A73     		strb	r2, [r3, #14]
 348:build\openmote-cc2538_armgcc\openstack\02b-MAChigh/sixtop.c ****             break;
 1052              		.loc 1 348 0
 1053 0566 0BE0     		b	.L49
 1054              	.L47:
 349:build\openmote-cc2538_armgcc\openstack\02b-MAChigh/sixtop.c ****         case IANA_6TOP_CMD_LIST:
 350:build\openmote-cc2538_armgcc\openstack\02b-MAChigh/sixtop.c ****             sixtop_vars.six2six_state = SIX_STATE_WAIT_LISTREQUEST_SENDDONE;
 1055              		.loc 1 350 0
 1056 0568 084B     		ldr	r3, .L52
 1057 056a 0522     		movs	r2, #5
 1058 056c 9A73     		strb	r2, [r3, #14]
 351:build\openmote-cc2538_armgcc\openstack\02b-MAChigh/sixtop.c ****             break;
 1059              		.loc 1 351 0
 1060 056e 07E0     		b	.L49
 1061              	.L48:
 352:build\openmote-cc2538_armgcc\openstack\02b-MAChigh/sixtop.c ****         case IANA_6TOP_CMD_CLEAR:
 353:build\openmote-cc2538_armgcc\openstack\02b-MAChigh/sixtop.c ****             sixtop_vars.six2six_state = SIX_STATE_WAIT_CLEARREQUEST_SENDDONE;
 1062              		.loc 1 353 0
 1063 0570 064B     		ldr	r3, .L52
 1064 0572 0622     		movs	r2, #6
 1065 0574 9A73     		strb	r2, [r3, #14]
 354:build\openmote-cc2538_armgcc\openstack\02b-MAChigh/sixtop.c ****             break;
 1066              		.loc 1 354 0
 1067 0576 00BF     		nop
 1068 0578 02E0     		b	.L49
 1069              	.L40:
 355:build\openmote-cc2538_armgcc\openstack\02b-MAChigh/sixtop.c ****         }
 356:build\openmote-cc2538_armgcc\openstack\02b-MAChigh/sixtop.c ****     } else {
 357:build\openmote-cc2538_armgcc\openstack\02b-MAChigh/sixtop.c ****         openqueue_freePacketBuffer(pkt);
 1070              		.loc 1 357 0
 1071 057a 3869     		ldr	r0, [r7, #16]
 1072 057c FFF7FEFF 		bl	openqueue_freePacketBuffer
 1073              	.L49:
 358:build\openmote-cc2538_armgcc\openstack\02b-MAChigh/sixtop.c ****     }
 359:build\openmote-cc2538_armgcc\openstack\02b-MAChigh/sixtop.c ****     return outcome;
 1074              		.loc 1 359 0
 1075 0580 FB7A     		ldrb	r3, [r7, #11]	@ zero_extendqisi2
 1076              	.L21:
 360:build\openmote-cc2538_armgcc\openstack\02b-MAChigh/sixtop.c **** }
 1077              		.loc 1 360 0
 1078 0582 1846     		mov	r0, r3
 1079 0584 1837     		adds	r7, r7, #24
 1080              		.cfi_def_cfa_offset 16
 1081 0586 BD46     		mov	sp, r7
 1082              		.cfi_def_cfa_register 13
 1083              		@ sp needed
 1084 0588 B0BD     		pop	{r4, r5, r7, pc}
 1085              	.L53:
 1086 058a 00BF     		.align	2
 1087              	.L52:
 1088 058c 00000000 		.word	sixtop_vars
 1089              		.cfi_endproc
 1090              	.LFE7:
 1092              		.align	1
 1093              		.global	sixtop_send
 1094              		.syntax unified
 1095              		.thumb
 1096              		.thumb_func
 1097              		.fpu softvfp
 1099              	sixtop_send:
 1100              	.LFB8:
 361:build\openmote-cc2538_armgcc\openstack\02b-MAChigh/sixtop.c **** 
 362:build\openmote-cc2538_armgcc\openstack\02b-MAChigh/sixtop.c **** //======= from upper layer
 363:build\openmote-cc2538_armgcc\openstack\02b-MAChigh/sixtop.c **** 
 364:build\openmote-cc2538_armgcc\openstack\02b-MAChigh/sixtop.c **** owerror_t sixtop_send(OpenQueueEntry_t *msg) {
 1101              		.loc 1 364 0
 1102              		.cfi_startproc
 1103              		@ args = 0, pretend = 0, frame = 32
 1104              		@ frame_needed = 1, uses_anonymous_args = 0
 1105 0590 80B5     		push	{r7, lr}
 1106              		.cfi_def_cfa_offset 8
 1107              		.cfi_offset 7, -8
 1108              		.cfi_offset 14, -4
 1109 0592 88B0     		sub	sp, sp, #32
 1110              		.cfi_def_cfa_offset 40
 1111 0594 00AF     		add	r7, sp, #0
 1112              		.cfi_def_cfa_register 7
 1113 0596 7860     		str	r0, [r7, #4]
 365:build\openmote-cc2538_armgcc\openstack\02b-MAChigh/sixtop.c **** 
 366:build\openmote-cc2538_armgcc\openstack\02b-MAChigh/sixtop.c ****     open_addr_t addressToWrite;
 367:build\openmote-cc2538_armgcc\openstack\02b-MAChigh/sixtop.c **** 
 368:build\openmote-cc2538_armgcc\openstack\02b-MAChigh/sixtop.c ****     if (
 369:build\openmote-cc2538_armgcc\openstack\02b-MAChigh/sixtop.c ****         idmanager_getIsDAGroot() == FALSE               &&
 1114              		.loc 1 369 0
 1115 0598 FFF7FEFF 		bl	idmanager_getIsDAGroot
 1116 059c 0346     		mov	r3, r0
 1117 059e 83F00103 		eor	r3, r3, #1
 1118 05a2 DBB2     		uxtb	r3, r3
 368:build\openmote-cc2538_armgcc\openstack\02b-MAChigh/sixtop.c ****         idmanager_getIsDAGroot() == FALSE               &&
 1119              		.loc 1 368 0
 1120 05a4 002B     		cmp	r3, #0
 1121 05a6 2FD0     		beq	.L55
 370:build\openmote-cc2538_armgcc\openstack\02b-MAChigh/sixtop.c ****         (
 371:build\openmote-cc2538_armgcc\openstack\02b-MAChigh/sixtop.c ****             msg->creator != COMPONENT_SIXTOP_RES        &&
 1122              		.loc 1 371 0
 1123 05a8 7B68     		ldr	r3, [r7, #4]
 1124 05aa 1B78     		ldrb	r3, [r3]	@ zero_extendqisi2
 369:build\openmote-cc2538_armgcc\openstack\02b-MAChigh/sixtop.c ****         (
 1125              		.loc 1 369 0
 1126 05ac 0F2B     		cmp	r3, #15
 1127 05ae 2BD0     		beq	.L55
 372:build\openmote-cc2538_armgcc\openstack\02b-MAChigh/sixtop.c ****             msg->creator != COMPONENT_CJOIN             &&
 1128              		.loc 1 372 0
 1129 05b0 7B68     		ldr	r3, [r7, #4]
 1130 05b2 1B78     		ldrb	r3, [r3]	@ zero_extendqisi2
 371:build\openmote-cc2538_armgcc\openstack\02b-MAChigh/sixtop.c ****             msg->creator != COMPONENT_CJOIN             &&
 1131              		.loc 1 371 0
 1132 05b4 272B     		cmp	r3, #39
 1133 05b6 27D0     		beq	.L55
 373:build\openmote-cc2538_armgcc\openstack\02b-MAChigh/sixtop.c ****             (
 374:build\openmote-cc2538_armgcc\openstack\02b-MAChigh/sixtop.c ****                 icmpv6rpl_getPreferredParentEui64(&addressToWrite) == FALSE      ||
 1134              		.loc 1 374 0
 1135 05b8 07F10C03 		add	r3, r7, #12
 1136 05bc 1846     		mov	r0, r3
 1137 05be FFF7FEFF 		bl	icmpv6rpl_getPreferredParentEui64
 1138 05c2 0346     		mov	r3, r0
 1139 05c4 83F00103 		eor	r3, r3, #1
 1140 05c8 DBB2     		uxtb	r3, r3
 372:build\openmote-cc2538_armgcc\openstack\02b-MAChigh/sixtop.c ****             (
 1141              		.loc 1 372 0
 1142 05ca 002B     		cmp	r3, #0
 1143 05cc 1AD1     		bne	.L56
 375:build\openmote-cc2538_armgcc\openstack\02b-MAChigh/sixtop.c ****                 (
 376:build\openmote-cc2538_armgcc\openstack\02b-MAChigh/sixtop.c ****                     icmpv6rpl_getPreferredParentEui64(&addressToWrite)           &&
 1144              		.loc 1 376 0
 1145 05ce 07F10C03 		add	r3, r7, #12
 1146 05d2 1846     		mov	r0, r3
 1147 05d4 FFF7FEFF 		bl	icmpv6rpl_getPreferredParentEui64
 1148 05d8 0346     		mov	r3, r0
 374:build\openmote-cc2538_armgcc\openstack\02b-MAChigh/sixtop.c ****                 (
 1149              		.loc 1 374 0
 1150 05da 002B     		cmp	r3, #0
 1151 05dc 14D0     		beq	.L55
 377:build\openmote-cc2538_armgcc\openstack\02b-MAChigh/sixtop.c ****                     (
 378:build\openmote-cc2538_armgcc\openstack\02b-MAChigh/sixtop.c ****                         msf_getHashCollisionFlag() == FALSE                      &&
 1152              		.loc 1 378 0
 1153 05de FFF7FEFF 		bl	msf_getHashCollisionFlag
 1154 05e2 0346     		mov	r3, r0
 1155 05e4 83F00103 		eor	r3, r3, #1
 1156 05e8 DBB2     		uxtb	r3, r3
 376:build\openmote-cc2538_armgcc\openstack\02b-MAChigh/sixtop.c ****                     (
 1157              		.loc 1 376 0
 1158 05ea 002B     		cmp	r3, #0
 1159 05ec 0CD0     		beq	.L55
 379:build\openmote-cc2538_armgcc\openstack\02b-MAChigh/sixtop.c ****                         schedule_hasAutonomousTxRxCellUnicast(&addressToWrite)== FALSE
 1160              		.loc 1 379 0
 1161 05ee 07F10C03 		add	r3, r7, #12
 1162 05f2 1846     		mov	r0, r3
 1163 05f4 FFF7FEFF 		bl	schedule_hasAutonomousTxRxCellUnicast
 1164 05f8 0346     		mov	r3, r0
 1165 05fa 83F00103 		eor	r3, r3, #1
 1166 05fe DBB2     		uxtb	r3, r3
 378:build\openmote-cc2538_armgcc\openstack\02b-MAChigh/sixtop.c ****                         schedule_hasAutonomousTxRxCellUnicast(&addressToWrite)== FALSE
 1167              		.loc 1 378 0
 1168 0600 002B     		cmp	r3, #0
 1169 0602 01D0     		beq	.L55
 1170              	.L56:
 380:build\openmote-cc2538_armgcc\openstack\02b-MAChigh/sixtop.c ****                     )
 381:build\openmote-cc2538_armgcc\openstack\02b-MAChigh/sixtop.c ****                 )
 382:build\openmote-cc2538_armgcc\openstack\02b-MAChigh/sixtop.c ****             )
 383:build\openmote-cc2538_armgcc\openstack\02b-MAChigh/sixtop.c ****         )
 384:build\openmote-cc2538_armgcc\openstack\02b-MAChigh/sixtop.c ****     ){
 385:build\openmote-cc2538_armgcc\openstack\02b-MAChigh/sixtop.c ****         return E_FAIL;
 1171              		.loc 1 385 0
 1172 0604 0123     		movs	r3, #1
 1173 0606 2CE0     		b	.L59
 1174              	.L55:
 386:build\openmote-cc2538_armgcc\openstack\02b-MAChigh/sixtop.c ****     }
 387:build\openmote-cc2538_armgcc\openstack\02b-MAChigh/sixtop.c **** 
 388:build\openmote-cc2538_armgcc\openstack\02b-MAChigh/sixtop.c **** 
 389:build\openmote-cc2538_armgcc\openstack\02b-MAChigh/sixtop.c **** 
 390:build\openmote-cc2538_armgcc\openstack\02b-MAChigh/sixtop.c ****     // set metadata
 391:build\openmote-cc2538_armgcc\openstack\02b-MAChigh/sixtop.c ****     msg->owner        = COMPONENT_SIXTOP;
 1175              		.loc 1 391 0
 1176 0608 7B68     		ldr	r3, [r7, #4]
 1177 060a 0C22     		movs	r2, #12
 1178 060c 5A70     		strb	r2, [r3, #1]
 392:build\openmote-cc2538_armgcc\openstack\02b-MAChigh/sixtop.c ****     msg->l2_frameType = IEEE154_TYPE_DATA;
 1179              		.loc 1 392 0
 1180 060e 7B68     		ldr	r3, [r7, #4]
 1181 0610 0122     		movs	r2, #1
 1182 0612 83F85220 		strb	r2, [r3, #82]
 393:build\openmote-cc2538_armgcc\openstack\02b-MAChigh/sixtop.c **** 
 394:build\openmote-cc2538_armgcc\openstack\02b-MAChigh/sixtop.c ****     // set l2-security attributes
 395:build\openmote-cc2538_armgcc\openstack\02b-MAChigh/sixtop.c ****     msg->l2_securityLevel   = IEEE802154_security_getSecurityLevel(msg);
 1183              		.loc 1 395 0
 1184 0616 7868     		ldr	r0, [r7, #4]
 1185 0618 FFF7FEFF 		bl	IEEE802154_security_getSecurityLevel
 1186 061c 0346     		mov	r3, r0
 1187 061e 1A46     		mov	r2, r3
 1188 0620 7B68     		ldr	r3, [r7, #4]
 1189 0622 83F8A920 		strb	r2, [r3, #169]
 396:build\openmote-cc2538_armgcc\openstack\02b-MAChigh/sixtop.c ****     msg->l2_keyIdMode       = IEEE802154_SECURITY_KEYIDMODE;
 1190              		.loc 1 396 0
 1191 0626 7B68     		ldr	r3, [r7, #4]
 1192 0628 0022     		movs	r2, #0
 1193 062a 83F8AA20 		strb	r2, [r3, #170]
 397:build\openmote-cc2538_armgcc\openstack\02b-MAChigh/sixtop.c ****     msg->l2_keyIndex        = IEEE802154_security_getDataKeyIndex();
 1194              		.loc 1 397 0
 1195 062e FFF7FEFF 		bl	IEEE802154_security_getDataKeyIndex
 1196 0632 0346     		mov	r3, r0
 1197 0634 1A46     		mov	r2, r3
 1198 0636 7B68     		ldr	r3, [r7, #4]
 1199 0638 83F8AB20 		strb	r2, [r3, #171]
 398:build\openmote-cc2538_armgcc\openstack\02b-MAChigh/sixtop.c **** 
 399:build\openmote-cc2538_armgcc\openstack\02b-MAChigh/sixtop.c ****     if (msg->l2_payloadIEpresent == FALSE) {
 1200              		.loc 1 399 0
 1201 063c 7B68     		ldr	r3, [r7, #4]
 1202 063e 93F8A230 		ldrb	r3, [r3, #162]	@ zero_extendqisi2
 1203 0642 83F00103 		eor	r3, r3, #1
 1204 0646 DBB2     		uxtb	r3, r3
 1205 0648 002B     		cmp	r3, #0
 1206 064a 05D0     		beq	.L58
 400:build\openmote-cc2538_armgcc\openstack\02b-MAChigh/sixtop.c ****         return sixtop_send_internal(
 1207              		.loc 1 400 0
 1208 064c 0021     		movs	r1, #0
 1209 064e 7868     		ldr	r0, [r7, #4]
 1210 0650 FFF7FEFF 		bl	sixtop_send_internal
 1211 0654 0346     		mov	r3, r0
 1212 0656 04E0     		b	.L59
 1213              	.L58:
 401:build\openmote-cc2538_armgcc\openstack\02b-MAChigh/sixtop.c ****             msg,
 402:build\openmote-cc2538_armgcc\openstack\02b-MAChigh/sixtop.c ****             FALSE
 403:build\openmote-cc2538_armgcc\openstack\02b-MAChigh/sixtop.c ****         );
 404:build\openmote-cc2538_armgcc\openstack\02b-MAChigh/sixtop.c ****     } else {
 405:build\openmote-cc2538_armgcc\openstack\02b-MAChigh/sixtop.c ****         return sixtop_send_internal(
 1214              		.loc 1 405 0
 1215 0658 0121     		movs	r1, #1
 1216 065a 7868     		ldr	r0, [r7, #4]
 1217 065c FFF7FEFF 		bl	sixtop_send_internal
 1218 0660 0346     		mov	r3, r0
 1219              	.L59:
 406:build\openmote-cc2538_armgcc\openstack\02b-MAChigh/sixtop.c ****             msg,
 407:build\openmote-cc2538_armgcc\openstack\02b-MAChigh/sixtop.c ****             TRUE
 408:build\openmote-cc2538_armgcc\openstack\02b-MAChigh/sixtop.c ****         );
 409:build\openmote-cc2538_armgcc\openstack\02b-MAChigh/sixtop.c ****     }
 410:build\openmote-cc2538_armgcc\openstack\02b-MAChigh/sixtop.c **** }
 1220              		.loc 1 410 0 discriminator 1
 1221 0662 1846     		mov	r0, r3
 1222 0664 2037     		adds	r7, r7, #32
 1223              		.cfi_def_cfa_offset 8
 1224 0666 BD46     		mov	sp, r7
 1225              		.cfi_def_cfa_register 13
 1226              		@ sp needed
 1227 0668 80BD     		pop	{r7, pc}
 1228              		.cfi_endproc
 1229              	.LFE8:
 1231              		.align	1
 1232              		.global	task_sixtopNotifSendDone
 1233              		.syntax unified
 1234              		.thumb
 1235              		.thumb_func
 1236              		.fpu softvfp
 1238              	task_sixtopNotifSendDone:
 1239              	.LFB9:
 411:build\openmote-cc2538_armgcc\openstack\02b-MAChigh/sixtop.c **** 
 412:build\openmote-cc2538_armgcc\openstack\02b-MAChigh/sixtop.c **** //======= from lower layer
 413:build\openmote-cc2538_armgcc\openstack\02b-MAChigh/sixtop.c **** 
 414:build\openmote-cc2538_armgcc\openstack\02b-MAChigh/sixtop.c **** void task_sixtopNotifSendDone(void) {
 1240              		.loc 1 414 0
 1241              		.cfi_startproc
 1242              		@ args = 0, pretend = 0, frame = 8
 1243              		@ frame_needed = 1, uses_anonymous_args = 0
 1244 066a 80B5     		push	{r7, lr}
 1245              		.cfi_def_cfa_offset 8
 1246              		.cfi_offset 7, -8
 1247              		.cfi_offset 14, -4
 1248 066c 84B0     		sub	sp, sp, #16
 1249              		.cfi_def_cfa_offset 24
 1250 066e 02AF     		add	r7, sp, #8
 1251              		.cfi_def_cfa 7, 16
 415:build\openmote-cc2538_armgcc\openstack\02b-MAChigh/sixtop.c ****     OpenQueueEntry_t* msg;
 416:build\openmote-cc2538_armgcc\openstack\02b-MAChigh/sixtop.c **** 
 417:build\openmote-cc2538_armgcc\openstack\02b-MAChigh/sixtop.c ****     // get recently-sent packet from openqueue
 418:build\openmote-cc2538_armgcc\openstack\02b-MAChigh/sixtop.c ****     msg = openqueue_sixtopGetSentPacket();
 1252              		.loc 1 418 0
 1253 0670 FFF7FEFF 		bl	openqueue_sixtopGetSentPacket
 1254 0674 7860     		str	r0, [r7, #4]
 419:build\openmote-cc2538_armgcc\openstack\02b-MAChigh/sixtop.c ****     if (msg==NULL) {
 1255              		.loc 1 419 0
 1256 0676 7B68     		ldr	r3, [r7, #4]
 1257 0678 002B     		cmp	r3, #0
 1258 067a 06D1     		bne	.L61
 420:build\openmote-cc2538_armgcc\openstack\02b-MAChigh/sixtop.c ****         openserial_printCritical(
 1259              		.loc 1 420 0
 1260 067c 0023     		movs	r3, #0
 1261 067e 0022     		movs	r2, #0
 1262 0680 1621     		movs	r1, #22
 1263 0682 0C20     		movs	r0, #12
 1264 0684 FFF7FEFF 		bl	openserial_printCritical
 421:build\openmote-cc2538_armgcc\openstack\02b-MAChigh/sixtop.c ****             COMPONENT_SIXTOP,
 422:build\openmote-cc2538_armgcc\openstack\02b-MAChigh/sixtop.c ****             ERR_NO_SENT_PACKET,
 423:build\openmote-cc2538_armgcc\openstack\02b-MAChigh/sixtop.c ****             (errorparameter_t)0,
 424:build\openmote-cc2538_armgcc\openstack\02b-MAChigh/sixtop.c ****             (errorparameter_t)0
 425:build\openmote-cc2538_armgcc\openstack\02b-MAChigh/sixtop.c ****         );
 426:build\openmote-cc2538_armgcc\openstack\02b-MAChigh/sixtop.c ****         return;
 1265              		.loc 1 426 0
 1266 0688 4DE0     		b	.L60
 1267              	.L61:
 427:build\openmote-cc2538_armgcc\openstack\02b-MAChigh/sixtop.c ****     }
 428:build\openmote-cc2538_armgcc\openstack\02b-MAChigh/sixtop.c **** 
 429:build\openmote-cc2538_armgcc\openstack\02b-MAChigh/sixtop.c ****     // take ownership
 430:build\openmote-cc2538_armgcc\openstack\02b-MAChigh/sixtop.c ****     msg->owner = COMPONENT_SIXTOP;
 1268              		.loc 1 430 0
 1269 068a 7B68     		ldr	r3, [r7, #4]
 1270 068c 0C22     		movs	r2, #12
 1271 068e 5A70     		strb	r2, [r3, #1]
 431:build\openmote-cc2538_armgcc\openstack\02b-MAChigh/sixtop.c **** 
 432:build\openmote-cc2538_armgcc\openstack\02b-MAChigh/sixtop.c ****     // update neighbor statistics
 433:build\openmote-cc2538_armgcc\openstack\02b-MAChigh/sixtop.c ****     if (msg->l2_sendDoneError==E_SUCCESS) {
 1272              		.loc 1 433 0
 1273 0690 7B68     		ldr	r3, [r7, #4]
 1274 0692 93F84030 		ldrb	r3, [r3, #64]	@ zero_extendqisi2
 1275 0696 002B     		cmp	r3, #0
 1276 0698 0FD1     		bne	.L63
 434:build\openmote-cc2538_armgcc\openstack\02b-MAChigh/sixtop.c ****         neighbors_indicateTx(
 1277              		.loc 1 434 0
 1278 069a 7B68     		ldr	r3, [r7, #4]
 1279 069c 03F14100 		add	r0, r3, #65
 1280 06a0 7B68     		ldr	r3, [r7, #4]
 1281 06a2 93F85510 		ldrb	r1, [r3, #85]	@ zero_extendqisi2
 1282 06a6 7B68     		ldr	r3, [r7, #4]
 1283 06a8 93F8A820 		ldrb	r2, [r3, #168]	@ zero_extendqisi2
 1284 06ac 7B68     		ldr	r3, [r7, #4]
 1285 06ae 5633     		adds	r3, r3, #86
 1286 06b0 0093     		str	r3, [sp]
 1287 06b2 0123     		movs	r3, #1
 1288 06b4 FFF7FEFF 		bl	neighbors_indicateTx
 1289 06b8 0EE0     		b	.L64
 1290              	.L63:
 435:build\openmote-cc2538_armgcc\openstack\02b-MAChigh/sixtop.c ****             &(msg->l2_nextORpreviousHop),
 436:build\openmote-cc2538_armgcc\openstack\02b-MAChigh/sixtop.c ****             msg->l2_numTxAttempts,
 437:build\openmote-cc2538_armgcc\openstack\02b-MAChigh/sixtop.c ****             msg->l2_sendOnTxCell,
 438:build\openmote-cc2538_armgcc\openstack\02b-MAChigh/sixtop.c ****             TRUE,
 439:build\openmote-cc2538_armgcc\openstack\02b-MAChigh/sixtop.c ****             &msg->l2_asn
 440:build\openmote-cc2538_armgcc\openstack\02b-MAChigh/sixtop.c ****         );
 441:build\openmote-cc2538_armgcc\openstack\02b-MAChigh/sixtop.c ****     } else {
 442:build\openmote-cc2538_armgcc\openstack\02b-MAChigh/sixtop.c ****         neighbors_indicateTx(
 1291              		.loc 1 442 0
 1292 06ba 7B68     		ldr	r3, [r7, #4]
 1293 06bc 03F14100 		add	r0, r3, #65
 1294 06c0 7B68     		ldr	r3, [r7, #4]
 1295 06c2 93F85510 		ldrb	r1, [r3, #85]	@ zero_extendqisi2
 1296 06c6 7B68     		ldr	r3, [r7, #4]
 1297 06c8 93F8A820 		ldrb	r2, [r3, #168]	@ zero_extendqisi2
 1298 06cc 7B68     		ldr	r3, [r7, #4]
 1299 06ce 5633     		adds	r3, r3, #86
 1300 06d0 0093     		str	r3, [sp]
 1301 06d2 0023     		movs	r3, #0
 1302 06d4 FFF7FEFF 		bl	neighbors_indicateTx
 1303              	.L64:
 443:build\openmote-cc2538_armgcc\openstack\02b-MAChigh/sixtop.c ****              &(msg->l2_nextORpreviousHop),
 444:build\openmote-cc2538_armgcc\openstack\02b-MAChigh/sixtop.c ****              msg->l2_numTxAttempts,
 445:build\openmote-cc2538_armgcc\openstack\02b-MAChigh/sixtop.c ****              msg->l2_sendOnTxCell,
 446:build\openmote-cc2538_armgcc\openstack\02b-MAChigh/sixtop.c ****              FALSE,
 447:build\openmote-cc2538_armgcc\openstack\02b-MAChigh/sixtop.c ****              &msg->l2_asn
 448:build\openmote-cc2538_armgcc\openstack\02b-MAChigh/sixtop.c ****         );
 449:build\openmote-cc2538_armgcc\openstack\02b-MAChigh/sixtop.c ****     }
 450:build\openmote-cc2538_armgcc\openstack\02b-MAChigh/sixtop.c **** 
 451:build\openmote-cc2538_armgcc\openstack\02b-MAChigh/sixtop.c ****     // send the packet to where it belongs
 452:build\openmote-cc2538_armgcc\openstack\02b-MAChigh/sixtop.c ****     switch (msg->creator) {
 1304              		.loc 1 452 0
 1305 06d8 7B68     		ldr	r3, [r7, #4]
 1306 06da 1B78     		ldrb	r3, [r3]	@ zero_extendqisi2
 1307 06dc 0C2B     		cmp	r3, #12
 1308 06de 02D0     		beq	.L66
 1309 06e0 0F2B     		cmp	r3, #15
 1310 06e2 10D0     		beq	.L67
 1311 06e4 17E0     		b	.L70
 1312              	.L66:
 453:build\openmote-cc2538_armgcc\openstack\02b-MAChigh/sixtop.c ****         case COMPONENT_SIXTOP:
 454:build\openmote-cc2538_armgcc\openstack\02b-MAChigh/sixtop.c ****             if (msg->l2_frameType==IEEE154_TYPE_BEACON) {
 1313              		.loc 1 454 0
 1314 06e6 7B68     		ldr	r3, [r7, #4]
 1315 06e8 93F85230 		ldrb	r3, [r3, #82]	@ zero_extendqisi2
 1316 06ec 002B     		cmp	r3, #0
 1317 06ee 03D1     		bne	.L68
 455:build\openmote-cc2538_armgcc\openstack\02b-MAChigh/sixtop.c ****                 // this is a EB
 456:build\openmote-cc2538_armgcc\openstack\02b-MAChigh/sixtop.c **** 
 457:build\openmote-cc2538_armgcc\openstack\02b-MAChigh/sixtop.c ****                 // not busy sending EB anymore
 458:build\openmote-cc2538_armgcc\openstack\02b-MAChigh/sixtop.c ****                 sixtop_vars.busySendingEB = FALSE;
 1318              		.loc 1 458 0
 1319 06f0 0E4B     		ldr	r3, .L71
 1320 06f2 0022     		movs	r2, #0
 1321 06f4 DA70     		strb	r2, [r3, #3]
 1322 06f6 02E0     		b	.L69
 1323              	.L68:
 459:build\openmote-cc2538_armgcc\openstack\02b-MAChigh/sixtop.c ****             } else {
 460:build\openmote-cc2538_armgcc\openstack\02b-MAChigh/sixtop.c ****                 // this is a KA
 461:build\openmote-cc2538_armgcc\openstack\02b-MAChigh/sixtop.c **** 
 462:build\openmote-cc2538_armgcc\openstack\02b-MAChigh/sixtop.c ****                 // not busy sending KA anymore
 463:build\openmote-cc2538_armgcc\openstack\02b-MAChigh/sixtop.c ****                 sixtop_vars.busySendingKA = FALSE;
 1324              		.loc 1 463 0
 1325 06f8 0C4B     		ldr	r3, .L71
 1326 06fa 0022     		movs	r2, #0
 1327 06fc 9A70     		strb	r2, [r3, #2]
 1328              	.L69:
 464:build\openmote-cc2538_armgcc\openstack\02b-MAChigh/sixtop.c ****             }
 465:build\openmote-cc2538_armgcc\openstack\02b-MAChigh/sixtop.c ****             // discard packets
 466:build\openmote-cc2538_armgcc\openstack\02b-MAChigh/sixtop.c ****             openqueue_freePacketBuffer(msg);
 1329              		.loc 1 466 0
 1330 06fe 7868     		ldr	r0, [r7, #4]
 1331 0700 FFF7FEFF 		bl	openqueue_freePacketBuffer
 467:build\openmote-cc2538_armgcc\openstack\02b-MAChigh/sixtop.c ****             break;
 1332              		.loc 1 467 0
 1333 0704 0FE0     		b	.L60
 1334              	.L67:
 468:build\openmote-cc2538_armgcc\openstack\02b-MAChigh/sixtop.c ****         case COMPONENT_SIXTOP_RES:
 469:build\openmote-cc2538_armgcc\openstack\02b-MAChigh/sixtop.c ****             sixtop_six2six_sendDone(msg,msg->l2_sendDoneError);
 1335              		.loc 1 469 0
 1336 0706 7B68     		ldr	r3, [r7, #4]
 1337 0708 93F84030 		ldrb	r3, [r3, #64]	@ zero_extendqisi2
 1338 070c 1946     		mov	r1, r3
 1339 070e 7868     		ldr	r0, [r7, #4]
 1340 0710 FFF7FEFF 		bl	sixtop_six2six_sendDone
 470:build\openmote-cc2538_armgcc\openstack\02b-MAChigh/sixtop.c ****             break;
 1341              		.loc 1 470 0
 1342 0714 07E0     		b	.L60
 1343              	.L70:
 471:build\openmote-cc2538_armgcc\openstack\02b-MAChigh/sixtop.c ****         default:
 472:build\openmote-cc2538_armgcc\openstack\02b-MAChigh/sixtop.c ****             // send the rest up the stack
 473:build\openmote-cc2538_armgcc\openstack\02b-MAChigh/sixtop.c ****             iphc_sendDone(msg,msg->l2_sendDoneError);
 1344              		.loc 1 473 0
 1345 0716 7B68     		ldr	r3, [r7, #4]
 1346 0718 93F84030 		ldrb	r3, [r3, #64]	@ zero_extendqisi2
 1347 071c 1946     		mov	r1, r3
 1348 071e 7868     		ldr	r0, [r7, #4]
 1349 0720 FFF7FEFF 		bl	iphc_sendDone
 474:build\openmote-cc2538_armgcc\openstack\02b-MAChigh/sixtop.c ****             break;
 1350              		.loc 1 474 0
 1351 0724 00BF     		nop
 1352              	.L60:
 475:build\openmote-cc2538_armgcc\openstack\02b-MAChigh/sixtop.c ****     }
 476:build\openmote-cc2538_armgcc\openstack\02b-MAChigh/sixtop.c **** }
 1353              		.loc 1 476 0
 1354 0726 0837     		adds	r7, r7, #8
 1355              		.cfi_def_cfa_offset 8
 1356 0728 BD46     		mov	sp, r7
 1357              		.cfi_def_cfa_register 13
 1358              		@ sp needed
 1359 072a 80BD     		pop	{r7, pc}
 1360              	.L72:
 1361              		.align	2
 1362              	.L71:
 1363 072c 00000000 		.word	sixtop_vars
 1364              		.cfi_endproc
 1365              	.LFE9:
 1367              		.align	1
 1368              		.global	task_sixtopNotifReceive
 1369              		.syntax unified
 1370              		.thumb
 1371              		.thumb_func
 1372              		.fpu softvfp
 1374              	task_sixtopNotifReceive:
 1375              	.LFB10:
 477:build\openmote-cc2538_armgcc\openstack\02b-MAChigh/sixtop.c **** 
 478:build\openmote-cc2538_armgcc\openstack\02b-MAChigh/sixtop.c **** void task_sixtopNotifReceive(void) {
 1376              		.loc 1 478 0
 1377              		.cfi_startproc
 1378              		@ args = 0, pretend = 0, frame = 8
 1379              		@ frame_needed = 1, uses_anonymous_args = 0
 1380 0730 B0B5     		push	{r4, r5, r7, lr}
 1381              		.cfi_def_cfa_offset 16
 1382              		.cfi_offset 4, -16
 1383              		.cfi_offset 5, -12
 1384              		.cfi_offset 7, -8
 1385              		.cfi_offset 14, -4
 1386 0732 84B0     		sub	sp, sp, #16
 1387              		.cfi_def_cfa_offset 32
 1388 0734 02AF     		add	r7, sp, #8
 1389              		.cfi_def_cfa 7, 24
 479:build\openmote-cc2538_armgcc\openstack\02b-MAChigh/sixtop.c ****     OpenQueueEntry_t* msg;
 480:build\openmote-cc2538_armgcc\openstack\02b-MAChigh/sixtop.c ****     uint16_t          lenIE;
 481:build\openmote-cc2538_armgcc\openstack\02b-MAChigh/sixtop.c ****     // get received packet from openqueue
 482:build\openmote-cc2538_armgcc\openstack\02b-MAChigh/sixtop.c ****     msg = openqueue_sixtopGetReceivedPacket();
 1390              		.loc 1 482 0
 1391 0736 FFF7FEFF 		bl	openqueue_sixtopGetReceivedPacket
 1392 073a 7860     		str	r0, [r7, #4]
 483:build\openmote-cc2538_armgcc\openstack\02b-MAChigh/sixtop.c ****     if (msg==NULL) {
 1393              		.loc 1 483 0
 1394 073c 7B68     		ldr	r3, [r7, #4]
 1395 073e 002B     		cmp	r3, #0
 1396 0740 06D1     		bne	.L74
 484:build\openmote-cc2538_armgcc\openstack\02b-MAChigh/sixtop.c ****         openserial_printCritical(
 1397              		.loc 1 484 0
 1398 0742 0023     		movs	r3, #0
 1399 0744 0022     		movs	r2, #0
 1400 0746 1721     		movs	r1, #23
 1401 0748 0C20     		movs	r0, #12
 1402 074a FFF7FEFF 		bl	openserial_printCritical
 485:build\openmote-cc2538_armgcc\openstack\02b-MAChigh/sixtop.c ****             COMPONENT_SIXTOP,
 486:build\openmote-cc2538_armgcc\openstack\02b-MAChigh/sixtop.c ****             ERR_NO_RECEIVED_PACKET,
 487:build\openmote-cc2538_armgcc\openstack\02b-MAChigh/sixtop.c ****             (errorparameter_t)0,
 488:build\openmote-cc2538_armgcc\openstack\02b-MAChigh/sixtop.c ****             (errorparameter_t)0
 489:build\openmote-cc2538_armgcc\openstack\02b-MAChigh/sixtop.c ****         );
 490:build\openmote-cc2538_armgcc\openstack\02b-MAChigh/sixtop.c ****         return;
 1403              		.loc 1 490 0
 1404 074e 6FE0     		b	.L73
 1405              	.L74:
 491:build\openmote-cc2538_armgcc\openstack\02b-MAChigh/sixtop.c ****     }
 492:build\openmote-cc2538_armgcc\openstack\02b-MAChigh/sixtop.c **** 
 493:build\openmote-cc2538_armgcc\openstack\02b-MAChigh/sixtop.c ****     // take ownership
 494:build\openmote-cc2538_armgcc\openstack\02b-MAChigh/sixtop.c ****     msg->owner = COMPONENT_SIXTOP;
 1406              		.loc 1 494 0
 1407 0750 7B68     		ldr	r3, [r7, #4]
 1408 0752 0C22     		movs	r2, #12
 1409 0754 5A70     		strb	r2, [r3, #1]
 495:build\openmote-cc2538_armgcc\openstack\02b-MAChigh/sixtop.c **** 
 496:build\openmote-cc2538_armgcc\openstack\02b-MAChigh/sixtop.c ****     // update neighbor statistics
 497:build\openmote-cc2538_armgcc\openstack\02b-MAChigh/sixtop.c ****     neighbors_indicateRx(
 1410              		.loc 1 497 0
 1411 0756 7B68     		ldr	r3, [r7, #4]
 1412 0758 03F14100 		add	r0, r3, #65
 1413 075c 7B68     		ldr	r3, [r7, #4]
 1414 075e 93F9C510 		ldrsb	r1, [r3, #197]
 1415 0762 7B68     		ldr	r3, [r7, #4]
 1416 0764 03F15604 		add	r4, r3, #86
 1417 0768 7B68     		ldr	r3, [r7, #4]
 1418 076a 93F8A350 		ldrb	r5, [r3, #163]	@ zero_extendqisi2
 1419 076e 7B68     		ldr	r3, [r7, #4]
 1420 0770 93F8A030 		ldrb	r3, [r3, #160]	@ zero_extendqisi2
 498:build\openmote-cc2538_armgcc\openstack\02b-MAChigh/sixtop.c ****         &(msg->l2_nextORpreviousHop),
 499:build\openmote-cc2538_armgcc\openstack\02b-MAChigh/sixtop.c ****         msg->l1_rssi,
 500:build\openmote-cc2538_armgcc\openstack\02b-MAChigh/sixtop.c ****         &msg->l2_asn,
 501:build\openmote-cc2538_armgcc\openstack\02b-MAChigh/sixtop.c ****         msg->l2_joinPriorityPresent,
 502:build\openmote-cc2538_armgcc\openstack\02b-MAChigh/sixtop.c ****         msg->l2_joinPriority,
 503:build\openmote-cc2538_armgcc\openstack\02b-MAChigh/sixtop.c ****         msg->l2_securityLevel == IEEE154_ASH_SLF_TYPE_NOSEC ? TRUE : FALSE
 1421              		.loc 1 503 0
 1422 0774 7A68     		ldr	r2, [r7, #4]
 1423 0776 92F8A920 		ldrb	r2, [r2, #169]	@ zero_extendqisi2
 497:build\openmote-cc2538_armgcc\openstack\02b-MAChigh/sixtop.c ****         &(msg->l2_nextORpreviousHop),
 1424              		.loc 1 497 0
 1425 077a 002A     		cmp	r2, #0
 1426 077c 0CBF     		ite	eq
 1427 077e 0122     		moveq	r2, #1
 1428 0780 0022     		movne	r2, #0
 1429 0782 D2B2     		uxtb	r2, r2
 1430 0784 0192     		str	r2, [sp, #4]
 1431 0786 0093     		str	r3, [sp]
 1432 0788 2B46     		mov	r3, r5
 1433 078a 2246     		mov	r2, r4
 1434 078c FFF7FEFF 		bl	neighbors_indicateRx
 504:build\openmote-cc2538_armgcc\openstack\02b-MAChigh/sixtop.c ****     );
 505:build\openmote-cc2538_armgcc\openstack\02b-MAChigh/sixtop.c **** 
 506:build\openmote-cc2538_armgcc\openstack\02b-MAChigh/sixtop.c ****     // process the header IEs
 507:build\openmote-cc2538_armgcc\openstack\02b-MAChigh/sixtop.c ****     lenIE=0;
 1435              		.loc 1 507 0
 1436 0790 0023     		movs	r3, #0
 1437 0792 7B80     		strh	r3, [r7, #2]	@ movhi
 508:build\openmote-cc2538_armgcc\openstack\02b-MAChigh/sixtop.c ****     if(
 509:build\openmote-cc2538_armgcc\openstack\02b-MAChigh/sixtop.c ****         msg->l2_frameType              == IEEE154_TYPE_DATA  &&
 1438              		.loc 1 509 0
 1439 0794 7B68     		ldr	r3, [r7, #4]
 1440 0796 93F85230 		ldrb	r3, [r3, #82]	@ zero_extendqisi2
 508:build\openmote-cc2538_armgcc\openstack\02b-MAChigh/sixtop.c ****     if(
 1441              		.loc 1 508 0
 1442 079a 012B     		cmp	r3, #1
 1443 079c 13D1     		bne	.L76
 510:build\openmote-cc2538_armgcc\openstack\02b-MAChigh/sixtop.c ****         msg->l2_payloadIEpresent       == TRUE               &&
 1444              		.loc 1 510 0
 1445 079e 7B68     		ldr	r3, [r7, #4]
 1446 07a0 93F8A230 		ldrb	r3, [r3, #162]	@ zero_extendqisi2
 509:build\openmote-cc2538_armgcc\openstack\02b-MAChigh/sixtop.c ****         msg->l2_payloadIEpresent       == TRUE               &&
 1447              		.loc 1 509 0
 1448 07a4 002B     		cmp	r3, #0
 1449 07a6 0ED0     		beq	.L76
 511:build\openmote-cc2538_armgcc\openstack\02b-MAChigh/sixtop.c ****         sixtop_processIEs(msg, &lenIE) == FALSE
 1450              		.loc 1 511 0
 1451 07a8 BB1C     		adds	r3, r7, #2
 1452 07aa 1946     		mov	r1, r3
 1453 07ac 7868     		ldr	r0, [r7, #4]
 1454 07ae FFF7FEFF 		bl	sixtop_processIEs
 1455 07b2 0346     		mov	r3, r0
 1456 07b4 83F00103 		eor	r3, r3, #1
 1457 07b8 DBB2     		uxtb	r3, r3
 510:build\openmote-cc2538_armgcc\openstack\02b-MAChigh/sixtop.c ****         msg->l2_payloadIEpresent       == TRUE               &&
 1458              		.loc 1 510 0
 1459 07ba 002B     		cmp	r3, #0
 1460 07bc 03D0     		beq	.L76
 512:build\openmote-cc2538_armgcc\openstack\02b-MAChigh/sixtop.c ****     ) {
 513:build\openmote-cc2538_armgcc\openstack\02b-MAChigh/sixtop.c ****         // free the packet's RAM memory
 514:build\openmote-cc2538_armgcc\openstack\02b-MAChigh/sixtop.c ****         openqueue_freePacketBuffer(msg);
 1461              		.loc 1 514 0
 1462 07be 7868     		ldr	r0, [r7, #4]
 1463 07c0 FFF7FEFF 		bl	openqueue_freePacketBuffer
 515:build\openmote-cc2538_armgcc\openstack\02b-MAChigh/sixtop.c ****         //log error
 516:build\openmote-cc2538_armgcc\openstack\02b-MAChigh/sixtop.c ****         return;
 1464              		.loc 1 516 0
 1465 07c4 34E0     		b	.L73
 1466              	.L76:
 517:build\openmote-cc2538_armgcc\openstack\02b-MAChigh/sixtop.c ****     }
 518:build\openmote-cc2538_armgcc\openstack\02b-MAChigh/sixtop.c **** 
 519:build\openmote-cc2538_armgcc\openstack\02b-MAChigh/sixtop.c ****     // toss the header IEs
 520:build\openmote-cc2538_armgcc\openstack\02b-MAChigh/sixtop.c ****     packetfunctions_tossHeader(msg,lenIE);
 1467              		.loc 1 520 0
 1468 07c6 7B88     		ldrh	r3, [r7, #2]
 1469 07c8 DBB2     		uxtb	r3, r3
 1470 07ca 1946     		mov	r1, r3
 1471 07cc 7868     		ldr	r0, [r7, #4]
 1472 07ce FFF7FEFF 		bl	packetfunctions_tossHeader
 521:build\openmote-cc2538_armgcc\openstack\02b-MAChigh/sixtop.c **** 
 522:build\openmote-cc2538_armgcc\openstack\02b-MAChigh/sixtop.c ****     // reset it to avoid race conditions with this var.
 523:build\openmote-cc2538_armgcc\openstack\02b-MAChigh/sixtop.c ****     msg->l2_joinPriorityPresent = FALSE;
 1473              		.loc 1 523 0
 1474 07d2 7B68     		ldr	r3, [r7, #4]
 1475 07d4 0022     		movs	r2, #0
 1476 07d6 83F8A320 		strb	r2, [r3, #163]
 524:build\openmote-cc2538_armgcc\openstack\02b-MAChigh/sixtop.c **** 
 525:build\openmote-cc2538_armgcc\openstack\02b-MAChigh/sixtop.c ****     // send the packet up the stack, if it qualifies
 526:build\openmote-cc2538_armgcc\openstack\02b-MAChigh/sixtop.c ****     switch (msg->l2_frameType) {
 1477              		.loc 1 526 0
 1478 07da 7B68     		ldr	r3, [r7, #4]
 1479 07dc 93F85230 		ldrb	r3, [r3, #82]	@ zero_extendqisi2
 1480 07e0 002B     		cmp	r3, #0
 1481 07e2 18DB     		blt	.L77
 1482 07e4 012B     		cmp	r3, #1
 1483 07e6 01DD     		ble	.L78
 1484 07e8 032B     		cmp	r3, #3
 1485 07ea 14D1     		bne	.L77
 1486              	.L78:
 527:build\openmote-cc2538_armgcc\openstack\02b-MAChigh/sixtop.c ****     case IEEE154_TYPE_BEACON:
 528:build\openmote-cc2538_armgcc\openstack\02b-MAChigh/sixtop.c ****     case IEEE154_TYPE_DATA:
 529:build\openmote-cc2538_armgcc\openstack\02b-MAChigh/sixtop.c ****     case IEEE154_TYPE_CMD:
 530:build\openmote-cc2538_armgcc\openstack\02b-MAChigh/sixtop.c ****         if (msg->length>0) {
 1487              		.loc 1 530 0
 1488 07ec 7B68     		ldr	r3, [r7, #4]
 1489 07ee 1B7A     		ldrb	r3, [r3, #8]	@ zero_extendqisi2
 1490 07f0 002B     		cmp	r3, #0
 1491 07f2 0CD0     		beq	.L79
 531:build\openmote-cc2538_armgcc\openstack\02b-MAChigh/sixtop.c ****             if (msg->l2_frameType == IEEE154_TYPE_BEACON){
 1492              		.loc 1 531 0
 1493 07f4 7B68     		ldr	r3, [r7, #4]
 1494 07f6 93F85230 		ldrb	r3, [r3, #82]	@ zero_extendqisi2
 1495 07fa 002B     		cmp	r3, #0
 1496 07fc 03D1     		bne	.L80
 532:build\openmote-cc2538_armgcc\openstack\02b-MAChigh/sixtop.c ****                 // I have one byte frequence field, no useful for upper layer
 533:build\openmote-cc2538_armgcc\openstack\02b-MAChigh/sixtop.c ****                 // free up the RAM
 534:build\openmote-cc2538_armgcc\openstack\02b-MAChigh/sixtop.c ****                 openqueue_freePacketBuffer(msg);
 1497              		.loc 1 534 0
 1498 07fe 7868     		ldr	r0, [r7, #4]
 1499 0800 FFF7FEFF 		bl	openqueue_freePacketBuffer
 535:build\openmote-cc2538_armgcc\openstack\02b-MAChigh/sixtop.c ****                 break;
 1500              		.loc 1 535 0
 1501 0804 14E0     		b	.L73
 1502              	.L80:
 536:build\openmote-cc2538_armgcc\openstack\02b-MAChigh/sixtop.c ****             }
 537:build\openmote-cc2538_armgcc\openstack\02b-MAChigh/sixtop.c ****             // send to upper layer
 538:build\openmote-cc2538_armgcc\openstack\02b-MAChigh/sixtop.c ****             iphc_receive(msg);
 1503              		.loc 1 538 0
 1504 0806 7868     		ldr	r0, [r7, #4]
 1505 0808 FFF7FEFF 		bl	iphc_receive
 539:build\openmote-cc2538_armgcc\openstack\02b-MAChigh/sixtop.c ****         } else {
 540:build\openmote-cc2538_armgcc\openstack\02b-MAChigh/sixtop.c ****             // free up the RAM
 541:build\openmote-cc2538_armgcc\openstack\02b-MAChigh/sixtop.c ****             openqueue_freePacketBuffer(msg);
 542:build\openmote-cc2538_armgcc\openstack\02b-MAChigh/sixtop.c ****         }
 543:build\openmote-cc2538_armgcc\openstack\02b-MAChigh/sixtop.c ****         break;
 1506              		.loc 1 543 0
 1507 080c 10E0     		b	.L73
 1508              	.L79:
 541:build\openmote-cc2538_armgcc\openstack\02b-MAChigh/sixtop.c ****         }
 1509              		.loc 1 541 0
 1510 080e 7868     		ldr	r0, [r7, #4]
 1511 0810 FFF7FEFF 		bl	openqueue_freePacketBuffer
 1512              		.loc 1 543 0
 1513 0814 0CE0     		b	.L73
 1514              	.L77:
 544:build\openmote-cc2538_armgcc\openstack\02b-MAChigh/sixtop.c ****     case IEEE154_TYPE_ACK:
 545:build\openmote-cc2538_armgcc\openstack\02b-MAChigh/sixtop.c ****     default:
 546:build\openmote-cc2538_armgcc\openstack\02b-MAChigh/sixtop.c ****         // free the packet's RAM memory
 547:build\openmote-cc2538_armgcc\openstack\02b-MAChigh/sixtop.c ****         openqueue_freePacketBuffer(msg);
 1515              		.loc 1 547 0
 1516 0816 7868     		ldr	r0, [r7, #4]
 1517 0818 FFF7FEFF 		bl	openqueue_freePacketBuffer
 548:build\openmote-cc2538_armgcc\openstack\02b-MAChigh/sixtop.c ****         // log the error
 549:build\openmote-cc2538_armgcc\openstack\02b-MAChigh/sixtop.c ****         openserial_printError(
 550:build\openmote-cc2538_armgcc\openstack\02b-MAChigh/sixtop.c ****             COMPONENT_SIXTOP,
 551:build\openmote-cc2538_armgcc\openstack\02b-MAChigh/sixtop.c ****             ERR_MSG_UNKNOWN_TYPE,
 552:build\openmote-cc2538_armgcc\openstack\02b-MAChigh/sixtop.c ****             (errorparameter_t)msg->l2_frameType,
 1518              		.loc 1 552 0
 1519 081c 7B68     		ldr	r3, [r7, #4]
 1520 081e 93F85230 		ldrb	r3, [r3, #82]	@ zero_extendqisi2
 549:build\openmote-cc2538_armgcc\openstack\02b-MAChigh/sixtop.c ****             COMPONENT_SIXTOP,
 1521              		.loc 1 549 0
 1522 0822 9AB2     		uxth	r2, r3
 1523 0824 0023     		movs	r3, #0
 1524 0826 3121     		movs	r1, #49
 1525 0828 0C20     		movs	r0, #12
 1526 082a FFF7FEFF 		bl	openserial_printError
 553:build\openmote-cc2538_armgcc\openstack\02b-MAChigh/sixtop.c ****             (errorparameter_t)0
 554:build\openmote-cc2538_armgcc\openstack\02b-MAChigh/sixtop.c ****         );
 555:build\openmote-cc2538_armgcc\openstack\02b-MAChigh/sixtop.c ****         break;
 1527              		.loc 1 555 0
 1528 082e 00BF     		nop
 1529              	.L73:
 556:build\openmote-cc2538_armgcc\openstack\02b-MAChigh/sixtop.c ****     }
 557:build\openmote-cc2538_armgcc\openstack\02b-MAChigh/sixtop.c **** }
 1530              		.loc 1 557 0
 1531 0830 0837     		adds	r7, r7, #8
 1532              		.cfi_def_cfa_offset 16
 1533 0832 BD46     		mov	sp, r7
 1534              		.cfi_def_cfa_register 13
 1535              		@ sp needed
 1536 0834 B0BD     		pop	{r4, r5, r7, pc}
 1537              		.cfi_endproc
 1538              	.LFE10:
 1540              		.align	1
 1541              		.global	debugPrint_myDAGrank
 1542              		.syntax unified
 1543              		.thumb
 1544              		.thumb_func
 1545              		.fpu softvfp
 1547              	debugPrint_myDAGrank:
 1548              	.LFB11:
 558:build\openmote-cc2538_armgcc\openstack\02b-MAChigh/sixtop.c **** 
 559:build\openmote-cc2538_armgcc\openstack\02b-MAChigh/sixtop.c **** //======= debugging
 560:build\openmote-cc2538_armgcc\openstack\02b-MAChigh/sixtop.c **** 
 561:build\openmote-cc2538_armgcc\openstack\02b-MAChigh/sixtop.c **** /**
 562:build\openmote-cc2538_armgcc\openstack\02b-MAChigh/sixtop.c **** \brief Trigger this module to print status information, over serial.
 563:build\openmote-cc2538_armgcc\openstack\02b-MAChigh/sixtop.c **** 
 564:build\openmote-cc2538_armgcc\openstack\02b-MAChigh/sixtop.c **** debugPrint_* functions are used by the openserial module to continuously print
 565:build\openmote-cc2538_armgcc\openstack\02b-MAChigh/sixtop.c **** status information about several modules in the OpenWSN stack.
 566:build\openmote-cc2538_armgcc\openstack\02b-MAChigh/sixtop.c **** 
 567:build\openmote-cc2538_armgcc\openstack\02b-MAChigh/sixtop.c **** \returns TRUE if this function printed something, FALSE otherwise.
 568:build\openmote-cc2538_armgcc\openstack\02b-MAChigh/sixtop.c **** */
 569:build\openmote-cc2538_armgcc\openstack\02b-MAChigh/sixtop.c **** bool debugPrint_myDAGrank(void) {
 1549              		.loc 1 569 0
 1550              		.cfi_startproc
 1551              		@ args = 0, pretend = 0, frame = 8
 1552              		@ frame_needed = 1, uses_anonymous_args = 0
 1553 0836 80B5     		push	{r7, lr}
 1554              		.cfi_def_cfa_offset 8
 1555              		.cfi_offset 7, -8
 1556              		.cfi_offset 14, -4
 1557 0838 82B0     		sub	sp, sp, #8
 1558              		.cfi_def_cfa_offset 16
 1559 083a 00AF     		add	r7, sp, #0
 1560              		.cfi_def_cfa_register 7
 570:build\openmote-cc2538_armgcc\openstack\02b-MAChigh/sixtop.c ****     uint16_t output;
 571:build\openmote-cc2538_armgcc\openstack\02b-MAChigh/sixtop.c **** 
 572:build\openmote-cc2538_armgcc\openstack\02b-MAChigh/sixtop.c ****     output = 0;
 1561              		.loc 1 572 0
 1562 083c 0023     		movs	r3, #0
 1563 083e FB80     		strh	r3, [r7, #6]	@ movhi
 573:build\openmote-cc2538_armgcc\openstack\02b-MAChigh/sixtop.c ****     output = icmpv6rpl_getMyDAGrank();
 1564              		.loc 1 573 0
 1565 0840 FFF7FEFF 		bl	icmpv6rpl_getMyDAGrank
 1566 0844 0346     		mov	r3, r0
 1567 0846 FB80     		strh	r3, [r7, #6]	@ movhi
 574:build\openmote-cc2538_armgcc\openstack\02b-MAChigh/sixtop.c ****     openserial_printStatus(STATUS_DAGRANK,(uint8_t*)&output,sizeof(uint16_t));
 1568              		.loc 1 574 0
 1569 0848 BB1D     		adds	r3, r7, #6
 1570 084a 0222     		movs	r2, #2
 1571 084c 1946     		mov	r1, r3
 1572 084e 0220     		movs	r0, #2
 1573 0850 FFF7FEFF 		bl	openserial_printStatus
 575:build\openmote-cc2538_armgcc\openstack\02b-MAChigh/sixtop.c ****     return TRUE;
 1574              		.loc 1 575 0
 1575 0854 0123     		movs	r3, #1
 576:build\openmote-cc2538_armgcc\openstack\02b-MAChigh/sixtop.c **** }
 1576              		.loc 1 576 0
 1577 0856 1846     		mov	r0, r3
 1578 0858 0837     		adds	r7, r7, #8
 1579              		.cfi_def_cfa_offset 8
 1580 085a BD46     		mov	sp, r7
 1581              		.cfi_def_cfa_register 13
 1582              		@ sp needed
 1583 085c 80BD     		pop	{r7, pc}
 1584              		.cfi_endproc
 1585              	.LFE11:
 1587              		.align	1
 1588              		.global	debugPrint_kaPeriod
 1589              		.syntax unified
 1590              		.thumb
 1591              		.thumb_func
 1592              		.fpu softvfp
 1594              	debugPrint_kaPeriod:
 1595              	.LFB12:
 577:build\openmote-cc2538_armgcc\openstack\02b-MAChigh/sixtop.c **** 
 578:build\openmote-cc2538_armgcc\openstack\02b-MAChigh/sixtop.c **** /**
 579:build\openmote-cc2538_armgcc\openstack\02b-MAChigh/sixtop.c **** \brief Trigger this module to print status information, over serial.
 580:build\openmote-cc2538_armgcc\openstack\02b-MAChigh/sixtop.c **** 
 581:build\openmote-cc2538_armgcc\openstack\02b-MAChigh/sixtop.c **** debugPrint_* functions are used by the openserial module to continuously print
 582:build\openmote-cc2538_armgcc\openstack\02b-MAChigh/sixtop.c **** status information about several modules in the OpenWSN stack.
 583:build\openmote-cc2538_armgcc\openstack\02b-MAChigh/sixtop.c **** 
 584:build\openmote-cc2538_armgcc\openstack\02b-MAChigh/sixtop.c **** \returns TRUE if this function printed something, FALSE otherwise.
 585:build\openmote-cc2538_armgcc\openstack\02b-MAChigh/sixtop.c **** */
 586:build\openmote-cc2538_armgcc\openstack\02b-MAChigh/sixtop.c **** bool debugPrint_kaPeriod(void) {
 1596              		.loc 1 586 0
 1597              		.cfi_startproc
 1598              		@ args = 0, pretend = 0, frame = 8
 1599              		@ frame_needed = 1, uses_anonymous_args = 0
 1600 085e 80B5     		push	{r7, lr}
 1601              		.cfi_def_cfa_offset 8
 1602              		.cfi_offset 7, -8
 1603              		.cfi_offset 14, -4
 1604 0860 82B0     		sub	sp, sp, #8
 1605              		.cfi_def_cfa_offset 16
 1606 0862 00AF     		add	r7, sp, #0
 1607              		.cfi_def_cfa_register 7
 587:build\openmote-cc2538_armgcc\openstack\02b-MAChigh/sixtop.c ****     uint16_t output;
 588:build\openmote-cc2538_armgcc\openstack\02b-MAChigh/sixtop.c **** 
 589:build\openmote-cc2538_armgcc\openstack\02b-MAChigh/sixtop.c ****     output = sixtop_vars.kaPeriod;
 1608              		.loc 1 589 0
 1609 0864 064B     		ldr	r3, .L88
 1610 0866 5B89     		ldrh	r3, [r3, #10]
 1611 0868 FB80     		strh	r3, [r7, #6]	@ movhi
 590:build\openmote-cc2538_armgcc\openstack\02b-MAChigh/sixtop.c ****     openserial_printStatus(
 1612              		.loc 1 590 0
 1613 086a BB1D     		adds	r3, r7, #6
 1614 086c 0222     		movs	r2, #2
 1615 086e 1946     		mov	r1, r3
 1616 0870 0A20     		movs	r0, #10
 1617 0872 FFF7FEFF 		bl	openserial_printStatus
 591:build\openmote-cc2538_armgcc\openstack\02b-MAChigh/sixtop.c ****         STATUS_KAPERIOD,
 592:build\openmote-cc2538_armgcc\openstack\02b-MAChigh/sixtop.c ****         (uint8_t*)&output,
 593:build\openmote-cc2538_armgcc\openstack\02b-MAChigh/sixtop.c ****         sizeof(output)
 594:build\openmote-cc2538_armgcc\openstack\02b-MAChigh/sixtop.c ****     );
 595:build\openmote-cc2538_armgcc\openstack\02b-MAChigh/sixtop.c ****     return TRUE;
 1618              		.loc 1 595 0
 1619 0876 0123     		movs	r3, #1
 596:build\openmote-cc2538_armgcc\openstack\02b-MAChigh/sixtop.c **** }
 1620              		.loc 1 596 0
 1621 0878 1846     		mov	r0, r3
 1622 087a 0837     		adds	r7, r7, #8
 1623              		.cfi_def_cfa_offset 8
 1624 087c BD46     		mov	sp, r7
 1625              		.cfi_def_cfa_register 13
 1626              		@ sp needed
 1627 087e 80BD     		pop	{r7, pc}
 1628              	.L89:
 1629              		.align	2
 1630              	.L88:
 1631 0880 00000000 		.word	sixtop_vars
 1632              		.cfi_endproc
 1633              	.LFE12:
 1635              		.align	1
 1636              		.global	sixtop_setIsResponseEnabled
 1637              		.syntax unified
 1638              		.thumb
 1639              		.thumb_func
 1640              		.fpu softvfp
 1642              	sixtop_setIsResponseEnabled:
 1643              	.LFB13:
 597:build\openmote-cc2538_armgcc\openstack\02b-MAChigh/sixtop.c **** 
 598:build\openmote-cc2538_armgcc\openstack\02b-MAChigh/sixtop.c **** void sixtop_setIsResponseEnabled(bool isEnabled){
 1644              		.loc 1 598 0
 1645              		.cfi_startproc
 1646              		@ args = 0, pretend = 0, frame = 8
 1647              		@ frame_needed = 1, uses_anonymous_args = 0
 1648              		@ link register save eliminated.
 1649 0884 80B4     		push	{r7}
 1650              		.cfi_def_cfa_offset 4
 1651              		.cfi_offset 7, -4
 1652 0886 83B0     		sub	sp, sp, #12
 1653              		.cfi_def_cfa_offset 16
 1654 0888 00AF     		add	r7, sp, #0
 1655              		.cfi_def_cfa_register 7
 1656 088a 0346     		mov	r3, r0
 1657 088c FB71     		strb	r3, [r7, #7]
 599:build\openmote-cc2538_armgcc\openstack\02b-MAChigh/sixtop.c ****     sixtop_vars.isResponseEnabled = isEnabled;
 1658              		.loc 1 599 0
 1659 088e 044A     		ldr	r2, .L91
 1660 0890 FB79     		ldrb	r3, [r7, #7]
 1661 0892 1374     		strb	r3, [r2, #16]
 600:build\openmote-cc2538_armgcc\openstack\02b-MAChigh/sixtop.c **** }
 1662              		.loc 1 600 0
 1663 0894 00BF     		nop
 1664 0896 0C37     		adds	r7, r7, #12
 1665              		.cfi_def_cfa_offset 4
 1666 0898 BD46     		mov	sp, r7
 1667              		.cfi_def_cfa_register 13
 1668              		@ sp needed
 1669 089a 80BC     		pop	{r7}
 1670              		.cfi_restore 7
 1671              		.cfi_def_cfa_offset 0
 1672 089c 7047     		bx	lr
 1673              	.L92:
 1674 089e 00BF     		.align	2
 1675              	.L91:
 1676 08a0 00000000 		.word	sixtop_vars
 1677              		.cfi_endproc
 1678              	.LFE13:
 1680              		.align	1
 1681              		.global	sixtop_send_internal
 1682              		.syntax unified
 1683              		.thumb
 1684              		.thumb_func
 1685              		.fpu softvfp
 1687              	sixtop_send_internal:
 1688              	.LFB14:
 601:build\openmote-cc2538_armgcc\openstack\02b-MAChigh/sixtop.c **** 
 602:build\openmote-cc2538_armgcc\openstack\02b-MAChigh/sixtop.c **** //=========================== private =========================================
 603:build\openmote-cc2538_armgcc\openstack\02b-MAChigh/sixtop.c **** 
 604:build\openmote-cc2538_armgcc\openstack\02b-MAChigh/sixtop.c **** /**
 605:build\openmote-cc2538_armgcc\openstack\02b-MAChigh/sixtop.c **** \brief Transfer packet to MAC.
 606:build\openmote-cc2538_armgcc\openstack\02b-MAChigh/sixtop.c **** 
 607:build\openmote-cc2538_armgcc\openstack\02b-MAChigh/sixtop.c **** This function adds a IEEE802.15.4 header to the packet and leaves it the
 608:build\openmote-cc2538_armgcc\openstack\02b-MAChigh/sixtop.c **** OpenQueue buffer. The very last thing it does is assigning this packet to the
 609:build\openmote-cc2538_armgcc\openstack\02b-MAChigh/sixtop.c **** virtual component COMPONENT_SIXTOP_TO_IEEE802154E. Whenever it gets a change,
 610:build\openmote-cc2538_armgcc\openstack\02b-MAChigh/sixtop.c **** IEEE802154E will handle the packet.
 611:build\openmote-cc2538_armgcc\openstack\02b-MAChigh/sixtop.c **** 
 612:build\openmote-cc2538_armgcc\openstack\02b-MAChigh/sixtop.c **** \param[in] msg The packet to the transmitted
 613:build\openmote-cc2538_armgcc\openstack\02b-MAChigh/sixtop.c **** \param[in] payloadIEPresent Indicates wheter an Information Element is present in the
 614:build\openmote-cc2538_armgcc\openstack\02b-MAChigh/sixtop.c ****    packet.
 615:build\openmote-cc2538_armgcc\openstack\02b-MAChigh/sixtop.c **** 
 616:build\openmote-cc2538_armgcc\openstack\02b-MAChigh/sixtop.c **** \returns E_SUCCESS iff successful.
 617:build\openmote-cc2538_armgcc\openstack\02b-MAChigh/sixtop.c **** */
 618:build\openmote-cc2538_armgcc\openstack\02b-MAChigh/sixtop.c **** owerror_t sixtop_send_internal(
 619:build\openmote-cc2538_armgcc\openstack\02b-MAChigh/sixtop.c ****     OpenQueueEntry_t* msg,
 620:build\openmote-cc2538_armgcc\openstack\02b-MAChigh/sixtop.c ****     bool    payloadIEPresent) {
 1689              		.loc 1 620 0
 1690              		.cfi_startproc
 1691              		@ args = 0, pretend = 0, frame = 8
 1692              		@ frame_needed = 1, uses_anonymous_args = 0
 1693 08a4 80B5     		push	{r7, lr}
 1694              		.cfi_def_cfa_offset 8
 1695              		.cfi_offset 7, -8
 1696              		.cfi_offset 14, -4
 1697 08a6 84B0     		sub	sp, sp, #16
 1698              		.cfi_def_cfa_offset 24
 1699 08a8 02AF     		add	r7, sp, #8
 1700              		.cfi_def_cfa 7, 16
 1701 08aa 7860     		str	r0, [r7, #4]
 1702 08ac 0B46     		mov	r3, r1
 1703 08ae FB70     		strb	r3, [r7, #3]
 621:build\openmote-cc2538_armgcc\openstack\02b-MAChigh/sixtop.c **** 
 622:build\openmote-cc2538_armgcc\openstack\02b-MAChigh/sixtop.c ****     // assign a number of retries
 623:build\openmote-cc2538_armgcc\openstack\02b-MAChigh/sixtop.c ****     if (
 624:build\openmote-cc2538_armgcc\openstack\02b-MAChigh/sixtop.c ****         packetfunctions_isBroadcastMulticast(&(msg->l2_nextORpreviousHop))==TRUE
 1704              		.loc 1 624 0
 1705 08b0 7B68     		ldr	r3, [r7, #4]
 1706 08b2 4133     		adds	r3, r3, #65
 1707 08b4 1846     		mov	r0, r3
 1708 08b6 FFF7FEFF 		bl	packetfunctions_isBroadcastMulticast
 1709 08ba 0346     		mov	r3, r0
 623:build\openmote-cc2538_armgcc\openstack\02b-MAChigh/sixtop.c ****         packetfunctions_isBroadcastMulticast(&(msg->l2_nextORpreviousHop))==TRUE
 1710              		.loc 1 623 0
 1711 08bc 002B     		cmp	r3, #0
 1712 08be 04D0     		beq	.L94
 625:build\openmote-cc2538_armgcc\openstack\02b-MAChigh/sixtop.c ****     ) {
 626:build\openmote-cc2538_armgcc\openstack\02b-MAChigh/sixtop.c ****         msg->l2_retriesLeft = 1;
 1713              		.loc 1 626 0
 1714 08c0 7B68     		ldr	r3, [r7, #4]
 1715 08c2 0122     		movs	r2, #1
 1716 08c4 83F85420 		strb	r2, [r3, #84]
 1717 08c8 03E0     		b	.L95
 1718              	.L94:
 627:build\openmote-cc2538_armgcc\openstack\02b-MAChigh/sixtop.c ****     } else {
 628:build\openmote-cc2538_armgcc\openstack\02b-MAChigh/sixtop.c ****         msg->l2_retriesLeft = TXRETRIES + 1;
 1719              		.loc 1 628 0
 1720 08ca 7B68     		ldr	r3, [r7, #4]
 1721 08cc 0422     		movs	r2, #4
 1722 08ce 83F85420 		strb	r2, [r3, #84]
 1723              	.L95:
 629:build\openmote-cc2538_armgcc\openstack\02b-MAChigh/sixtop.c ****     }
 630:build\openmote-cc2538_armgcc\openstack\02b-MAChigh/sixtop.c ****     // record this packet's dsn (for matching the ACK)
 631:build\openmote-cc2538_armgcc\openstack\02b-MAChigh/sixtop.c ****     msg->l2_dsn = sixtop_vars.dsn++;
 1724              		.loc 1 631 0
 1725 08d2 134B     		ldr	r3, .L97
 1726 08d4 1B79     		ldrb	r3, [r3, #4]	@ zero_extendqisi2
 1727 08d6 5A1C     		adds	r2, r3, #1
 1728 08d8 D1B2     		uxtb	r1, r2
 1729 08da 114A     		ldr	r2, .L97
 1730 08dc 1171     		strb	r1, [r2, #4]
 1731 08de 7A68     		ldr	r2, [r7, #4]
 1732 08e0 82F85330 		strb	r3, [r2, #83]
 632:build\openmote-cc2538_armgcc\openstack\02b-MAChigh/sixtop.c ****     // this is a new packet which I never attempted to send
 633:build\openmote-cc2538_armgcc\openstack\02b-MAChigh/sixtop.c ****     msg->l2_numTxAttempts = 0;
 1733              		.loc 1 633 0
 1734 08e4 7B68     		ldr	r3, [r7, #4]
 1735 08e6 0022     		movs	r2, #0
 1736 08e8 83F85520 		strb	r2, [r3, #85]
 634:build\openmote-cc2538_armgcc\openstack\02b-MAChigh/sixtop.c ****     // transmit with the default TX power
 635:build\openmote-cc2538_armgcc\openstack\02b-MAChigh/sixtop.c ****     msg->l1_txPower = TX_POWER;
 1737              		.loc 1 635 0
 1738 08ec 7B68     		ldr	r3, [r7, #4]
 1739 08ee 1F22     		movs	r2, #31
 1740 08f0 83F8C420 		strb	r2, [r3, #196]
 636:build\openmote-cc2538_armgcc\openstack\02b-MAChigh/sixtop.c ****     // add a IEEE802.15.4 header
 637:build\openmote-cc2538_armgcc\openstack\02b-MAChigh/sixtop.c ****     ieee802154_prependHeader(
 1741              		.loc 1 637 0
 1742 08f4 7B68     		ldr	r3, [r7, #4]
 1743 08f6 93F85210 		ldrb	r1, [r3, #82]	@ zero_extendqisi2
 1744 08fa 7B68     		ldr	r3, [r7, #4]
 1745 08fc 93F85300 		ldrb	r0, [r3, #83]	@ zero_extendqisi2
 1746 0900 7B68     		ldr	r3, [r7, #4]
 1747 0902 4133     		adds	r3, r3, #65
 1748 0904 FA78     		ldrb	r2, [r7, #3]	@ zero_extendqisi2
 1749 0906 0093     		str	r3, [sp]
 1750 0908 0346     		mov	r3, r0
 1751 090a 7868     		ldr	r0, [r7, #4]
 1752 090c FFF7FEFF 		bl	ieee802154_prependHeader
 638:build\openmote-cc2538_armgcc\openstack\02b-MAChigh/sixtop.c ****         msg,
 639:build\openmote-cc2538_armgcc\openstack\02b-MAChigh/sixtop.c ****         msg->l2_frameType,
 640:build\openmote-cc2538_armgcc\openstack\02b-MAChigh/sixtop.c ****         payloadIEPresent,
 641:build\openmote-cc2538_armgcc\openstack\02b-MAChigh/sixtop.c ****         msg->l2_dsn,
 642:build\openmote-cc2538_armgcc\openstack\02b-MAChigh/sixtop.c ****         &(msg->l2_nextORpreviousHop)
 643:build\openmote-cc2538_armgcc\openstack\02b-MAChigh/sixtop.c ****     );
 644:build\openmote-cc2538_armgcc\openstack\02b-MAChigh/sixtop.c ****     // change owner to IEEE802154E fetches it from queue
 645:build\openmote-cc2538_armgcc\openstack\02b-MAChigh/sixtop.c ****     msg->owner  = COMPONENT_SIXTOP_TO_IEEE802154E;
 1753              		.loc 1 645 0
 1754 0910 7B68     		ldr	r3, [r7, #4]
 1755 0912 0A22     		movs	r2, #10
 1756 0914 5A70     		strb	r2, [r3, #1]
 646:build\openmote-cc2538_armgcc\openstack\02b-MAChigh/sixtop.c ****     return E_SUCCESS;
 1757              		.loc 1 646 0
 1758 0916 0023     		movs	r3, #0
 647:build\openmote-cc2538_armgcc\openstack\02b-MAChigh/sixtop.c **** }
 1759              		.loc 1 647 0
 1760 0918 1846     		mov	r0, r3
 1761 091a 0837     		adds	r7, r7, #8
 1762              		.cfi_def_cfa_offset 8
 1763 091c BD46     		mov	sp, r7
 1764              		.cfi_def_cfa_register 13
 1765              		@ sp needed
 1766 091e 80BD     		pop	{r7, pc}
 1767              	.L98:
 1768              		.align	2
 1769              	.L97:
 1770 0920 00000000 		.word	sixtop_vars
 1771              		.cfi_endproc
 1772              	.LFE14:
 1774              		.align	1
 1775              		.global	sixtop_sendingEb_timer_cb
 1776              		.syntax unified
 1777              		.thumb
 1778              		.thumb_func
 1779              		.fpu softvfp
 1781              	sixtop_sendingEb_timer_cb:
 1782              	.LFB15:
 648:build\openmote-cc2538_armgcc\openstack\02b-MAChigh/sixtop.c **** 
 649:build\openmote-cc2538_armgcc\openstack\02b-MAChigh/sixtop.c **** /**
 650:build\openmote-cc2538_armgcc\openstack\02b-MAChigh/sixtop.c **** \brief sixtop sendingEb timer callback function.
 651:build\openmote-cc2538_armgcc\openstack\02b-MAChigh/sixtop.c **** 
 652:build\openmote-cc2538_armgcc\openstack\02b-MAChigh/sixtop.c **** \note This timer callback function is executed in task mode by opentimer
 653:build\openmote-cc2538_armgcc\openstack\02b-MAChigh/sixtop.c ****     already. No need to push a task again.
 654:build\openmote-cc2538_armgcc\openstack\02b-MAChigh/sixtop.c **** */
 655:build\openmote-cc2538_armgcc\openstack\02b-MAChigh/sixtop.c **** void sixtop_sendingEb_timer_cb(opentimers_id_t id){
 1783              		.loc 1 655 0
 1784              		.cfi_startproc
 1785              		@ args = 0, pretend = 0, frame = 8
 1786              		@ frame_needed = 1, uses_anonymous_args = 0
 1787 0924 80B5     		push	{r7, lr}
 1788              		.cfi_def_cfa_offset 8
 1789              		.cfi_offset 7, -8
 1790              		.cfi_offset 14, -4
 1791 0926 82B0     		sub	sp, sp, #8
 1792              		.cfi_def_cfa_offset 16
 1793 0928 00AF     		add	r7, sp, #0
 1794              		.cfi_def_cfa_register 7
 1795 092a 0346     		mov	r3, r0
 1796 092c FB71     		strb	r3, [r7, #7]
 656:build\openmote-cc2538_armgcc\openstack\02b-MAChigh/sixtop.c **** 
 657:build\openmote-cc2538_armgcc\openstack\02b-MAChigh/sixtop.c ****     timer_sixtop_sendEb_fired();
 1797              		.loc 1 657 0
 1798 092e FFF7FEFF 		bl	timer_sixtop_sendEb_fired
 658:build\openmote-cc2538_armgcc\openstack\02b-MAChigh/sixtop.c **** }
 1799              		.loc 1 658 0
 1800 0932 00BF     		nop
 1801 0934 0837     		adds	r7, r7, #8
 1802              		.cfi_def_cfa_offset 8
 1803 0936 BD46     		mov	sp, r7
 1804              		.cfi_def_cfa_register 13
 1805              		@ sp needed
 1806 0938 80BD     		pop	{r7, pc}
 1807              		.cfi_endproc
 1808              	.LFE15:
 1810              		.align	1
 1811              		.global	sixtop_maintenance_timer_cb
 1812              		.syntax unified
 1813              		.thumb
 1814              		.thumb_func
 1815              		.fpu softvfp
 1817              	sixtop_maintenance_timer_cb:
 1818              	.LFB16:
 659:build\openmote-cc2538_armgcc\openstack\02b-MAChigh/sixtop.c **** 
 660:build\openmote-cc2538_armgcc\openstack\02b-MAChigh/sixtop.c **** /**
 661:build\openmote-cc2538_armgcc\openstack\02b-MAChigh/sixtop.c **** \brief sixtop maintenance timer callback function.
 662:build\openmote-cc2538_armgcc\openstack\02b-MAChigh/sixtop.c **** 
 663:build\openmote-cc2538_armgcc\openstack\02b-MAChigh/sixtop.c **** \note This timer callback function is executed in task mode by opentimer
 664:build\openmote-cc2538_armgcc\openstack\02b-MAChigh/sixtop.c ****     already. No need to push a task again.
 665:build\openmote-cc2538_armgcc\openstack\02b-MAChigh/sixtop.c **** */
 666:build\openmote-cc2538_armgcc\openstack\02b-MAChigh/sixtop.c **** void sixtop_maintenance_timer_cb(opentimers_id_t id) {
 1819              		.loc 1 666 0
 1820              		.cfi_startproc
 1821              		@ args = 0, pretend = 0, frame = 8
 1822              		@ frame_needed = 1, uses_anonymous_args = 0
 1823 093a 80B5     		push	{r7, lr}
 1824              		.cfi_def_cfa_offset 8
 1825              		.cfi_offset 7, -8
 1826              		.cfi_offset 14, -4
 1827 093c 82B0     		sub	sp, sp, #8
 1828              		.cfi_def_cfa_offset 16
 1829 093e 00AF     		add	r7, sp, #0
 1830              		.cfi_def_cfa_register 7
 1831 0940 0346     		mov	r3, r0
 1832 0942 FB71     		strb	r3, [r7, #7]
 667:build\openmote-cc2538_armgcc\openstack\02b-MAChigh/sixtop.c ****     timer_sixtop_management_fired();
 1833              		.loc 1 667 0
 1834 0944 FFF7FEFF 		bl	timer_sixtop_management_fired
 668:build\openmote-cc2538_armgcc\openstack\02b-MAChigh/sixtop.c **** }
 1835              		.loc 1 668 0
 1836 0948 00BF     		nop
 1837 094a 0837     		adds	r7, r7, #8
 1838              		.cfi_def_cfa_offset 8
 1839 094c BD46     		mov	sp, r7
 1840              		.cfi_def_cfa_register 13
 1841              		@ sp needed
 1842 094e 80BD     		pop	{r7, pc}
 1843              		.cfi_endproc
 1844              	.LFE16:
 1846              		.align	1
 1847              		.global	sixtop_timeout_timer_cb
 1848              		.syntax unified
 1849              		.thumb
 1850              		.thumb_func
 1851              		.fpu softvfp
 1853              	sixtop_timeout_timer_cb:
 1854              	.LFB17:
 669:build\openmote-cc2538_armgcc\openstack\02b-MAChigh/sixtop.c **** 
 670:build\openmote-cc2538_armgcc\openstack\02b-MAChigh/sixtop.c **** /**
 671:build\openmote-cc2538_armgcc\openstack\02b-MAChigh/sixtop.c **** \brief sixtop timeout timer callback function.
 672:build\openmote-cc2538_armgcc\openstack\02b-MAChigh/sixtop.c **** 
 673:build\openmote-cc2538_armgcc\openstack\02b-MAChigh/sixtop.c **** \note This timer callback function is executed in task mode by opentimer
 674:build\openmote-cc2538_armgcc\openstack\02b-MAChigh/sixtop.c ****     already. No need to push a task again.
 675:build\openmote-cc2538_armgcc\openstack\02b-MAChigh/sixtop.c **** */
 676:build\openmote-cc2538_armgcc\openstack\02b-MAChigh/sixtop.c **** void sixtop_timeout_timer_cb(opentimers_id_t id) {
 1855              		.loc 1 676 0
 1856              		.cfi_startproc
 1857              		@ args = 0, pretend = 0, frame = 8
 1858              		@ frame_needed = 1, uses_anonymous_args = 0
 1859 0950 80B5     		push	{r7, lr}
 1860              		.cfi_def_cfa_offset 8
 1861              		.cfi_offset 7, -8
 1862              		.cfi_offset 14, -4
 1863 0952 82B0     		sub	sp, sp, #8
 1864              		.cfi_def_cfa_offset 16
 1865 0954 00AF     		add	r7, sp, #0
 1866              		.cfi_def_cfa_register 7
 1867 0956 0346     		mov	r3, r0
 1868 0958 FB71     		strb	r3, [r7, #7]
 677:build\openmote-cc2538_armgcc\openstack\02b-MAChigh/sixtop.c ****     timer_sixtop_six2six_timeout_fired();
 1869              		.loc 1 677 0
 1870 095a FFF7FEFF 		bl	timer_sixtop_six2six_timeout_fired
 678:build\openmote-cc2538_armgcc\openstack\02b-MAChigh/sixtop.c **** }
 1871              		.loc 1 678 0
 1872 095e 00BF     		nop
 1873 0960 0837     		adds	r7, r7, #8
 1874              		.cfi_def_cfa_offset 8
 1875 0962 BD46     		mov	sp, r7
 1876              		.cfi_def_cfa_register 13
 1877              		@ sp needed
 1878 0964 80BD     		pop	{r7, pc}
 1879              		.cfi_endproc
 1880              	.LFE17:
 1882              		.align	1
 1883              		.global	timer_sixtop_sendEb_fired
 1884              		.syntax unified
 1885              		.thumb
 1886              		.thumb_func
 1887              		.fpu softvfp
 1889              	timer_sixtop_sendEb_fired:
 1890              	.LFB18:
 679:build\openmote-cc2538_armgcc\openstack\02b-MAChigh/sixtop.c **** 
 680:build\openmote-cc2538_armgcc\openstack\02b-MAChigh/sixtop.c **** //======= EB/KA task
 681:build\openmote-cc2538_armgcc\openstack\02b-MAChigh/sixtop.c **** 
 682:build\openmote-cc2538_armgcc\openstack\02b-MAChigh/sixtop.c **** void timer_sixtop_sendEb_fired(void) {
 1891              		.loc 1 682 0
 1892              		.cfi_startproc
 1893              		@ args = 0, pretend = 0, frame = 0
 1894              		@ frame_needed = 1, uses_anonymous_args = 0
 1895 0966 80B5     		push	{r7, lr}
 1896              		.cfi_def_cfa_offset 8
 1897              		.cfi_offset 7, -8
 1898              		.cfi_offset 14, -4
 1899 0968 00AF     		add	r7, sp, #0
 1900              		.cfi_def_cfa_register 7
 683:build\openmote-cc2538_armgcc\openstack\02b-MAChigh/sixtop.c **** 
 684:build\openmote-cc2538_armgcc\openstack\02b-MAChigh/sixtop.c ****     if(openrandom_get16b()<(0xffff/EB_PORTION)){
 1901              		.loc 1 684 0
 1902 096a FFF7FEFF 		bl	openrandom_get16b
 1903 096e 0346     		mov	r3, r0
 1904 0970 1A46     		mov	r2, r3
 1905 0972 41F69813 		movw	r3, #6552
 1906 0976 9A42     		cmp	r2, r3
 1907 0978 01D8     		bhi	.L104
 685:build\openmote-cc2538_armgcc\openstack\02b-MAChigh/sixtop.c ****         sixtop_sendEB();
 1908              		.loc 1 685 0
 1909 097a FFF7FEFF 		bl	sixtop_sendEB
 1910              	.L104:
 686:build\openmote-cc2538_armgcc\openstack\02b-MAChigh/sixtop.c ****     }
 687:build\openmote-cc2538_armgcc\openstack\02b-MAChigh/sixtop.c **** }
 1911              		.loc 1 687 0
 1912 097e 00BF     		nop
 1913 0980 80BD     		pop	{r7, pc}
 1914              		.cfi_endproc
 1915              	.LFE18:
 1917              		.align	1
 1918              		.global	timer_sixtop_management_fired
 1919              		.syntax unified
 1920              		.thumb
 1921              		.thumb_func
 1922              		.fpu softvfp
 1924              	timer_sixtop_management_fired:
 1925              	.LFB19:
 688:build\openmote-cc2538_armgcc\openstack\02b-MAChigh/sixtop.c **** 
 689:build\openmote-cc2538_armgcc\openstack\02b-MAChigh/sixtop.c **** /**
 690:build\openmote-cc2538_armgcc\openstack\02b-MAChigh/sixtop.c **** \brief Timer handlers which triggers MAC management task.
 691:build\openmote-cc2538_armgcc\openstack\02b-MAChigh/sixtop.c **** 
 692:build\openmote-cc2538_armgcc\openstack\02b-MAChigh/sixtop.c **** This function is called in task context by the scheduler after the RES timer
 693:build\openmote-cc2538_armgcc\openstack\02b-MAChigh/sixtop.c **** has fired. This timer is set to fire every second, on average.
 694:build\openmote-cc2538_armgcc\openstack\02b-MAChigh/sixtop.c **** 
 695:build\openmote-cc2538_armgcc\openstack\02b-MAChigh/sixtop.c **** The body of this function executes one of the MAC management task.
 696:build\openmote-cc2538_armgcc\openstack\02b-MAChigh/sixtop.c **** */
 697:build\openmote-cc2538_armgcc\openstack\02b-MAChigh/sixtop.c **** void timer_sixtop_management_fired(void) {
 1926              		.loc 1 697 0
 1927              		.cfi_startproc
 1928              		@ args = 0, pretend = 0, frame = 0
 1929              		@ frame_needed = 1, uses_anonymous_args = 0
 1930 0982 80B5     		push	{r7, lr}
 1931              		.cfi_def_cfa_offset 8
 1932              		.cfi_offset 7, -8
 1933              		.cfi_offset 14, -4
 1934 0984 00AF     		add	r7, sp, #0
 1935              		.cfi_def_cfa_register 7
 698:build\openmote-cc2538_armgcc\openstack\02b-MAChigh/sixtop.c **** 
 699:build\openmote-cc2538_armgcc\openstack\02b-MAChigh/sixtop.c ****     sixtop_vars.mgtTaskCounter = (sixtop_vars.mgtTaskCounter+1)%MAINTENANCE_PERIOD;
 1936              		.loc 1 699 0
 1937 0986 0F4B     		ldr	r3, .L110
 1938 0988 5B79     		ldrb	r3, [r3, #5]	@ zero_extendqisi2
 1939 098a 5A1C     		adds	r2, r3, #1
 1940 098c 0E4B     		ldr	r3, .L110+4
 1941 098e 83FB0213 		smull	r1, r3, r3, r2
 1942 0992 1344     		add	r3, r3, r2
 1943 0994 1911     		asrs	r1, r3, #4
 1944 0996 D317     		asrs	r3, r2, #31
 1945 0998 C91A     		subs	r1, r1, r3
 1946 099a 0B46     		mov	r3, r1
 1947 099c 1B01     		lsls	r3, r3, #4
 1948 099e 5B1A     		subs	r3, r3, r1
 1949 09a0 5B00     		lsls	r3, r3, #1
 1950 09a2 D11A     		subs	r1, r2, r3
 1951 09a4 CAB2     		uxtb	r2, r1
 1952 09a6 074B     		ldr	r3, .L110
 1953 09a8 5A71     		strb	r2, [r3, #5]
 700:build\openmote-cc2538_armgcc\openstack\02b-MAChigh/sixtop.c **** 
 701:build\openmote-cc2538_armgcc\openstack\02b-MAChigh/sixtop.c ****     switch (sixtop_vars.mgtTaskCounter) {
 1954              		.loc 1 701 0
 1955 09aa 064B     		ldr	r3, .L110
 1956 09ac 5B79     		ldrb	r3, [r3, #5]	@ zero_extendqisi2
 1957 09ae 002B     		cmp	r3, #0
 1958 09b0 02D1     		bne	.L109
 702:build\openmote-cc2538_armgcc\openstack\02b-MAChigh/sixtop.c ****         case 0:
 703:build\openmote-cc2538_armgcc\openstack\02b-MAChigh/sixtop.c ****             // called every MAINTENANCE_PERIOD seconds
 704:build\openmote-cc2538_armgcc\openstack\02b-MAChigh/sixtop.c ****             neighbors_removeOld();
 1959              		.loc 1 704 0
 1960 09b2 FFF7FEFF 		bl	neighbors_removeOld
 705:build\openmote-cc2538_armgcc\openstack\02b-MAChigh/sixtop.c ****             break;
 1961              		.loc 1 705 0
 1962 09b6 02E0     		b	.L108
 1963              	.L109:
 706:build\openmote-cc2538_armgcc\openstack\02b-MAChigh/sixtop.c ****         default:
 707:build\openmote-cc2538_armgcc\openstack\02b-MAChigh/sixtop.c ****             // called every second, except once every MAINTENANCE_PERIOD seconds
 708:build\openmote-cc2538_armgcc\openstack\02b-MAChigh/sixtop.c ****             sixtop_sendKA();
 1964              		.loc 1 708 0
 1965 09b8 FFF7FEFF 		bl	sixtop_sendKA
 709:build\openmote-cc2538_armgcc\openstack\02b-MAChigh/sixtop.c ****             break;
 1966              		.loc 1 709 0
 1967 09bc 00BF     		nop
 1968              	.L108:
 710:build\openmote-cc2538_armgcc\openstack\02b-MAChigh/sixtop.c ****     }
 711:build\openmote-cc2538_armgcc\openstack\02b-MAChigh/sixtop.c **** }
 1969              		.loc 1 711 0
 1970 09be 00BF     		nop
 1971 09c0 80BD     		pop	{r7, pc}
 1972              	.L111:
 1973 09c2 00BF     		.align	2
 1974              	.L110:
 1975 09c4 00000000 		.word	sixtop_vars
 1976 09c8 89888888 		.word	-2004318071
 1977              		.cfi_endproc
 1978              	.LFE19:
 1980              		.align	1
 1981              		.global	sixtop_sendEB
 1982              		.syntax unified
 1983              		.thumb
 1984              		.thumb_func
 1985              		.fpu softvfp
 1987              	sixtop_sendEB:
 1988              	.LFB20:
 712:build\openmote-cc2538_armgcc\openstack\02b-MAChigh/sixtop.c **** 
 713:build\openmote-cc2538_armgcc\openstack\02b-MAChigh/sixtop.c **** /**
 714:build\openmote-cc2538_armgcc\openstack\02b-MAChigh/sixtop.c **** \brief Send an EB.
 715:build\openmote-cc2538_armgcc\openstack\02b-MAChigh/sixtop.c **** 
 716:build\openmote-cc2538_armgcc\openstack\02b-MAChigh/sixtop.c **** This is one of the MAC management tasks. This function inlines in the
 717:build\openmote-cc2538_armgcc\openstack\02b-MAChigh/sixtop.c **** timers_res_fired() function, but is declared as a separate function for better
 718:build\openmote-cc2538_armgcc\openstack\02b-MAChigh/sixtop.c **** readability of the code.
 719:build\openmote-cc2538_armgcc\openstack\02b-MAChigh/sixtop.c **** */
 720:build\openmote-cc2538_armgcc\openstack\02b-MAChigh/sixtop.c **** port_INLINE void sixtop_sendEB(void) {
 1989              		.loc 1 720 0
 1990              		.cfi_startproc
 1991              		@ args = 0, pretend = 0, frame = 32
 1992              		@ frame_needed = 1, uses_anonymous_args = 0
 1993 09cc 80B5     		push	{r7, lr}
 1994              		.cfi_def_cfa_offset 8
 1995              		.cfi_offset 7, -8
 1996              		.cfi_offset 14, -4
 1997 09ce 88B0     		sub	sp, sp, #32
 1998              		.cfi_def_cfa_offset 40
 1999 09d0 00AF     		add	r7, sp, #0
 2000              		.cfi_def_cfa_register 7
 721:build\openmote-cc2538_armgcc\openstack\02b-MAChigh/sixtop.c ****     OpenQueueEntry_t* eb;
 722:build\openmote-cc2538_armgcc\openstack\02b-MAChigh/sixtop.c ****     uint8_t     i;
 723:build\openmote-cc2538_armgcc\openstack\02b-MAChigh/sixtop.c ****     uint8_t     eb_len;
 724:build\openmote-cc2538_armgcc\openstack\02b-MAChigh/sixtop.c ****     uint16_t    temp16b;
 725:build\openmote-cc2538_armgcc\openstack\02b-MAChigh/sixtop.c ****     open_addr_t addressToWrite;
 726:build\openmote-cc2538_armgcc\openstack\02b-MAChigh/sixtop.c **** 
 727:build\openmote-cc2538_armgcc\openstack\02b-MAChigh/sixtop.c ****     memset(&addressToWrite,0,sizeof(open_addr_t));
 2001              		.loc 1 727 0
 2002 09d2 3B46     		mov	r3, r7
 2003 09d4 1122     		movs	r2, #17
 2004 09d6 0021     		movs	r1, #0
 2005 09d8 1846     		mov	r0, r3
 2006 09da FFF7FEFF 		bl	memset
 728:build\openmote-cc2538_armgcc\openstack\02b-MAChigh/sixtop.c **** 
 729:build\openmote-cc2538_armgcc\openstack\02b-MAChigh/sixtop.c ****     if (
 730:build\openmote-cc2538_armgcc\openstack\02b-MAChigh/sixtop.c ****         (ieee154e_isSynch()==FALSE)                     ||
 2007              		.loc 1 730 0
 2008 09de FFF7FEFF 		bl	ieee154e_isSynch
 2009 09e2 0346     		mov	r3, r0
 2010 09e4 83F00103 		eor	r3, r3, #1
 2011 09e8 DBB2     		uxtb	r3, r3
 729:build\openmote-cc2538_armgcc\openstack\02b-MAChigh/sixtop.c ****         (ieee154e_isSynch()==FALSE)                     ||
 2012              		.loc 1 729 0
 2013 09ea 002B     		cmp	r3, #0
 2014 09ec 17D1     		bne	.L113
 731:build\openmote-cc2538_armgcc\openstack\02b-MAChigh/sixtop.c ****         (IEEE802154_security_isConfigured()==FALSE)     ||
 2015              		.loc 1 731 0
 2016 09ee FFF7FEFF 		bl	IEEE802154_security_isConfigured
 2017 09f2 0346     		mov	r3, r0
 2018 09f4 83F00103 		eor	r3, r3, #1
 2019 09f8 DBB2     		uxtb	r3, r3
 730:build\openmote-cc2538_armgcc\openstack\02b-MAChigh/sixtop.c ****         (IEEE802154_security_isConfigured()==FALSE)     ||
 2020              		.loc 1 730 0
 2021 09fa 002B     		cmp	r3, #0
 2022 09fc 0FD1     		bne	.L113
 732:build\openmote-cc2538_armgcc\openstack\02b-MAChigh/sixtop.c ****         (icmpv6rpl_getMyDAGrank()==DEFAULTDAGRANK)      ||
 2023              		.loc 1 732 0
 2024 09fe FFF7FEFF 		bl	icmpv6rpl_getMyDAGrank
 2025 0a02 0346     		mov	r3, r0
 2026 0a04 1A46     		mov	r2, r3
 731:build\openmote-cc2538_armgcc\openstack\02b-MAChigh/sixtop.c ****         (IEEE802154_security_isConfigured()==FALSE)     ||
 2027              		.loc 1 731 0
 2028 0a06 4FF6FF73 		movw	r3, #65535
 2029 0a0a 9A42     		cmp	r2, r3
 2030 0a0c 07D0     		beq	.L113
 733:build\openmote-cc2538_armgcc\openstack\02b-MAChigh/sixtop.c ****         icmpv6rpl_daoSent()==FALSE
 2031              		.loc 1 733 0
 2032 0a0e FFF7FEFF 		bl	icmpv6rpl_daoSent
 2033 0a12 0346     		mov	r3, r0
 2034 0a14 83F00103 		eor	r3, r3, #1
 2035 0a18 DBB2     		uxtb	r3, r3
 732:build\openmote-cc2538_armgcc\openstack\02b-MAChigh/sixtop.c ****         (icmpv6rpl_getMyDAGrank()==DEFAULTDAGRANK)      ||
 2036              		.loc 1 732 0
 2037 0a1a 002B     		cmp	r3, #0
 2038 0a1c 09D0     		beq	.L114
 2039              	.L113:
 734:build\openmote-cc2538_armgcc\openstack\02b-MAChigh/sixtop.c ****     ) {
 735:build\openmote-cc2538_armgcc\openstack\02b-MAChigh/sixtop.c ****         // I'm not sync'ed, or did not join, or did not acquire a DAGrank or did not send out a DAO
 736:build\openmote-cc2538_armgcc\openstack\02b-MAChigh/sixtop.c ****         // before starting to advertize the network, we need to make sure that we are reachable dow
 737:build\openmote-cc2538_armgcc\openstack\02b-MAChigh/sixtop.c ****         // thus, the condition if DAO was sent
 738:build\openmote-cc2538_armgcc\openstack\02b-MAChigh/sixtop.c **** 
 739:build\openmote-cc2538_armgcc\openstack\02b-MAChigh/sixtop.c ****         // delete packets genereted by this module (EB and KA) from openqueue
 740:build\openmote-cc2538_armgcc\openstack\02b-MAChigh/sixtop.c ****         openqueue_removeAllCreatedBy(COMPONENT_SIXTOP);
 2040              		.loc 1 740 0
 2041 0a1e 0C20     		movs	r0, #12
 2042 0a20 FFF7FEFF 		bl	openqueue_removeAllCreatedBy
 741:build\openmote-cc2538_armgcc\openstack\02b-MAChigh/sixtop.c **** 
 742:build\openmote-cc2538_armgcc\openstack\02b-MAChigh/sixtop.c ****         // I'm not busy sending an EB or KA
 743:build\openmote-cc2538_armgcc\openstack\02b-MAChigh/sixtop.c ****         sixtop_vars.busySendingEB = FALSE;
 2043              		.loc 1 743 0
 2044 0a24 624B     		ldr	r3, .L126
 2045 0a26 0022     		movs	r2, #0
 2046 0a28 DA70     		strb	r2, [r3, #3]
 744:build\openmote-cc2538_armgcc\openstack\02b-MAChigh/sixtop.c ****         sixtop_vars.busySendingKA = FALSE;
 2047              		.loc 1 744 0
 2048 0a2a 614B     		ldr	r3, .L126
 2049 0a2c 0022     		movs	r2, #0
 2050 0a2e 9A70     		strb	r2, [r3, #2]
 745:build\openmote-cc2538_armgcc\openstack\02b-MAChigh/sixtop.c **** 
 746:build\openmote-cc2538_armgcc\openstack\02b-MAChigh/sixtop.c ****         // stop here
 747:build\openmote-cc2538_armgcc\openstack\02b-MAChigh/sixtop.c ****         return;
 2051              		.loc 1 747 0
 2052 0a30 BBE0     		b	.L112
 2053              	.L114:
 748:build\openmote-cc2538_armgcc\openstack\02b-MAChigh/sixtop.c ****     }
 749:build\openmote-cc2538_armgcc\openstack\02b-MAChigh/sixtop.c **** 
 750:build\openmote-cc2538_armgcc\openstack\02b-MAChigh/sixtop.c ****     if (sixtop_vars.busySendingEB==TRUE) {
 2054              		.loc 1 750 0
 2055 0a32 5F4B     		ldr	r3, .L126
 2056 0a34 DB78     		ldrb	r3, [r3, #3]	@ zero_extendqisi2
 2057 0a36 002B     		cmp	r3, #0
 2058 0a38 40F0B680 		bne	.L125
 751:build\openmote-cc2538_armgcc\openstack\02b-MAChigh/sixtop.c ****         // don't continue if I'm still sending a previous EB
 752:build\openmote-cc2538_armgcc\openstack\02b-MAChigh/sixtop.c ****         return;
 753:build\openmote-cc2538_armgcc\openstack\02b-MAChigh/sixtop.c ****     }
 754:build\openmote-cc2538_armgcc\openstack\02b-MAChigh/sixtop.c **** 
 755:build\openmote-cc2538_armgcc\openstack\02b-MAChigh/sixtop.c ****     // if I get here, I will send an EB
 756:build\openmote-cc2538_armgcc\openstack\02b-MAChigh/sixtop.c **** 
 757:build\openmote-cc2538_armgcc\openstack\02b-MAChigh/sixtop.c ****     // get a free packet buffer
 758:build\openmote-cc2538_armgcc\openstack\02b-MAChigh/sixtop.c ****     eb = openqueue_getFreePacketBuffer(COMPONENT_SIXTOP);
 2059              		.loc 1 758 0
 2060 0a3c 0C20     		movs	r0, #12
 2061 0a3e FFF7FEFF 		bl	openqueue_getFreePacketBuffer
 2062 0a42 B861     		str	r0, [r7, #24]
 759:build\openmote-cc2538_armgcc\openstack\02b-MAChigh/sixtop.c ****     if (eb==NULL) {
 2063              		.loc 1 759 0
 2064 0a44 BB69     		ldr	r3, [r7, #24]
 2065 0a46 002B     		cmp	r3, #0
 2066 0a48 06D1     		bne	.L117
 760:build\openmote-cc2538_armgcc\openstack\02b-MAChigh/sixtop.c ****         openserial_printError(
 2067              		.loc 1 760 0
 2068 0a4a 0023     		movs	r3, #0
 2069 0a4c 0022     		movs	r2, #0
 2070 0a4e 2D21     		movs	r1, #45
 2071 0a50 0C20     		movs	r0, #12
 2072 0a52 FFF7FEFF 		bl	openserial_printError
 761:build\openmote-cc2538_armgcc\openstack\02b-MAChigh/sixtop.c ****             COMPONENT_SIXTOP,
 762:build\openmote-cc2538_armgcc\openstack\02b-MAChigh/sixtop.c ****             ERR_NO_FREE_PACKET_BUFFER,
 763:build\openmote-cc2538_armgcc\openstack\02b-MAChigh/sixtop.c ****             (errorparameter_t)0,
 764:build\openmote-cc2538_armgcc\openstack\02b-MAChigh/sixtop.c ****             (errorparameter_t)0
 765:build\openmote-cc2538_armgcc\openstack\02b-MAChigh/sixtop.c ****         );
 766:build\openmote-cc2538_armgcc\openstack\02b-MAChigh/sixtop.c ****         return;
 2073              		.loc 1 766 0
 2074 0a56 A8E0     		b	.L112
 2075              	.L117:
 767:build\openmote-cc2538_armgcc\openstack\02b-MAChigh/sixtop.c ****     }
 768:build\openmote-cc2538_armgcc\openstack\02b-MAChigh/sixtop.c **** 
 769:build\openmote-cc2538_armgcc\openstack\02b-MAChigh/sixtop.c ****     // declare ownership over that packet
 770:build\openmote-cc2538_armgcc\openstack\02b-MAChigh/sixtop.c ****     eb->creator = COMPONENT_SIXTOP;
 2076              		.loc 1 770 0
 2077 0a58 BB69     		ldr	r3, [r7, #24]
 2078 0a5a 0C22     		movs	r2, #12
 2079 0a5c 1A70     		strb	r2, [r3]
 771:build\openmote-cc2538_armgcc\openstack\02b-MAChigh/sixtop.c ****     eb->owner   = COMPONENT_SIXTOP;
 2080              		.loc 1 771 0
 2081 0a5e BB69     		ldr	r3, [r7, #24]
 2082 0a60 0C22     		movs	r2, #12
 2083 0a62 5A70     		strb	r2, [r3, #1]
 772:build\openmote-cc2538_armgcc\openstack\02b-MAChigh/sixtop.c **** 
 773:build\openmote-cc2538_armgcc\openstack\02b-MAChigh/sixtop.c ****     // in case we none default number of shared cells defined in minimal configuration
 774:build\openmote-cc2538_armgcc\openstack\02b-MAChigh/sixtop.c ****     if (ebIEsBytestream[EB_SLOTFRAME_NUMLINK_OFFSET]>1){
 2084              		.loc 1 774 0
 2085 0a64 0123     		movs	r3, #1
 2086 0a66 012B     		cmp	r3, #1
 2087 0a68 25D9     		bls	.L118
 775:build\openmote-cc2538_armgcc\openstack\02b-MAChigh/sixtop.c ****         for (i=ebIEsBytestream[EB_SLOTFRAME_NUMLINK_OFFSET]-1;i>0;i--){
 2088              		.loc 1 775 0
 2089 0a6a 0123     		movs	r3, #1
 2090 0a6c 013B     		subs	r3, r3, #1
 2091 0a6e FB77     		strb	r3, [r7, #31]
 2092 0a70 1EE0     		b	.L119
 2093              	.L120:
 776:build\openmote-cc2538_armgcc\openstack\02b-MAChigh/sixtop.c ****             packetfunctions_reserveHeaderSize(eb,5);
 2094              		.loc 1 776 0 discriminator 3
 2095 0a72 0521     		movs	r1, #5
 2096 0a74 B869     		ldr	r0, [r7, #24]
 2097 0a76 FFF7FEFF 		bl	packetfunctions_reserveHeaderSize
 777:build\openmote-cc2538_armgcc\openstack\02b-MAChigh/sixtop.c ****             eb->payload[0]   = i;    // slot offset
 2098              		.loc 1 777 0 discriminator 3
 2099 0a7a BB69     		ldr	r3, [r7, #24]
 2100 0a7c 5B68     		ldr	r3, [r3, #4]
 2101 0a7e FA7F     		ldrb	r2, [r7, #31]
 2102 0a80 1A70     		strb	r2, [r3]
 778:build\openmote-cc2538_armgcc\openstack\02b-MAChigh/sixtop.c ****             eb->payload[1]   = 0x00;
 2103              		.loc 1 778 0 discriminator 3
 2104 0a82 BB69     		ldr	r3, [r7, #24]
 2105 0a84 5B68     		ldr	r3, [r3, #4]
 2106 0a86 0133     		adds	r3, r3, #1
 2107 0a88 0022     		movs	r2, #0
 2108 0a8a 1A70     		strb	r2, [r3]
 779:build\openmote-cc2538_armgcc\openstack\02b-MAChigh/sixtop.c ****             eb->payload[2]   = 0x00; // channel offset
 2109              		.loc 1 779 0 discriminator 3
 2110 0a8c BB69     		ldr	r3, [r7, #24]
 2111 0a8e 5B68     		ldr	r3, [r3, #4]
 2112 0a90 0233     		adds	r3, r3, #2
 2113 0a92 0022     		movs	r2, #0
 2114 0a94 1A70     		strb	r2, [r3]
 780:build\openmote-cc2538_armgcc\openstack\02b-MAChigh/sixtop.c ****             eb->payload[3]   = 0x00;
 2115              		.loc 1 780 0 discriminator 3
 2116 0a96 BB69     		ldr	r3, [r7, #24]
 2117 0a98 5B68     		ldr	r3, [r3, #4]
 2118 0a9a 0333     		adds	r3, r3, #3
 2119 0a9c 0022     		movs	r2, #0
 2120 0a9e 1A70     		strb	r2, [r3]
 781:build\openmote-cc2538_armgcc\openstack\02b-MAChigh/sixtop.c ****             eb->payload[4]   = 0x0F; // link options
 2121              		.loc 1 781 0 discriminator 3
 2122 0aa0 BB69     		ldr	r3, [r7, #24]
 2123 0aa2 5B68     		ldr	r3, [r3, #4]
 2124 0aa4 0433     		adds	r3, r3, #4
 2125 0aa6 0F22     		movs	r2, #15
 2126 0aa8 1A70     		strb	r2, [r3]
 775:build\openmote-cc2538_armgcc\openstack\02b-MAChigh/sixtop.c ****             packetfunctions_reserveHeaderSize(eb,5);
 2127              		.loc 1 775 0 discriminator 3
 2128 0aaa FB7F     		ldrb	r3, [r7, #31]	@ zero_extendqisi2
 2129 0aac 013B     		subs	r3, r3, #1
 2130 0aae FB77     		strb	r3, [r7, #31]
 2131              	.L119:
 775:build\openmote-cc2538_armgcc\openstack\02b-MAChigh/sixtop.c ****             packetfunctions_reserveHeaderSize(eb,5);
 2132              		.loc 1 775 0 is_stmt 0 discriminator 1
 2133 0ab0 FB7F     		ldrb	r3, [r7, #31]	@ zero_extendqisi2
 2134 0ab2 002B     		cmp	r3, #0
 2135 0ab4 DDD1     		bne	.L120
 2136              	.L118:
 782:build\openmote-cc2538_armgcc\openstack\02b-MAChigh/sixtop.c ****         }
 783:build\openmote-cc2538_armgcc\openstack\02b-MAChigh/sixtop.c ****     }
 784:build\openmote-cc2538_armgcc\openstack\02b-MAChigh/sixtop.c **** 
 785:build\openmote-cc2538_armgcc\openstack\02b-MAChigh/sixtop.c ****     // reserve space for EB IEs
 786:build\openmote-cc2538_armgcc\openstack\02b-MAChigh/sixtop.c ****     packetfunctions_reserveHeaderSize(eb,EB_IE_LEN);
 2137              		.loc 1 786 0 is_stmt 1
 2138 0ab6 1C21     		movs	r1, #28
 2139 0ab8 B869     		ldr	r0, [r7, #24]
 2140 0aba FFF7FEFF 		bl	packetfunctions_reserveHeaderSize
 787:build\openmote-cc2538_armgcc\openstack\02b-MAChigh/sixtop.c ****     for (i=0;i<EB_IE_LEN;i++){
 2141              		.loc 1 787 0
 2142 0abe 0023     		movs	r3, #0
 2143 0ac0 FB77     		strb	r3, [r7, #31]
 2144 0ac2 0AE0     		b	.L121
 2145              	.L122:
 788:build\openmote-cc2538_armgcc\openstack\02b-MAChigh/sixtop.c ****         eb->payload[i]   = ebIEsBytestream[i];
 2146              		.loc 1 788 0 discriminator 3
 2147 0ac4 FA7F     		ldrb	r2, [r7, #31]	@ zero_extendqisi2
 2148 0ac6 BB69     		ldr	r3, [r7, #24]
 2149 0ac8 5968     		ldr	r1, [r3, #4]
 2150 0aca FB7F     		ldrb	r3, [r7, #31]	@ zero_extendqisi2
 2151 0acc 0B44     		add	r3, r3, r1
 2152 0ace 3949     		ldr	r1, .L126+4
 2153 0ad0 8A5C     		ldrb	r2, [r1, r2]	@ zero_extendqisi2
 2154 0ad2 1A70     		strb	r2, [r3]
 787:build\openmote-cc2538_armgcc\openstack\02b-MAChigh/sixtop.c ****     for (i=0;i<EB_IE_LEN;i++){
 2155              		.loc 1 787 0 discriminator 3
 2156 0ad4 FB7F     		ldrb	r3, [r7, #31]	@ zero_extendqisi2
 2157 0ad6 0133     		adds	r3, r3, #1
 2158 0ad8 FB77     		strb	r3, [r7, #31]
 2159              	.L121:
 787:build\openmote-cc2538_armgcc\openstack\02b-MAChigh/sixtop.c ****     for (i=0;i<EB_IE_LEN;i++){
 2160              		.loc 1 787 0 is_stmt 0 discriminator 1
 2161 0ada FB7F     		ldrb	r3, [r7, #31]	@ zero_extendqisi2
 2162 0adc 1B2B     		cmp	r3, #27
 2163 0ade F1D9     		bls	.L122
 789:build\openmote-cc2538_armgcc\openstack\02b-MAChigh/sixtop.c ****     }
 790:build\openmote-cc2538_armgcc\openstack\02b-MAChigh/sixtop.c **** 
 791:build\openmote-cc2538_armgcc\openstack\02b-MAChigh/sixtop.c ****     if (ebIEsBytestream[EB_SLOTFRAME_NUMLINK_OFFSET]>1){
 2164              		.loc 1 791 0 is_stmt 1
 2165 0ae0 0123     		movs	r3, #1
 2166 0ae2 012B     		cmp	r3, #1
 2167 0ae4 19D9     		bls	.L123
 792:build\openmote-cc2538_armgcc\openstack\02b-MAChigh/sixtop.c ****         // reconstruct the MLME IE header since length changed
 793:build\openmote-cc2538_armgcc\openstack\02b-MAChigh/sixtop.c ****         eb_len = EB_IE_LEN-2+5*(ebIEsBytestream[EB_SLOTFRAME_NUMLINK_OFFSET]-1);
 2168              		.loc 1 793 0
 2169 0ae6 0123     		movs	r3, #1
 2170 0ae8 1A46     		mov	r2, r3
 2171 0aea 9200     		lsls	r2, r2, #2
 2172 0aec 1344     		add	r3, r3, r2
 2173 0aee DBB2     		uxtb	r3, r3
 2174 0af0 1533     		adds	r3, r3, #21
 2175 0af2 FB75     		strb	r3, [r7, #23]
 794:build\openmote-cc2538_armgcc\openstack\02b-MAChigh/sixtop.c ****         temp16b = eb_len | IEEE802154E_PAYLOAD_DESC_GROUP_ID_MLME | IEEE802154E_PAYLOAD_DESC_TYPE_M
 2176              		.loc 1 794 0
 2177 0af4 FB7D     		ldrb	r3, [r7, #23]	@ zero_extendqisi2
 2178 0af6 1AB2     		sxth	r2, r3
 2179 0af8 2F4B     		ldr	r3, .L126+8
 2180 0afa 1343     		orrs	r3, r3, r2
 2181 0afc 1BB2     		sxth	r3, r3
 2182 0afe BB82     		strh	r3, [r7, #20]	@ movhi
 795:build\openmote-cc2538_armgcc\openstack\02b-MAChigh/sixtop.c ****         eb->payload[0] = (uint8_t)(temp16b & 0x00ff);
 2183              		.loc 1 795 0
 2184 0b00 BB69     		ldr	r3, [r7, #24]
 2185 0b02 5B68     		ldr	r3, [r3, #4]
 2186 0b04 BA8A     		ldrh	r2, [r7, #20]	@ movhi
 2187 0b06 D2B2     		uxtb	r2, r2
 2188 0b08 1A70     		strb	r2, [r3]
 796:build\openmote-cc2538_armgcc\openstack\02b-MAChigh/sixtop.c ****         eb->payload[1] = (uint8_t)((temp16b & 0xff00)>>8);
 2189              		.loc 1 796 0
 2190 0b0a BB8A     		ldrh	r3, [r7, #20]
 2191 0b0c 1B0A     		lsrs	r3, r3, #8
 2192 0b0e 9AB2     		uxth	r2, r3
 2193 0b10 BB69     		ldr	r3, [r7, #24]
 2194 0b12 5B68     		ldr	r3, [r3, #4]
 2195 0b14 0133     		adds	r3, r3, #1
 2196 0b16 D2B2     		uxtb	r2, r2
 2197 0b18 1A70     		strb	r2, [r3]
 2198              	.L123:
 797:build\openmote-cc2538_armgcc\openstack\02b-MAChigh/sixtop.c ****     }
 798:build\openmote-cc2538_armgcc\openstack\02b-MAChigh/sixtop.c **** 
 799:build\openmote-cc2538_armgcc\openstack\02b-MAChigh/sixtop.c ****     eb->payload[EB_SLOTFRAME_LEN_OFFSET]   = (uint8_t)(0x00FF & (schedule_getFrameLength()));
 2199              		.loc 1 799 0
 2200 0b1a FFF7FEFF 		bl	schedule_getFrameLength
 2201 0b1e 0346     		mov	r3, r0
 2202 0b20 1A46     		mov	r2, r3
 2203 0b22 BB69     		ldr	r3, [r7, #24]
 2204 0b24 5B68     		ldr	r3, [r3, #4]
 2205 0b26 1433     		adds	r3, r3, #20
 2206 0b28 D2B2     		uxtb	r2, r2
 2207 0b2a 1A70     		strb	r2, [r3]
 800:build\openmote-cc2538_armgcc\openstack\02b-MAChigh/sixtop.c ****     eb->payload[EB_SLOTFRAME_LEN_OFFSET+1] = (uint8_t)(0x00FF & (schedule_getFrameLength()>>8));
 2208              		.loc 1 800 0
 2209 0b2c FFF7FEFF 		bl	schedule_getFrameLength
 2210 0b30 0346     		mov	r3, r0
 2211 0b32 1B0A     		lsrs	r3, r3, #8
 2212 0b34 9AB2     		uxth	r2, r3
 2213 0b36 BB69     		ldr	r3, [r7, #24]
 2214 0b38 5B68     		ldr	r3, [r3, #4]
 2215 0b3a 1533     		adds	r3, r3, #21
 2216 0b3c D2B2     		uxtb	r2, r2
 2217 0b3e 1A70     		strb	r2, [r3]
 801:build\openmote-cc2538_armgcc\openstack\02b-MAChigh/sixtop.c **** 
 802:build\openmote-cc2538_armgcc\openstack\02b-MAChigh/sixtop.c ****     // Keep a pointer to where the ASN will be
 803:build\openmote-cc2538_armgcc\openstack\02b-MAChigh/sixtop.c ****     // Note: the actual value of the current ASN and JP will be written by the
 804:build\openmote-cc2538_armgcc\openstack\02b-MAChigh/sixtop.c ****     //    IEEE802.15.4e when transmitting
 805:build\openmote-cc2538_armgcc\openstack\02b-MAChigh/sixtop.c ****     eb->l2_ASNpayload               = &eb->payload[EB_ASN0_OFFSET];
 2218              		.loc 1 805 0
 2219 0b40 BB69     		ldr	r3, [r7, #24]
 2220 0b42 5B68     		ldr	r3, [r3, #4]
 2221 0b44 1A1D     		adds	r2, r3, #4
 2222 0b46 BB69     		ldr	r3, [r7, #24]
 2223 0b48 C3F89820 		str	r2, [r3, #152]
 806:build\openmote-cc2538_armgcc\openstack\02b-MAChigh/sixtop.c **** 
 807:build\openmote-cc2538_armgcc\openstack\02b-MAChigh/sixtop.c ****     // some l2 information about this packet
 808:build\openmote-cc2538_armgcc\openstack\02b-MAChigh/sixtop.c ****     eb->l2_frameType                     = IEEE154_TYPE_BEACON;
 2224              		.loc 1 808 0
 2225 0b4c BB69     		ldr	r3, [r7, #24]
 2226 0b4e 0022     		movs	r2, #0
 2227 0b50 83F85220 		strb	r2, [r3, #82]
 809:build\openmote-cc2538_armgcc\openstack\02b-MAChigh/sixtop.c ****     eb->l2_nextORpreviousHop.type        = ADDR_16B;
 2228              		.loc 1 809 0
 2229 0b54 BB69     		ldr	r3, [r7, #24]
 2230 0b56 0122     		movs	r2, #1
 2231 0b58 83F84120 		strb	r2, [r3, #65]
 810:build\openmote-cc2538_armgcc\openstack\02b-MAChigh/sixtop.c ****     eb->l2_nextORpreviousHop.addr_16b[0] = 0xff;
 2232              		.loc 1 810 0
 2233 0b5c BB69     		ldr	r3, [r7, #24]
 2234 0b5e FF22     		movs	r2, #255
 2235 0b60 83F84220 		strb	r2, [r3, #66]
 811:build\openmote-cc2538_armgcc\openstack\02b-MAChigh/sixtop.c ****     eb->l2_nextORpreviousHop.addr_16b[1] = 0xff;
 2236              		.loc 1 811 0
 2237 0b64 BB69     		ldr	r3, [r7, #24]
 2238 0b66 FF22     		movs	r2, #255
 2239 0b68 83F84320 		strb	r2, [r3, #67]
 812:build\openmote-cc2538_armgcc\openstack\02b-MAChigh/sixtop.c **** 
 813:build\openmote-cc2538_armgcc\openstack\02b-MAChigh/sixtop.c ****     //I has an IE in my payload
 814:build\openmote-cc2538_armgcc\openstack\02b-MAChigh/sixtop.c ****     eb->l2_payloadIEpresent = TRUE;
 2240              		.loc 1 814 0
 2241 0b6c BB69     		ldr	r3, [r7, #24]
 2242 0b6e 0122     		movs	r2, #1
 2243 0b70 83F8A220 		strb	r2, [r3, #162]
 815:build\openmote-cc2538_armgcc\openstack\02b-MAChigh/sixtop.c **** 
 816:build\openmote-cc2538_armgcc\openstack\02b-MAChigh/sixtop.c ****     // set l2-security attributes
 817:build\openmote-cc2538_armgcc\openstack\02b-MAChigh/sixtop.c ****     eb->l2_securityLevel   = IEEE802154_SECURITY_LEVEL_BEACON;
 2244              		.loc 1 817 0
 2245 0b74 BB69     		ldr	r3, [r7, #24]
 2246 0b76 0022     		movs	r2, #0
 2247 0b78 83F8A920 		strb	r2, [r3, #169]
 818:build\openmote-cc2538_armgcc\openstack\02b-MAChigh/sixtop.c ****     eb->l2_keyIdMode       = IEEE802154_SECURITY_KEYIDMODE;
 2248              		.loc 1 818 0
 2249 0b7c BB69     		ldr	r3, [r7, #24]
 2250 0b7e 0022     		movs	r2, #0
 2251 0b80 83F8AA20 		strb	r2, [r3, #170]
 819:build\openmote-cc2538_armgcc\openstack\02b-MAChigh/sixtop.c ****     eb->l2_keyIndex        = IEEE802154_security_getBeaconKeyIndex();
 2252              		.loc 1 819 0
 2253 0b84 FFF7FEFF 		bl	IEEE802154_security_getBeaconKeyIndex
 2254 0b88 0346     		mov	r3, r0
 2255 0b8a 1A46     		mov	r2, r3
 2256 0b8c BB69     		ldr	r3, [r7, #24]
 2257 0b8e 83F8AB20 		strb	r2, [r3, #171]
 820:build\openmote-cc2538_armgcc\openstack\02b-MAChigh/sixtop.c **** 
 821:build\openmote-cc2538_armgcc\openstack\02b-MAChigh/sixtop.c ****     // put in queue for MAC to handle
 822:build\openmote-cc2538_armgcc\openstack\02b-MAChigh/sixtop.c ****     sixtop_send_internal(eb,eb->l2_payloadIEpresent);
 2258              		.loc 1 822 0
 2259 0b92 BB69     		ldr	r3, [r7, #24]
 2260 0b94 93F8A230 		ldrb	r3, [r3, #162]	@ zero_extendqisi2
 2261 0b98 1946     		mov	r1, r3
 2262 0b9a B869     		ldr	r0, [r7, #24]
 2263 0b9c FFF7FEFF 		bl	sixtop_send_internal
 823:build\openmote-cc2538_armgcc\openstack\02b-MAChigh/sixtop.c **** 
 824:build\openmote-cc2538_armgcc\openstack\02b-MAChigh/sixtop.c ****     // I'm now busy sending an EB
 825:build\openmote-cc2538_armgcc\openstack\02b-MAChigh/sixtop.c ****     sixtop_vars.busySendingEB = TRUE;
 2264              		.loc 1 825 0
 2265 0ba0 034B     		ldr	r3, .L126
 2266 0ba2 0122     		movs	r2, #1
 2267 0ba4 DA70     		strb	r2, [r3, #3]
 2268 0ba6 00E0     		b	.L112
 2269              	.L125:
 752:build\openmote-cc2538_armgcc\openstack\02b-MAChigh/sixtop.c ****     }
 2270              		.loc 1 752 0
 2271 0ba8 00BF     		nop
 2272              	.L112:
 826:build\openmote-cc2538_armgcc\openstack\02b-MAChigh/sixtop.c **** }
 2273              		.loc 1 826 0
 2274 0baa 2037     		adds	r7, r7, #32
 2275              		.cfi_def_cfa_offset 8
 2276 0bac BD46     		mov	sp, r7
 2277              		.cfi_def_cfa_register 13
 2278              		@ sp needed
 2279 0bae 80BD     		pop	{r7, pc}
 2280              	.L127:
 2281              		.align	2
 2282              	.L126:
 2283 0bb0 00000000 		.word	sixtop_vars
 2284 0bb4 50000000 		.word	ebIEsBytestream
 2285 0bb8 0088FFFF 		.word	-30720
 2286              		.cfi_endproc
 2287              	.LFE20:
 2289              		.align	1
 2290              		.global	sixtop_sendKA
 2291              		.syntax unified
 2292              		.thumb
 2293              		.thumb_func
 2294              		.fpu softvfp
 2296              	sixtop_sendKA:
 2297              	.LFB21:
 827:build\openmote-cc2538_armgcc\openstack\02b-MAChigh/sixtop.c **** 
 828:build\openmote-cc2538_armgcc\openstack\02b-MAChigh/sixtop.c **** /**
 829:build\openmote-cc2538_armgcc\openstack\02b-MAChigh/sixtop.c **** \brief Send an keep-alive message, if necessary.
 830:build\openmote-cc2538_armgcc\openstack\02b-MAChigh/sixtop.c **** 
 831:build\openmote-cc2538_armgcc\openstack\02b-MAChigh/sixtop.c **** This is one of the MAC management tasks. This function inlines in the
 832:build\openmote-cc2538_armgcc\openstack\02b-MAChigh/sixtop.c **** timers_res_fired() function, but is declared as a separate function for better
 833:build\openmote-cc2538_armgcc\openstack\02b-MAChigh/sixtop.c **** readability of the code.
 834:build\openmote-cc2538_armgcc\openstack\02b-MAChigh/sixtop.c **** */
 835:build\openmote-cc2538_armgcc\openstack\02b-MAChigh/sixtop.c **** port_INLINE void sixtop_sendKA(void) {
 2298              		.loc 1 835 0
 2299              		.cfi_startproc
 2300              		@ args = 0, pretend = 0, frame = 8
 2301              		@ frame_needed = 1, uses_anonymous_args = 0
 2302 0bbc 80B5     		push	{r7, lr}
 2303              		.cfi_def_cfa_offset 8
 2304              		.cfi_offset 7, -8
 2305              		.cfi_offset 14, -4
 2306 0bbe 82B0     		sub	sp, sp, #8
 2307              		.cfi_def_cfa_offset 16
 2308 0bc0 00AF     		add	r7, sp, #0
 2309              		.cfi_def_cfa_register 7
 836:build\openmote-cc2538_armgcc\openstack\02b-MAChigh/sixtop.c ****     OpenQueueEntry_t* kaPkt;
 837:build\openmote-cc2538_armgcc\openstack\02b-MAChigh/sixtop.c ****     open_addr_t*      kaNeighAddr;
 838:build\openmote-cc2538_armgcc\openstack\02b-MAChigh/sixtop.c **** 
 839:build\openmote-cc2538_armgcc\openstack\02b-MAChigh/sixtop.c ****     if (ieee154e_isSynch()==FALSE) {
 2310              		.loc 1 839 0
 2311 0bc2 FFF7FEFF 		bl	ieee154e_isSynch
 2312 0bc6 0346     		mov	r3, r0
 2313 0bc8 83F00103 		eor	r3, r3, #1
 2314 0bcc DBB2     		uxtb	r3, r3
 2315 0bce 002B     		cmp	r3, #0
 2316 0bd0 09D0     		beq	.L129
 840:build\openmote-cc2538_armgcc\openstack\02b-MAChigh/sixtop.c ****         // I'm not sync'ed
 841:build\openmote-cc2538_armgcc\openstack\02b-MAChigh/sixtop.c **** 
 842:build\openmote-cc2538_armgcc\openstack\02b-MAChigh/sixtop.c ****         // delete packets genereted by this module (EB and KA) from openqueue
 843:build\openmote-cc2538_armgcc\openstack\02b-MAChigh/sixtop.c ****         openqueue_removeAllCreatedBy(COMPONENT_SIXTOP);
 2317              		.loc 1 843 0
 2318 0bd2 0C20     		movs	r0, #12
 2319 0bd4 FFF7FEFF 		bl	openqueue_removeAllCreatedBy
 844:build\openmote-cc2538_armgcc\openstack\02b-MAChigh/sixtop.c **** 
 845:build\openmote-cc2538_armgcc\openstack\02b-MAChigh/sixtop.c ****         // I'm not busy sending an EB or KA
 846:build\openmote-cc2538_armgcc\openstack\02b-MAChigh/sixtop.c ****         sixtop_vars.busySendingEB = FALSE;
 2320              		.loc 1 846 0
 2321 0bd8 314B     		ldr	r3, .L137
 2322 0bda 0022     		movs	r2, #0
 2323 0bdc DA70     		strb	r2, [r3, #3]
 847:build\openmote-cc2538_armgcc\openstack\02b-MAChigh/sixtop.c ****         sixtop_vars.busySendingKA = FALSE;
 2324              		.loc 1 847 0
 2325 0bde 304B     		ldr	r3, .L137
 2326 0be0 0022     		movs	r2, #0
 2327 0be2 9A70     		strb	r2, [r3, #2]
 848:build\openmote-cc2538_armgcc\openstack\02b-MAChigh/sixtop.c **** 
 849:build\openmote-cc2538_armgcc\openstack\02b-MAChigh/sixtop.c ****         // stop here
 850:build\openmote-cc2538_armgcc\openstack\02b-MAChigh/sixtop.c ****         return;
 2328              		.loc 1 850 0
 2329 0be4 58E0     		b	.L128
 2330              	.L129:
 851:build\openmote-cc2538_armgcc\openstack\02b-MAChigh/sixtop.c ****     }
 852:build\openmote-cc2538_armgcc\openstack\02b-MAChigh/sixtop.c **** 
 853:build\openmote-cc2538_armgcc\openstack\02b-MAChigh/sixtop.c ****     if (sixtop_vars.busySendingKA==TRUE) {
 2331              		.loc 1 853 0
 2332 0be6 2E4B     		ldr	r3, .L137
 2333 0be8 9B78     		ldrb	r3, [r3, #2]	@ zero_extendqisi2
 2334 0bea 002B     		cmp	r3, #0
 2335 0bec 51D1     		bne	.L135
 854:build\openmote-cc2538_armgcc\openstack\02b-MAChigh/sixtop.c ****         // don't proceed if I'm still sending a KA
 855:build\openmote-cc2538_armgcc\openstack\02b-MAChigh/sixtop.c ****         return;
 856:build\openmote-cc2538_armgcc\openstack\02b-MAChigh/sixtop.c ****     }
 857:build\openmote-cc2538_armgcc\openstack\02b-MAChigh/sixtop.c **** 
 858:build\openmote-cc2538_armgcc\openstack\02b-MAChigh/sixtop.c ****     kaNeighAddr = neighbors_getKANeighbor(sixtop_vars.kaPeriod);
 2336              		.loc 1 858 0
 2337 0bee 2C4B     		ldr	r3, .L137
 2338 0bf0 5B89     		ldrh	r3, [r3, #10]
 2339 0bf2 1846     		mov	r0, r3
 2340 0bf4 FFF7FEFF 		bl	neighbors_getKANeighbor
 2341 0bf8 7860     		str	r0, [r7, #4]
 859:build\openmote-cc2538_armgcc\openstack\02b-MAChigh/sixtop.c ****     if (kaNeighAddr==NULL) {
 2342              		.loc 1 859 0
 2343 0bfa 7B68     		ldr	r3, [r7, #4]
 2344 0bfc 002B     		cmp	r3, #0
 2345 0bfe 4AD0     		beq	.L136
 860:build\openmote-cc2538_armgcc\openstack\02b-MAChigh/sixtop.c ****         // don't proceed if I have no neighbor I need to send a KA to
 861:build\openmote-cc2538_armgcc\openstack\02b-MAChigh/sixtop.c ****         return;
 862:build\openmote-cc2538_armgcc\openstack\02b-MAChigh/sixtop.c ****     }
 863:build\openmote-cc2538_armgcc\openstack\02b-MAChigh/sixtop.c **** 
 864:build\openmote-cc2538_armgcc\openstack\02b-MAChigh/sixtop.c ****     if (schedule_hasManagedTxCellToNeighbor(kaNeighAddr) == FALSE){
 2346              		.loc 1 864 0
 2347 0c00 7868     		ldr	r0, [r7, #4]
 2348 0c02 FFF7FEFF 		bl	schedule_hasManagedTxCellToNeighbor
 2349 0c06 0346     		mov	r3, r0
 2350 0c08 83F00103 		eor	r3, r3, #1
 2351 0c0c DBB2     		uxtb	r3, r3
 2352 0c0e 002B     		cmp	r3, #0
 2353 0c10 09D0     		beq	.L133
 865:build\openmote-cc2538_armgcc\openstack\02b-MAChigh/sixtop.c ****         // delete packets genereted by this module (EB and KA) from openqueue
 866:build\openmote-cc2538_armgcc\openstack\02b-MAChigh/sixtop.c ****         openqueue_removeAllCreatedBy(COMPONENT_SIXTOP);
 2354              		.loc 1 866 0
 2355 0c12 0C20     		movs	r0, #12
 2356 0c14 FFF7FEFF 		bl	openqueue_removeAllCreatedBy
 867:build\openmote-cc2538_armgcc\openstack\02b-MAChigh/sixtop.c **** 
 868:build\openmote-cc2538_armgcc\openstack\02b-MAChigh/sixtop.c ****         // I'm not busy sending an EB or KA
 869:build\openmote-cc2538_armgcc\openstack\02b-MAChigh/sixtop.c ****         sixtop_vars.busySendingEB = FALSE;
 2357              		.loc 1 869 0
 2358 0c18 214B     		ldr	r3, .L137
 2359 0c1a 0022     		movs	r2, #0
 2360 0c1c DA70     		strb	r2, [r3, #3]
 870:build\openmote-cc2538_armgcc\openstack\02b-MAChigh/sixtop.c ****         sixtop_vars.busySendingKA = FALSE;
 2361              		.loc 1 870 0
 2362 0c1e 204B     		ldr	r3, .L137
 2363 0c20 0022     		movs	r2, #0
 2364 0c22 9A70     		strb	r2, [r3, #2]
 871:build\openmote-cc2538_armgcc\openstack\02b-MAChigh/sixtop.c **** 
 872:build\openmote-cc2538_armgcc\openstack\02b-MAChigh/sixtop.c ****         return;
 2365              		.loc 1 872 0
 2366 0c24 38E0     		b	.L128
 2367              	.L133:
 873:build\openmote-cc2538_armgcc\openstack\02b-MAChigh/sixtop.c ****     }
 874:build\openmote-cc2538_armgcc\openstack\02b-MAChigh/sixtop.c **** 
 875:build\openmote-cc2538_armgcc\openstack\02b-MAChigh/sixtop.c ****     // if I get here, I will send a KA
 876:build\openmote-cc2538_armgcc\openstack\02b-MAChigh/sixtop.c **** 
 877:build\openmote-cc2538_armgcc\openstack\02b-MAChigh/sixtop.c ****     // get a free packet buffer
 878:build\openmote-cc2538_armgcc\openstack\02b-MAChigh/sixtop.c ****     kaPkt = openqueue_getFreePacketBuffer(COMPONENT_SIXTOP);
 2368              		.loc 1 878 0
 2369 0c26 0C20     		movs	r0, #12
 2370 0c28 FFF7FEFF 		bl	openqueue_getFreePacketBuffer
 2371 0c2c 3860     		str	r0, [r7]
 879:build\openmote-cc2538_armgcc\openstack\02b-MAChigh/sixtop.c ****     if (kaPkt==NULL) {
 2372              		.loc 1 879 0
 2373 0c2e 3B68     		ldr	r3, [r7]
 2374 0c30 002B     		cmp	r3, #0
 2375 0c32 06D1     		bne	.L134
 880:build\openmote-cc2538_armgcc\openstack\02b-MAChigh/sixtop.c ****         openserial_printError(
 2376              		.loc 1 880 0
 2377 0c34 0023     		movs	r3, #0
 2378 0c36 0122     		movs	r2, #1
 2379 0c38 2D21     		movs	r1, #45
 2380 0c3a 0C20     		movs	r0, #12
 2381 0c3c FFF7FEFF 		bl	openserial_printError
 881:build\openmote-cc2538_armgcc\openstack\02b-MAChigh/sixtop.c ****             COMPONENT_SIXTOP,
 882:build\openmote-cc2538_armgcc\openstack\02b-MAChigh/sixtop.c ****             ERR_NO_FREE_PACKET_BUFFER,
 883:build\openmote-cc2538_armgcc\openstack\02b-MAChigh/sixtop.c ****             (errorparameter_t)1,
 884:build\openmote-cc2538_armgcc\openstack\02b-MAChigh/sixtop.c ****             (errorparameter_t)0
 885:build\openmote-cc2538_armgcc\openstack\02b-MAChigh/sixtop.c ****         );
 886:build\openmote-cc2538_armgcc\openstack\02b-MAChigh/sixtop.c ****         return;
 2382              		.loc 1 886 0
 2383 0c40 2AE0     		b	.L128
 2384              	.L134:
 887:build\openmote-cc2538_armgcc\openstack\02b-MAChigh/sixtop.c ****    }
 888:build\openmote-cc2538_armgcc\openstack\02b-MAChigh/sixtop.c **** 
 889:build\openmote-cc2538_armgcc\openstack\02b-MAChigh/sixtop.c ****     // declare ownership over that packet
 890:build\openmote-cc2538_armgcc\openstack\02b-MAChigh/sixtop.c ****     kaPkt->creator = COMPONENT_SIXTOP;
 2385              		.loc 1 890 0
 2386 0c42 3B68     		ldr	r3, [r7]
 2387 0c44 0C22     		movs	r2, #12
 2388 0c46 1A70     		strb	r2, [r3]
 891:build\openmote-cc2538_armgcc\openstack\02b-MAChigh/sixtop.c ****     kaPkt->owner   = COMPONENT_SIXTOP;
 2389              		.loc 1 891 0
 2390 0c48 3B68     		ldr	r3, [r7]
 2391 0c4a 0C22     		movs	r2, #12
 2392 0c4c 5A70     		strb	r2, [r3, #1]
 892:build\openmote-cc2538_armgcc\openstack\02b-MAChigh/sixtop.c **** 
 893:build\openmote-cc2538_armgcc\openstack\02b-MAChigh/sixtop.c ****     // some l2 information about this packet
 894:build\openmote-cc2538_armgcc\openstack\02b-MAChigh/sixtop.c ****     kaPkt->l2_frameType = IEEE154_TYPE_DATA;
 2393              		.loc 1 894 0
 2394 0c4e 3B68     		ldr	r3, [r7]
 2395 0c50 0122     		movs	r2, #1
 2396 0c52 83F85220 		strb	r2, [r3, #82]
 895:build\openmote-cc2538_armgcc\openstack\02b-MAChigh/sixtop.c ****     memcpy(&(kaPkt->l2_nextORpreviousHop),kaNeighAddr,sizeof(open_addr_t));
 2397              		.loc 1 895 0
 2398 0c56 3B68     		ldr	r3, [r7]
 2399 0c58 4133     		adds	r3, r3, #65
 2400 0c5a 1122     		movs	r2, #17
 2401 0c5c 7968     		ldr	r1, [r7, #4]
 2402 0c5e 1846     		mov	r0, r3
 2403 0c60 FFF7FEFF 		bl	memcpy
 896:build\openmote-cc2538_armgcc\openstack\02b-MAChigh/sixtop.c **** 
 897:build\openmote-cc2538_armgcc\openstack\02b-MAChigh/sixtop.c ****     // set l2-security attributes
 898:build\openmote-cc2538_armgcc\openstack\02b-MAChigh/sixtop.c ****     kaPkt->l2_securityLevel   = IEEE802154_SECURITY_LEVEL; // do not exchange KAs with
 2404              		.loc 1 898 0
 2405 0c64 3B68     		ldr	r3, [r7]
 2406 0c66 0022     		movs	r2, #0
 2407 0c68 83F8A920 		strb	r2, [r3, #169]
 899:build\openmote-cc2538_armgcc\openstack\02b-MAChigh/sixtop.c ****     kaPkt->l2_keyIdMode       = IEEE802154_SECURITY_KEYIDMODE;
 2408              		.loc 1 899 0
 2409 0c6c 3B68     		ldr	r3, [r7]
 2410 0c6e 0022     		movs	r2, #0
 2411 0c70 83F8AA20 		strb	r2, [r3, #170]
 900:build\openmote-cc2538_armgcc\openstack\02b-MAChigh/sixtop.c ****     kaPkt->l2_keyIndex        = IEEE802154_security_getDataKeyIndex();
 2412              		.loc 1 900 0
 2413 0c74 FFF7FEFF 		bl	IEEE802154_security_getDataKeyIndex
 2414 0c78 0346     		mov	r3, r0
 2415 0c7a 1A46     		mov	r2, r3
 2416 0c7c 3B68     		ldr	r3, [r7]
 2417 0c7e 83F8AB20 		strb	r2, [r3, #171]
 901:build\openmote-cc2538_armgcc\openstack\02b-MAChigh/sixtop.c **** 
 902:build\openmote-cc2538_armgcc\openstack\02b-MAChigh/sixtop.c ****     // put in queue for MAC to handle
 903:build\openmote-cc2538_armgcc\openstack\02b-MAChigh/sixtop.c ****     sixtop_send_internal(kaPkt,FALSE);
 2418              		.loc 1 903 0
 2419 0c82 0021     		movs	r1, #0
 2420 0c84 3868     		ldr	r0, [r7]
 2421 0c86 FFF7FEFF 		bl	sixtop_send_internal
 904:build\openmote-cc2538_armgcc\openstack\02b-MAChigh/sixtop.c **** 
 905:build\openmote-cc2538_armgcc\openstack\02b-MAChigh/sixtop.c ****     // I'm now busy sending a KA
 906:build\openmote-cc2538_armgcc\openstack\02b-MAChigh/sixtop.c ****     sixtop_vars.busySendingKA = TRUE;
 2422              		.loc 1 906 0
 2423 0c8a 054B     		ldr	r3, .L137
 2424 0c8c 0122     		movs	r2, #1
 2425 0c8e 9A70     		strb	r2, [r3, #2]
 2426 0c90 02E0     		b	.L128
 2427              	.L135:
 855:build\openmote-cc2538_armgcc\openstack\02b-MAChigh/sixtop.c ****     }
 2428              		.loc 1 855 0
 2429 0c92 00BF     		nop
 2430 0c94 00E0     		b	.L128
 2431              	.L136:
 861:build\openmote-cc2538_armgcc\openstack\02b-MAChigh/sixtop.c ****     }
 2432              		.loc 1 861 0
 2433 0c96 00BF     		nop
 2434              	.L128:
 907:build\openmote-cc2538_armgcc\openstack\02b-MAChigh/sixtop.c **** 
 908:build\openmote-cc2538_armgcc\openstack\02b-MAChigh/sixtop.c **** #ifdef OPENSIM
 909:build\openmote-cc2538_armgcc\openstack\02b-MAChigh/sixtop.c ****     debugpins_ka_set();
 910:build\openmote-cc2538_armgcc\openstack\02b-MAChigh/sixtop.c ****     debugpins_ka_clr();
 911:build\openmote-cc2538_armgcc\openstack\02b-MAChigh/sixtop.c **** #endif
 912:build\openmote-cc2538_armgcc\openstack\02b-MAChigh/sixtop.c **** }
 2435              		.loc 1 912 0
 2436 0c98 0837     		adds	r7, r7, #8
 2437              		.cfi_def_cfa_offset 8
 2438 0c9a BD46     		mov	sp, r7
 2439              		.cfi_def_cfa_register 13
 2440              		@ sp needed
 2441 0c9c 80BD     		pop	{r7, pc}
 2442              	.L138:
 2443 0c9e 00BF     		.align	2
 2444              	.L137:
 2445 0ca0 00000000 		.word	sixtop_vars
 2446              		.cfi_endproc
 2447              	.LFE21:
 2449              		.align	1
 2450              		.global	timer_sixtop_six2six_timeout_fired
 2451              		.syntax unified
 2452              		.thumb
 2453              		.thumb_func
 2454              		.fpu softvfp
 2456              	timer_sixtop_six2six_timeout_fired:
 2457              	.LFB22:
 913:build\openmote-cc2538_armgcc\openstack\02b-MAChigh/sixtop.c **** 
 914:build\openmote-cc2538_armgcc\openstack\02b-MAChigh/sixtop.c **** //======= six2six task
 915:build\openmote-cc2538_armgcc\openstack\02b-MAChigh/sixtop.c **** 
 916:build\openmote-cc2538_armgcc\openstack\02b-MAChigh/sixtop.c **** void timer_sixtop_six2six_timeout_fired(void) {
 2458              		.loc 1 916 0
 2459              		.cfi_startproc
 2460              		@ args = 0, pretend = 0, frame = 0
 2461              		@ frame_needed = 1, uses_anonymous_args = 0
 2462 0ca4 80B5     		push	{r7, lr}
 2463              		.cfi_def_cfa_offset 8
 2464              		.cfi_offset 7, -8
 2465              		.cfi_offset 14, -4
 2466 0ca6 00AF     		add	r7, sp, #0
 2467              		.cfi_def_cfa_register 7
 917:build\openmote-cc2538_armgcc\openstack\02b-MAChigh/sixtop.c **** 
 918:build\openmote-cc2538_armgcc\openstack\02b-MAChigh/sixtop.c ****     if (sixtop_vars.six2six_state == SIX_STATE_WAIT_CLEARRESPONSE){
 2468              		.loc 1 918 0
 2469 0ca8 0F4B     		ldr	r3, .L141
 2470 0caa 9B7B     		ldrb	r3, [r3, #14]	@ zero_extendqisi2
 2471 0cac 0C2B     		cmp	r3, #12
 2472 0cae 10D1     		bne	.L140
 919:build\openmote-cc2538_armgcc\openstack\02b-MAChigh/sixtop.c ****         // no response for the 6p clear, just clear locally
 920:build\openmote-cc2538_armgcc\openstack\02b-MAChigh/sixtop.c ****         schedule_removeAllManagedUnicastCellsToNeighbor(
 921:build\openmote-cc2538_armgcc\openstack\02b-MAChigh/sixtop.c ****             sixtop_vars.cb_sf_getMetadata(),
 2473              		.loc 1 921 0
 2474 0cb0 0D4B     		ldr	r3, .L141
 2475 0cb2 1B6B     		ldr	r3, [r3, #48]
 2476 0cb4 9847     		blx	r3
 2477              	.LVL2:
 2478 0cb6 0346     		mov	r3, r0
 920:build\openmote-cc2538_armgcc\openstack\02b-MAChigh/sixtop.c ****             sixtop_vars.cb_sf_getMetadata(),
 2479              		.loc 1 920 0
 2480 0cb8 DBB2     		uxtb	r3, r3
 2481 0cba 0C49     		ldr	r1, .L141+4
 2482 0cbc 1846     		mov	r0, r3
 2483 0cbe FFF7FEFF 		bl	schedule_removeAllManagedUnicastCellsToNeighbor
 922:build\openmote-cc2538_armgcc\openstack\02b-MAChigh/sixtop.c ****             &sixtop_vars.neighborToClearCells
 923:build\openmote-cc2538_armgcc\openstack\02b-MAChigh/sixtop.c ****         );
 924:build\openmote-cc2538_armgcc\openstack\02b-MAChigh/sixtop.c ****         neighbors_resetSequenceNumber(&sixtop_vars.neighborToClearCells);
 2484              		.loc 1 924 0
 2485 0cc2 0A48     		ldr	r0, .L141+4
 2486 0cc4 FFF7FEFF 		bl	neighbors_resetSequenceNumber
 925:build\openmote-cc2538_armgcc\openstack\02b-MAChigh/sixtop.c ****         memset(&sixtop_vars.neighborToClearCells,0,sizeof(open_addr_t));
 2487              		.loc 1 925 0
 2488 0cc8 1122     		movs	r2, #17
 2489 0cca 0021     		movs	r1, #0
 2490 0ccc 0748     		ldr	r0, .L141+4
 2491 0cce FFF7FEFF 		bl	memset
 2492              	.L140:
 926:build\openmote-cc2538_armgcc\openstack\02b-MAChigh/sixtop.c ****     }
 927:build\openmote-cc2538_armgcc\openstack\02b-MAChigh/sixtop.c ****     // timeout timer fired, reset the state of sixtop to idle
 928:build\openmote-cc2538_armgcc\openstack\02b-MAChigh/sixtop.c ****     sixtop_vars.six2six_state = SIX_STATE_IDLE;
 2493              		.loc 1 928 0
 2494 0cd2 054B     		ldr	r3, .L141
 2495 0cd4 0022     		movs	r2, #0
 2496 0cd6 9A73     		strb	r2, [r3, #14]
 929:build\openmote-cc2538_armgcc\openstack\02b-MAChigh/sixtop.c ****     opentimers_cancel(sixtop_vars.timeoutTimerId);
 2497              		.loc 1 929 0
 2498 0cd8 034B     		ldr	r3, .L141
 2499 0cda 5B7A     		ldrb	r3, [r3, #9]	@ zero_extendqisi2
 2500 0cdc 1846     		mov	r0, r3
 2501 0cde FFF7FEFF 		bl	opentimers_cancel
 930:build\openmote-cc2538_armgcc\openstack\02b-MAChigh/sixtop.c **** }
 2502              		.loc 1 930 0
 2503 0ce2 00BF     		nop
 2504 0ce4 80BD     		pop	{r7, pc}
 2505              	.L142:
 2506 0ce6 00BF     		.align	2
 2507              	.L141:
 2508 0ce8 00000000 		.word	sixtop_vars
 2509 0cec 3C000000 		.word	sixtop_vars+60
 2510              		.cfi_endproc
 2511              	.LFE22:
 2513              		.align	1
 2514              		.global	sixtop_six2six_sendDone
 2515              		.syntax unified
 2516              		.thumb
 2517              		.thumb_func
 2518              		.fpu softvfp
 2520              	sixtop_six2six_sendDone:
 2521              	.LFB23:
 931:build\openmote-cc2538_armgcc\openstack\02b-MAChigh/sixtop.c **** 
 932:build\openmote-cc2538_armgcc\openstack\02b-MAChigh/sixtop.c **** void sixtop_six2six_sendDone(OpenQueueEntry_t* msg, owerror_t error){
 2522              		.loc 1 932 0
 2523              		.cfi_startproc
 2524              		@ args = 0, pretend = 0, frame = 8
 2525              		@ frame_needed = 1, uses_anonymous_args = 0
 2526 0cf0 80B5     		push	{r7, lr}
 2527              		.cfi_def_cfa_offset 8
 2528              		.cfi_offset 7, -8
 2529              		.cfi_offset 14, -4
 2530 0cf2 84B0     		sub	sp, sp, #16
 2531              		.cfi_def_cfa_offset 24
 2532 0cf4 02AF     		add	r7, sp, #8
 2533              		.cfi_def_cfa 7, 16
 2534 0cf6 7860     		str	r0, [r7, #4]
 2535 0cf8 0B46     		mov	r3, r1
 2536 0cfa FB70     		strb	r3, [r7, #3]
 933:build\openmote-cc2538_armgcc\openstack\02b-MAChigh/sixtop.c **** 
 934:build\openmote-cc2538_armgcc\openstack\02b-MAChigh/sixtop.c ****     msg->owner = COMPONENT_SIXTOP_RES;
 2537              		.loc 1 934 0
 2538 0cfc 7B68     		ldr	r3, [r7, #4]
 2539 0cfe 0F22     		movs	r2, #15
 2540 0d00 5A70     		strb	r2, [r3, #1]
 935:build\openmote-cc2538_armgcc\openstack\02b-MAChigh/sixtop.c **** 
 936:build\openmote-cc2538_armgcc\openstack\02b-MAChigh/sixtop.c ****     // if this is a request send done
 937:build\openmote-cc2538_armgcc\openstack\02b-MAChigh/sixtop.c ****     if (msg->l2_sixtop_messageType == SIXTOP_CELL_REQUEST){
 2541              		.loc 1 937 0
 2542 0d02 7B68     		ldr	r3, [r7, #4]
 2543 0d04 93F89430 		ldrb	r3, [r3, #148]	@ zero_extendqisi2
 2544 0d08 002B     		cmp	r3, #0
 2545 0d0a 3ED1     		bne	.L144
 938:build\openmote-cc2538_armgcc\openstack\02b-MAChigh/sixtop.c ****         if(error == E_FAIL) {
 2546              		.loc 1 938 0
 2547 0d0c FB78     		ldrb	r3, [r7, #3]	@ zero_extendqisi2
 2548 0d0e 012B     		cmp	r3, #1
 2549 0d10 03D1     		bne	.L145
 939:build\openmote-cc2538_armgcc\openstack\02b-MAChigh/sixtop.c ****             // reset handler and state if the request is failed to send out
 940:build\openmote-cc2538_armgcc\openstack\02b-MAChigh/sixtop.c ****             sixtop_vars.six2six_state = SIX_STATE_IDLE;
 2550              		.loc 1 940 0
 2551 0d12 654B     		ldr	r3, .L162
 2552 0d14 0022     		movs	r2, #0
 2553 0d16 9A73     		strb	r2, [r3, #14]
 2554 0d18 37E0     		b	.L144
 2555              	.L145:
 941:build\openmote-cc2538_armgcc\openstack\02b-MAChigh/sixtop.c ****         } else {
 942:build\openmote-cc2538_armgcc\openstack\02b-MAChigh/sixtop.c ****             // the packet has been sent out successfully
 943:build\openmote-cc2538_armgcc\openstack\02b-MAChigh/sixtop.c ****             switch (sixtop_vars.six2six_state) {
 2556              		.loc 1 943 0
 2557 0d1a 634B     		ldr	r3, .L162
 2558 0d1c 9B7B     		ldrb	r3, [r3, #14]	@ zero_extendqisi2
 2559 0d1e 013B     		subs	r3, r3, #1
 2560 0d20 052B     		cmp	r3, #5
 2561 0d22 27D8     		bhi	.L161
 2562 0d24 01A2     		adr	r2, .L148
 2563 0d26 52F823F0 		ldr	pc, [r2, r3, lsl #2]
 2564 0d2a 00BF     		.p2align 2
 2565              	.L148:
 2566 0d2c 450D0000 		.word	.L147+1
 2567 0d30 4D0D0000 		.word	.L149+1
 2568 0d34 550D0000 		.word	.L150+1
 2569 0d38 650D0000 		.word	.L151+1
 2570 0d3c 5D0D0000 		.word	.L152+1
 2571 0d40 6D0D0000 		.word	.L153+1
 2572              		.p2align 1
 2573              	.L147:
 944:build\openmote-cc2538_armgcc\openstack\02b-MAChigh/sixtop.c ****             case SIX_STATE_WAIT_ADDREQUEST_SENDDONE:
 945:build\openmote-cc2538_armgcc\openstack\02b-MAChigh/sixtop.c ****                 sixtop_vars.six2six_state = SIX_STATE_WAIT_ADDRESPONSE;
 2574              		.loc 1 945 0
 2575 0d44 584B     		ldr	r3, .L162
 2576 0d46 0722     		movs	r2, #7
 2577 0d48 9A73     		strb	r2, [r3, #14]
 946:build\openmote-cc2538_armgcc\openstack\02b-MAChigh/sixtop.c ****                 break;
 2578              		.loc 1 946 0
 2579 0d4a 14E0     		b	.L154
 2580              	.L149:
 947:build\openmote-cc2538_armgcc\openstack\02b-MAChigh/sixtop.c ****             case SIX_STATE_WAIT_DELETEREQUEST_SENDDONE:
 948:build\openmote-cc2538_armgcc\openstack\02b-MAChigh/sixtop.c ****                 sixtop_vars.six2six_state = SIX_STATE_WAIT_DELETERESPONSE;
 2581              		.loc 1 948 0
 2582 0d4c 564B     		ldr	r3, .L162
 2583 0d4e 0822     		movs	r2, #8
 2584 0d50 9A73     		strb	r2, [r3, #14]
 949:build\openmote-cc2538_armgcc\openstack\02b-MAChigh/sixtop.c ****                 break;
 2585              		.loc 1 949 0
 2586 0d52 10E0     		b	.L154
 2587              	.L150:
 950:build\openmote-cc2538_armgcc\openstack\02b-MAChigh/sixtop.c ****             case SIX_STATE_WAIT_RELOCATEREQUEST_SENDDONE:
 951:build\openmote-cc2538_armgcc\openstack\02b-MAChigh/sixtop.c ****                 sixtop_vars.six2six_state = SIX_STATE_WAIT_RELOCATERESPONSE;
 2588              		.loc 1 951 0
 2589 0d54 544B     		ldr	r3, .L162
 2590 0d56 0922     		movs	r2, #9
 2591 0d58 9A73     		strb	r2, [r3, #14]
 952:build\openmote-cc2538_armgcc\openstack\02b-MAChigh/sixtop.c ****                 break;
 2592              		.loc 1 952 0
 2593 0d5a 0CE0     		b	.L154
 2594              	.L152:
 953:build\openmote-cc2538_armgcc\openstack\02b-MAChigh/sixtop.c ****             case SIX_STATE_WAIT_LISTREQUEST_SENDDONE:
 954:build\openmote-cc2538_armgcc\openstack\02b-MAChigh/sixtop.c ****                 sixtop_vars.six2six_state = SIX_STATE_WAIT_LISTRESPONSE;
 2595              		.loc 1 954 0
 2596 0d5c 524B     		ldr	r3, .L162
 2597 0d5e 0B22     		movs	r2, #11
 2598 0d60 9A73     		strb	r2, [r3, #14]
 955:build\openmote-cc2538_armgcc\openstack\02b-MAChigh/sixtop.c ****                 break;
 2599              		.loc 1 955 0
 2600 0d62 08E0     		b	.L154
 2601              	.L151:
 956:build\openmote-cc2538_armgcc\openstack\02b-MAChigh/sixtop.c ****             case SIX_STATE_WAIT_COUNTREQUEST_SENDDONE:
 957:build\openmote-cc2538_armgcc\openstack\02b-MAChigh/sixtop.c ****                 sixtop_vars.six2six_state = SIX_STATE_WAIT_COUNTRESPONSE;
 2602              		.loc 1 957 0
 2603 0d64 504B     		ldr	r3, .L162
 2604 0d66 0A22     		movs	r2, #10
 2605 0d68 9A73     		strb	r2, [r3, #14]
 958:build\openmote-cc2538_armgcc\openstack\02b-MAChigh/sixtop.c ****                 break;
 2606              		.loc 1 958 0
 2607 0d6a 04E0     		b	.L154
 2608              	.L153:
 959:build\openmote-cc2538_armgcc\openstack\02b-MAChigh/sixtop.c ****             case SIX_STATE_WAIT_CLEARREQUEST_SENDDONE:
 960:build\openmote-cc2538_armgcc\openstack\02b-MAChigh/sixtop.c ****                 sixtop_vars.six2six_state = SIX_STATE_WAIT_CLEARRESPONSE;
 2609              		.loc 1 960 0
 2610 0d6c 4E4B     		ldr	r3, .L162
 2611 0d6e 0C22     		movs	r2, #12
 2612 0d70 9A73     		strb	r2, [r3, #14]
 961:build\openmote-cc2538_armgcc\openstack\02b-MAChigh/sixtop.c ****                 break;
 2613              		.loc 1 961 0
 2614 0d72 00E0     		b	.L154
 2615              	.L161:
 962:build\openmote-cc2538_armgcc\openstack\02b-MAChigh/sixtop.c ****             default:
 963:build\openmote-cc2538_armgcc\openstack\02b-MAChigh/sixtop.c ****                 // should never happen
 964:build\openmote-cc2538_armgcc\openstack\02b-MAChigh/sixtop.c ****                 break;
 2616              		.loc 1 964 0
 2617 0d74 00BF     		nop
 2618              	.L154:
 965:build\openmote-cc2538_armgcc\openstack\02b-MAChigh/sixtop.c ****             }
 966:build\openmote-cc2538_armgcc\openstack\02b-MAChigh/sixtop.c ****             // start timeout timer if I am waiting for a response
 967:build\openmote-cc2538_armgcc\openstack\02b-MAChigh/sixtop.c ****             opentimers_scheduleIn(
 2619              		.loc 1 967 0
 2620 0d76 4C4B     		ldr	r3, .L162
 2621 0d78 587A     		ldrb	r0, [r3, #9]	@ zero_extendqisi2
 2622 0d7a 4C4B     		ldr	r3, .L162+4
 2623 0d7c 0093     		str	r3, [sp]
 2624 0d7e 0123     		movs	r3, #1
 2625 0d80 0022     		movs	r2, #0
 2626 0d82 4FF6FF71 		movw	r1, #65535
 2627 0d86 FFF7FEFF 		bl	opentimers_scheduleIn
 2628              	.L144:
 968:build\openmote-cc2538_armgcc\openstack\02b-MAChigh/sixtop.c ****                 sixtop_vars.timeoutTimerId,
 969:build\openmote-cc2538_armgcc\openstack\02b-MAChigh/sixtop.c ****                 SIX2SIX_TIMEOUT_MS,
 970:build\openmote-cc2538_armgcc\openstack\02b-MAChigh/sixtop.c ****                 TIME_MS,
 971:build\openmote-cc2538_armgcc\openstack\02b-MAChigh/sixtop.c ****                 TIMER_ONESHOT,
 972:build\openmote-cc2538_armgcc\openstack\02b-MAChigh/sixtop.c ****                 sixtop_timeout_timer_cb
 973:build\openmote-cc2538_armgcc\openstack\02b-MAChigh/sixtop.c ****             );
 974:build\openmote-cc2538_armgcc\openstack\02b-MAChigh/sixtop.c ****         }
 975:build\openmote-cc2538_armgcc\openstack\02b-MAChigh/sixtop.c ****     }
 976:build\openmote-cc2538_armgcc\openstack\02b-MAChigh/sixtop.c **** 
 977:build\openmote-cc2538_armgcc\openstack\02b-MAChigh/sixtop.c ****     // if this is a response send done
 978:build\openmote-cc2538_armgcc\openstack\02b-MAChigh/sixtop.c ****     if (msg->l2_sixtop_messageType == SIXTOP_CELL_RESPONSE){
 2629              		.loc 1 978 0
 2630 0d8a 7B68     		ldr	r3, [r7, #4]
 2631 0d8c 93F89430 		ldrb	r3, [r3, #148]	@ zero_extendqisi2
 2632 0d90 012B     		cmp	r3, #1
 2633 0d92 40F08180 		bne	.L155
 979:build\openmote-cc2538_armgcc\openstack\02b-MAChigh/sixtop.c ****         if(error == E_SUCCESS) {
 2634              		.loc 1 979 0
 2635 0d96 FB78     		ldrb	r3, [r7, #3]	@ zero_extendqisi2
 2636 0d98 002B     		cmp	r3, #0
 2637 0d9a 69D1     		bne	.L156
 980:build\openmote-cc2538_armgcc\openstack\02b-MAChigh/sixtop.c ****             neighbors_updateSequenceNumber(&(msg->l2_nextORpreviousHop));
 2638              		.loc 1 980 0
 2639 0d9c 7B68     		ldr	r3, [r7, #4]
 2640 0d9e 4133     		adds	r3, r3, #65
 2641 0da0 1846     		mov	r0, r3
 2642 0da2 FFF7FEFF 		bl	neighbors_updateSequenceNumber
 981:build\openmote-cc2538_armgcc\openstack\02b-MAChigh/sixtop.c ****             // in case a response is sent out, check the return code
 982:build\openmote-cc2538_armgcc\openstack\02b-MAChigh/sixtop.c ****             if (msg->l2_sixtop_returnCode == IANA_6TOP_RC_SUCCESS){
 2643              		.loc 1 982 0
 2644 0da6 7B68     		ldr	r3, [r7, #4]
 2645 0da8 93F89730 		ldrb	r3, [r3, #151]	@ zero_extendqisi2
 2646 0dac 002B     		cmp	r3, #0
 2647 0dae 73D1     		bne	.L155
 983:build\openmote-cc2538_armgcc\openstack\02b-MAChigh/sixtop.c ****                 if (msg->l2_sixtop_command == IANA_6TOP_CMD_ADD){
 2648              		.loc 1 983 0
 2649 0db0 7B68     		ldr	r3, [r7, #4]
 2650 0db2 93F89530 		ldrb	r3, [r3, #149]	@ zero_extendqisi2
 2651 0db6 012B     		cmp	r3, #1
 2652 0db8 0ED1     		bne	.L157
 984:build\openmote-cc2538_armgcc\openstack\02b-MAChigh/sixtop.c ****                     sixtop_addCells(
 985:build\openmote-cc2538_armgcc\openstack\02b-MAChigh/sixtop.c ****                         msg->l2_sixtop_frameID,
 2653              		.loc 1 985 0
 2654 0dba 7B68     		ldr	r3, [r7, #4]
 2655 0dbc B3F89230 		ldrh	r3, [r3, #146]
 984:build\openmote-cc2538_armgcc\openstack\02b-MAChigh/sixtop.c ****                     sixtop_addCells(
 2656              		.loc 1 984 0
 2657 0dc0 D8B2     		uxtb	r0, r3
 986:build\openmote-cc2538_armgcc\openstack\02b-MAChigh/sixtop.c ****                         msg->l2_sixtop_celllist_add,
 2658              		.loc 1 986 0
 2659 0dc2 7B68     		ldr	r3, [r7, #4]
 2660 0dc4 03F16001 		add	r1, r3, #96
 984:build\openmote-cc2538_armgcc\openstack\02b-MAChigh/sixtop.c ****                     sixtop_addCells(
 2661              		.loc 1 984 0
 2662 0dc8 7B68     		ldr	r3, [r7, #4]
 2663 0dca 03F14102 		add	r2, r3, #65
 2664 0dce 7B68     		ldr	r3, [r7, #4]
 2665 0dd0 93F89630 		ldrb	r3, [r3, #150]	@ zero_extendqisi2
 2666 0dd4 FFF7FEFF 		bl	sixtop_addCells
 2667              	.L157:
 987:build\openmote-cc2538_armgcc\openstack\02b-MAChigh/sixtop.c ****                         &(msg->l2_nextORpreviousHop),
 988:build\openmote-cc2538_armgcc\openstack\02b-MAChigh/sixtop.c ****                         msg->l2_sixtop_cellOptions
 989:build\openmote-cc2538_armgcc\openstack\02b-MAChigh/sixtop.c ****                     );
 990:build\openmote-cc2538_armgcc\openstack\02b-MAChigh/sixtop.c ****                 }
 991:build\openmote-cc2538_armgcc\openstack\02b-MAChigh/sixtop.c **** 
 992:build\openmote-cc2538_armgcc\openstack\02b-MAChigh/sixtop.c ****                 if (msg->l2_sixtop_command == IANA_6TOP_CMD_DELETE){
 2668              		.loc 1 992 0
 2669 0dd8 7B68     		ldr	r3, [r7, #4]
 2670 0dda 93F89530 		ldrb	r3, [r3, #149]	@ zero_extendqisi2
 2671 0dde 022B     		cmp	r3, #2
 2672 0de0 0ED1     		bne	.L158
 993:build\openmote-cc2538_armgcc\openstack\02b-MAChigh/sixtop.c ****                     sixtop_removeCells(
 994:build\openmote-cc2538_armgcc\openstack\02b-MAChigh/sixtop.c ****                       msg->l2_sixtop_frameID,
 2673              		.loc 1 994 0
 2674 0de2 7B68     		ldr	r3, [r7, #4]
 2675 0de4 B3F89230 		ldrh	r3, [r3, #146]
 993:build\openmote-cc2538_armgcc\openstack\02b-MAChigh/sixtop.c ****                     sixtop_removeCells(
 2676              		.loc 1 993 0
 2677 0de8 D8B2     		uxtb	r0, r3
 995:build\openmote-cc2538_armgcc\openstack\02b-MAChigh/sixtop.c ****                         msg->l2_sixtop_celllist_delete,
 2678              		.loc 1 995 0
 2679 0dea 7B68     		ldr	r3, [r7, #4]
 2680 0dec 03F17901 		add	r1, r3, #121
 993:build\openmote-cc2538_armgcc\openstack\02b-MAChigh/sixtop.c ****                     sixtop_removeCells(
 2681              		.loc 1 993 0
 2682 0df0 7B68     		ldr	r3, [r7, #4]
 2683 0df2 03F14102 		add	r2, r3, #65
 2684 0df6 7B68     		ldr	r3, [r7, #4]
 2685 0df8 93F89630 		ldrb	r3, [r3, #150]	@ zero_extendqisi2
 2686 0dfc FFF7FEFF 		bl	sixtop_removeCells
 2687              	.L158:
 996:build\openmote-cc2538_armgcc\openstack\02b-MAChigh/sixtop.c ****                       &(msg->l2_nextORpreviousHop),
 997:build\openmote-cc2538_armgcc\openstack\02b-MAChigh/sixtop.c ****                         msg->l2_sixtop_cellOptions
 998:build\openmote-cc2538_armgcc\openstack\02b-MAChigh/sixtop.c ****                     );
 999:build\openmote-cc2538_armgcc\openstack\02b-MAChigh/sixtop.c ****                 }
1000:build\openmote-cc2538_armgcc\openstack\02b-MAChigh/sixtop.c **** 
1001:build\openmote-cc2538_armgcc\openstack\02b-MAChigh/sixtop.c ****                 if ( msg->l2_sixtop_command == IANA_6TOP_CMD_RELOCATE){
 2688              		.loc 1 1001 0
 2689 0e00 7B68     		ldr	r3, [r7, #4]
 2690 0e02 93F89530 		ldrb	r3, [r3, #149]	@ zero_extendqisi2
 2691 0e06 032B     		cmp	r3, #3
 2692 0e08 1DD1     		bne	.L159
1002:build\openmote-cc2538_armgcc\openstack\02b-MAChigh/sixtop.c ****                     sixtop_removeCells(
1003:build\openmote-cc2538_armgcc\openstack\02b-MAChigh/sixtop.c ****                         msg->l2_sixtop_frameID,
 2693              		.loc 1 1003 0
 2694 0e0a 7B68     		ldr	r3, [r7, #4]
 2695 0e0c B3F89230 		ldrh	r3, [r3, #146]
1002:build\openmote-cc2538_armgcc\openstack\02b-MAChigh/sixtop.c ****                     sixtop_removeCells(
 2696              		.loc 1 1002 0
 2697 0e10 D8B2     		uxtb	r0, r3
1004:build\openmote-cc2538_armgcc\openstack\02b-MAChigh/sixtop.c ****                         msg->l2_sixtop_celllist_delete,
 2698              		.loc 1 1004 0
 2699 0e12 7B68     		ldr	r3, [r7, #4]
 2700 0e14 03F17901 		add	r1, r3, #121
1002:build\openmote-cc2538_armgcc\openstack\02b-MAChigh/sixtop.c ****                     sixtop_removeCells(
 2701              		.loc 1 1002 0
 2702 0e18 7B68     		ldr	r3, [r7, #4]
 2703 0e1a 03F14102 		add	r2, r3, #65
 2704 0e1e 7B68     		ldr	r3, [r7, #4]
 2705 0e20 93F89630 		ldrb	r3, [r3, #150]	@ zero_extendqisi2
 2706 0e24 FFF7FEFF 		bl	sixtop_removeCells
1005:build\openmote-cc2538_armgcc\openstack\02b-MAChigh/sixtop.c ****                         &(msg->l2_nextORpreviousHop),
1006:build\openmote-cc2538_armgcc\openstack\02b-MAChigh/sixtop.c ****                         msg->l2_sixtop_cellOptions
1007:build\openmote-cc2538_armgcc\openstack\02b-MAChigh/sixtop.c ****                     );
1008:build\openmote-cc2538_armgcc\openstack\02b-MAChigh/sixtop.c ****                     sixtop_addCells(
1009:build\openmote-cc2538_armgcc\openstack\02b-MAChigh/sixtop.c ****                         msg->l2_sixtop_frameID,
 2707              		.loc 1 1009 0
 2708 0e28 7B68     		ldr	r3, [r7, #4]
 2709 0e2a B3F89230 		ldrh	r3, [r3, #146]
1008:build\openmote-cc2538_armgcc\openstack\02b-MAChigh/sixtop.c ****                         msg->l2_sixtop_frameID,
 2710              		.loc 1 1008 0
 2711 0e2e D8B2     		uxtb	r0, r3
1010:build\openmote-cc2538_armgcc\openstack\02b-MAChigh/sixtop.c ****                         msg->l2_sixtop_celllist_add,
 2712              		.loc 1 1010 0
 2713 0e30 7B68     		ldr	r3, [r7, #4]
 2714 0e32 03F16001 		add	r1, r3, #96
1008:build\openmote-cc2538_armgcc\openstack\02b-MAChigh/sixtop.c ****                         msg->l2_sixtop_frameID,
 2715              		.loc 1 1008 0
 2716 0e36 7B68     		ldr	r3, [r7, #4]
 2717 0e38 03F14102 		add	r2, r3, #65
 2718 0e3c 7B68     		ldr	r3, [r7, #4]
 2719 0e3e 93F89630 		ldrb	r3, [r3, #150]	@ zero_extendqisi2
 2720 0e42 FFF7FEFF 		bl	sixtop_addCells
 2721              	.L159:
1011:build\openmote-cc2538_armgcc\openstack\02b-MAChigh/sixtop.c ****                         &(msg->l2_nextORpreviousHop),
1012:build\openmote-cc2538_armgcc\openstack\02b-MAChigh/sixtop.c ****                         msg->l2_sixtop_cellOptions
1013:build\openmote-cc2538_armgcc\openstack\02b-MAChigh/sixtop.c ****                     );
1014:build\openmote-cc2538_armgcc\openstack\02b-MAChigh/sixtop.c ****                 }
1015:build\openmote-cc2538_armgcc\openstack\02b-MAChigh/sixtop.c **** 
1016:build\openmote-cc2538_armgcc\openstack\02b-MAChigh/sixtop.c ****                 if ( msg->l2_sixtop_command == IANA_6TOP_CMD_CLEAR){
 2722              		.loc 1 1016 0
 2723 0e46 7B68     		ldr	r3, [r7, #4]
 2724 0e48 93F89530 		ldrb	r3, [r3, #149]	@ zero_extendqisi2
 2725 0e4c 072B     		cmp	r3, #7
 2726 0e4e 23D1     		bne	.L155
1017:build\openmote-cc2538_armgcc\openstack\02b-MAChigh/sixtop.c ****                     schedule_removeAllManagedUnicastCellsToNeighbor(
1018:build\openmote-cc2538_armgcc\openstack\02b-MAChigh/sixtop.c ****                         msg->l2_sixtop_frameID,
 2727              		.loc 1 1018 0
 2728 0e50 7B68     		ldr	r3, [r7, #4]
 2729 0e52 B3F89230 		ldrh	r3, [r3, #146]
1017:build\openmote-cc2538_armgcc\openstack\02b-MAChigh/sixtop.c ****                     schedule_removeAllManagedUnicastCellsToNeighbor(
 2730              		.loc 1 1017 0
 2731 0e56 DAB2     		uxtb	r2, r3
 2732 0e58 7B68     		ldr	r3, [r7, #4]
 2733 0e5a 4133     		adds	r3, r3, #65
 2734 0e5c 1946     		mov	r1, r3
 2735 0e5e 1046     		mov	r0, r2
 2736 0e60 FFF7FEFF 		bl	schedule_removeAllManagedUnicastCellsToNeighbor
1019:build\openmote-cc2538_armgcc\openstack\02b-MAChigh/sixtop.c ****                         &(msg->l2_nextORpreviousHop)
1020:build\openmote-cc2538_armgcc\openstack\02b-MAChigh/sixtop.c ****                     );
1021:build\openmote-cc2538_armgcc\openstack\02b-MAChigh/sixtop.c ****                     neighbors_resetSequenceNumber(&(msg->l2_nextORpreviousHop));
 2737              		.loc 1 1021 0
 2738 0e64 7B68     		ldr	r3, [r7, #4]
 2739 0e66 4133     		adds	r3, r3, #65
 2740 0e68 1846     		mov	r0, r3
 2741 0e6a FFF7FEFF 		bl	neighbors_resetSequenceNumber
 2742 0e6e 13E0     		b	.L155
 2743              	.L156:
1022:build\openmote-cc2538_armgcc\openstack\02b-MAChigh/sixtop.c ****                 }
1023:build\openmote-cc2538_armgcc\openstack\02b-MAChigh/sixtop.c ****             } else {
1024:build\openmote-cc2538_armgcc\openstack\02b-MAChigh/sixtop.c ****                 // the return code doesn't end up with SUCCESS
1025:build\openmote-cc2538_armgcc\openstack\02b-MAChigh/sixtop.c ****                 // The return code will be processed on request side.
1026:build\openmote-cc2538_armgcc\openstack\02b-MAChigh/sixtop.c ****             }
1027:build\openmote-cc2538_armgcc\openstack\02b-MAChigh/sixtop.c ****         } else {
1028:build\openmote-cc2538_armgcc\openstack\02b-MAChigh/sixtop.c ****             // doesn't receive the ACK of response packet from request side after maximum retries.
1029:build\openmote-cc2538_armgcc\openstack\02b-MAChigh/sixtop.c **** 
1030:build\openmote-cc2538_armgcc\openstack\02b-MAChigh/sixtop.c ****             // if the response is for CLEAR command, remove all the cells and reset seqnum regardle
1031:build\openmote-cc2538_armgcc\openstack\02b-MAChigh/sixtop.c ****             if ( msg->l2_sixtop_command == IANA_6TOP_CMD_CLEAR){
 2744              		.loc 1 1031 0
 2745 0e70 7B68     		ldr	r3, [r7, #4]
 2746 0e72 93F89530 		ldrb	r3, [r3, #149]	@ zero_extendqisi2
 2747 0e76 072B     		cmp	r3, #7
 2748 0e78 0ED1     		bne	.L155
1032:build\openmote-cc2538_armgcc\openstack\02b-MAChigh/sixtop.c ****                 schedule_removeAllManagedUnicastCellsToNeighbor(
1033:build\openmote-cc2538_armgcc\openstack\02b-MAChigh/sixtop.c ****                     msg->l2_sixtop_frameID,
 2749              		.loc 1 1033 0
 2750 0e7a 7B68     		ldr	r3, [r7, #4]
 2751 0e7c B3F89230 		ldrh	r3, [r3, #146]
1032:build\openmote-cc2538_armgcc\openstack\02b-MAChigh/sixtop.c ****                 schedule_removeAllManagedUnicastCellsToNeighbor(
 2752              		.loc 1 1032 0
 2753 0e80 DAB2     		uxtb	r2, r3
 2754 0e82 7B68     		ldr	r3, [r7, #4]
 2755 0e84 4133     		adds	r3, r3, #65
 2756 0e86 1946     		mov	r1, r3
 2757 0e88 1046     		mov	r0, r2
 2758 0e8a FFF7FEFF 		bl	schedule_removeAllManagedUnicastCellsToNeighbor
1034:build\openmote-cc2538_armgcc\openstack\02b-MAChigh/sixtop.c ****                     &(msg->l2_nextORpreviousHop)
1035:build\openmote-cc2538_armgcc\openstack\02b-MAChigh/sixtop.c ****                 );
1036:build\openmote-cc2538_armgcc\openstack\02b-MAChigh/sixtop.c ****                 neighbors_resetSequenceNumber(&(msg->l2_nextORpreviousHop));
 2759              		.loc 1 1036 0
 2760 0e8e 7B68     		ldr	r3, [r7, #4]
 2761 0e90 4133     		adds	r3, r3, #65
 2762 0e92 1846     		mov	r0, r3
 2763 0e94 FFF7FEFF 		bl	neighbors_resetSequenceNumber
 2764              	.L155:
1037:build\openmote-cc2538_armgcc\openstack\02b-MAChigh/sixtop.c ****             }
1038:build\openmote-cc2538_armgcc\openstack\02b-MAChigh/sixtop.c ****         }
1039:build\openmote-cc2538_armgcc\openstack\02b-MAChigh/sixtop.c ****     }
1040:build\openmote-cc2538_armgcc\openstack\02b-MAChigh/sixtop.c ****     // free the buffer
1041:build\openmote-cc2538_armgcc\openstack\02b-MAChigh/sixtop.c ****     openqueue_freePacketBuffer(msg);
 2765              		.loc 1 1041 0
 2766 0e98 7868     		ldr	r0, [r7, #4]
 2767 0e9a FFF7FEFF 		bl	openqueue_freePacketBuffer
1042:build\openmote-cc2538_armgcc\openstack\02b-MAChigh/sixtop.c **** }
 2768              		.loc 1 1042 0
 2769 0e9e 00BF     		nop
 2770 0ea0 0837     		adds	r7, r7, #8
 2771              		.cfi_def_cfa_offset 8
 2772 0ea2 BD46     		mov	sp, r7
 2773              		.cfi_def_cfa_register 13
 2774              		@ sp needed
 2775 0ea4 80BD     		pop	{r7, pc}
 2776              	.L163:
 2777 0ea6 00BF     		.align	2
 2778              	.L162:
 2779 0ea8 00000000 		.word	sixtop_vars
 2780 0eac 00000000 		.word	sixtop_timeout_timer_cb
 2781              		.cfi_endproc
 2782              	.LFE23:
 2784              		.align	1
 2785              		.global	sixtop_processIEs
 2786              		.syntax unified
 2787              		.thumb
 2788              		.thumb_func
 2789              		.fpu softvfp
 2791              	sixtop_processIEs:
 2792              	.LFB24:
1043:build\openmote-cc2538_armgcc\openstack\02b-MAChigh/sixtop.c **** 
1044:build\openmote-cc2538_armgcc\openstack\02b-MAChigh/sixtop.c **** port_INLINE bool sixtop_processIEs(OpenQueueEntry_t* pkt, uint16_t * lenIE) {
 2793              		.loc 1 1044 0
 2794              		.cfi_startproc
 2795              		@ args = 0, pretend = 0, frame = 24
 2796              		@ frame_needed = 1, uses_anonymous_args = 0
 2797 0eb0 B0B5     		push	{r4, r5, r7, lr}
 2798              		.cfi_def_cfa_offset 16
 2799              		.cfi_offset 4, -16
 2800              		.cfi_offset 5, -12
 2801              		.cfi_offset 7, -8
 2802              		.cfi_offset 14, -4
 2803 0eb2 8AB0     		sub	sp, sp, #40
 2804              		.cfi_def_cfa_offset 56
 2805 0eb4 04AF     		add	r7, sp, #16
 2806              		.cfi_def_cfa 7, 40
 2807 0eb6 7860     		str	r0, [r7, #4]
 2808 0eb8 3960     		str	r1, [r7]
1045:build\openmote-cc2538_armgcc\openstack\02b-MAChigh/sixtop.c ****     uint8_t ptr;
1046:build\openmote-cc2538_armgcc\openstack\02b-MAChigh/sixtop.c ****     uint8_t temp_8b;
1047:build\openmote-cc2538_armgcc\openstack\02b-MAChigh/sixtop.c ****     uint8_t subtypeid,code,sfid,version,type,seqNum;
1048:build\openmote-cc2538_armgcc\openstack\02b-MAChigh/sixtop.c ****     uint16_t temp_16b,len,headerlen;
1049:build\openmote-cc2538_armgcc\openstack\02b-MAChigh/sixtop.c **** 
1050:build\openmote-cc2538_armgcc\openstack\02b-MAChigh/sixtop.c ****     ptr         = 0;
 2809              		.loc 1 1050 0
 2810 0eba 0023     		movs	r3, #0
 2811 0ebc FB75     		strb	r3, [r7, #23]
1051:build\openmote-cc2538_armgcc\openstack\02b-MAChigh/sixtop.c ****     headerlen   = 0;
 2812              		.loc 1 1051 0
 2813 0ebe 0023     		movs	r3, #0
 2814 0ec0 BB82     		strh	r3, [r7, #20]	@ movhi
1052:build\openmote-cc2538_armgcc\openstack\02b-MAChigh/sixtop.c **** 
1053:build\openmote-cc2538_armgcc\openstack\02b-MAChigh/sixtop.c ****     //candidate IE header  if type ==0 header IE if type==1 payload IE
1054:build\openmote-cc2538_armgcc\openstack\02b-MAChigh/sixtop.c ****     temp_8b     = *((uint8_t*)(pkt->payload)+ptr);
 2815              		.loc 1 1054 0
 2816 0ec2 7B68     		ldr	r3, [r7, #4]
 2817 0ec4 5A68     		ldr	r2, [r3, #4]
 2818 0ec6 FB7D     		ldrb	r3, [r7, #23]	@ zero_extendqisi2
 2819 0ec8 1344     		add	r3, r3, r2
 2820 0eca 1B78     		ldrb	r3, [r3]
 2821 0ecc FB74     		strb	r3, [r7, #19]
1055:build\openmote-cc2538_armgcc\openstack\02b-MAChigh/sixtop.c ****     ptr++;
 2822              		.loc 1 1055 0
 2823 0ece FB7D     		ldrb	r3, [r7, #23]	@ zero_extendqisi2
 2824 0ed0 0133     		adds	r3, r3, #1
 2825 0ed2 FB75     		strb	r3, [r7, #23]
1056:build\openmote-cc2538_armgcc\openstack\02b-MAChigh/sixtop.c ****     temp_16b    = temp_8b + ((*((uint8_t*)(pkt->payload)+ptr))<<8);
 2826              		.loc 1 1056 0
 2827 0ed4 FB7C     		ldrb	r3, [r7, #19]	@ zero_extendqisi2
 2828 0ed6 9AB2     		uxth	r2, r3
 2829 0ed8 7B68     		ldr	r3, [r7, #4]
 2830 0eda 5968     		ldr	r1, [r3, #4]
 2831 0edc FB7D     		ldrb	r3, [r7, #23]	@ zero_extendqisi2
 2832 0ede 0B44     		add	r3, r3, r1
 2833 0ee0 1B78     		ldrb	r3, [r3]	@ zero_extendqisi2
 2834 0ee2 9BB2     		uxth	r3, r3
 2835 0ee4 1B02     		lsls	r3, r3, #8
 2836 0ee6 9BB2     		uxth	r3, r3
 2837 0ee8 1344     		add	r3, r3, r2
 2838 0eea 3B82     		strh	r3, [r7, #16]	@ movhi
1057:build\openmote-cc2538_armgcc\openstack\02b-MAChigh/sixtop.c ****     ptr++;
 2839              		.loc 1 1057 0
 2840 0eec FB7D     		ldrb	r3, [r7, #23]	@ zero_extendqisi2
 2841 0eee 0133     		adds	r3, r3, #1
 2842 0ef0 FB75     		strb	r3, [r7, #23]
1058:build\openmote-cc2538_armgcc\openstack\02b-MAChigh/sixtop.c ****     *lenIE += 2;
 2843              		.loc 1 1058 0
 2844 0ef2 3B68     		ldr	r3, [r7]
 2845 0ef4 1B88     		ldrh	r3, [r3]
 2846 0ef6 0233     		adds	r3, r3, #2
 2847 0ef8 9AB2     		uxth	r2, r3
 2848 0efa 3B68     		ldr	r3, [r7]
 2849 0efc 1A80     		strh	r2, [r3]	@ movhi
1059:build\openmote-cc2538_armgcc\openstack\02b-MAChigh/sixtop.c ****     // check ietf ie group id, type
1060:build\openmote-cc2538_armgcc\openstack\02b-MAChigh/sixtop.c ****     if ((temp_16b & IEEE802154E_DESC_LEN_PAYLOAD_ID_TYPE_MASK) != (IANA_IETF_IE_GROUP_ID | IANA_IET
 2850              		.loc 1 1060 0
 2851 0efe 3B8A     		ldrh	r3, [r7, #16]
 2852 0f00 03F47843 		and	r3, r3, #63488
 2853 0f04 B3F5284F 		cmp	r3, #43008
 2854 0f08 07D0     		beq	.L165
1061:build\openmote-cc2538_armgcc\openstack\02b-MAChigh/sixtop.c ****         // wrong IE ID or type, record and drop the packet
1062:build\openmote-cc2538_armgcc\openstack\02b-MAChigh/sixtop.c ****         openserial_printError(COMPONENT_SIXTOP,ERR_UNSUPPORTED_FORMAT,0,0);
 2855              		.loc 1 1062 0
 2856 0f0a 0023     		movs	r3, #0
 2857 0f0c 0022     		movs	r2, #0
 2858 0f0e 4121     		movs	r1, #65
 2859 0f10 0C20     		movs	r0, #12
 2860 0f12 FFF7FEFF 		bl	openserial_printError
1063:build\openmote-cc2538_armgcc\openstack\02b-MAChigh/sixtop.c ****         return FALSE;
 2861              		.loc 1 1063 0
 2862 0f16 0023     		movs	r3, #0
 2863 0f18 80E0     		b	.L166
 2864              	.L165:
1064:build\openmote-cc2538_armgcc\openstack\02b-MAChigh/sixtop.c ****     }
1065:build\openmote-cc2538_armgcc\openstack\02b-MAChigh/sixtop.c ****     len = temp_16b & IEEE802154E_DESC_LEN_PAYLOAD_IE_MASK;
 2865              		.loc 1 1065 0
 2866 0f1a 3B8A     		ldrh	r3, [r7, #16]	@ movhi
 2867 0f1c C3F30A03 		ubfx	r3, r3, #0, #11
 2868 0f20 FB81     		strh	r3, [r7, #14]	@ movhi
1066:build\openmote-cc2538_armgcc\openstack\02b-MAChigh/sixtop.c ****     *lenIE += len;
 2869              		.loc 1 1066 0
 2870 0f22 3B68     		ldr	r3, [r7]
 2871 0f24 1A88     		ldrh	r2, [r3]
 2872 0f26 FB89     		ldrh	r3, [r7, #14]	@ movhi
 2873 0f28 1344     		add	r3, r3, r2
 2874 0f2a 9AB2     		uxth	r2, r3
 2875 0f2c 3B68     		ldr	r3, [r7]
 2876 0f2e 1A80     		strh	r2, [r3]	@ movhi
1067:build\openmote-cc2538_armgcc\openstack\02b-MAChigh/sixtop.c **** 
1068:build\openmote-cc2538_armgcc\openstack\02b-MAChigh/sixtop.c ****     // check 6p subtype Id
1069:build\openmote-cc2538_armgcc\openstack\02b-MAChigh/sixtop.c ****     subtypeid  = *((uint8_t*)(pkt->payload)+ptr);
 2877              		.loc 1 1069 0
 2878 0f30 7B68     		ldr	r3, [r7, #4]
 2879 0f32 5A68     		ldr	r2, [r3, #4]
 2880 0f34 FB7D     		ldrb	r3, [r7, #23]	@ zero_extendqisi2
 2881 0f36 1344     		add	r3, r3, r2
 2882 0f38 1B78     		ldrb	r3, [r3]
 2883 0f3a 7B73     		strb	r3, [r7, #13]
1070:build\openmote-cc2538_armgcc\openstack\02b-MAChigh/sixtop.c ****     ptr += 1;
 2884              		.loc 1 1070 0
 2885 0f3c FB7D     		ldrb	r3, [r7, #23]
 2886 0f3e 0133     		adds	r3, r3, #1
 2887 0f40 FB75     		strb	r3, [r7, #23]
1071:build\openmote-cc2538_armgcc\openstack\02b-MAChigh/sixtop.c ****     if (subtypeid != IANA_6TOP_SUBIE_ID){
 2888              		.loc 1 1071 0
 2889 0f42 7B7B     		ldrb	r3, [r7, #13]	@ zero_extendqisi2
 2890 0f44 C92B     		cmp	r3, #201
 2891 0f46 07D0     		beq	.L167
1072:build\openmote-cc2538_armgcc\openstack\02b-MAChigh/sixtop.c ****         // wrong subtypeID, record and drop the packet
1073:build\openmote-cc2538_armgcc\openstack\02b-MAChigh/sixtop.c ****         openserial_printError(COMPONENT_SIXTOP,ERR_UNSUPPORTED_FORMAT,1,0);
 2892              		.loc 1 1073 0
 2893 0f48 0023     		movs	r3, #0
 2894 0f4a 0122     		movs	r2, #1
 2895 0f4c 4121     		movs	r1, #65
 2896 0f4e 0C20     		movs	r0, #12
 2897 0f50 FFF7FEFF 		bl	openserial_printError
1074:build\openmote-cc2538_armgcc\openstack\02b-MAChigh/sixtop.c ****         return FALSE;
 2898              		.loc 1 1074 0
 2899 0f54 0023     		movs	r3, #0
 2900 0f56 61E0     		b	.L166
 2901              	.L167:
1075:build\openmote-cc2538_armgcc\openstack\02b-MAChigh/sixtop.c ****     }
1076:build\openmote-cc2538_armgcc\openstack\02b-MAChigh/sixtop.c ****     headerlen += 1;
 2902              		.loc 1 1076 0
 2903 0f58 BB8A     		ldrh	r3, [r7, #20]	@ movhi
 2904 0f5a 0133     		adds	r3, r3, #1
 2905 0f5c BB82     		strh	r3, [r7, #20]	@ movhi
1077:build\openmote-cc2538_armgcc\openstack\02b-MAChigh/sixtop.c **** 
1078:build\openmote-cc2538_armgcc\openstack\02b-MAChigh/sixtop.c ****     // check 6p version
1079:build\openmote-cc2538_armgcc\openstack\02b-MAChigh/sixtop.c ****     temp_8b = *((uint8_t*)(pkt->payload)+ptr);
 2906              		.loc 1 1079 0
 2907 0f5e 7B68     		ldr	r3, [r7, #4]
 2908 0f60 5A68     		ldr	r2, [r3, #4]
 2909 0f62 FB7D     		ldrb	r3, [r7, #23]	@ zero_extendqisi2
 2910 0f64 1344     		add	r3, r3, r2
 2911 0f66 1B78     		ldrb	r3, [r3]
 2912 0f68 FB74     		strb	r3, [r7, #19]
1080:build\openmote-cc2538_armgcc\openstack\02b-MAChigh/sixtop.c ****     ptr += 1;
 2913              		.loc 1 1080 0
 2914 0f6a FB7D     		ldrb	r3, [r7, #23]
 2915 0f6c 0133     		adds	r3, r3, #1
 2916 0f6e FB75     		strb	r3, [r7, #23]
1081:build\openmote-cc2538_armgcc\openstack\02b-MAChigh/sixtop.c ****     // 6p doesn't define type 3
1082:build\openmote-cc2538_armgcc\openstack\02b-MAChigh/sixtop.c ****     if (temp_8b>>IANA_6TOP_TYPE_SHIFT == 3){
 2917              		.loc 1 1082 0
 2918 0f70 FB7C     		ldrb	r3, [r7, #19]	@ zero_extendqisi2
 2919 0f72 1B09     		lsrs	r3, r3, #4
 2920 0f74 DBB2     		uxtb	r3, r3
 2921 0f76 032B     		cmp	r3, #3
 2922 0f78 07D1     		bne	.L168
1083:build\openmote-cc2538_armgcc\openstack\02b-MAChigh/sixtop.c ****         // wrong type, record and drop the packet
1084:build\openmote-cc2538_armgcc\openstack\02b-MAChigh/sixtop.c ****         openserial_printError(COMPONENT_SIXTOP,ERR_UNSUPPORTED_FORMAT,2,0);
 2923              		.loc 1 1084 0
 2924 0f7a 0023     		movs	r3, #0
 2925 0f7c 0222     		movs	r2, #2
 2926 0f7e 4121     		movs	r1, #65
 2927 0f80 0C20     		movs	r0, #12
 2928 0f82 FFF7FEFF 		bl	openserial_printError
1085:build\openmote-cc2538_armgcc\openstack\02b-MAChigh/sixtop.c ****         return FALSE;
 2929              		.loc 1 1085 0
 2930 0f86 0023     		movs	r3, #0
 2931 0f88 48E0     		b	.L166
 2932              	.L168:
1086:build\openmote-cc2538_armgcc\openstack\02b-MAChigh/sixtop.c ****     }
1087:build\openmote-cc2538_armgcc\openstack\02b-MAChigh/sixtop.c ****     version    = temp_8b &  IANA_6TOP_VESION_MASK;
 2933              		.loc 1 1087 0
 2934 0f8a FB7C     		ldrb	r3, [r7, #19]
 2935 0f8c 03F00F03 		and	r3, r3, #15
 2936 0f90 3B73     		strb	r3, [r7, #12]
1088:build\openmote-cc2538_armgcc\openstack\02b-MAChigh/sixtop.c ****     type       = temp_8b >> IANA_6TOP_TYPE_SHIFT;
 2937              		.loc 1 1088 0
 2938 0f92 FB7C     		ldrb	r3, [r7, #19]	@ zero_extendqisi2
 2939 0f94 1B09     		lsrs	r3, r3, #4
 2940 0f96 FB72     		strb	r3, [r7, #11]
1089:build\openmote-cc2538_armgcc\openstack\02b-MAChigh/sixtop.c ****     headerlen += 1;
 2941              		.loc 1 1089 0
 2942 0f98 BB8A     		ldrh	r3, [r7, #20]	@ movhi
 2943 0f9a 0133     		adds	r3, r3, #1
 2944 0f9c BB82     		strh	r3, [r7, #20]	@ movhi
1090:build\openmote-cc2538_armgcc\openstack\02b-MAChigh/sixtop.c **** 
1091:build\openmote-cc2538_armgcc\openstack\02b-MAChigh/sixtop.c ****     // get 6p code
1092:build\openmote-cc2538_armgcc\openstack\02b-MAChigh/sixtop.c ****     code       = *((uint8_t*)(pkt->payload)+ptr);
 2945              		.loc 1 1092 0
 2946 0f9e 7B68     		ldr	r3, [r7, #4]
 2947 0fa0 5A68     		ldr	r2, [r3, #4]
 2948 0fa2 FB7D     		ldrb	r3, [r7, #23]	@ zero_extendqisi2
 2949 0fa4 1344     		add	r3, r3, r2
 2950 0fa6 1B78     		ldrb	r3, [r3]
 2951 0fa8 BB72     		strb	r3, [r7, #10]
1093:build\openmote-cc2538_armgcc\openstack\02b-MAChigh/sixtop.c ****     ptr       += 1;
 2952              		.loc 1 1093 0
 2953 0faa FB7D     		ldrb	r3, [r7, #23]
 2954 0fac 0133     		adds	r3, r3, #1
 2955 0fae FB75     		strb	r3, [r7, #23]
1094:build\openmote-cc2538_armgcc\openstack\02b-MAChigh/sixtop.c ****     headerlen += 1;
 2956              		.loc 1 1094 0
 2957 0fb0 BB8A     		ldrh	r3, [r7, #20]	@ movhi
 2958 0fb2 0133     		adds	r3, r3, #1
 2959 0fb4 BB82     		strh	r3, [r7, #20]	@ movhi
1095:build\openmote-cc2538_armgcc\openstack\02b-MAChigh/sixtop.c ****     // get 6p sfid
1096:build\openmote-cc2538_armgcc\openstack\02b-MAChigh/sixtop.c ****     sfid       = *((uint8_t*)(pkt->payload)+ptr);
 2960              		.loc 1 1096 0
 2961 0fb6 7B68     		ldr	r3, [r7, #4]
 2962 0fb8 5A68     		ldr	r2, [r3, #4]
 2963 0fba FB7D     		ldrb	r3, [r7, #23]	@ zero_extendqisi2
 2964 0fbc 1344     		add	r3, r3, r2
 2965 0fbe 1B78     		ldrb	r3, [r3]
 2966 0fc0 7B72     		strb	r3, [r7, #9]
1097:build\openmote-cc2538_armgcc\openstack\02b-MAChigh/sixtop.c ****     ptr       += 1;
 2967              		.loc 1 1097 0
 2968 0fc2 FB7D     		ldrb	r3, [r7, #23]
 2969 0fc4 0133     		adds	r3, r3, #1
 2970 0fc6 FB75     		strb	r3, [r7, #23]
1098:build\openmote-cc2538_armgcc\openstack\02b-MAChigh/sixtop.c ****     headerlen += 1;
 2971              		.loc 1 1098 0
 2972 0fc8 BB8A     		ldrh	r3, [r7, #20]	@ movhi
 2973 0fca 0133     		adds	r3, r3, #1
 2974 0fcc BB82     		strh	r3, [r7, #20]	@ movhi
1099:build\openmote-cc2538_armgcc\openstack\02b-MAChigh/sixtop.c ****     // get 6p seqNum and GEN
1100:build\openmote-cc2538_armgcc\openstack\02b-MAChigh/sixtop.c ****     seqNum     =  *((uint8_t*)(pkt->payload)+ptr) & 0xff;
 2975              		.loc 1 1100 0
 2976 0fce 7B68     		ldr	r3, [r7, #4]
 2977 0fd0 5A68     		ldr	r2, [r3, #4]
 2978 0fd2 FB7D     		ldrb	r3, [r7, #23]	@ zero_extendqisi2
 2979 0fd4 1344     		add	r3, r3, r2
 2980 0fd6 1B78     		ldrb	r3, [r3]
 2981 0fd8 3B72     		strb	r3, [r7, #8]
1101:build\openmote-cc2538_armgcc\openstack\02b-MAChigh/sixtop.c ****     ptr       += 1;
 2982              		.loc 1 1101 0
 2983 0fda FB7D     		ldrb	r3, [r7, #23]
 2984 0fdc 0133     		adds	r3, r3, #1
 2985 0fde FB75     		strb	r3, [r7, #23]
1102:build\openmote-cc2538_armgcc\openstack\02b-MAChigh/sixtop.c ****     headerlen += 1;
 2986              		.loc 1 1102 0
 2987 0fe0 BB8A     		ldrh	r3, [r7, #20]	@ movhi
 2988 0fe2 0133     		adds	r3, r3, #1
 2989 0fe4 BB82     		strh	r3, [r7, #20]	@ movhi
1103:build\openmote-cc2538_armgcc\openstack\02b-MAChigh/sixtop.c **** 
1104:build\openmote-cc2538_armgcc\openstack\02b-MAChigh/sixtop.c ****     // give six2six to process
1105:build\openmote-cc2538_armgcc\openstack\02b-MAChigh/sixtop.c ****     sixtop_six2six_notifyReceive(version,type,code,sfid,seqNum,ptr,len-headerlen,pkt);
 2990              		.loc 1 1105 0
 2991 0fe6 FB89     		ldrh	r3, [r7, #14]	@ movhi
 2992 0fe8 DAB2     		uxtb	r2, r3
 2993 0fea BB8A     		ldrh	r3, [r7, #20]	@ movhi
 2994 0fec DBB2     		uxtb	r3, r3
 2995 0fee D31A     		subs	r3, r2, r3
 2996 0ff0 DBB2     		uxtb	r3, r3
 2997 0ff2 7D7A     		ldrb	r5, [r7, #9]	@ zero_extendqisi2
 2998 0ff4 BC7A     		ldrb	r4, [r7, #10]	@ zero_extendqisi2
 2999 0ff6 F97A     		ldrb	r1, [r7, #11]	@ zero_extendqisi2
 3000 0ff8 387B     		ldrb	r0, [r7, #12]	@ zero_extendqisi2
 3001 0ffa 7A68     		ldr	r2, [r7, #4]
 3002 0ffc 0392     		str	r2, [sp, #12]
 3003 0ffe 0293     		str	r3, [sp, #8]
 3004 1000 FB7D     		ldrb	r3, [r7, #23]	@ zero_extendqisi2
 3005 1002 0193     		str	r3, [sp, #4]
 3006 1004 3B7A     		ldrb	r3, [r7, #8]	@ zero_extendqisi2
 3007 1006 0093     		str	r3, [sp]
 3008 1008 2B46     		mov	r3, r5
 3009 100a 2246     		mov	r2, r4
 3010 100c FFF7FEFF 		bl	sixtop_six2six_notifyReceive
1106:build\openmote-cc2538_armgcc\openstack\02b-MAChigh/sixtop.c ****     *lenIE     = len+2;
 3011              		.loc 1 1106 0
 3012 1010 FB89     		ldrh	r3, [r7, #14]	@ movhi
 3013 1012 0233     		adds	r3, r3, #2
 3014 1014 9AB2     		uxth	r2, r3
 3015 1016 3B68     		ldr	r3, [r7]
 3016 1018 1A80     		strh	r2, [r3]	@ movhi
1107:build\openmote-cc2538_armgcc\openstack\02b-MAChigh/sixtop.c ****     return TRUE;
 3017              		.loc 1 1107 0
 3018 101a 0123     		movs	r3, #1
 3019              	.L166:
1108:build\openmote-cc2538_armgcc\openstack\02b-MAChigh/sixtop.c **** }
 3020              		.loc 1 1108 0
 3021 101c 1846     		mov	r0, r3
 3022 101e 1837     		adds	r7, r7, #24
 3023              		.cfi_def_cfa_offset 16
 3024 1020 BD46     		mov	sp, r7
 3025              		.cfi_def_cfa_register 13
 3026              		@ sp needed
 3027 1022 B0BD     		pop	{r4, r5, r7, pc}
 3028              		.cfi_endproc
 3029              	.LFE24:
 3031              		.align	1
 3032              		.global	sixtop_six2six_notifyReceive
 3033              		.syntax unified
 3034              		.thumb
 3035              		.thumb_func
 3036              		.fpu softvfp
 3038              	sixtop_six2six_notifyReceive:
 3039              	.LFB25:
1109:build\openmote-cc2538_armgcc\openstack\02b-MAChigh/sixtop.c **** 
1110:build\openmote-cc2538_armgcc\openstack\02b-MAChigh/sixtop.c **** void sixtop_six2six_notifyReceive(
1111:build\openmote-cc2538_armgcc\openstack\02b-MAChigh/sixtop.c ****     uint8_t           version,
1112:build\openmote-cc2538_armgcc\openstack\02b-MAChigh/sixtop.c ****     uint8_t           type,
1113:build\openmote-cc2538_armgcc\openstack\02b-MAChigh/sixtop.c ****     uint8_t           code,
1114:build\openmote-cc2538_armgcc\openstack\02b-MAChigh/sixtop.c ****     uint8_t           sfId,
1115:build\openmote-cc2538_armgcc\openstack\02b-MAChigh/sixtop.c ****     uint8_t           seqNum,
1116:build\openmote-cc2538_armgcc\openstack\02b-MAChigh/sixtop.c ****     uint8_t           ptr,
1117:build\openmote-cc2538_armgcc\openstack\02b-MAChigh/sixtop.c ****     uint8_t           length,
1118:build\openmote-cc2538_armgcc\openstack\02b-MAChigh/sixtop.c ****     OpenQueueEntry_t* pkt
1119:build\openmote-cc2538_armgcc\openstack\02b-MAChigh/sixtop.c **** ){
 3040              		.loc 1 1119 0
 3041              		.cfi_startproc
 3042              		@ args = 16, pretend = 0, frame = 64
 3043              		@ frame_needed = 1, uses_anonymous_args = 0
 3044 1024 90B5     		push	{r4, r7, lr}
 3045              		.cfi_def_cfa_offset 12
 3046              		.cfi_offset 4, -12
 3047              		.cfi_offset 7, -8
 3048              		.cfi_offset 14, -4
 3049 1026 93B0     		sub	sp, sp, #76
 3050              		.cfi_def_cfa_offset 88
 3051 1028 02AF     		add	r7, sp, #8
 3052              		.cfi_def_cfa 7, 80
 3053 102a 0446     		mov	r4, r0
 3054 102c 0846     		mov	r0, r1
 3055 102e 1146     		mov	r1, r2
 3056 1030 1A46     		mov	r2, r3
 3057 1032 2346     		mov	r3, r4
 3058 1034 FB71     		strb	r3, [r7, #7]
 3059 1036 0346     		mov	r3, r0
 3060 1038 BB71     		strb	r3, [r7, #6]
 3061 103a 0B46     		mov	r3, r1
 3062 103c 7B71     		strb	r3, [r7, #5]
 3063 103e 1346     		mov	r3, r2
 3064 1040 3B71     		strb	r3, [r7, #4]
1120:build\openmote-cc2538_armgcc\openstack\02b-MAChigh/sixtop.c ****     uint8_t           returnCode        = -1;
 3065              		.loc 1 1120 0
 3066 1042 FF23     		movs	r3, #255
 3067 1044 87F83F30 		strb	r3, [r7, #63]
1121:build\openmote-cc2538_armgcc\openstack\02b-MAChigh/sixtop.c ****     uint16_t          metadata          = -1;
 3068              		.loc 1 1121 0
 3069 1048 4FF6FF73 		movw	r3, #65535
 3070 104c BB87     		strh	r3, [r7, #60]	@ movhi
1122:build\openmote-cc2538_armgcc\openstack\02b-MAChigh/sixtop.c ****     uint8_t           cellOptions       = -1;
 3071              		.loc 1 1122 0
 3072 104e FF23     		movs	r3, #255
 3073 1050 87F83B30 		strb	r3, [r7, #59]
1123:build\openmote-cc2538_armgcc\openstack\02b-MAChigh/sixtop.c ****     uint8_t           cellOptions_transformed;
1124:build\openmote-cc2538_armgcc\openstack\02b-MAChigh/sixtop.c ****     uint16_t          offset;
1125:build\openmote-cc2538_armgcc\openstack\02b-MAChigh/sixtop.c ****     uint16_t          length_groupid_type;
1126:build\openmote-cc2538_armgcc\openstack\02b-MAChigh/sixtop.c ****     uint16_t          startingOffset;
1127:build\openmote-cc2538_armgcc\openstack\02b-MAChigh/sixtop.c ****     uint8_t           maxNumCells;
1128:build\openmote-cc2538_armgcc\openstack\02b-MAChigh/sixtop.c ****     uint16_t          i;
1129:build\openmote-cc2538_armgcc\openstack\02b-MAChigh/sixtop.c ****     uint16_t          slotoffset;
1130:build\openmote-cc2538_armgcc\openstack\02b-MAChigh/sixtop.c ****     uint16_t          channeloffset;
1131:build\openmote-cc2538_armgcc\openstack\02b-MAChigh/sixtop.c ****     uint16_t          numCells;
1132:build\openmote-cc2538_armgcc\openstack\02b-MAChigh/sixtop.c ****     uint16_t          temp16;
1133:build\openmote-cc2538_armgcc\openstack\02b-MAChigh/sixtop.c ****     OpenQueueEntry_t* response_pkt;
1134:build\openmote-cc2538_armgcc\openstack\02b-MAChigh/sixtop.c ****     uint8_t           pktLen            = length;
 3074              		.loc 1 1134 0
 3075 1054 97F85830 		ldrb	r3, [r7, #88]
 3076 1058 87F83130 		strb	r3, [r7, #49]
1135:build\openmote-cc2538_armgcc\openstack\02b-MAChigh/sixtop.c ****     uint8_t           response_pktLen   = 0;
 3077              		.loc 1 1135 0
 3078 105c 0023     		movs	r3, #0
 3079 105e 87F83030 		strb	r3, [r7, #48]
1136:build\openmote-cc2538_armgcc\openstack\02b-MAChigh/sixtop.c ****     cellInfo_ht       celllist_list[CELLLIST_MAX_LEN];
1137:build\openmote-cc2538_armgcc\openstack\02b-MAChigh/sixtop.c **** 
1138:build\openmote-cc2538_armgcc\openstack\02b-MAChigh/sixtop.c ****     if (type == SIXTOP_CELL_REQUEST){
 3080              		.loc 1 1138 0
 3081 1062 BB79     		ldrb	r3, [r7, #6]	@ zero_extendqisi2
 3082 1064 002B     		cmp	r3, #0
 3083 1066 40F01F86 		bne	.L170
1139:build\openmote-cc2538_armgcc\openstack\02b-MAChigh/sixtop.c ****         // if this is a 6p request message
1140:build\openmote-cc2538_armgcc\openstack\02b-MAChigh/sixtop.c **** 
1141:build\openmote-cc2538_armgcc\openstack\02b-MAChigh/sixtop.c ****         // drop the packet if there are too many 6P response in the queue
1142:build\openmote-cc2538_armgcc\openstack\02b-MAChigh/sixtop.c ****         if (openqueue_getNum6PResp()>=MAX6PRESPONSE) {
 3084              		.loc 1 1142 0
 3085 106a FFF7FEFF 		bl	openqueue_getNum6PResp
 3086 106e 0346     		mov	r3, r0
 3087 1070 002B     		cmp	r3, #0
 3088 1072 41F09880 		bne	.L249
1143:build\openmote-cc2538_armgcc\openstack\02b-MAChigh/sixtop.c ****             return;
1144:build\openmote-cc2538_armgcc\openstack\02b-MAChigh/sixtop.c ****         }
1145:build\openmote-cc2538_armgcc\openstack\02b-MAChigh/sixtop.c **** 
1146:build\openmote-cc2538_armgcc\openstack\02b-MAChigh/sixtop.c ****         // get a free packet buffer
1147:build\openmote-cc2538_armgcc\openstack\02b-MAChigh/sixtop.c ****         response_pkt = openqueue_getFreePacketBuffer(COMPONENT_SIXTOP_RES);
 3089              		.loc 1 1147 0
 3090 1076 0F20     		movs	r0, #15
 3091 1078 FFF7FEFF 		bl	openqueue_getFreePacketBuffer
 3092 107c F862     		str	r0, [r7, #44]
1148:build\openmote-cc2538_armgcc\openstack\02b-MAChigh/sixtop.c ****         if (response_pkt==NULL) {
 3093              		.loc 1 1148 0
 3094 107e FB6A     		ldr	r3, [r7, #44]
 3095 1080 002B     		cmp	r3, #0
 3096 1082 07D1     		bne	.L173
1149:build\openmote-cc2538_armgcc\openstack\02b-MAChigh/sixtop.c ****             openserial_printError(
 3097              		.loc 1 1149 0
 3098 1084 0023     		movs	r3, #0
 3099 1086 0022     		movs	r2, #0
 3100 1088 2D21     		movs	r1, #45
 3101 108a 0F20     		movs	r0, #15
 3102 108c FFF7FEFF 		bl	openserial_printError
1150:build\openmote-cc2538_armgcc\openstack\02b-MAChigh/sixtop.c ****                 COMPONENT_SIXTOP_RES,
1151:build\openmote-cc2538_armgcc\openstack\02b-MAChigh/sixtop.c ****                 ERR_NO_FREE_PACKET_BUFFER,
1152:build\openmote-cc2538_armgcc\openstack\02b-MAChigh/sixtop.c ****                 (errorparameter_t)0,
1153:build\openmote-cc2538_armgcc\openstack\02b-MAChigh/sixtop.c ****                 (errorparameter_t)0
1154:build\openmote-cc2538_armgcc\openstack\02b-MAChigh/sixtop.c ****             );
1155:build\openmote-cc2538_armgcc\openstack\02b-MAChigh/sixtop.c ****             return;
 3103              		.loc 1 1155 0
 3104 1090 01F08AB8 		b	.L169
 3105              	.L173:
1156:build\openmote-cc2538_armgcc\openstack\02b-MAChigh/sixtop.c ****         }
1157:build\openmote-cc2538_armgcc\openstack\02b-MAChigh/sixtop.c **** 
1158:build\openmote-cc2538_armgcc\openstack\02b-MAChigh/sixtop.c ****         // take ownership
1159:build\openmote-cc2538_armgcc\openstack\02b-MAChigh/sixtop.c ****         response_pkt->creator = COMPONENT_SIXTOP_RES;
 3106              		.loc 1 1159 0
 3107 1094 FB6A     		ldr	r3, [r7, #44]
 3108 1096 0F22     		movs	r2, #15
 3109 1098 1A70     		strb	r2, [r3]
1160:build\openmote-cc2538_armgcc\openstack\02b-MAChigh/sixtop.c ****         response_pkt->owner   = COMPONENT_SIXTOP_RES;
 3110              		.loc 1 1160 0
 3111 109a FB6A     		ldr	r3, [r7, #44]
 3112 109c 0F22     		movs	r2, #15
 3113 109e 5A70     		strb	r2, [r3, #1]
1161:build\openmote-cc2538_armgcc\openstack\02b-MAChigh/sixtop.c **** 
1162:build\openmote-cc2538_armgcc\openstack\02b-MAChigh/sixtop.c ****         memcpy(&(response_pkt->l2_nextORpreviousHop),
 3114              		.loc 1 1162 0
 3115 10a0 FB6A     		ldr	r3, [r7, #44]
 3116 10a2 03F14100 		add	r0, r3, #65
1163:build\openmote-cc2538_armgcc\openstack\02b-MAChigh/sixtop.c ****                &(pkt->l2_nextORpreviousHop),
 3117              		.loc 1 1163 0
 3118 10a6 FB6D     		ldr	r3, [r7, #92]
 3119 10a8 4133     		adds	r3, r3, #65
1162:build\openmote-cc2538_armgcc\openstack\02b-MAChigh/sixtop.c ****                &(pkt->l2_nextORpreviousHop),
 3120              		.loc 1 1162 0
 3121 10aa 1122     		movs	r2, #17
 3122 10ac 1946     		mov	r1, r3
 3123 10ae FFF7FEFF 		bl	memcpy
1164:build\openmote-cc2538_armgcc\openstack\02b-MAChigh/sixtop.c ****                sizeof(open_addr_t)
1165:build\openmote-cc2538_armgcc\openstack\02b-MAChigh/sixtop.c ****         );
1166:build\openmote-cc2538_armgcc\openstack\02b-MAChigh/sixtop.c **** 
1167:build\openmote-cc2538_armgcc\openstack\02b-MAChigh/sixtop.c ****         // the follow while loop only execute once
1168:build\openmote-cc2538_armgcc\openstack\02b-MAChigh/sixtop.c ****         do{
1169:build\openmote-cc2538_armgcc\openstack\02b-MAChigh/sixtop.c ****             // version check
1170:build\openmote-cc2538_armgcc\openstack\02b-MAChigh/sixtop.c ****             if (version != IANA_6TOP_6P_VERSION){
 3124              		.loc 1 1170 0
 3125 10b2 FB79     		ldrb	r3, [r7, #7]	@ zero_extendqisi2
 3126 10b4 002B     		cmp	r3, #0
 3127 10b6 04D0     		beq	.L174
1171:build\openmote-cc2538_armgcc\openstack\02b-MAChigh/sixtop.c ****                 returnCode = IANA_6TOP_RC_VER_ERR;
 3128              		.loc 1 1171 0
 3129 10b8 0423     		movs	r3, #4
 3130 10ba 87F83F30 		strb	r3, [r7, #63]
1172:build\openmote-cc2538_armgcc\openstack\02b-MAChigh/sixtop.c ****                 break;
 3131              		.loc 1 1172 0
 3132 10be 00F05DBD 		b	.L175
 3133              	.L174:
1173:build\openmote-cc2538_armgcc\openstack\02b-MAChigh/sixtop.c ****             }
1174:build\openmote-cc2538_armgcc\openstack\02b-MAChigh/sixtop.c ****             // sfid check
1175:build\openmote-cc2538_armgcc\openstack\02b-MAChigh/sixtop.c ****             if (sfId != sixtop_vars.cb_sf_getsfid()){
 3134              		.loc 1 1175 0
 3135 10c2 A94B     		ldr	r3, .L251
 3136 10c4 DB6A     		ldr	r3, [r3, #44]
 3137 10c6 9847     		blx	r3
 3138              	.LVL3:
 3139 10c8 0346     		mov	r3, r0
 3140 10ca 1A46     		mov	r2, r3
 3141 10cc 3B79     		ldrb	r3, [r7, #4]	@ zero_extendqisi2
 3142 10ce 9342     		cmp	r3, r2
 3143 10d0 04D0     		beq	.L176
1176:build\openmote-cc2538_armgcc\openstack\02b-MAChigh/sixtop.c ****                 returnCode = IANA_6TOP_RC_SFID_ERR;
 3144              		.loc 1 1176 0
 3145 10d2 0523     		movs	r3, #5
 3146 10d4 87F83F30 		strb	r3, [r7, #63]
1177:build\openmote-cc2538_armgcc\openstack\02b-MAChigh/sixtop.c ****                 break;
 3147              		.loc 1 1177 0
 3148 10d8 00F050BD 		b	.L175
 3149              	.L176:
1178:build\openmote-cc2538_armgcc\openstack\02b-MAChigh/sixtop.c ****             }
1179:build\openmote-cc2538_armgcc\openstack\02b-MAChigh/sixtop.c ****             // sequenceNumber check
1180:build\openmote-cc2538_armgcc\openstack\02b-MAChigh/sixtop.c ****             if (seqNum != neighbors_getSequenceNumber(&(pkt->l2_nextORpreviousHop)) && code != IANA
 3150              		.loc 1 1180 0
 3151 10dc FB6D     		ldr	r3, [r7, #92]
 3152 10de 4133     		adds	r3, r3, #65
 3153 10e0 1846     		mov	r0, r3
 3154 10e2 FFF7FEFF 		bl	neighbors_getSequenceNumber
 3155 10e6 0346     		mov	r3, r0
 3156 10e8 1A46     		mov	r2, r3
 3157 10ea 97F85030 		ldrb	r3, [r7, #80]	@ zero_extendqisi2
 3158 10ee 9342     		cmp	r3, r2
 3159 10f0 07D0     		beq	.L177
 3160              		.loc 1 1180 0 is_stmt 0 discriminator 1
 3161 10f2 7B79     		ldrb	r3, [r7, #5]	@ zero_extendqisi2
 3162 10f4 072B     		cmp	r3, #7
 3163 10f6 04D0     		beq	.L177
1181:build\openmote-cc2538_armgcc\openstack\02b-MAChigh/sixtop.c ****                 returnCode = IANA_6TOP_RC_SEQNUM_ERR;
 3164              		.loc 1 1181 0 is_stmt 1
 3165 10f8 0623     		movs	r3, #6
 3166 10fa 87F83F30 		strb	r3, [r7, #63]
1182:build\openmote-cc2538_armgcc\openstack\02b-MAChigh/sixtop.c ****                 break;
 3167              		.loc 1 1182 0
 3168 10fe 00F03DBD 		b	.L175
 3169              	.L177:
1183:build\openmote-cc2538_armgcc\openstack\02b-MAChigh/sixtop.c ****             }
1184:build\openmote-cc2538_armgcc\openstack\02b-MAChigh/sixtop.c ****             // previous 6p transcation check
1185:build\openmote-cc2538_armgcc\openstack\02b-MAChigh/sixtop.c ****             if (sixtop_vars.six2six_state != SIX_STATE_IDLE){
 3170              		.loc 1 1185 0
 3171 1102 994B     		ldr	r3, .L251
 3172 1104 9B7B     		ldrb	r3, [r3, #14]	@ zero_extendqisi2
 3173 1106 002B     		cmp	r3, #0
 3174 1108 04D0     		beq	.L178
1186:build\openmote-cc2538_armgcc\openstack\02b-MAChigh/sixtop.c ****                 returnCode = IANA_6TOP_RC_RESET;
 3175              		.loc 1 1186 0
 3176 110a 0323     		movs	r3, #3
 3177 110c 87F83F30 		strb	r3, [r7, #63]
1187:build\openmote-cc2538_armgcc\openstack\02b-MAChigh/sixtop.c ****                 break;
 3178              		.loc 1 1187 0
 3179 1110 00F034BD 		b	.L175
 3180              	.L178:
1188:build\openmote-cc2538_armgcc\openstack\02b-MAChigh/sixtop.c ****             }
1189:build\openmote-cc2538_armgcc\openstack\02b-MAChigh/sixtop.c ****             // metadata meaning check
1190:build\openmote-cc2538_armgcc\openstack\02b-MAChigh/sixtop.c ****             if (sixtop_vars.cb_sf_translateMetadata()!=METADATA_TYPE_FRAMEID){
 3181              		.loc 1 1190 0
 3182 1114 944B     		ldr	r3, .L251
 3183 1116 5B6B     		ldr	r3, [r3, #52]
 3184 1118 9847     		blx	r3
 3185              	.LVL4:
 3186 111a 0346     		mov	r3, r0
 3187 111c 002B     		cmp	r3, #0
 3188 111e 0ED0     		beq	.L179
1191:build\openmote-cc2538_armgcc\openstack\02b-MAChigh/sixtop.c ****                 openserial_printError(
1192:build\openmote-cc2538_armgcc\openstack\02b-MAChigh/sixtop.c ****                     COMPONENT_SIXTOP,
1193:build\openmote-cc2538_armgcc\openstack\02b-MAChigh/sixtop.c ****                     ERR_UNSUPPORTED_METADATA,
1194:build\openmote-cc2538_armgcc\openstack\02b-MAChigh/sixtop.c ****                     sixtop_vars.cb_sf_translateMetadata(),
 3189              		.loc 1 1194 0
 3190 1120 914B     		ldr	r3, .L251
 3191 1122 5B6B     		ldr	r3, [r3, #52]
 3192 1124 9847     		blx	r3
 3193              	.LVL5:
 3194 1126 0346     		mov	r3, r0
1191:build\openmote-cc2538_armgcc\openstack\02b-MAChigh/sixtop.c ****                 openserial_printError(
 3195              		.loc 1 1191 0
 3196 1128 9AB2     		uxth	r2, r3
 3197 112a 0023     		movs	r3, #0
 3198 112c 4221     		movs	r1, #66
 3199 112e 0C20     		movs	r0, #12
 3200 1130 FFF7FEFF 		bl	openserial_printError
1195:build\openmote-cc2538_armgcc\openstack\02b-MAChigh/sixtop.c ****                     0
1196:build\openmote-cc2538_armgcc\openstack\02b-MAChigh/sixtop.c ****                 );
1197:build\openmote-cc2538_armgcc\openstack\02b-MAChigh/sixtop.c ****                 returnCode = IANA_6TOP_RC_ERROR;
 3201              		.loc 1 1197 0
 3202 1134 0223     		movs	r3, #2
 3203 1136 87F83F30 		strb	r3, [r7, #63]
1198:build\openmote-cc2538_armgcc\openstack\02b-MAChigh/sixtop.c ****                 break;
 3204              		.loc 1 1198 0
 3205 113a 00F01FBD 		b	.L175
 3206              	.L179:
1199:build\openmote-cc2538_armgcc\openstack\02b-MAChigh/sixtop.c ****             }
1200:build\openmote-cc2538_armgcc\openstack\02b-MAChigh/sixtop.c **** 
1201:build\openmote-cc2538_armgcc\openstack\02b-MAChigh/sixtop.c ****             // commands check
1202:build\openmote-cc2538_armgcc\openstack\02b-MAChigh/sixtop.c **** 
1203:build\openmote-cc2538_armgcc\openstack\02b-MAChigh/sixtop.c ****             // get metadata, metadata indicates frame id
1204:build\openmote-cc2538_armgcc\openstack\02b-MAChigh/sixtop.c ****             metadata  = *((uint8_t*)(pkt->payload)+ptr);
 3207              		.loc 1 1204 0
 3208 113e FB6D     		ldr	r3, [r7, #92]
 3209 1140 5A68     		ldr	r2, [r3, #4]
 3210 1142 97F85430 		ldrb	r3, [r7, #84]	@ zero_extendqisi2
 3211 1146 1344     		add	r3, r3, r2
 3212 1148 1B78     		ldrb	r3, [r3]	@ zero_extendqisi2
 3213 114a BB87     		strh	r3, [r7, #60]	@ movhi
1205:build\openmote-cc2538_armgcc\openstack\02b-MAChigh/sixtop.c ****             metadata |= *((uint8_t*)(pkt->payload)+ptr+1)<<8;
 3214              		.loc 1 1205 0
 3215 114c FB6D     		ldr	r3, [r7, #92]
 3216 114e 5A68     		ldr	r2, [r3, #4]
 3217 1150 97F85430 		ldrb	r3, [r7, #84]	@ zero_extendqisi2
 3218 1154 0133     		adds	r3, r3, #1
 3219 1156 1344     		add	r3, r3, r2
 3220 1158 1B78     		ldrb	r3, [r3]	@ zero_extendqisi2
 3221 115a 1B02     		lsls	r3, r3, #8
 3222 115c 1AB2     		sxth	r2, r3
 3223 115e B7F93C30 		ldrsh	r3, [r7, #60]
 3224 1162 1343     		orrs	r3, r3, r2
 3225 1164 1BB2     		sxth	r3, r3
 3226 1166 BB87     		strh	r3, [r7, #60]	@ movhi
1206:build\openmote-cc2538_armgcc\openstack\02b-MAChigh/sixtop.c ****             ptr      += 2;
 3227              		.loc 1 1206 0
 3228 1168 97F85430 		ldrb	r3, [r7, #84]
 3229 116c 0233     		adds	r3, r3, #2
 3230 116e 87F85430 		strb	r3, [r7, #84]
1207:build\openmote-cc2538_armgcc\openstack\02b-MAChigh/sixtop.c ****             pktLen   -= 2;
 3231              		.loc 1 1207 0
 3232 1172 97F83130 		ldrb	r3, [r7, #49]
 3233 1176 023B     		subs	r3, r3, #2
 3234 1178 87F83130 		strb	r3, [r7, #49]
1208:build\openmote-cc2538_armgcc\openstack\02b-MAChigh/sixtop.c **** 
1209:build\openmote-cc2538_armgcc\openstack\02b-MAChigh/sixtop.c ****             // clear command
1210:build\openmote-cc2538_armgcc\openstack\02b-MAChigh/sixtop.c ****             if (code == IANA_6TOP_CMD_CLEAR){
 3235              		.loc 1 1210 0
 3236 117c 7B79     		ldrb	r3, [r7, #5]	@ zero_extendqisi2
 3237 117e 072B     		cmp	r3, #7
 3238 1180 04D1     		bne	.L180
1211:build\openmote-cc2538_armgcc\openstack\02b-MAChigh/sixtop.c ****                 // the cells will be removed when the repsonse sendone successfully
1212:build\openmote-cc2538_armgcc\openstack\02b-MAChigh/sixtop.c ****                 // don't clear cells here
1213:build\openmote-cc2538_armgcc\openstack\02b-MAChigh/sixtop.c ****                 returnCode = IANA_6TOP_RC_SUCCESS;
 3239              		.loc 1 1213 0
 3240 1182 0023     		movs	r3, #0
 3241 1184 87F83F30 		strb	r3, [r7, #63]
1214:build\openmote-cc2538_armgcc\openstack\02b-MAChigh/sixtop.c ****                 break;
 3242              		.loc 1 1214 0
 3243 1188 00F0F8BC 		b	.L175
 3244              	.L180:
1215:build\openmote-cc2538_armgcc\openstack\02b-MAChigh/sixtop.c ****             }
1216:build\openmote-cc2538_armgcc\openstack\02b-MAChigh/sixtop.c **** 
1217:build\openmote-cc2538_armgcc\openstack\02b-MAChigh/sixtop.c ****             cellOptions  = *((uint8_t*)(pkt->payload)+ptr);
 3245              		.loc 1 1217 0
 3246 118c FB6D     		ldr	r3, [r7, #92]
 3247 118e 5A68     		ldr	r2, [r3, #4]
 3248 1190 97F85430 		ldrb	r3, [r7, #84]	@ zero_extendqisi2
 3249 1194 1344     		add	r3, r3, r2
 3250 1196 1B78     		ldrb	r3, [r3]
 3251 1198 87F83B30 		strb	r3, [r7, #59]
1218:build\openmote-cc2538_armgcc\openstack\02b-MAChigh/sixtop.c ****             ptr         += 1;
 3252              		.loc 1 1218 0
 3253 119c 97F85430 		ldrb	r3, [r7, #84]
 3254 11a0 0133     		adds	r3, r3, #1
 3255 11a2 87F85430 		strb	r3, [r7, #84]
1219:build\openmote-cc2538_armgcc\openstack\02b-MAChigh/sixtop.c ****             pktLen      -= 1;
 3256              		.loc 1 1219 0
 3257 11a6 97F83130 		ldrb	r3, [r7, #49]
 3258 11aa 013B     		subs	r3, r3, #1
 3259 11ac 87F83130 		strb	r3, [r7, #49]
1220:build\openmote-cc2538_armgcc\openstack\02b-MAChigh/sixtop.c **** 
1221:build\openmote-cc2538_armgcc\openstack\02b-MAChigh/sixtop.c ****             // list command
1222:build\openmote-cc2538_armgcc\openstack\02b-MAChigh/sixtop.c ****             if (code == IANA_6TOP_CMD_LIST){
 3260              		.loc 1 1222 0
 3261 11b0 7B79     		ldrb	r3, [r7, #5]	@ zero_extendqisi2
 3262 11b2 052B     		cmp	r3, #5
 3263 11b4 40F0BC80 		bne	.L181
