   1              		.cpu cortex-m3
   2              		.eabi_attribute 20, 1
   3              		.eabi_attribute 21, 1
   4              		.eabi_attribute 23, 3
   5              		.eabi_attribute 24, 1
   6              		.eabi_attribute 25, 1
   7              		.eabi_attribute 26, 1
   8              		.eabi_attribute 30, 6
   9              		.eabi_attribute 34, 1
  10              		.eabi_attribute 18, 4
  11              		.file	"IEEE802154E.c"
  12              		.text
  13              	.Ltext0:
  14              		.cfi_sections	.debug_frame
  15              		.section	.rodata
  16              		.align	2
  19              	rreg_uriquery:
  20 0000 683D7563 		.ascii	"h=ucb\000"
  20      6200
  21 0006 0000     		.align	2
  24              	infoBoardname:
  25 0008 43433235 		.ascii	"CC2538\000"
  25      333800
  26 000f 00       		.align	2
  29              	infouCName:
  30 0010 43433235 		.ascii	"CC2538\000"
  30      333800
  31 0017 00       		.align	2
  34              	infoRadioName:
  35 0018 43433235 		.ascii	"CC2538 SoC\000"
  35      33382053 
  35      6F4300
  36 0023 00       		.align	2
  39              	infoStackName:
  40 0024 4F70656E 		.ascii	"OpenWSN \000"
  40      57534E20 
  40      00
  41 002d 000000   		.align	2
  44              	chTemplate_default:
  45 0030 05       		.byte	5
  46 0031 06       		.byte	6
  47 0032 0C       		.byte	12
  48 0033 07       		.byte	7
  49 0034 0F       		.byte	15
  50 0035 04       		.byte	4
  51 0036 0E       		.byte	14
  52 0037 0B       		.byte	11
  53 0038 08       		.byte	8
  54 0039 00       		.byte	0
  55 003a 01       		.byte	1
  56 003b 02       		.byte	2
  57 003c 0D       		.byte	13
  58 003d 03       		.byte	3
  59 003e 09       		.byte	9
  60 003f 0A       		.byte	10
  61              		.align	2
  64              	ebIEsBytestream:
  65 0040 1A       		.byte	26
  66 0041 88       		.byte	-120
  67 0042 06       		.byte	6
  68 0043 1A       		.byte	26
  69 0044 00       		.byte	0
  70 0045 00       		.byte	0
  71 0046 00       		.byte	0
  72 0047 00       		.byte	0
  73 0048 00       		.byte	0
  74 0049 00       		.byte	0
  75 004a 01       		.byte	1
  76 004b 1C       		.byte	28
  77 004c 00       		.byte	0
  78 004d 01       		.byte	1
  79 004e C8       		.byte	-56
  80 004f 00       		.byte	0
  81 0050 0A       		.byte	10
  82 0051 1B       		.byte	27
  83 0052 01       		.byte	1
  84 0053 00       		.byte	0
  85 0054 0D       		.byte	13
  86 0055 00       		.byte	0
  87 0056 01       		.byte	1
  88 0057 00       		.byte	0
  89 0058 00       		.byte	0
  90 0059 00       		.byte	0
  91 005a 00       		.byte	0
  92 005b 0F       		.byte	15
  93              		.align	2
  96              	linklocalprefix:
  97 005c FE       		.byte	-2
  98 005d 80       		.byte	-128
  99 005e 00       		.byte	0
 100 005f 00       		.byte	0
 101 0060 00       		.byte	0
 102 0061 00       		.byte	0
 103 0062 00       		.byte	0
 104 0063 00       		.byte	0
 105              		.align	2
 108              	all_routers_multicast:
 109 0064 FF       		.byte	-1
 110 0065 02       		.byte	2
 111 0066 00       		.byte	0
 112 0067 00       		.byte	0
 113 0068 00       		.byte	0
 114 0069 00       		.byte	0
 115 006a 00       		.byte	0
 116 006b 00       		.byte	0
 117 006c 00       		.byte	0
 118 006d 00       		.byte	0
 119 006e 00       		.byte	0
 120 006f 00       		.byte	0
 121 0070 00       		.byte	0
 122 0071 00       		.byte	0
 123 0072 00       		.byte	0
 124 0073 1A       		.byte	26
 125              		.comm	ieee154e_vars,436,4
 126              		.comm	ieee154e_stats,15,4
 127              		.comm	ieee154e_dbg,16,4
 128              		.text
 129              		.align	1
 130              		.global	ieee154e_init
 131              		.syntax unified
 132              		.thumb
 133              		.thumb_func
 134              		.fpu softvfp
 136              	ieee154e_init:
 137              	.LFB3:
 138              		.file 1 "build\\openmote-cc2538_armgcc\\openstack\\02a-MAClow\\IEEE802154E.c"
   1:build\openmote-cc2538_armgcc\openstack\02a-MAClow/IEEE802154E.c **** #include "opendefs.h"
   2:build\openmote-cc2538_armgcc\openstack\02a-MAClow/IEEE802154E.c **** #include "IEEE802154E.h"
   3:build\openmote-cc2538_armgcc\openstack\02a-MAClow/IEEE802154E.c **** #include "radio.h"
   4:build\openmote-cc2538_armgcc\openstack\02a-MAClow/IEEE802154E.c **** #include "IEEE802154.h"
   5:build\openmote-cc2538_armgcc\openstack\02a-MAClow/IEEE802154E.c **** #include "IEEE802154_security.h"
   6:build\openmote-cc2538_armgcc\openstack\02a-MAClow/IEEE802154E.c **** #include "openqueue.h"
   7:build\openmote-cc2538_armgcc\openstack\02a-MAClow/IEEE802154E.c **** #include "idmanager.h"
   8:build\openmote-cc2538_armgcc\openstack\02a-MAClow/IEEE802154E.c **** #include "openserial.h"
   9:build\openmote-cc2538_armgcc\openstack\02a-MAClow/IEEE802154E.c **** #include "schedule.h"
  10:build\openmote-cc2538_armgcc\openstack\02a-MAClow/IEEE802154E.c **** #include "packetfunctions.h"
  11:build\openmote-cc2538_armgcc\openstack\02a-MAClow/IEEE802154E.c **** #include "scheduler.h"
  12:build\openmote-cc2538_armgcc\openstack\02a-MAClow/IEEE802154E.c **** #include "leds.h"
  13:build\openmote-cc2538_armgcc\openstack\02a-MAClow/IEEE802154E.c **** #include "neighbors.h"
  14:build\openmote-cc2538_armgcc\openstack\02a-MAClow/IEEE802154E.c **** #include "debugpins.h"
  15:build\openmote-cc2538_armgcc\openstack\02a-MAClow/IEEE802154E.c **** #include "sixtop.h"
  16:build\openmote-cc2538_armgcc\openstack\02a-MAClow/IEEE802154E.c **** #include "adaptive_sync.h"
  17:build\openmote-cc2538_armgcc\openstack\02a-MAClow/IEEE802154E.c **** #include "sctimer.h"
  18:build\openmote-cc2538_armgcc\openstack\02a-MAClow/IEEE802154E.c **** #include "openrandom.h"
  19:build\openmote-cc2538_armgcc\openstack\02a-MAClow/IEEE802154E.c **** #include "msf.h"
  20:build\openmote-cc2538_armgcc\openstack\02a-MAClow/IEEE802154E.c **** 
  21:build\openmote-cc2538_armgcc\openstack\02a-MAClow/IEEE802154E.c **** //=========================== definition ======================================
  22:build\openmote-cc2538_armgcc\openstack\02a-MAClow/IEEE802154E.c **** 
  23:build\openmote-cc2538_armgcc\openstack\02a-MAClow/IEEE802154E.c **** //=========================== variables =======================================
  24:build\openmote-cc2538_armgcc\openstack\02a-MAClow/IEEE802154E.c **** 
  25:build\openmote-cc2538_armgcc\openstack\02a-MAClow/IEEE802154E.c **** ieee154e_vars_t    ieee154e_vars;
  26:build\openmote-cc2538_armgcc\openstack\02a-MAClow/IEEE802154E.c **** ieee154e_stats_t   ieee154e_stats;
  27:build\openmote-cc2538_armgcc\openstack\02a-MAClow/IEEE802154E.c **** ieee154e_dbg_t     ieee154e_dbg;
  28:build\openmote-cc2538_armgcc\openstack\02a-MAClow/IEEE802154E.c **** 
  29:build\openmote-cc2538_armgcc\openstack\02a-MAClow/IEEE802154E.c **** //=========================== prototypes ======================================
  30:build\openmote-cc2538_armgcc\openstack\02a-MAClow/IEEE802154E.c **** 
  31:build\openmote-cc2538_armgcc\openstack\02a-MAClow/IEEE802154E.c **** // SYNCHRONIZING
  32:build\openmote-cc2538_armgcc\openstack\02a-MAClow/IEEE802154E.c **** void     activity_synchronize_newSlot(void);
  33:build\openmote-cc2538_armgcc\openstack\02a-MAClow/IEEE802154E.c **** void     activity_synchronize_startOfFrame(PORT_TIMER_WIDTH capturedTime);
  34:build\openmote-cc2538_armgcc\openstack\02a-MAClow/IEEE802154E.c **** void     activity_synchronize_endOfFrame(PORT_TIMER_WIDTH capturedTime);
  35:build\openmote-cc2538_armgcc\openstack\02a-MAClow/IEEE802154E.c **** // TX
  36:build\openmote-cc2538_armgcc\openstack\02a-MAClow/IEEE802154E.c **** void     activity_ti1ORri1(void);
  37:build\openmote-cc2538_armgcc\openstack\02a-MAClow/IEEE802154E.c **** void     activity_ti2(void);
  38:build\openmote-cc2538_armgcc\openstack\02a-MAClow/IEEE802154E.c **** void     activity_tie1(void);
  39:build\openmote-cc2538_armgcc\openstack\02a-MAClow/IEEE802154E.c **** void     activity_ti3(void);
  40:build\openmote-cc2538_armgcc\openstack\02a-MAClow/IEEE802154E.c **** void     activity_tie2(void);
  41:build\openmote-cc2538_armgcc\openstack\02a-MAClow/IEEE802154E.c **** void     activity_ti4(PORT_TIMER_WIDTH capturedTime);
  42:build\openmote-cc2538_armgcc\openstack\02a-MAClow/IEEE802154E.c **** void     activity_tie3(void);
  43:build\openmote-cc2538_armgcc\openstack\02a-MAClow/IEEE802154E.c **** void     activity_ti5(PORT_TIMER_WIDTH capturedTime);
  44:build\openmote-cc2538_armgcc\openstack\02a-MAClow/IEEE802154E.c **** void     activity_ti6(void);
  45:build\openmote-cc2538_armgcc\openstack\02a-MAClow/IEEE802154E.c **** void     activity_tie4(void);
  46:build\openmote-cc2538_armgcc\openstack\02a-MAClow/IEEE802154E.c **** void     activity_ti7(void);
  47:build\openmote-cc2538_armgcc\openstack\02a-MAClow/IEEE802154E.c **** void     activity_tie5(void);
  48:build\openmote-cc2538_armgcc\openstack\02a-MAClow/IEEE802154E.c **** void     activity_ti8(PORT_TIMER_WIDTH capturedTime);
  49:build\openmote-cc2538_armgcc\openstack\02a-MAClow/IEEE802154E.c **** void     activity_tie6(void);
  50:build\openmote-cc2538_armgcc\openstack\02a-MAClow/IEEE802154E.c **** void     activity_ti9(PORT_TIMER_WIDTH capturedTime);
  51:build\openmote-cc2538_armgcc\openstack\02a-MAClow/IEEE802154E.c **** // RX
  52:build\openmote-cc2538_armgcc\openstack\02a-MAClow/IEEE802154E.c **** void     activity_ri2(void);
  53:build\openmote-cc2538_armgcc\openstack\02a-MAClow/IEEE802154E.c **** void     activity_rie1(void);
  54:build\openmote-cc2538_armgcc\openstack\02a-MAClow/IEEE802154E.c **** void     activity_ri3(void);
  55:build\openmote-cc2538_armgcc\openstack\02a-MAClow/IEEE802154E.c **** void     activity_rie2(void);
  56:build\openmote-cc2538_armgcc\openstack\02a-MAClow/IEEE802154E.c **** void     activity_ri4(PORT_TIMER_WIDTH capturedTime);
  57:build\openmote-cc2538_armgcc\openstack\02a-MAClow/IEEE802154E.c **** void     activity_rie3(void);
  58:build\openmote-cc2538_armgcc\openstack\02a-MAClow/IEEE802154E.c **** void     activity_ri5(PORT_TIMER_WIDTH capturedTime);
  59:build\openmote-cc2538_armgcc\openstack\02a-MAClow/IEEE802154E.c **** void     activity_ri6(void);
  60:build\openmote-cc2538_armgcc\openstack\02a-MAClow/IEEE802154E.c **** void     activity_rie4(void);
  61:build\openmote-cc2538_armgcc\openstack\02a-MAClow/IEEE802154E.c **** void     activity_ri7(void);
  62:build\openmote-cc2538_armgcc\openstack\02a-MAClow/IEEE802154E.c **** void     activity_rie5(void);
  63:build\openmote-cc2538_armgcc\openstack\02a-MAClow/IEEE802154E.c **** void     activity_ri8(PORT_TIMER_WIDTH capturedTime);
  64:build\openmote-cc2538_armgcc\openstack\02a-MAClow/IEEE802154E.c **** void     activity_rie6(void);
  65:build\openmote-cc2538_armgcc\openstack\02a-MAClow/IEEE802154E.c **** void     activity_ri9(PORT_TIMER_WIDTH capturedTime);
  66:build\openmote-cc2538_armgcc\openstack\02a-MAClow/IEEE802154E.c **** 
  67:build\openmote-cc2538_armgcc\openstack\02a-MAClow/IEEE802154E.c **** // frame validity check
  68:build\openmote-cc2538_armgcc\openstack\02a-MAClow/IEEE802154E.c **** bool     isValidRxFrame(ieee802154_header_iht* ieee802514_header);
  69:build\openmote-cc2538_armgcc\openstack\02a-MAClow/IEEE802154E.c **** bool     isValidAck(ieee802154_header_iht*     ieee802514_header,
  70:build\openmote-cc2538_armgcc\openstack\02a-MAClow/IEEE802154E.c ****                     OpenQueueEntry_t*          packetSent);
  71:build\openmote-cc2538_armgcc\openstack\02a-MAClow/IEEE802154E.c **** bool     isValidJoin(OpenQueueEntry_t* eb, ieee802154_header_iht *parsedHeader);
  72:build\openmote-cc2538_armgcc\openstack\02a-MAClow/IEEE802154E.c **** bool     isValidEbFormat(OpenQueueEntry_t* pkt, uint16_t* lenIE);
  73:build\openmote-cc2538_armgcc\openstack\02a-MAClow/IEEE802154E.c **** // IEs Handling
  74:build\openmote-cc2538_armgcc\openstack\02a-MAClow/IEEE802154E.c **** bool     ieee154e_processIEs(OpenQueueEntry_t* pkt, uint16_t* lenIE);
  75:build\openmote-cc2538_armgcc\openstack\02a-MAClow/IEEE802154E.c **** void     timeslotTemplateIDStoreFromEB(uint8_t id);
  76:build\openmote-cc2538_armgcc\openstack\02a-MAClow/IEEE802154E.c **** void     channelhoppingTemplateIDStoreFromEB(uint8_t id);
  77:build\openmote-cc2538_armgcc\openstack\02a-MAClow/IEEE802154E.c **** // ASN handling
  78:build\openmote-cc2538_armgcc\openstack\02a-MAClow/IEEE802154E.c **** void     incrementAsnOffset(void);
  79:build\openmote-cc2538_armgcc\openstack\02a-MAClow/IEEE802154E.c **** void     ieee154e_resetAsn(void);
  80:build\openmote-cc2538_armgcc\openstack\02a-MAClow/IEEE802154E.c **** void     ieee154e_syncSlotOffset(void);
  81:build\openmote-cc2538_armgcc\openstack\02a-MAClow/IEEE802154E.c **** void     asnStoreFromEB(uint8_t* asn);
  82:build\openmote-cc2538_armgcc\openstack\02a-MAClow/IEEE802154E.c **** void     joinPriorityStoreFromEB(uint8_t jp);
  83:build\openmote-cc2538_armgcc\openstack\02a-MAClow/IEEE802154E.c **** // synchronization
  84:build\openmote-cc2538_armgcc\openstack\02a-MAClow/IEEE802154E.c **** void     synchronizePacket(PORT_TIMER_WIDTH timeReceived);
  85:build\openmote-cc2538_armgcc\openstack\02a-MAClow/IEEE802154E.c **** void     synchronizeAck(PORT_SIGNED_INT_WIDTH timeCorrection);
  86:build\openmote-cc2538_armgcc\openstack\02a-MAClow/IEEE802154E.c **** void     changeIsSync(bool newIsSync);
  87:build\openmote-cc2538_armgcc\openstack\02a-MAClow/IEEE802154E.c **** // notifying upper layer
  88:build\openmote-cc2538_armgcc\openstack\02a-MAClow/IEEE802154E.c **** void     notif_sendDone(OpenQueueEntry_t* packetSent, owerror_t error);
  89:build\openmote-cc2538_armgcc\openstack\02a-MAClow/IEEE802154E.c **** void     notif_receive(OpenQueueEntry_t* packetReceived);
  90:build\openmote-cc2538_armgcc\openstack\02a-MAClow/IEEE802154E.c **** // statistics
  91:build\openmote-cc2538_armgcc\openstack\02a-MAClow/IEEE802154E.c **** void     resetStats(void);
  92:build\openmote-cc2538_armgcc\openstack\02a-MAClow/IEEE802154E.c **** void     updateStats(PORT_SIGNED_INT_WIDTH timeCorrection);
  93:build\openmote-cc2538_armgcc\openstack\02a-MAClow/IEEE802154E.c **** // misc
  94:build\openmote-cc2538_armgcc\openstack\02a-MAClow/IEEE802154E.c **** uint8_t  calculateFrequency(uint8_t channelOffset);
  95:build\openmote-cc2538_armgcc\openstack\02a-MAClow/IEEE802154E.c **** void     changeState(ieee154e_state_t newstate);
  96:build\openmote-cc2538_armgcc\openstack\02a-MAClow/IEEE802154E.c **** void     endSlot(void);
  97:build\openmote-cc2538_armgcc\openstack\02a-MAClow/IEEE802154E.c **** bool     debugPrint_asn(void);
  98:build\openmote-cc2538_armgcc\openstack\02a-MAClow/IEEE802154E.c **** bool     debugPrint_isSync(void);
  99:build\openmote-cc2538_armgcc\openstack\02a-MAClow/IEEE802154E.c **** // interrupts
 100:build\openmote-cc2538_armgcc\openstack\02a-MAClow/IEEE802154E.c **** void     isr_ieee154e_newSlot(opentimers_id_t id);
 101:build\openmote-cc2538_armgcc\openstack\02a-MAClow/IEEE802154E.c **** void     isr_ieee154e_timer(opentimers_id_t id);
 102:build\openmote-cc2538_armgcc\openstack\02a-MAClow/IEEE802154E.c **** void     isr_ieee154e_inhibitStart(opentimers_id_t id);
 103:build\openmote-cc2538_armgcc\openstack\02a-MAClow/IEEE802154E.c **** 
 104:build\openmote-cc2538_armgcc\openstack\02a-MAClow/IEEE802154E.c **** //=========================== admin ===========================================
 105:build\openmote-cc2538_armgcc\openstack\02a-MAClow/IEEE802154E.c **** 
 106:build\openmote-cc2538_armgcc\openstack\02a-MAClow/IEEE802154E.c **** /**
 107:build\openmote-cc2538_armgcc\openstack\02a-MAClow/IEEE802154E.c **** \brief This function initializes this module.
 108:build\openmote-cc2538_armgcc\openstack\02a-MAClow/IEEE802154E.c **** 
 109:build\openmote-cc2538_armgcc\openstack\02a-MAClow/IEEE802154E.c **** Call this function once before any other function in this module, possibly
 110:build\openmote-cc2538_armgcc\openstack\02a-MAClow/IEEE802154E.c **** during boot-up.
 111:build\openmote-cc2538_armgcc\openstack\02a-MAClow/IEEE802154E.c **** */
 112:build\openmote-cc2538_armgcc\openstack\02a-MAClow/IEEE802154E.c **** void ieee154e_init(void) {
 139              		.loc 1 112 0
 140              		.cfi_startproc
 141              		@ args = 0, pretend = 0, frame = 0
 142              		@ frame_needed = 1, uses_anonymous_args = 0
 143 0000 B0B5     		push	{r4, r5, r7, lr}
 144              		.cfi_def_cfa_offset 16
 145              		.cfi_offset 4, -16
 146              		.cfi_offset 5, -12
 147              		.cfi_offset 7, -8
 148              		.cfi_offset 14, -4
 149 0002 82B0     		sub	sp, sp, #8
 150              		.cfi_def_cfa_offset 24
 151 0004 02AF     		add	r7, sp, #8
 152              		.cfi_def_cfa 7, 16
 113:build\openmote-cc2538_armgcc\openstack\02a-MAClow/IEEE802154E.c **** 
 114:build\openmote-cc2538_armgcc\openstack\02a-MAClow/IEEE802154E.c ****     // initialize variables
 115:build\openmote-cc2538_armgcc\openstack\02a-MAClow/IEEE802154E.c ****     memset(&ieee154e_vars,0,sizeof(ieee154e_vars_t));
 153              		.loc 1 115 0
 154 0006 4FF4DA72 		mov	r2, #436
 155 000a 0021     		movs	r1, #0
 156 000c 3248     		ldr	r0, .L4
 157 000e FFF7FEFF 		bl	memset
 116:build\openmote-cc2538_armgcc\openstack\02a-MAClow/IEEE802154E.c ****     memset(&ieee154e_dbg,0,sizeof(ieee154e_dbg_t));
 158              		.loc 1 116 0
 159 0012 1022     		movs	r2, #16
 160 0014 0021     		movs	r1, #0
 161 0016 3148     		ldr	r0, .L4+4
 162 0018 FFF7FEFF 		bl	memset
 117:build\openmote-cc2538_armgcc\openstack\02a-MAClow/IEEE802154E.c **** 
 118:build\openmote-cc2538_armgcc\openstack\02a-MAClow/IEEE802154E.c ****     // set singleChannel to 0 to enable channel hopping.
 119:build\openmote-cc2538_armgcc\openstack\02a-MAClow/IEEE802154E.c ****     ieee154e_vars.singleChannel     = 15;
 163              		.loc 1 119 0
 164 001c 2E4B     		ldr	r3, .L4
 165 001e 0F22     		movs	r2, #15
 166 0020 83F88221 		strb	r2, [r3, #386]
 120:build\openmote-cc2538_armgcc\openstack\02a-MAClow/IEEE802154E.c ****     ieee154e_vars.isAckEnabled      = TRUE;
 167              		.loc 1 120 0
 168 0024 2C4B     		ldr	r3, .L4
 169 0026 0122     		movs	r2, #1
 170 0028 83F8A121 		strb	r2, [r3, #417]
 121:build\openmote-cc2538_armgcc\openstack\02a-MAClow/IEEE802154E.c ****     ieee154e_vars.isSecurityEnabled = FALSE;
 171              		.loc 1 121 0
 172 002c 2A4B     		ldr	r3, .L4
 173 002e 0022     		movs	r2, #0
 174 0030 83F8A221 		strb	r2, [r3, #418]
 122:build\openmote-cc2538_armgcc\openstack\02a-MAClow/IEEE802154E.c ****     ieee154e_vars.slotDuration      = TsSlotDuration;
 175              		.loc 1 122 0
 176 0034 284B     		ldr	r3, .L4
 177 0036 4FF4A472 		mov	r2, #328
 178 003a A3F8A621 		strh	r2, [r3, #422]	@ movhi
 123:build\openmote-cc2538_armgcc\openstack\02a-MAClow/IEEE802154E.c ****     ieee154e_vars.numOfSleepSlots   = 1;
 179              		.loc 1 123 0
 180 003e 264B     		ldr	r3, .L4
 181 0040 0122     		movs	r2, #1
 182 0042 C3F86021 		str	r2, [r3, #352]
 124:build\openmote-cc2538_armgcc\openstack\02a-MAClow/IEEE802154E.c **** 
 125:build\openmote-cc2538_armgcc\openstack\02a-MAClow/IEEE802154E.c ****     // default hopping template
 126:build\openmote-cc2538_armgcc\openstack\02a-MAClow/IEEE802154E.c ****     memcpy(
 183              		.loc 1 126 0
 184 0046 244B     		ldr	r3, .L4
 185 0048 254A     		ldr	r2, .L4+8
 186 004a 03F5C274 		add	r4, r3, #388
 187 004e 1346     		mov	r3, r2
 188 0050 0FCB     		ldm	r3, {r0, r1, r2, r3}
 189 0052 84E80F00 		stm	r4, {r0, r1, r2, r3}
 127:build\openmote-cc2538_armgcc\openstack\02a-MAClow/IEEE802154E.c ****         &(ieee154e_vars.chTemplate[0]),
 128:build\openmote-cc2538_armgcc\openstack\02a-MAClow/IEEE802154E.c ****         chTemplate_default,
 129:build\openmote-cc2538_armgcc\openstack\02a-MAClow/IEEE802154E.c ****         sizeof(ieee154e_vars.chTemplate)
 130:build\openmote-cc2538_armgcc\openstack\02a-MAClow/IEEE802154E.c ****     );
 131:build\openmote-cc2538_armgcc\openstack\02a-MAClow/IEEE802154E.c **** 
 132:build\openmote-cc2538_armgcc\openstack\02a-MAClow/IEEE802154E.c ****     if (idmanager_getIsDAGroot()==TRUE) {
 190              		.loc 1 132 0
 191 0056 FFF7FEFF 		bl	idmanager_getIsDAGroot
 192 005a 0346     		mov	r3, r0
 193 005c 002B     		cmp	r3, #0
 194 005e 03D0     		beq	.L2
 133:build\openmote-cc2538_armgcc\openstack\02a-MAClow/IEEE802154E.c ****         changeIsSync(TRUE);
 195              		.loc 1 133 0
 196 0060 0120     		movs	r0, #1
 197 0062 FFF7FEFF 		bl	changeIsSync
 198 0066 02E0     		b	.L3
 199              	.L2:
 134:build\openmote-cc2538_armgcc\openstack\02a-MAClow/IEEE802154E.c ****     } else {
 135:build\openmote-cc2538_armgcc\openstack\02a-MAClow/IEEE802154E.c ****         changeIsSync(FALSE);
 200              		.loc 1 135 0
 201 0068 0020     		movs	r0, #0
 202 006a FFF7FEFF 		bl	changeIsSync
 203              	.L3:
 136:build\openmote-cc2538_armgcc\openstack\02a-MAClow/IEEE802154E.c ****     }
 137:build\openmote-cc2538_armgcc\openstack\02a-MAClow/IEEE802154E.c **** 
 138:build\openmote-cc2538_armgcc\openstack\02a-MAClow/IEEE802154E.c ****     resetStats();
 204              		.loc 1 138 0
 205 006e FFF7FEFF 		bl	resetStats
 139:build\openmote-cc2538_armgcc\openstack\02a-MAClow/IEEE802154E.c ****     ieee154e_stats.numDeSync                 = 0;
 206              		.loc 1 139 0
 207 0072 1C4B     		ldr	r3, .L4+12
 208 0074 0022     		movs	r2, #0
 209 0076 9A71     		strb	r2, [r3, #6]
 140:build\openmote-cc2538_armgcc\openstack\02a-MAClow/IEEE802154E.c **** 
 141:build\openmote-cc2538_armgcc\openstack\02a-MAClow/IEEE802154E.c ****     // switch radio on
 142:build\openmote-cc2538_armgcc\openstack\02a-MAClow/IEEE802154E.c ****     radio_rfOn();
 210              		.loc 1 142 0
 211 0078 FFF7FEFF 		bl	radio_rfOn
 143:build\openmote-cc2538_armgcc\openstack\02a-MAClow/IEEE802154E.c **** 
 144:build\openmote-cc2538_armgcc\openstack\02a-MAClow/IEEE802154E.c ****     // set callback functions for the radio
 145:build\openmote-cc2538_armgcc\openstack\02a-MAClow/IEEE802154E.c ****     //radiotimer_setOverflowCb(isr_ieee154e_newSlot);
 146:build\openmote-cc2538_armgcc\openstack\02a-MAClow/IEEE802154E.c ****     //radiotimer_setCompareCb(isr_ieee154e_timer);
 147:build\openmote-cc2538_armgcc\openstack\02a-MAClow/IEEE802154E.c **** #ifdef SLOT_FSM_IMPLEMENTATION_MULTIPLE_TIMER_INTERRUPT
 148:build\openmote-cc2538_armgcc\openstack\02a-MAClow/IEEE802154E.c ****     sctimer_set_actionCallback(isr_ieee154e_timer);
 149:build\openmote-cc2538_armgcc\openstack\02a-MAClow/IEEE802154E.c **** #endif
 150:build\openmote-cc2538_armgcc\openstack\02a-MAClow/IEEE802154E.c ****     radio_setStartFrameCb(ieee154e_startOfFrame);
 212              		.loc 1 150 0
 213 007c 1A48     		ldr	r0, .L4+16
 214 007e FFF7FEFF 		bl	radio_setStartFrameCb
 151:build\openmote-cc2538_armgcc\openstack\02a-MAClow/IEEE802154E.c ****     radio_setEndFrameCb(ieee154e_endOfFrame);
 215              		.loc 1 151 0
 216 0082 1A48     		ldr	r0, .L4+20
 217 0084 FFF7FEFF 		bl	radio_setEndFrameCb
 152:build\openmote-cc2538_armgcc\openstack\02a-MAClow/IEEE802154E.c ****     // have the radio start its timer and assign ieee802154e timer with highest priority
 153:build\openmote-cc2538_armgcc\openstack\02a-MAClow/IEEE802154E.c ****     ieee154e_vars.timerId = opentimers_create(TIMER_TSCH, TASKPRIO_NONE);
 218              		.loc 1 153 0
 219 0088 0021     		movs	r1, #0
 220 008a 0120     		movs	r0, #1
 221 008c FFF7FEFF 		bl	opentimers_create
 222 0090 0346     		mov	r3, r0
 223 0092 1A46     		mov	r2, r3
 224 0094 104B     		ldr	r3, .L4
 225 0096 83F8A821 		strb	r2, [r3, #424]
 154:build\openmote-cc2538_armgcc\openstack\02a-MAClow/IEEE802154E.c ****     opentimers_scheduleAbsolute(
 226              		.loc 1 154 0
 227 009a 0F4B     		ldr	r3, .L4
 228 009c 93F8A841 		ldrb	r4, [r3, #424]	@ zero_extendqisi2
 155:build\openmote-cc2538_armgcc\openstack\02a-MAClow/IEEE802154E.c ****         ieee154e_vars.timerId,          // timerId
 156:build\openmote-cc2538_armgcc\openstack\02a-MAClow/IEEE802154E.c ****         ieee154e_vars.slotDuration,     // duration
 229              		.loc 1 156 0
 230 00a0 0D4B     		ldr	r3, .L4
 231 00a2 B3F8A631 		ldrh	r3, [r3, #422]
 154:build\openmote-cc2538_armgcc\openstack\02a-MAClow/IEEE802154E.c ****     opentimers_scheduleAbsolute(
 232              		.loc 1 154 0
 233 00a6 1D46     		mov	r5, r3
 234 00a8 FFF7FEFF 		bl	sctimer_readCounter
 235 00ac 0246     		mov	r2, r0
 236 00ae 104B     		ldr	r3, .L4+24
 237 00b0 0093     		str	r3, [sp]
 238 00b2 0123     		movs	r3, #1
 239 00b4 2946     		mov	r1, r5
 240 00b6 2046     		mov	r0, r4
 241 00b8 FFF7FEFF 		bl	opentimers_scheduleAbsolute
 157:build\openmote-cc2538_armgcc\openstack\02a-MAClow/IEEE802154E.c ****         sctimer_readCounter(),          // reference
 158:build\openmote-cc2538_armgcc\openstack\02a-MAClow/IEEE802154E.c ****         TIME_TICS,                      // timetype
 159:build\openmote-cc2538_armgcc\openstack\02a-MAClow/IEEE802154E.c ****         isr_ieee154e_newSlot            // callback
 160:build\openmote-cc2538_armgcc\openstack\02a-MAClow/IEEE802154E.c ****     );
 161:build\openmote-cc2538_armgcc\openstack\02a-MAClow/IEEE802154E.c ****     // radiotimer_start(ieee154e_vars.slotDuration);
 162:build\openmote-cc2538_armgcc\openstack\02a-MAClow/IEEE802154E.c ****     IEEE802154_security_init();
 242              		.loc 1 162 0
 243 00bc FFF7FEFF 		bl	IEEE802154_security_init
 163:build\openmote-cc2538_armgcc\openstack\02a-MAClow/IEEE802154E.c ****     ieee154e_vars.serialInhibitTimerId = opentimers_create(TIMER_INHIBIT, TASKPRIO_NONE);
 244              		.loc 1 163 0
 245 00c0 0021     		movs	r1, #0
 246 00c2 0020     		movs	r0, #0
 247 00c4 FFF7FEFF 		bl	opentimers_create
 248 00c8 0346     		mov	r3, r0
 249 00ca 1A46     		mov	r2, r3
 250 00cc 024B     		ldr	r3, .L4
 251 00ce 83F8B021 		strb	r2, [r3, #432]
 164:build\openmote-cc2538_armgcc\openstack\02a-MAClow/IEEE802154E.c **** }
 252              		.loc 1 164 0
 253 00d2 00BF     		nop
 254 00d4 BD46     		mov	sp, r7
 255              		.cfi_def_cfa_register 13
 256              		@ sp needed
 257 00d6 B0BD     		pop	{r4, r5, r7, pc}
 258              	.L5:
 259              		.align	2
 260              	.L4:
 261 00d8 00000000 		.word	ieee154e_vars
 262 00dc 00000000 		.word	ieee154e_dbg
 263 00e0 30000000 		.word	chTemplate_default
 264 00e4 00000000 		.word	ieee154e_stats
 265 00e8 00000000 		.word	ieee154e_startOfFrame
 266 00ec 00000000 		.word	ieee154e_endOfFrame
 267 00f0 00000000 		.word	isr_ieee154e_newSlot
 268              		.cfi_endproc
 269              	.LFE3:
 271              		.align	1
 272              		.global	ieee154e_asnDiff
 273              		.syntax unified
 274              		.thumb
 275              		.thumb_func
 276              		.fpu softvfp
 278              	ieee154e_asnDiff:
 279              	.LFB4:
 165:build\openmote-cc2538_armgcc\openstack\02a-MAClow/IEEE802154E.c **** 
 166:build\openmote-cc2538_armgcc\openstack\02a-MAClow/IEEE802154E.c **** //=========================== public ==========================================
 167:build\openmote-cc2538_armgcc\openstack\02a-MAClow/IEEE802154E.c **** 
 168:build\openmote-cc2538_armgcc\openstack\02a-MAClow/IEEE802154E.c **** /**
 169:build\openmote-cc2538_armgcc\openstack\02a-MAClow/IEEE802154E.c **** /brief Difference between some older ASN and the current ASN.
 170:build\openmote-cc2538_armgcc\openstack\02a-MAClow/IEEE802154E.c **** 
 171:build\openmote-cc2538_armgcc\openstack\02a-MAClow/IEEE802154E.c **** \param[in] someASN some ASN to compare to the current
 172:build\openmote-cc2538_armgcc\openstack\02a-MAClow/IEEE802154E.c **** 
 173:build\openmote-cc2538_armgcc\openstack\02a-MAClow/IEEE802154E.c **** \returns The ASN difference, or 0xffff if more than 65535 different
 174:build\openmote-cc2538_armgcc\openstack\02a-MAClow/IEEE802154E.c **** */
 175:build\openmote-cc2538_armgcc\openstack\02a-MAClow/IEEE802154E.c **** PORT_TIMER_WIDTH ieee154e_asnDiff(asn_t* someASN) {
 280              		.loc 1 175 0
 281              		.cfi_startproc
 282              		@ args = 0, pretend = 0, frame = 16
 283              		@ frame_needed = 1, uses_anonymous_args = 0
 284 00f4 80B5     		push	{r7, lr}
 285              		.cfi_def_cfa_offset 8
 286              		.cfi_offset 7, -8
 287              		.cfi_offset 14, -4
 288 00f6 84B0     		sub	sp, sp, #16
 289              		.cfi_def_cfa_offset 24
 290 00f8 00AF     		add	r7, sp, #0
 291              		.cfi_def_cfa_register 7
 292 00fa 7860     		str	r0, [r7, #4]
 176:build\openmote-cc2538_armgcc\openstack\02a-MAClow/IEEE802154E.c ****     PORT_TIMER_WIDTH diff;
 177:build\openmote-cc2538_armgcc\openstack\02a-MAClow/IEEE802154E.c ****     INTERRUPT_DECLARATION();
 178:build\openmote-cc2538_armgcc\openstack\02a-MAClow/IEEE802154E.c ****     DISABLE_INTERRUPTS();
 293              		.loc 1 178 0
 294 00fc FFF7FEFF 		bl	IntMasterDisable
 179:build\openmote-cc2538_armgcc\openstack\02a-MAClow/IEEE802154E.c ****     if (ieee154e_vars.asn.byte4 != someASN->byte4) {
 295              		.loc 1 179 0
 296 0100 264B     		ldr	r3, .L12
 297 0102 1A78     		ldrb	r2, [r3]	@ zero_extendqisi2
 298 0104 7B68     		ldr	r3, [r7, #4]
 299 0106 1B78     		ldrb	r3, [r3]	@ zero_extendqisi2
 300 0108 9A42     		cmp	r2, r3
 301 010a 04D0     		beq	.L7
 180:build\openmote-cc2538_armgcc\openstack\02a-MAClow/IEEE802154E.c ****         ENABLE_INTERRUPTS();
 302              		.loc 1 180 0
 303 010c FFF7FEFF 		bl	IntMasterEnable
 181:build\openmote-cc2538_armgcc\openstack\02a-MAClow/IEEE802154E.c ****         return (PORT_TIMER_WIDTH)0xFFFFFFFF;;
 304              		.loc 1 181 0
 305 0110 4FF0FF33 		mov	r3, #-1
 306 0114 3EE0     		b	.L8
 307              	.L7:
 182:build\openmote-cc2538_armgcc\openstack\02a-MAClow/IEEE802154E.c ****     }
 183:build\openmote-cc2538_armgcc\openstack\02a-MAClow/IEEE802154E.c **** 
 184:build\openmote-cc2538_armgcc\openstack\02a-MAClow/IEEE802154E.c ****     diff = 0;
 308              		.loc 1 184 0
 309 0116 0023     		movs	r3, #0
 310 0118 FB60     		str	r3, [r7, #12]
 185:build\openmote-cc2538_armgcc\openstack\02a-MAClow/IEEE802154E.c ****     if (ieee154e_vars.asn.bytes2and3 == someASN->bytes2and3) {
 311              		.loc 1 185 0
 312 011a 204B     		ldr	r3, .L12
 313 011c B3F80130 		ldrh	r3, [r3, #1]	@ unaligned
 314 0120 9AB2     		uxth	r2, r3
 315 0122 7B68     		ldr	r3, [r7, #4]
 316 0124 B3F80130 		ldrh	r3, [r3, #1]	@ unaligned
 317 0128 9BB2     		uxth	r3, r3
 318 012a 9A42     		cmp	r2, r3
 319 012c 0CD1     		bne	.L9
 186:build\openmote-cc2538_armgcc\openstack\02a-MAClow/IEEE802154E.c ****         ENABLE_INTERRUPTS();
 320              		.loc 1 186 0
 321 012e FFF7FEFF 		bl	IntMasterEnable
 187:build\openmote-cc2538_armgcc\openstack\02a-MAClow/IEEE802154E.c ****         return ieee154e_vars.asn.bytes0and1-someASN->bytes0and1;
 322              		.loc 1 187 0
 323 0132 1A4B     		ldr	r3, .L12
 324 0134 B3F80330 		ldrh	r3, [r3, #3]	@ unaligned
 325 0138 9BB2     		uxth	r3, r3
 326 013a 1A46     		mov	r2, r3
 327 013c 7B68     		ldr	r3, [r7, #4]
 328 013e B3F80330 		ldrh	r3, [r3, #3]	@ unaligned
 329 0142 9BB2     		uxth	r3, r3
 330 0144 D31A     		subs	r3, r2, r3
 331 0146 25E0     		b	.L8
 332              	.L9:
 188:build\openmote-cc2538_armgcc\openstack\02a-MAClow/IEEE802154E.c ****     } else if (ieee154e_vars.asn.bytes2and3-someASN->bytes2and3==1) {
 333              		.loc 1 188 0
 334 0148 144B     		ldr	r3, .L12
 335 014a B3F80130 		ldrh	r3, [r3, #1]	@ unaligned
 336 014e 9BB2     		uxth	r3, r3
 337 0150 1A46     		mov	r2, r3
 338 0152 7B68     		ldr	r3, [r7, #4]
 339 0154 B3F80130 		ldrh	r3, [r3, #1]	@ unaligned
 340 0158 9BB2     		uxth	r3, r3
 341 015a D31A     		subs	r3, r2, r3
 342 015c 012B     		cmp	r3, #1
 343 015e 13D1     		bne	.L10
 189:build\openmote-cc2538_armgcc\openstack\02a-MAClow/IEEE802154E.c ****         diff  = ieee154e_vars.asn.bytes0and1;
 344              		.loc 1 189 0
 345 0160 0E4B     		ldr	r3, .L12
 346 0162 B3F80330 		ldrh	r3, [r3, #3]	@ unaligned
 347 0166 9BB2     		uxth	r3, r3
 348 0168 FB60     		str	r3, [r7, #12]
 190:build\openmote-cc2538_armgcc\openstack\02a-MAClow/IEEE802154E.c ****         diff += 0xffff-someASN->bytes0and1;
 349              		.loc 1 190 0
 350 016a 7B68     		ldr	r3, [r7, #4]
 351 016c B3F80330 		ldrh	r3, [r3, #3]	@ unaligned
 352 0170 9BB2     		uxth	r3, r3
 353 0172 1A46     		mov	r2, r3
 354 0174 FB68     		ldr	r3, [r7, #12]
 355 0176 9B1A     		subs	r3, r3, r2
 356 0178 03F57F43 		add	r3, r3, #65280
 357 017c FF33     		adds	r3, r3, #255
 358 017e FB60     		str	r3, [r7, #12]
 191:build\openmote-cc2538_armgcc\openstack\02a-MAClow/IEEE802154E.c ****         diff += 1;
 359              		.loc 1 191 0
 360 0180 FB68     		ldr	r3, [r7, #12]
 361 0182 0133     		adds	r3, r3, #1
 362 0184 FB60     		str	r3, [r7, #12]
 363 0186 02E0     		b	.L11
 364              	.L10:
 192:build\openmote-cc2538_armgcc\openstack\02a-MAClow/IEEE802154E.c ****     } else {
 193:build\openmote-cc2538_armgcc\openstack\02a-MAClow/IEEE802154E.c ****         diff = (PORT_TIMER_WIDTH)0xFFFFFFFF;;
 365              		.loc 1 193 0
 366 0188 4FF0FF33 		mov	r3, #-1
 367 018c FB60     		str	r3, [r7, #12]
 368              	.L11:
 194:build\openmote-cc2538_armgcc\openstack\02a-MAClow/IEEE802154E.c ****     }
 195:build\openmote-cc2538_armgcc\openstack\02a-MAClow/IEEE802154E.c ****     ENABLE_INTERRUPTS();
 369              		.loc 1 195 0
 370 018e FFF7FEFF 		bl	IntMasterEnable
 196:build\openmote-cc2538_armgcc\openstack\02a-MAClow/IEEE802154E.c ****     return diff;
 371              		.loc 1 196 0
 372 0192 FB68     		ldr	r3, [r7, #12]
 373              	.L8:
 197:build\openmote-cc2538_armgcc\openstack\02a-MAClow/IEEE802154E.c **** }
 374              		.loc 1 197 0
 375 0194 1846     		mov	r0, r3
 376 0196 1037     		adds	r7, r7, #16
 377              		.cfi_def_cfa_offset 8
 378 0198 BD46     		mov	sp, r7
 379              		.cfi_def_cfa_register 13
 380              		@ sp needed
 381 019a 80BD     		pop	{r7, pc}
 382              	.L13:
 383              		.align	2
 384              	.L12:
 385 019c 00000000 		.word	ieee154e_vars
 386              		.cfi_endproc
 387              	.LFE4:
 389              		.align	1
 390              		.global	ieee154e_computeAsnDiff
 391              		.syntax unified
 392              		.thumb
 393              		.thumb_func
 394              		.fpu softvfp
 396              	ieee154e_computeAsnDiff:
 397              	.LFB5:
 198:build\openmote-cc2538_armgcc\openstack\02a-MAClow/IEEE802154E.c **** 
 199:build\openmote-cc2538_armgcc\openstack\02a-MAClow/IEEE802154E.c **** #ifdef DEADLINE_OPTION_ENABLED
 200:build\openmote-cc2538_armgcc\openstack\02a-MAClow/IEEE802154E.c **** /**
 201:build\openmote-cc2538_armgcc\openstack\02a-MAClow/IEEE802154E.c **** /brief Difference between two ASN values
 202:build\openmote-cc2538_armgcc\openstack\02a-MAClow/IEEE802154E.c **** 
 203:build\openmote-cc2538_armgcc\openstack\02a-MAClow/IEEE802154E.c **** \param[in] h_asn bigger ASN value
 204:build\openmote-cc2538_armgcc\openstack\02a-MAClow/IEEE802154E.c **** \param[in] l_asn smaller ASN value
 205:build\openmote-cc2538_armgcc\openstack\02a-MAClow/IEEE802154E.c **** 
 206:build\openmote-cc2538_armgcc\openstack\02a-MAClow/IEEE802154E.c **** \returns The ASN difference, or 0xffff if more than 65535 different
 207:build\openmote-cc2538_armgcc\openstack\02a-MAClow/IEEE802154E.c **** */
 208:build\openmote-cc2538_armgcc\openstack\02a-MAClow/IEEE802154E.c **** int16_t ieee154e_computeAsnDiff(asn_t* h_asn, asn_t* l_asn) {
 398              		.loc 1 208 0
 399              		.cfi_startproc
 400              		@ args = 0, pretend = 0, frame = 16
 401              		@ frame_needed = 1, uses_anonymous_args = 0
 402              		@ link register save eliminated.
 403 01a0 80B4     		push	{r7}
 404              		.cfi_def_cfa_offset 4
 405              		.cfi_offset 7, -4
 406 01a2 85B0     		sub	sp, sp, #20
 407              		.cfi_def_cfa_offset 24
 408 01a4 00AF     		add	r7, sp, #0
 409              		.cfi_def_cfa_register 7
 410 01a6 7860     		str	r0, [r7, #4]
 411 01a8 3960     		str	r1, [r7]
 209:build\openmote-cc2538_armgcc\openstack\02a-MAClow/IEEE802154E.c ****     int16_t diff;
 210:build\openmote-cc2538_armgcc\openstack\02a-MAClow/IEEE802154E.c **** 
 211:build\openmote-cc2538_armgcc\openstack\02a-MAClow/IEEE802154E.c ****     if (h_asn->byte4 != l_asn->byte4) {
 412              		.loc 1 211 0
 413 01aa 7B68     		ldr	r3, [r7, #4]
 414 01ac 1A78     		ldrb	r2, [r3]	@ zero_extendqisi2
 415 01ae 3B68     		ldr	r3, [r7]
 416 01b0 1B78     		ldrb	r3, [r3]	@ zero_extendqisi2
 417 01b2 9A42     		cmp	r2, r3
 418 01b4 02D0     		beq	.L15
 212:build\openmote-cc2538_armgcc\openstack\02a-MAClow/IEEE802154E.c ****         return (int16_t)0xFFFFFFFF;
 419              		.loc 1 212 0
 420 01b6 4FF0FF33 		mov	r3, #-1
 421 01ba 3CE0     		b	.L16
 422              	.L15:
 213:build\openmote-cc2538_armgcc\openstack\02a-MAClow/IEEE802154E.c ****     }
 214:build\openmote-cc2538_armgcc\openstack\02a-MAClow/IEEE802154E.c **** 
 215:build\openmote-cc2538_armgcc\openstack\02a-MAClow/IEEE802154E.c ****     diff = 0;
 423              		.loc 1 215 0
 424 01bc 0023     		movs	r3, #0
 425 01be FB81     		strh	r3, [r7, #14]	@ movhi
 216:build\openmote-cc2538_armgcc\openstack\02a-MAClow/IEEE802154E.c ****     if (h_asn->bytes2and3 == l_asn->bytes2and3) {
 426              		.loc 1 216 0
 427 01c0 7B68     		ldr	r3, [r7, #4]
 428 01c2 B3F80130 		ldrh	r3, [r3, #1]	@ unaligned
 429 01c6 9AB2     		uxth	r2, r3
 430 01c8 3B68     		ldr	r3, [r7]
 431 01ca B3F80130 		ldrh	r3, [r3, #1]	@ unaligned
 432 01ce 9BB2     		uxth	r3, r3
 433 01d0 9A42     		cmp	r2, r3
 434 01d2 0BD1     		bne	.L17
 217:build\openmote-cc2538_armgcc\openstack\02a-MAClow/IEEE802154E.c ****         return h_asn->bytes0and1-l_asn->bytes0and1;
 435              		.loc 1 217 0
 436 01d4 7B68     		ldr	r3, [r7, #4]
 437 01d6 B3F80330 		ldrh	r3, [r3, #3]	@ unaligned
 438 01da 9AB2     		uxth	r2, r3
 439 01dc 3B68     		ldr	r3, [r7]
 440 01de B3F80330 		ldrh	r3, [r3, #3]	@ unaligned
 441 01e2 9BB2     		uxth	r3, r3
 442 01e4 D31A     		subs	r3, r2, r3
 443 01e6 9BB2     		uxth	r3, r3
 444 01e8 1BB2     		sxth	r3, r3
 445 01ea 24E0     		b	.L16
 446              	.L17:
 218:build\openmote-cc2538_armgcc\openstack\02a-MAClow/IEEE802154E.c ****     } else if (h_asn->bytes2and3-l_asn->bytes2and3==1) {
 447              		.loc 1 218 0
 448 01ec 7B68     		ldr	r3, [r7, #4]
 449 01ee B3F80130 		ldrh	r3, [r3, #1]	@ unaligned
 450 01f2 9BB2     		uxth	r3, r3
 451 01f4 1A46     		mov	r2, r3
 452 01f6 3B68     		ldr	r3, [r7]
 453 01f8 B3F80130 		ldrh	r3, [r3, #1]	@ unaligned
 454 01fc 9BB2     		uxth	r3, r3
 455 01fe D31A     		subs	r3, r2, r3
 456 0200 012B     		cmp	r3, #1
 457 0202 13D1     		bne	.L18
 219:build\openmote-cc2538_armgcc\openstack\02a-MAClow/IEEE802154E.c ****         diff  = h_asn->bytes0and1;
 458              		.loc 1 219 0
 459 0204 7B68     		ldr	r3, [r7, #4]
 460 0206 B3F80330 		ldrh	r3, [r3, #3]	@ unaligned
 461 020a 9BB2     		uxth	r3, r3
 462 020c FB81     		strh	r3, [r7, #14]	@ movhi
 220:build\openmote-cc2538_armgcc\openstack\02a-MAClow/IEEE802154E.c ****         diff += 0xffff-l_asn->bytes0and1;
 463              		.loc 1 220 0
 464 020e FA89     		ldrh	r2, [r7, #14]
 465 0210 3B68     		ldr	r3, [r7]
 466 0212 B3F80330 		ldrh	r3, [r3, #3]	@ unaligned
 467 0216 9BB2     		uxth	r3, r3
 468 0218 D31A     		subs	r3, r2, r3
 469 021a 9BB2     		uxth	r3, r3
 470 021c 013B     		subs	r3, r3, #1
 471 021e 9BB2     		uxth	r3, r3
 472 0220 FB81     		strh	r3, [r7, #14]	@ movhi
 221:build\openmote-cc2538_armgcc\openstack\02a-MAClow/IEEE802154E.c ****         diff += 1;
 473              		.loc 1 221 0
 474 0222 FB89     		ldrh	r3, [r7, #14]
 475 0224 0133     		adds	r3, r3, #1
 476 0226 9BB2     		uxth	r3, r3
 477 0228 FB81     		strh	r3, [r7, #14]	@ movhi
 478 022a 02E0     		b	.L19
 479              	.L18:
 222:build\openmote-cc2538_armgcc\openstack\02a-MAClow/IEEE802154E.c ****     } else {
 223:build\openmote-cc2538_armgcc\openstack\02a-MAClow/IEEE802154E.c ****         diff = (int16_t)0xFFFFFFFF;
 480              		.loc 1 223 0
 481 022c 4FF6FF73 		movw	r3, #65535
 482 0230 FB81     		strh	r3, [r7, #14]	@ movhi
 483              	.L19:
 224:build\openmote-cc2538_armgcc\openstack\02a-MAClow/IEEE802154E.c ****     }
 225:build\openmote-cc2538_armgcc\openstack\02a-MAClow/IEEE802154E.c ****     return diff;
 484              		.loc 1 225 0
 485 0232 B7F90E30 		ldrsh	r3, [r7, #14]
 486              	.L16:
 226:build\openmote-cc2538_armgcc\openstack\02a-MAClow/IEEE802154E.c **** }
 487              		.loc 1 226 0
 488 0236 1846     		mov	r0, r3
 489 0238 1437     		adds	r7, r7, #20
 490              		.cfi_def_cfa_offset 4
 491 023a BD46     		mov	sp, r7
 492              		.cfi_def_cfa_register 13
 493              		@ sp needed
 494 023c 80BC     		pop	{r7}
 495              		.cfi_restore 7
 496              		.cfi_def_cfa_offset 0
 497 023e 7047     		bx	lr
 498              		.cfi_endproc
 499              	.LFE5:
 501              		.align	1
 502              		.global	ieee154e_calculateExpTime
 503              		.syntax unified
 504              		.thumb
 505              		.thumb_func
 506              		.fpu softvfp
 508              	ieee154e_calculateExpTime:
 509              	.LFB6:
 227:build\openmote-cc2538_armgcc\openstack\02a-MAClow/IEEE802154E.c **** 
 228:build\openmote-cc2538_armgcc\openstack\02a-MAClow/IEEE802154E.c **** /**
 229:build\openmote-cc2538_armgcc\openstack\02a-MAClow/IEEE802154E.c **** /brief Determine Expiration Time in ASN
 230:build\openmote-cc2538_armgcc\openstack\02a-MAClow/IEEE802154E.c **** 
 231:build\openmote-cc2538_armgcc\openstack\02a-MAClow/IEEE802154E.c **** \param[in]  max_delay Maximum permissible delay before which
 232:build\openmote-cc2538_armgcc\openstack\02a-MAClow/IEEE802154E.c ****             packet is expected to reach destination
 233:build\openmote-cc2538_armgcc\openstack\02a-MAClow/IEEE802154E.c **** 
 234:build\openmote-cc2538_armgcc\openstack\02a-MAClow/IEEE802154E.c **** \param[out] et_asn bigger ASN value
 235:build\openmote-cc2538_armgcc\openstack\02a-MAClow/IEEE802154E.c **** */
 236:build\openmote-cc2538_armgcc\openstack\02a-MAClow/IEEE802154E.c **** void ieee154e_calculateExpTime(uint16_t max_delay, uint8_t* et_asn) {
 510              		.loc 1 236 0
 511              		.cfi_startproc
 512              		@ args = 0, pretend = 0, frame = 24
 513              		@ frame_needed = 1, uses_anonymous_args = 0
 514 0240 80B5     		push	{r7, lr}
 515              		.cfi_def_cfa_offset 8
 516              		.cfi_offset 7, -8
 517              		.cfi_offset 14, -4
 518 0242 86B0     		sub	sp, sp, #24
 519              		.cfi_def_cfa_offset 32
 520 0244 00AF     		add	r7, sp, #0
 521              		.cfi_def_cfa_register 7
 522 0246 0346     		mov	r3, r0
 523 0248 3960     		str	r1, [r7]
 524 024a FB80     		strh	r3, [r7, #6]	@ movhi
 237:build\openmote-cc2538_armgcc\openstack\02a-MAClow/IEEE802154E.c ****     uint8_t delay_array[5];
 238:build\openmote-cc2538_armgcc\openstack\02a-MAClow/IEEE802154E.c ****     uint8_t i =0, carry = 0,slot_time = 0;
 525              		.loc 1 238 0
 526 024c 0023     		movs	r3, #0
 527 024e FB75     		strb	r3, [r7, #23]
 528 0250 0023     		movs	r3, #0
 529 0252 BB75     		strb	r3, [r7, #22]
 530 0254 0023     		movs	r3, #0
 531 0256 7B75     		strb	r3, [r7, #21]
 239:build\openmote-cc2538_armgcc\openstack\02a-MAClow/IEEE802154E.c ****     uint16_t sum = 0, delay_in_asn =0;
 532              		.loc 1 239 0
 533 0258 0023     		movs	r3, #0
 534 025a 7B82     		strh	r3, [r7, #18]	@ movhi
 535 025c 0023     		movs	r3, #0
 536 025e 3B82     		strh	r3, [r7, #16]	@ movhi
 240:build\openmote-cc2538_armgcc\openstack\02a-MAClow/IEEE802154E.c **** 
 241:build\openmote-cc2538_armgcc\openstack\02a-MAClow/IEEE802154E.c ****     memset(&delay_array[0],0,5);
 537              		.loc 1 241 0
 538 0260 07F10803 		add	r3, r7, #8
 539 0264 0522     		movs	r2, #5
 540 0266 0021     		movs	r1, #0
 541 0268 1846     		mov	r0, r3
 542 026a FFF7FEFF 		bl	memset
 242:build\openmote-cc2538_armgcc\openstack\02a-MAClow/IEEE802154E.c **** 
 243:build\openmote-cc2538_armgcc\openstack\02a-MAClow/IEEE802154E.c ****     //Slot time = (Duration in ticks * Time equivalent ticks w.r.t 32kHz) in ms
 244:build\openmote-cc2538_armgcc\openstack\02a-MAClow/IEEE802154E.c ****     slot_time = (ieee154e_getSlotDuration()*305)/10000;
 543              		.loc 1 244 0
 544 026e FFF7FEFF 		bl	ieee154e_getSlotDuration
 545 0272 0346     		mov	r3, r0
 546 0274 1A46     		mov	r2, r3
 547 0276 40F23113 		movw	r3, #305
 548 027a 03FB02F3 		mul	r3, r3, r2
 549 027e 204A     		ldr	r2, .L23
 550 0280 82FB0312 		smull	r1, r2, r2, r3
 551 0284 1213     		asrs	r2, r2, #12
 552 0286 DB17     		asrs	r3, r3, #31
 553 0288 D31A     		subs	r3, r2, r3
 554 028a 7B75     		strb	r3, [r7, #21]
 245:build\openmote-cc2538_armgcc\openstack\02a-MAClow/IEEE802154E.c ****     delay_in_asn = max_delay / slot_time;
 555              		.loc 1 245 0
 556 028c FA88     		ldrh	r2, [r7, #6]
 557 028e 7B7D     		ldrb	r3, [r7, #21]	@ zero_extendqisi2
 558 0290 92FBF3F3 		sdiv	r3, r2, r3
 559 0294 3B82     		strh	r3, [r7, #16]	@ movhi
 246:build\openmote-cc2538_armgcc\openstack\02a-MAClow/IEEE802154E.c **** 
 247:build\openmote-cc2538_armgcc\openstack\02a-MAClow/IEEE802154E.c ****     delay_array[0]         = (delay_in_asn     & 0xff);
 560              		.loc 1 247 0
 561 0296 3B8A     		ldrh	r3, [r7, #16]	@ movhi
 562 0298 DBB2     		uxtb	r3, r3
 563 029a 3B72     		strb	r3, [r7, #8]
 248:build\openmote-cc2538_armgcc\openstack\02a-MAClow/IEEE802154E.c ****     delay_array[1]         = (delay_in_asn/256 & 0xff);
 564              		.loc 1 248 0
 565 029c 3B8A     		ldrh	r3, [r7, #16]
 566 029e 1B0A     		lsrs	r3, r3, #8
 567 02a0 9BB2     		uxth	r3, r3
 568 02a2 DBB2     		uxtb	r3, r3
 569 02a4 7B72     		strb	r3, [r7, #9]
 249:build\openmote-cc2538_armgcc\openstack\02a-MAClow/IEEE802154E.c **** 
 250:build\openmote-cc2538_armgcc\openstack\02a-MAClow/IEEE802154E.c ****     ieee154e_getAsn(&et_asn[0]);
 570              		.loc 1 250 0
 571 02a6 3868     		ldr	r0, [r7]
 572 02a8 FFF7FEFF 		bl	ieee154e_getAsn
 251:build\openmote-cc2538_armgcc\openstack\02a-MAClow/IEEE802154E.c ****     for(i=0; i<5; i++) {
 573              		.loc 1 251 0
 574 02ac 0023     		movs	r3, #0
 575 02ae FB75     		strb	r3, [r7, #23]
 576 02b0 1EE0     		b	.L21
 577              	.L22:
 252:build\openmote-cc2538_armgcc\openstack\02a-MAClow/IEEE802154E.c ****         sum = et_asn[i] + delay_array[i] + carry;
 578              		.loc 1 252 0 discriminator 3
 579 02b2 FB7D     		ldrb	r3, [r7, #23]	@ zero_extendqisi2
 580 02b4 3A68     		ldr	r2, [r7]
 581 02b6 1344     		add	r3, r3, r2
 582 02b8 1B78     		ldrb	r3, [r3]	@ zero_extendqisi2
 583 02ba 9AB2     		uxth	r2, r3
 584 02bc FB7D     		ldrb	r3, [r7, #23]	@ zero_extendqisi2
 585 02be 07F11801 		add	r1, r7, #24
 586 02c2 0B44     		add	r3, r3, r1
 587 02c4 13F8103C 		ldrb	r3, [r3, #-16]	@ zero_extendqisi2
 588 02c8 9BB2     		uxth	r3, r3
 589 02ca 1344     		add	r3, r3, r2
 590 02cc 9AB2     		uxth	r2, r3
 591 02ce BB7D     		ldrb	r3, [r7, #22]	@ zero_extendqisi2
 592 02d0 9BB2     		uxth	r3, r3
 593 02d2 1344     		add	r3, r3, r2
 594 02d4 7B82     		strh	r3, [r7, #18]	@ movhi
 253:build\openmote-cc2538_armgcc\openstack\02a-MAClow/IEEE802154E.c ****         et_asn[i] = sum & 0xFF;
 595              		.loc 1 253 0 discriminator 3
 596 02d6 FB7D     		ldrb	r3, [r7, #23]	@ zero_extendqisi2
 597 02d8 3A68     		ldr	r2, [r7]
 598 02da 1344     		add	r3, r3, r2
 599 02dc 7A8A     		ldrh	r2, [r7, #18]	@ movhi
 600 02de D2B2     		uxtb	r2, r2
 601 02e0 1A70     		strb	r2, [r3]
 254:build\openmote-cc2538_armgcc\openstack\02a-MAClow/IEEE802154E.c ****         carry = ((sum >> 8) & 0xFF);
 602              		.loc 1 254 0 discriminator 3
 603 02e2 7B8A     		ldrh	r3, [r7, #18]
 604 02e4 1B0A     		lsrs	r3, r3, #8
 605 02e6 9BB2     		uxth	r3, r3
 606 02e8 BB75     		strb	r3, [r7, #22]
 251:build\openmote-cc2538_armgcc\openstack\02a-MAClow/IEEE802154E.c ****         sum = et_asn[i] + delay_array[i] + carry;
 607              		.loc 1 251 0 discriminator 3
 608 02ea FB7D     		ldrb	r3, [r7, #23]	@ zero_extendqisi2
 609 02ec 0133     		adds	r3, r3, #1
 610 02ee FB75     		strb	r3, [r7, #23]
 611              	.L21:
 251:build\openmote-cc2538_armgcc\openstack\02a-MAClow/IEEE802154E.c ****         sum = et_asn[i] + delay_array[i] + carry;
 612              		.loc 1 251 0 is_stmt 0 discriminator 1
 613 02f0 FB7D     		ldrb	r3, [r7, #23]	@ zero_extendqisi2
 614 02f2 042B     		cmp	r3, #4
 615 02f4 DDD9     		bls	.L22
 255:build\openmote-cc2538_armgcc\openstack\02a-MAClow/IEEE802154E.c ****     }
 256:build\openmote-cc2538_armgcc\openstack\02a-MAClow/IEEE802154E.c **** }
 616              		.loc 1 256 0 is_stmt 1
 617 02f6 00BF     		nop
 618 02f8 1837     		adds	r7, r7, #24
 619              		.cfi_def_cfa_offset 8
 620 02fa BD46     		mov	sp, r7
 621              		.cfi_def_cfa_register 13
 622              		@ sp needed
 623 02fc 80BD     		pop	{r7, pc}
 624              	.L24:
 625 02fe 00BF     		.align	2
 626              	.L23:
 627 0300 AD8BDB68 		.word	1759218605
 628              		.cfi_endproc
 629              	.LFE6:
 631              		.align	1
 632              		.global	ieee154e_orderToASNStructure
 633              		.syntax unified
 634              		.thumb
 635              		.thumb_func
 636              		.fpu softvfp
 638              	ieee154e_orderToASNStructure:
 639              	.LFB7:
 257:build\openmote-cc2538_armgcc\openstack\02a-MAClow/IEEE802154E.c **** 
 258:build\openmote-cc2538_armgcc\openstack\02a-MAClow/IEEE802154E.c **** /**
 259:build\openmote-cc2538_armgcc\openstack\02a-MAClow/IEEE802154E.c **** /brief Format asn to asn_t structure
 260:build\openmote-cc2538_armgcc\openstack\02a-MAClow/IEEE802154E.c **** 
 261:build\openmote-cc2538_armgcc\openstack\02a-MAClow/IEEE802154E.c **** \param[in]  in  asn value represented in array format
 262:build\openmote-cc2538_armgcc\openstack\02a-MAClow/IEEE802154E.c **** 
 263:build\openmote-cc2538_armgcc\openstack\02a-MAClow/IEEE802154E.c **** \param[out] val_asn   asn value represented in asn_t format
 264:build\openmote-cc2538_armgcc\openstack\02a-MAClow/IEEE802154E.c **** */
 265:build\openmote-cc2538_armgcc\openstack\02a-MAClow/IEEE802154E.c **** void ieee154e_orderToASNStructure(uint8_t* in,asn_t* val_asn) {
 640              		.loc 1 265 0
 641              		.cfi_startproc
 642              		@ args = 0, pretend = 0, frame = 8
 643              		@ frame_needed = 1, uses_anonymous_args = 0
 644              		@ link register save eliminated.
 645 0304 80B4     		push	{r7}
 646              		.cfi_def_cfa_offset 4
 647              		.cfi_offset 7, -4
 648 0306 83B0     		sub	sp, sp, #12
 649              		.cfi_def_cfa_offset 16
 650 0308 00AF     		add	r7, sp, #0
 651              		.cfi_def_cfa_register 7
 652 030a 7860     		str	r0, [r7, #4]
 653 030c 3960     		str	r1, [r7]
 266:build\openmote-cc2538_armgcc\openstack\02a-MAClow/IEEE802154E.c ****     val_asn->bytes0and1   =     in[0] + 256*in[1];
 654              		.loc 1 266 0
 655 030e 7B68     		ldr	r3, [r7, #4]
 656 0310 1B78     		ldrb	r3, [r3]	@ zero_extendqisi2
 657 0312 9AB2     		uxth	r2, r3
 658 0314 7B68     		ldr	r3, [r7, #4]
 659 0316 0133     		adds	r3, r3, #1
 660 0318 1B78     		ldrb	r3, [r3]	@ zero_extendqisi2
 661 031a 9BB2     		uxth	r3, r3
 662 031c 1B02     		lsls	r3, r3, #8
 663 031e 9BB2     		uxth	r3, r3
 664 0320 1344     		add	r3, r3, r2
 665 0322 9AB2     		uxth	r2, r3
 666 0324 3B68     		ldr	r3, [r7]
 667 0326 A3F80320 		strh	r2, [r3, #3]	@ unaligned
 267:build\openmote-cc2538_armgcc\openstack\02a-MAClow/IEEE802154E.c ****     val_asn->bytes2and3   =     in[2] + 256*in[3];
 668              		.loc 1 267 0
 669 032a 7B68     		ldr	r3, [r7, #4]
 670 032c 0233     		adds	r3, r3, #2
 671 032e 1B78     		ldrb	r3, [r3]	@ zero_extendqisi2
 672 0330 9AB2     		uxth	r2, r3
 673 0332 7B68     		ldr	r3, [r7, #4]
 674 0334 0333     		adds	r3, r3, #3
 675 0336 1B78     		ldrb	r3, [r3]	@ zero_extendqisi2
 676 0338 9BB2     		uxth	r3, r3
 677 033a 1B02     		lsls	r3, r3, #8
 678 033c 9BB2     		uxth	r3, r3
 679 033e 1344     		add	r3, r3, r2
 680 0340 9AB2     		uxth	r2, r3
 681 0342 3B68     		ldr	r3, [r7]
 682 0344 A3F80120 		strh	r2, [r3, #1]	@ unaligned
 268:build\openmote-cc2538_armgcc\openstack\02a-MAClow/IEEE802154E.c ****     val_asn->byte4        =     in[4];
 683              		.loc 1 268 0
 684 0348 7B68     		ldr	r3, [r7, #4]
 685 034a 1A79     		ldrb	r2, [r3, #4]	@ zero_extendqisi2
 686 034c 3B68     		ldr	r3, [r7]
 687 034e 1A70     		strb	r2, [r3]
 269:build\openmote-cc2538_armgcc\openstack\02a-MAClow/IEEE802154E.c **** }
 688              		.loc 1 269 0
 689 0350 00BF     		nop
 690 0352 0C37     		adds	r7, r7, #12
 691              		.cfi_def_cfa_offset 4
 692 0354 BD46     		mov	sp, r7
 693              		.cfi_def_cfa_register 13
 694              		@ sp needed
 695 0356 80BC     		pop	{r7}
 696              		.cfi_restore 7
 697              		.cfi_def_cfa_offset 0
 698 0358 7047     		bx	lr
 699              		.cfi_endproc
 700              	.LFE7:
 702              		.align	1
 703              		.global	isr_ieee154e_newSlot
 704              		.syntax unified
 705              		.thumb
 706              		.thumb_func
 707              		.fpu softvfp
 709              	isr_ieee154e_newSlot:
 710              	.LFB8:
 270:build\openmote-cc2538_armgcc\openstack\02a-MAClow/IEEE802154E.c **** #endif
 271:build\openmote-cc2538_armgcc\openstack\02a-MAClow/IEEE802154E.c **** //======= events
 272:build\openmote-cc2538_armgcc\openstack\02a-MAClow/IEEE802154E.c **** 
 273:build\openmote-cc2538_armgcc\openstack\02a-MAClow/IEEE802154E.c **** /**
 274:build\openmote-cc2538_armgcc\openstack\02a-MAClow/IEEE802154E.c **** \brief Indicates a new slot has just started.
 275:build\openmote-cc2538_armgcc\openstack\02a-MAClow/IEEE802154E.c **** 
 276:build\openmote-cc2538_armgcc\openstack\02a-MAClow/IEEE802154E.c **** This function executes in ISR mode, when the new slot timer fires.
 277:build\openmote-cc2538_armgcc\openstack\02a-MAClow/IEEE802154E.c **** */
 278:build\openmote-cc2538_armgcc\openstack\02a-MAClow/IEEE802154E.c **** void isr_ieee154e_newSlot(opentimers_id_t id) {
 711              		.loc 1 278 0
 712              		.cfi_startproc
 713              		@ args = 0, pretend = 0, frame = 8
 714              		@ frame_needed = 1, uses_anonymous_args = 0
 715 035a 80B5     		push	{r7, lr}
 716              		.cfi_def_cfa_offset 8
 717              		.cfi_offset 7, -8
 718              		.cfi_offset 14, -4
 719 035c 84B0     		sub	sp, sp, #16
 720              		.cfi_def_cfa_offset 24
 721 035e 02AF     		add	r7, sp, #8
 722              		.cfi_def_cfa 7, 16
 723 0360 0346     		mov	r3, r0
 724 0362 FB71     		strb	r3, [r7, #7]
 279:build\openmote-cc2538_armgcc\openstack\02a-MAClow/IEEE802154E.c **** 
 280:build\openmote-cc2538_armgcc\openstack\02a-MAClow/IEEE802154E.c ****     ieee154e_vars.startOfSlotReference = opentimers_getCurrentCompareValue();
 725              		.loc 1 280 0
 726 0364 FFF7FEFF 		bl	opentimers_getCurrentCompareValue
 727 0368 0246     		mov	r2, r0
 728 036a 1D4B     		ldr	r3, .L31
 729 036c C3F8AC21 		str	r2, [r3, #428]
 281:build\openmote-cc2538_armgcc\openstack\02a-MAClow/IEEE802154E.c ****     opentimers_scheduleAbsolute(
 730              		.loc 1 281 0
 731 0370 1B4B     		ldr	r3, .L31
 732 0372 93F8A801 		ldrb	r0, [r3, #424]	@ zero_extendqisi2
 733 0376 1A4B     		ldr	r3, .L31
 734 0378 D3F8AC21 		ldr	r2, [r3, #428]
 735 037c 194B     		ldr	r3, .L31+4
 736 037e 0093     		str	r3, [sp]
 737 0380 0123     		movs	r3, #1
 738 0382 4FF4A471 		mov	r1, #328
 739 0386 FFF7FEFF 		bl	opentimers_scheduleAbsolute
 282:build\openmote-cc2538_armgcc\openstack\02a-MAClow/IEEE802154E.c ****         ieee154e_vars.timerId,                  // timerId
 283:build\openmote-cc2538_armgcc\openstack\02a-MAClow/IEEE802154E.c ****         TsSlotDuration,                         // duration
 284:build\openmote-cc2538_armgcc\openstack\02a-MAClow/IEEE802154E.c ****         ieee154e_vars.startOfSlotReference,     // reference
 285:build\openmote-cc2538_armgcc\openstack\02a-MAClow/IEEE802154E.c ****         TIME_TICS,                              // timetype
 286:build\openmote-cc2538_armgcc\openstack\02a-MAClow/IEEE802154E.c ****         isr_ieee154e_newSlot                    // callback
 287:build\openmote-cc2538_armgcc\openstack\02a-MAClow/IEEE802154E.c ****     );
 288:build\openmote-cc2538_armgcc\openstack\02a-MAClow/IEEE802154E.c ****     ieee154e_vars.slotDuration          = TsSlotDuration;
 740              		.loc 1 288 0
 741 038a 154B     		ldr	r3, .L31
 742 038c 4FF4A472 		mov	r2, #328
 743 0390 A3F8A621 		strh	r2, [r3, #422]	@ movhi
 289:build\openmote-cc2538_armgcc\openstack\02a-MAClow/IEEE802154E.c ****     // radiotimer_setPeriod(ieee154e_vars.slotDuration);
 290:build\openmote-cc2538_armgcc\openstack\02a-MAClow/IEEE802154E.c ****     if (ieee154e_vars.isSync==FALSE) {
 744              		.loc 1 290 0
 745 0394 124B     		ldr	r3, .L31
 746 0396 1B7C     		ldrb	r3, [r3, #16]	@ zero_extendqisi2
 747 0398 83F00103 		eor	r3, r3, #1
 748 039c DBB2     		uxtb	r3, r3
 749 039e 002B     		cmp	r3, #0
 750 03a0 13D0     		beq	.L27
 291:build\openmote-cc2538_armgcc\openstack\02a-MAClow/IEEE802154E.c ****         if (idmanager_getIsDAGroot()==TRUE) {
 751              		.loc 1 291 0
 752 03a2 FFF7FEFF 		bl	idmanager_getIsDAGroot
 753 03a6 0346     		mov	r3, r0
 754 03a8 002B     		cmp	r3, #0
 755 03aa 0BD0     		beq	.L28
 292:build\openmote-cc2538_armgcc\openstack\02a-MAClow/IEEE802154E.c ****             changeIsSync(TRUE);
 756              		.loc 1 292 0
 757 03ac 0120     		movs	r0, #1
 758 03ae FFF7FEFF 		bl	changeIsSync
 293:build\openmote-cc2538_armgcc\openstack\02a-MAClow/IEEE802154E.c ****             ieee154e_resetAsn();
 759              		.loc 1 293 0
 760 03b2 FFF7FEFF 		bl	ieee154e_resetAsn
 294:build\openmote-cc2538_armgcc\openstack\02a-MAClow/IEEE802154E.c ****             ieee154e_vars.nextActiveSlotOffset = schedule_getNextActiveSlotOffset();
 761              		.loc 1 294 0
 762 03b6 FFF7FEFF 		bl	schedule_getNextActiveSlotOffset
 763 03ba 0346     		mov	r3, r0
 764 03bc 1A46     		mov	r2, r3
 765 03be 084B     		ldr	r3, .L31
 766 03c0 1A81     		strh	r2, [r3, #8]	@ movhi
 767 03c2 04E0     		b	.L30
 768              	.L28:
 295:build\openmote-cc2538_armgcc\openstack\02a-MAClow/IEEE802154E.c ****         } else {
 296:build\openmote-cc2538_armgcc\openstack\02a-MAClow/IEEE802154E.c ****             activity_synchronize_newSlot();
 769              		.loc 1 296 0
 770 03c4 FFF7FEFF 		bl	activity_synchronize_newSlot
 771 03c8 01E0     		b	.L30
 772              	.L27:
 297:build\openmote-cc2538_armgcc\openstack\02a-MAClow/IEEE802154E.c ****         }
 298:build\openmote-cc2538_armgcc\openstack\02a-MAClow/IEEE802154E.c ****     } else {
 299:build\openmote-cc2538_armgcc\openstack\02a-MAClow/IEEE802154E.c **** #ifdef ADAPTIVE_SYNC
 300:build\openmote-cc2538_armgcc\openstack\02a-MAClow/IEEE802154E.c ****         // adaptive synchronization
 301:build\openmote-cc2538_armgcc\openstack\02a-MAClow/IEEE802154E.c ****         adaptive_sync_countCompensationTimeout();
 302:build\openmote-cc2538_armgcc\openstack\02a-MAClow/IEEE802154E.c **** #endif
 303:build\openmote-cc2538_armgcc\openstack\02a-MAClow/IEEE802154E.c ****         activity_ti1ORri1();
 773              		.loc 1 303 0
 774 03ca FFF7FEFF 		bl	activity_ti1ORri1
 775              	.L30:
 304:build\openmote-cc2538_armgcc\openstack\02a-MAClow/IEEE802154E.c ****    }
 305:build\openmote-cc2538_armgcc\openstack\02a-MAClow/IEEE802154E.c ****    ieee154e_dbg.num_newSlot++;
 776              		.loc 1 305 0
 777 03ce 064B     		ldr	r3, .L31+8
 778 03d0 1B68     		ldr	r3, [r3]
 779 03d2 0133     		adds	r3, r3, #1
 780 03d4 044A     		ldr	r2, .L31+8
 781 03d6 1360     		str	r3, [r2]
 306:build\openmote-cc2538_armgcc\openstack\02a-MAClow/IEEE802154E.c **** }
 782              		.loc 1 306 0
 783 03d8 00BF     		nop
 784 03da 0837     		adds	r7, r7, #8
 785              		.cfi_def_cfa_offset 8
 786 03dc BD46     		mov	sp, r7
 787              		.cfi_def_cfa_register 13
 788              		@ sp needed
 789 03de 80BD     		pop	{r7, pc}
 790              	.L32:
 791              		.align	2
 792              	.L31:
 793 03e0 00000000 		.word	ieee154e_vars
 794 03e4 00000000 		.word	isr_ieee154e_newSlot
 795 03e8 00000000 		.word	ieee154e_dbg
 796              		.cfi_endproc
 797              	.LFE8:
 799              		.align	1
 800              		.global	isr_ieee154e_timer
 801              		.syntax unified
 802              		.thumb
 803              		.thumb_func
 804              		.fpu softvfp
 806              	isr_ieee154e_timer:
 807              	.LFB9:
 307:build\openmote-cc2538_armgcc\openstack\02a-MAClow/IEEE802154E.c **** 
 308:build\openmote-cc2538_armgcc\openstack\02a-MAClow/IEEE802154E.c **** /**
 309:build\openmote-cc2538_armgcc\openstack\02a-MAClow/IEEE802154E.c **** \brief Indicates the FSM timer has fired.
 310:build\openmote-cc2538_armgcc\openstack\02a-MAClow/IEEE802154E.c **** 
 311:build\openmote-cc2538_armgcc\openstack\02a-MAClow/IEEE802154E.c **** This function executes in ISR mode, when the FSM timer fires.
 312:build\openmote-cc2538_armgcc\openstack\02a-MAClow/IEEE802154E.c **** */
 313:build\openmote-cc2538_armgcc\openstack\02a-MAClow/IEEE802154E.c **** void isr_ieee154e_timer(opentimers_id_t id) {
 808              		.loc 1 313 0
 809              		.cfi_startproc
 810              		@ args = 0, pretend = 0, frame = 8
 811              		@ frame_needed = 1, uses_anonymous_args = 0
 812 03ec 80B5     		push	{r7, lr}
 813              		.cfi_def_cfa_offset 8
 814              		.cfi_offset 7, -8
 815              		.cfi_offset 14, -4
 816 03ee 82B0     		sub	sp, sp, #8
 817              		.cfi_def_cfa_offset 16
 818 03f0 00AF     		add	r7, sp, #0
 819              		.cfi_def_cfa_register 7
 820 03f2 0346     		mov	r3, r0
 821 03f4 FB71     		strb	r3, [r7, #7]
 314:build\openmote-cc2538_armgcc\openstack\02a-MAClow/IEEE802154E.c ****     switch (ieee154e_vars.state) {
 822              		.loc 1 314 0
 823 03f6 454B     		ldr	r3, .L59
 824 03f8 93F86431 		ldrb	r3, [r3, #356]	@ zero_extendqisi2
 825 03fc 023B     		subs	r3, r3, #2
 826 03fe 162B     		cmp	r3, #22
 827 0400 6CD8     		bhi	.L34
 828 0402 01A2     		adr	r2, .L36
 829 0404 52F823F0 		ldr	pc, [r2, r3, lsl #2]
 830              		.p2align 2
 831              	.L36:
 832 0408 F7040000 		.word	.L58+1
 833 040c DD040000 		.word	.L34+1
 834 0410 65040000 		.word	.L37+1
 835 0414 6B040000 		.word	.L38+1
 836 0418 71040000 		.word	.L39+1
 837 041c 77040000 		.word	.L40+1
 838 0420 7D040000 		.word	.L41+1
 839 0424 83040000 		.word	.L42+1
 840 0428 89040000 		.word	.L43+1
 841 042c 8F040000 		.word	.L44+1
 842 0430 95040000 		.word	.L45+1
 843 0434 9B040000 		.word	.L46+1
 844 0438 DD040000 		.word	.L34+1
 845 043c A1040000 		.word	.L47+1
 846 0440 A7040000 		.word	.L48+1
 847 0444 AD040000 		.word	.L49+1
 848 0448 B3040000 		.word	.L50+1
 849 044c B9040000 		.word	.L51+1
 850 0450 BF040000 		.word	.L52+1
 851 0454 C5040000 		.word	.L53+1
 852 0458 CB040000 		.word	.L54+1
 853 045c D1040000 		.word	.L55+1
 854 0460 D7040000 		.word	.L56+1
 855              		.p2align 1
 856              	.L37:
 315:build\openmote-cc2538_armgcc\openstack\02a-MAClow/IEEE802154E.c ****         case S_TXDATAOFFSET:
 316:build\openmote-cc2538_armgcc\openstack\02a-MAClow/IEEE802154E.c ****             activity_ti2();
 857              		.loc 1 316 0
 858 0464 FFF7FEFF 		bl	activity_ti2
 317:build\openmote-cc2538_armgcc\openstack\02a-MAClow/IEEE802154E.c ****             break;
 859              		.loc 1 317 0
 860 0468 46E0     		b	.L57
 861              	.L38:
 318:build\openmote-cc2538_armgcc\openstack\02a-MAClow/IEEE802154E.c ****         case S_TXDATAPREPARE:
 319:build\openmote-cc2538_armgcc\openstack\02a-MAClow/IEEE802154E.c ****             activity_tie1();
 862              		.loc 1 319 0
 863 046a FFF7FEFF 		bl	activity_tie1
 320:build\openmote-cc2538_armgcc\openstack\02a-MAClow/IEEE802154E.c ****             break;
 864              		.loc 1 320 0
 865 046e 43E0     		b	.L57
 866              	.L39:
 321:build\openmote-cc2538_armgcc\openstack\02a-MAClow/IEEE802154E.c ****         case S_TXDATAREADY:
 322:build\openmote-cc2538_armgcc\openstack\02a-MAClow/IEEE802154E.c ****             activity_ti3();
 867              		.loc 1 322 0
 868 0470 FFF7FEFF 		bl	activity_ti3
 323:build\openmote-cc2538_armgcc\openstack\02a-MAClow/IEEE802154E.c ****             break;
 869              		.loc 1 323 0
 870 0474 40E0     		b	.L57
 871              	.L40:
 324:build\openmote-cc2538_armgcc\openstack\02a-MAClow/IEEE802154E.c ****         case S_TXDATADELAY:
 325:build\openmote-cc2538_armgcc\openstack\02a-MAClow/IEEE802154E.c ****             activity_tie2();
 872              		.loc 1 325 0
 873 0476 FFF7FEFF 		bl	activity_tie2
 326:build\openmote-cc2538_armgcc\openstack\02a-MAClow/IEEE802154E.c ****             break;
 874              		.loc 1 326 0
 875 047a 3DE0     		b	.L57
 876              	.L41:
 327:build\openmote-cc2538_armgcc\openstack\02a-MAClow/IEEE802154E.c ****         case S_TXDATA:
 328:build\openmote-cc2538_armgcc\openstack\02a-MAClow/IEEE802154E.c ****             activity_tie3();
 877              		.loc 1 328 0
 878 047c FFF7FEFF 		bl	activity_tie3
 329:build\openmote-cc2538_armgcc\openstack\02a-MAClow/IEEE802154E.c ****             break;
 879              		.loc 1 329 0
 880 0480 3AE0     		b	.L57
 881              	.L42:
 330:build\openmote-cc2538_armgcc\openstack\02a-MAClow/IEEE802154E.c ****         case S_RXACKOFFSET:
 331:build\openmote-cc2538_armgcc\openstack\02a-MAClow/IEEE802154E.c ****             activity_ti6();
 882              		.loc 1 331 0
 883 0482 FFF7FEFF 		bl	activity_ti6
 332:build\openmote-cc2538_armgcc\openstack\02a-MAClow/IEEE802154E.c ****             break;
 884              		.loc 1 332 0
 885 0486 37E0     		b	.L57
 886              	.L43:
 333:build\openmote-cc2538_armgcc\openstack\02a-MAClow/IEEE802154E.c ****         case S_RXACKPREPARE:
 334:build\openmote-cc2538_armgcc\openstack\02a-MAClow/IEEE802154E.c ****             activity_tie4();
 887              		.loc 1 334 0
 888 0488 FFF7FEFF 		bl	activity_tie4
 335:build\openmote-cc2538_armgcc\openstack\02a-MAClow/IEEE802154E.c ****             break;
 889              		.loc 1 335 0
 890 048c 34E0     		b	.L57
 891              	.L44:
 336:build\openmote-cc2538_armgcc\openstack\02a-MAClow/IEEE802154E.c ****         case S_RXACKREADY:
 337:build\openmote-cc2538_armgcc\openstack\02a-MAClow/IEEE802154E.c ****             activity_ti7();
 892              		.loc 1 337 0
 893 048e FFF7FEFF 		bl	activity_ti7
 338:build\openmote-cc2538_armgcc\openstack\02a-MAClow/IEEE802154E.c ****             break;
 894              		.loc 1 338 0
 895 0492 31E0     		b	.L57
 896              	.L45:
 339:build\openmote-cc2538_armgcc\openstack\02a-MAClow/IEEE802154E.c ****         case S_RXACKLISTEN:
 340:build\openmote-cc2538_armgcc\openstack\02a-MAClow/IEEE802154E.c ****             activity_tie5();
 897              		.loc 1 340 0
 898 0494 FFF7FEFF 		bl	activity_tie5
 341:build\openmote-cc2538_armgcc\openstack\02a-MAClow/IEEE802154E.c ****             break;
 899              		.loc 1 341 0
 900 0498 2EE0     		b	.L57
 901              	.L46:
 342:build\openmote-cc2538_armgcc\openstack\02a-MAClow/IEEE802154E.c ****         case S_RXACK:
 343:build\openmote-cc2538_armgcc\openstack\02a-MAClow/IEEE802154E.c ****             activity_tie6();
 902              		.loc 1 343 0
 903 049a FFF7FEFF 		bl	activity_tie6
 344:build\openmote-cc2538_armgcc\openstack\02a-MAClow/IEEE802154E.c ****             break;
 904              		.loc 1 344 0
 905 049e 2BE0     		b	.L57
 906              	.L47:
 345:build\openmote-cc2538_armgcc\openstack\02a-MAClow/IEEE802154E.c ****         case S_RXDATAOFFSET:
 346:build\openmote-cc2538_armgcc\openstack\02a-MAClow/IEEE802154E.c ****             activity_ri2();
 907              		.loc 1 346 0
 908 04a0 FFF7FEFF 		bl	activity_ri2
 347:build\openmote-cc2538_armgcc\openstack\02a-MAClow/IEEE802154E.c ****             break;
 909              		.loc 1 347 0
 910 04a4 28E0     		b	.L57
 911              	.L48:
 348:build\openmote-cc2538_armgcc\openstack\02a-MAClow/IEEE802154E.c ****         case S_RXDATAPREPARE:
 349:build\openmote-cc2538_armgcc\openstack\02a-MAClow/IEEE802154E.c ****             activity_rie1();
 912              		.loc 1 349 0
 913 04a6 FFF7FEFF 		bl	activity_rie1
 350:build\openmote-cc2538_armgcc\openstack\02a-MAClow/IEEE802154E.c ****             break;
 914              		.loc 1 350 0
 915 04aa 25E0     		b	.L57
 916              	.L49:
 351:build\openmote-cc2538_armgcc\openstack\02a-MAClow/IEEE802154E.c ****         case S_RXDATAREADY:
 352:build\openmote-cc2538_armgcc\openstack\02a-MAClow/IEEE802154E.c ****             activity_ri3();
 917              		.loc 1 352 0
 918 04ac FFF7FEFF 		bl	activity_ri3
 353:build\openmote-cc2538_armgcc\openstack\02a-MAClow/IEEE802154E.c ****             break;
 919              		.loc 1 353 0
 920 04b0 22E0     		b	.L57
 921              	.L50:
 354:build\openmote-cc2538_armgcc\openstack\02a-MAClow/IEEE802154E.c ****         case S_RXDATALISTEN:
 355:build\openmote-cc2538_armgcc\openstack\02a-MAClow/IEEE802154E.c ****             activity_rie2();
 922              		.loc 1 355 0
 923 04b2 FFF7FEFF 		bl	activity_rie2
 356:build\openmote-cc2538_armgcc\openstack\02a-MAClow/IEEE802154E.c ****             break;
 924              		.loc 1 356 0
 925 04b6 1FE0     		b	.L57
 926              	.L51:
 357:build\openmote-cc2538_armgcc\openstack\02a-MAClow/IEEE802154E.c ****         case S_RXDATA:
 358:build\openmote-cc2538_armgcc\openstack\02a-MAClow/IEEE802154E.c ****             activity_rie3();
 927              		.loc 1 358 0
 928 04b8 FFF7FEFF 		bl	activity_rie3
 359:build\openmote-cc2538_armgcc\openstack\02a-MAClow/IEEE802154E.c ****             break;
 929              		.loc 1 359 0
 930 04bc 1CE0     		b	.L57
 931              	.L52:
 360:build\openmote-cc2538_armgcc\openstack\02a-MAClow/IEEE802154E.c ****         case S_TXACKOFFSET:
 361:build\openmote-cc2538_armgcc\openstack\02a-MAClow/IEEE802154E.c ****             activity_ri6();
 932              		.loc 1 361 0
 933 04be FFF7FEFF 		bl	activity_ri6
 362:build\openmote-cc2538_armgcc\openstack\02a-MAClow/IEEE802154E.c ****             break;
 934              		.loc 1 362 0
 935 04c2 19E0     		b	.L57
 936              	.L53:
 363:build\openmote-cc2538_armgcc\openstack\02a-MAClow/IEEE802154E.c ****         case S_TXACKPREPARE:
 364:build\openmote-cc2538_armgcc\openstack\02a-MAClow/IEEE802154E.c ****             activity_rie4();
 937              		.loc 1 364 0
 938 04c4 FFF7FEFF 		bl	activity_rie4
 365:build\openmote-cc2538_armgcc\openstack\02a-MAClow/IEEE802154E.c ****             break;
 939              		.loc 1 365 0
 940 04c8 16E0     		b	.L57
 941              	.L54:
 366:build\openmote-cc2538_armgcc\openstack\02a-MAClow/IEEE802154E.c ****         case S_TXACKREADY:
 367:build\openmote-cc2538_armgcc\openstack\02a-MAClow/IEEE802154E.c ****             activity_ri7();
 942              		.loc 1 367 0
 943 04ca FFF7FEFF 		bl	activity_ri7
 368:build\openmote-cc2538_armgcc\openstack\02a-MAClow/IEEE802154E.c ****             break;
 944              		.loc 1 368 0
 945 04ce 13E0     		b	.L57
 946              	.L55:
 369:build\openmote-cc2538_armgcc\openstack\02a-MAClow/IEEE802154E.c ****         case S_TXACKDELAY:
 370:build\openmote-cc2538_armgcc\openstack\02a-MAClow/IEEE802154E.c ****             activity_rie5();
 947              		.loc 1 370 0
 948 04d0 FFF7FEFF 		bl	activity_rie5
 371:build\openmote-cc2538_armgcc\openstack\02a-MAClow/IEEE802154E.c ****             break;
 949              		.loc 1 371 0
 950 04d4 10E0     		b	.L57
 951              	.L56:
 372:build\openmote-cc2538_armgcc\openstack\02a-MAClow/IEEE802154E.c ****         case S_TXACK:
 373:build\openmote-cc2538_armgcc\openstack\02a-MAClow/IEEE802154E.c ****             activity_rie6();
 952              		.loc 1 373 0
 953 04d6 FFF7FEFF 		bl	activity_rie6
 374:build\openmote-cc2538_armgcc\openstack\02a-MAClow/IEEE802154E.c ****             break;
 954              		.loc 1 374 0
 955 04da 0DE0     		b	.L57
 956              	.L34:
 375:build\openmote-cc2538_armgcc\openstack\02a-MAClow/IEEE802154E.c ****         case S_SYNCRX:
 376:build\openmote-cc2538_armgcc\openstack\02a-MAClow/IEEE802154E.c ****             break;
 377:build\openmote-cc2538_armgcc\openstack\02a-MAClow/IEEE802154E.c ****         default:
 378:build\openmote-cc2538_armgcc\openstack\02a-MAClow/IEEE802154E.c ****             // log the error
 379:build\openmote-cc2538_armgcc\openstack\02a-MAClow/IEEE802154E.c ****             openserial_printCritical(
 380:build\openmote-cc2538_armgcc\openstack\02a-MAClow/IEEE802154E.c ****                 COMPONENT_IEEE802154E,
 381:build\openmote-cc2538_armgcc\openstack\02a-MAClow/IEEE802154E.c ****                 ERR_WRONG_STATE_IN_TIMERFIRES,
 382:build\openmote-cc2538_armgcc\openstack\02a-MAClow/IEEE802154E.c ****                 (errorparameter_t)ieee154e_vars.state,
 957              		.loc 1 382 0
 958 04dc 0B4B     		ldr	r3, .L59
 959 04de 93F86431 		ldrb	r3, [r3, #356]	@ zero_extendqisi2
 379:build\openmote-cc2538_armgcc\openstack\02a-MAClow/IEEE802154E.c ****                 COMPONENT_IEEE802154E,
 960              		.loc 1 379 0
 961 04e2 9AB2     		uxth	r2, r3
 383:build\openmote-cc2538_armgcc\openstack\02a-MAClow/IEEE802154E.c ****                 (errorparameter_t)ieee154e_vars.slotOffset
 962              		.loc 1 383 0
 963 04e4 094B     		ldr	r3, .L59
 964 04e6 DB88     		ldrh	r3, [r3, #6]
 379:build\openmote-cc2538_armgcc\openstack\02a-MAClow/IEEE802154E.c ****                 COMPONENT_IEEE802154E,
 965              		.loc 1 379 0
 966 04e8 2021     		movs	r1, #32
 967 04ea 0920     		movs	r0, #9
 968 04ec FFF7FEFF 		bl	openserial_printCritical
 384:build\openmote-cc2538_armgcc\openstack\02a-MAClow/IEEE802154E.c ****             );
 385:build\openmote-cc2538_armgcc\openstack\02a-MAClow/IEEE802154E.c ****             // abort
 386:build\openmote-cc2538_armgcc\openstack\02a-MAClow/IEEE802154E.c ****             endSlot();
 969              		.loc 1 386 0
 970 04f0 FFF7FEFF 		bl	endSlot
 387:build\openmote-cc2538_armgcc\openstack\02a-MAClow/IEEE802154E.c ****             break;
 971              		.loc 1 387 0
 972 04f4 00E0     		b	.L57
 973              	.L58:
 376:build\openmote-cc2538_armgcc\openstack\02a-MAClow/IEEE802154E.c ****         default:
 974              		.loc 1 376 0
 975 04f6 00BF     		nop
 976              	.L57:
 388:build\openmote-cc2538_armgcc\openstack\02a-MAClow/IEEE802154E.c ****     }
 389:build\openmote-cc2538_armgcc\openstack\02a-MAClow/IEEE802154E.c ****     ieee154e_dbg.num_timer++;
 977              		.loc 1 389 0
 978 04f8 054B     		ldr	r3, .L59+4
 979 04fa 5B68     		ldr	r3, [r3, #4]
 980 04fc 0133     		adds	r3, r3, #1
 981 04fe 044A     		ldr	r2, .L59+4
 982 0500 5360     		str	r3, [r2, #4]
 390:build\openmote-cc2538_armgcc\openstack\02a-MAClow/IEEE802154E.c **** }
 983              		.loc 1 390 0
 984 0502 00BF     		nop
 985 0504 0837     		adds	r7, r7, #8
 986              		.cfi_def_cfa_offset 8
 987 0506 BD46     		mov	sp, r7
 988              		.cfi_def_cfa_register 13
 989              		@ sp needed
 990 0508 80BD     		pop	{r7, pc}
 991              	.L60:
 992 050a 00BF     		.align	2
 993              	.L59:
 994 050c 00000000 		.word	ieee154e_vars
 995 0510 00000000 		.word	ieee154e_dbg
 996              		.cfi_endproc
 997              	.LFE9:
 999              		.align	1
 1000              		.global	isr_ieee154e_inhibitStart
 1001              		.syntax unified
 1002              		.thumb
 1003              		.thumb_func
 1004              		.fpu softvfp
 1006              	isr_ieee154e_inhibitStart:
 1007              	.LFB10:
 391:build\openmote-cc2538_armgcc\openstack\02a-MAClow/IEEE802154E.c **** 
 392:build\openmote-cc2538_armgcc\openstack\02a-MAClow/IEEE802154E.c **** /**
 393:build\openmote-cc2538_armgcc\openstack\02a-MAClow/IEEE802154E.c **** \brief Inhibit the serial activity.
 394:build\openmote-cc2538_armgcc\openstack\02a-MAClow/IEEE802154E.c **** 
 395:build\openmote-cc2538_armgcc\openstack\02a-MAClow/IEEE802154E.c **** This needs to happen
 396:build\openmote-cc2538_armgcc\openstack\02a-MAClow/IEEE802154E.c **** 
 397:build\openmote-cc2538_armgcc\openstack\02a-MAClow/IEEE802154E.c **** This function executes in ISR mode.
 398:build\openmote-cc2538_armgcc\openstack\02a-MAClow/IEEE802154E.c **** */
 399:build\openmote-cc2538_armgcc\openstack\02a-MAClow/IEEE802154E.c **** void isr_ieee154e_inhibitStart(opentimers_id_t id) {
 1008              		.loc 1 399 0
 1009              		.cfi_startproc
 1010              		@ args = 0, pretend = 0, frame = 8
 1011              		@ frame_needed = 1, uses_anonymous_args = 0
 1012 0514 80B5     		push	{r7, lr}
 1013              		.cfi_def_cfa_offset 8
 1014              		.cfi_offset 7, -8
 1015              		.cfi_offset 14, -4
 1016 0516 82B0     		sub	sp, sp, #8
 1017              		.cfi_def_cfa_offset 16
 1018 0518 00AF     		add	r7, sp, #0
 1019              		.cfi_def_cfa_register 7
 1020 051a 0346     		mov	r3, r0
 1021 051c FB71     		strb	r3, [r7, #7]
 400:build\openmote-cc2538_armgcc\openstack\02a-MAClow/IEEE802154E.c ****     // inhibit serial activity
 401:build\openmote-cc2538_armgcc\openstack\02a-MAClow/IEEE802154E.c ****     openserial_inhibitStart(); // activity_inhibitSerial
 1022              		.loc 1 401 0
 1023 051e FFF7FEFF 		bl	openserial_inhibitStart
 402:build\openmote-cc2538_armgcc\openstack\02a-MAClow/IEEE802154E.c **** }
 1024              		.loc 1 402 0
 1025 0522 00BF     		nop
 1026 0524 0837     		adds	r7, r7, #8
 1027              		.cfi_def_cfa_offset 8
 1028 0526 BD46     		mov	sp, r7
 1029              		.cfi_def_cfa_register 13
 1030              		@ sp needed
 1031 0528 80BD     		pop	{r7, pc}
 1032              		.cfi_endproc
 1033              	.LFE10:
 1035              		.align	1
 1036              		.global	ieee154e_startOfFrame
 1037              		.syntax unified
 1038              		.thumb
 1039              		.thumb_func
 1040              		.fpu softvfp
 1042              	ieee154e_startOfFrame:
 1043              	.LFB11:
 403:build\openmote-cc2538_armgcc\openstack\02a-MAClow/IEEE802154E.c **** 
 404:build\openmote-cc2538_armgcc\openstack\02a-MAClow/IEEE802154E.c **** /**
 405:build\openmote-cc2538_armgcc\openstack\02a-MAClow/IEEE802154E.c **** \brief Indicates the radio just received the first byte of a packet.
 406:build\openmote-cc2538_armgcc\openstack\02a-MAClow/IEEE802154E.c **** 
 407:build\openmote-cc2538_armgcc\openstack\02a-MAClow/IEEE802154E.c **** This function executes in ISR mode.
 408:build\openmote-cc2538_armgcc\openstack\02a-MAClow/IEEE802154E.c **** */
 409:build\openmote-cc2538_armgcc\openstack\02a-MAClow/IEEE802154E.c **** void ieee154e_startOfFrame(PORT_TIMER_WIDTH capturedTime) {
 1044              		.loc 1 409 0
 1045              		.cfi_startproc
 1046              		@ args = 0, pretend = 0, frame = 16
 1047              		@ frame_needed = 1, uses_anonymous_args = 0
 1048 052a 80B5     		push	{r7, lr}
 1049              		.cfi_def_cfa_offset 8
 1050              		.cfi_offset 7, -8
 1051              		.cfi_offset 14, -4
 1052 052c 84B0     		sub	sp, sp, #16
 1053              		.cfi_def_cfa_offset 24
 1054 052e 00AF     		add	r7, sp, #0
 1055              		.cfi_def_cfa_register 7
 1056 0530 7860     		str	r0, [r7, #4]
 410:build\openmote-cc2538_armgcc\openstack\02a-MAClow/IEEE802154E.c ****     PORT_TIMER_WIDTH referenceTime = capturedTime - ieee154e_vars.startOfSlotReference;
 1057              		.loc 1 410 0
 1058 0532 314B     		ldr	r3, .L71
 1059 0534 D3F8AC31 		ldr	r3, [r3, #428]
 1060 0538 7A68     		ldr	r2, [r7, #4]
 1061 053a D31A     		subs	r3, r2, r3
 1062 053c FB60     		str	r3, [r7, #12]
 411:build\openmote-cc2538_armgcc\openstack\02a-MAClow/IEEE802154E.c ****     if (ieee154e_vars.isSync==FALSE) {
 1063              		.loc 1 411 0
 1064 053e 2E4B     		ldr	r3, .L71
 1065 0540 1B7C     		ldrb	r3, [r3, #16]	@ zero_extendqisi2
 1066 0542 83F00103 		eor	r3, r3, #1
 1067 0546 DBB2     		uxtb	r3, r3
 1068 0548 002B     		cmp	r3, #0
 1069 054a 03D0     		beq	.L63
 412:build\openmote-cc2538_armgcc\openstack\02a-MAClow/IEEE802154E.c ****         activity_synchronize_startOfFrame(referenceTime);
 1070              		.loc 1 412 0
 1071 054c F868     		ldr	r0, [r7, #12]
 1072 054e FFF7FEFF 		bl	activity_synchronize_startOfFrame
 1073 0552 48E0     		b	.L64
 1074              	.L63:
 413:build\openmote-cc2538_armgcc\openstack\02a-MAClow/IEEE802154E.c ****     } else {
 414:build\openmote-cc2538_armgcc\openstack\02a-MAClow/IEEE802154E.c ****         switch (ieee154e_vars.state) {
 1075              		.loc 1 414 0
 1076 0554 284B     		ldr	r3, .L71
 1077 0556 93F86431 		ldrb	r3, [r3, #356]	@ zero_extendqisi2
 1078 055a 073B     		subs	r3, r3, #7
 1079 055c 102B     		cmp	r3, #16
 1080 055e 35D8     		bhi	.L65
 1081 0560 01A2     		adr	r2, .L67
 1082 0562 52F823F0 		ldr	pc, [r2, r3, lsl #2]
 1083 0566 00BF     		.p2align 2
 1084              	.L67:
 1085 0568 AD050000 		.word	.L66+1
 1086 056c CD050000 		.word	.L65+1
 1087 0570 CD050000 		.word	.L65+1
 1088 0574 CD050000 		.word	.L65+1
 1089 0578 B5050000 		.word	.L68+1
 1090 057c B5050000 		.word	.L68+1
 1091 0580 CD050000 		.word	.L65+1
 1092 0584 CD050000 		.word	.L65+1
 1093 0588 CD050000 		.word	.L65+1
 1094 058c CD050000 		.word	.L65+1
 1095 0590 BD050000 		.word	.L69+1
 1096 0594 BD050000 		.word	.L69+1
 1097 0598 CD050000 		.word	.L65+1
 1098 059c CD050000 		.word	.L65+1
 1099 05a0 CD050000 		.word	.L65+1
 1100 05a4 CD050000 		.word	.L65+1
 1101 05a8 C5050000 		.word	.L70+1
 1102              		.p2align 1
 1103              	.L66:
 415:build\openmote-cc2538_armgcc\openstack\02a-MAClow/IEEE802154E.c ****             case S_TXDATADELAY:
 416:build\openmote-cc2538_armgcc\openstack\02a-MAClow/IEEE802154E.c ****                 activity_ti4(referenceTime);
 1104              		.loc 1 416 0
 1105 05ac F868     		ldr	r0, [r7, #12]
 1106 05ae FFF7FEFF 		bl	activity_ti4
 417:build\openmote-cc2538_armgcc\openstack\02a-MAClow/IEEE802154E.c ****                 break;
 1107              		.loc 1 417 0
 1108 05b2 18E0     		b	.L64
 1109              	.L68:
 418:build\openmote-cc2538_armgcc\openstack\02a-MAClow/IEEE802154E.c ****             case S_RXACKREADY:
 419:build\openmote-cc2538_armgcc\openstack\02a-MAClow/IEEE802154E.c ****                 /*
 420:build\openmote-cc2538_armgcc\openstack\02a-MAClow/IEEE802154E.c ****                 It is possible to receive in this state for radio where there is no
 421:build\openmote-cc2538_armgcc\openstack\02a-MAClow/IEEE802154E.c ****                 way of differentiated between "ready to listen" and "listening"
 422:build\openmote-cc2538_armgcc\openstack\02a-MAClow/IEEE802154E.c ****                 (e.g. CC2420). We must therefore expect to the start of a packet in
 423:build\openmote-cc2538_armgcc\openstack\02a-MAClow/IEEE802154E.c ****                 this "ready" state.
 424:build\openmote-cc2538_armgcc\openstack\02a-MAClow/IEEE802154E.c ****                 */
 425:build\openmote-cc2538_armgcc\openstack\02a-MAClow/IEEE802154E.c ****                 // no break!
 426:build\openmote-cc2538_armgcc\openstack\02a-MAClow/IEEE802154E.c ****             case S_RXACKLISTEN:
 427:build\openmote-cc2538_armgcc\openstack\02a-MAClow/IEEE802154E.c ****                 activity_ti8(referenceTime);
 1110              		.loc 1 427 0
 1111 05b4 F868     		ldr	r0, [r7, #12]
 1112 05b6 FFF7FEFF 		bl	activity_ti8
 428:build\openmote-cc2538_armgcc\openstack\02a-MAClow/IEEE802154E.c ****                 break;
 1113              		.loc 1 428 0
 1114 05ba 14E0     		b	.L64
 1115              	.L69:
 429:build\openmote-cc2538_armgcc\openstack\02a-MAClow/IEEE802154E.c ****             case S_RXDATAREADY:
 430:build\openmote-cc2538_armgcc\openstack\02a-MAClow/IEEE802154E.c ****                 /*
 431:build\openmote-cc2538_armgcc\openstack\02a-MAClow/IEEE802154E.c ****                 Similarly as above.
 432:build\openmote-cc2538_armgcc\openstack\02a-MAClow/IEEE802154E.c ****                 */
 433:build\openmote-cc2538_armgcc\openstack\02a-MAClow/IEEE802154E.c ****                 // no break!
 434:build\openmote-cc2538_armgcc\openstack\02a-MAClow/IEEE802154E.c ****             case S_RXDATALISTEN:
 435:build\openmote-cc2538_armgcc\openstack\02a-MAClow/IEEE802154E.c ****                 activity_ri4(referenceTime);
 1116              		.loc 1 435 0
 1117 05bc F868     		ldr	r0, [r7, #12]
 1118 05be FFF7FEFF 		bl	activity_ri4
 436:build\openmote-cc2538_armgcc\openstack\02a-MAClow/IEEE802154E.c ****                 break;
 1119              		.loc 1 436 0
 1120 05c2 10E0     		b	.L64
 1121              	.L70:
 437:build\openmote-cc2538_armgcc\openstack\02a-MAClow/IEEE802154E.c ****             case S_TXACKDELAY:
 438:build\openmote-cc2538_armgcc\openstack\02a-MAClow/IEEE802154E.c ****                 activity_ri8(referenceTime);
 1122              		.loc 1 438 0
 1123 05c4 F868     		ldr	r0, [r7, #12]
 1124 05c6 FFF7FEFF 		bl	activity_ri8
 439:build\openmote-cc2538_armgcc\openstack\02a-MAClow/IEEE802154E.c ****                 break;
 1125              		.loc 1 439 0
 1126 05ca 0CE0     		b	.L64
 1127              	.L65:
 440:build\openmote-cc2538_armgcc\openstack\02a-MAClow/IEEE802154E.c ****             default:
 441:build\openmote-cc2538_armgcc\openstack\02a-MAClow/IEEE802154E.c ****                 // log the error
 442:build\openmote-cc2538_armgcc\openstack\02a-MAClow/IEEE802154E.c ****                 openserial_printError(COMPONENT_IEEE802154E,ERR_WRONG_STATE_IN_NEWSLOT,
 443:build\openmote-cc2538_armgcc\openstack\02a-MAClow/IEEE802154E.c ****                                   (errorparameter_t)ieee154e_vars.state,
 1128              		.loc 1 443 0
 1129 05cc 0A4B     		ldr	r3, .L71
 1130 05ce 93F86431 		ldrb	r3, [r3, #356]	@ zero_extendqisi2
 442:build\openmote-cc2538_armgcc\openstack\02a-MAClow/IEEE802154E.c ****                                   (errorparameter_t)ieee154e_vars.state,
 1131              		.loc 1 442 0
 1132 05d2 9AB2     		uxth	r2, r3
 444:build\openmote-cc2538_armgcc\openstack\02a-MAClow/IEEE802154E.c ****                                   (errorparameter_t)ieee154e_vars.slotOffset);
 1133              		.loc 1 444 0
 1134 05d4 084B     		ldr	r3, .L71
 1135 05d6 DB88     		ldrh	r3, [r3, #6]
 442:build\openmote-cc2538_armgcc\openstack\02a-MAClow/IEEE802154E.c ****                                   (errorparameter_t)ieee154e_vars.state,
 1136              		.loc 1 442 0
 1137 05d8 2121     		movs	r1, #33
 1138 05da 0920     		movs	r0, #9
 1139 05dc FFF7FEFF 		bl	openserial_printError
 445:build\openmote-cc2538_armgcc\openstack\02a-MAClow/IEEE802154E.c ****                 // abort
 446:build\openmote-cc2538_armgcc\openstack\02a-MAClow/IEEE802154E.c ****                 endSlot();
 1140              		.loc 1 446 0
 1141 05e0 FFF7FEFF 		bl	endSlot
 447:build\openmote-cc2538_armgcc\openstack\02a-MAClow/IEEE802154E.c ****                 break;
 1142              		.loc 1 447 0
 1143 05e4 00BF     		nop
 1144              	.L64:
 448:build\openmote-cc2538_armgcc\openstack\02a-MAClow/IEEE802154E.c ****         }
 449:build\openmote-cc2538_armgcc\openstack\02a-MAClow/IEEE802154E.c ****     }
 450:build\openmote-cc2538_armgcc\openstack\02a-MAClow/IEEE802154E.c ****     ieee154e_dbg.num_startOfFrame++;
 1145              		.loc 1 450 0
 1146 05e6 054B     		ldr	r3, .L71+4
 1147 05e8 9B68     		ldr	r3, [r3, #8]
 1148 05ea 0133     		adds	r3, r3, #1
 1149 05ec 034A     		ldr	r2, .L71+4
 1150 05ee 9360     		str	r3, [r2, #8]
 451:build\openmote-cc2538_armgcc\openstack\02a-MAClow/IEEE802154E.c **** }
 1151              		.loc 1 451 0
 1152 05f0 00BF     		nop
 1153 05f2 1037     		adds	r7, r7, #16
 1154              		.cfi_def_cfa_offset 8
 1155 05f4 BD46     		mov	sp, r7
 1156              		.cfi_def_cfa_register 13
 1157              		@ sp needed
 1158 05f6 80BD     		pop	{r7, pc}
 1159              	.L72:
 1160              		.align	2
 1161              	.L71:
 1162 05f8 00000000 		.word	ieee154e_vars
 1163 05fc 00000000 		.word	ieee154e_dbg
 1164              		.cfi_endproc
 1165              	.LFE11:
 1167              		.align	1
 1168              		.global	ieee154e_endOfFrame
 1169              		.syntax unified
 1170              		.thumb
 1171              		.thumb_func
 1172              		.fpu softvfp
 1174              	ieee154e_endOfFrame:
 1175              	.LFB12:
 452:build\openmote-cc2538_armgcc\openstack\02a-MAClow/IEEE802154E.c **** 
 453:build\openmote-cc2538_armgcc\openstack\02a-MAClow/IEEE802154E.c **** /**
 454:build\openmote-cc2538_armgcc\openstack\02a-MAClow/IEEE802154E.c **** \brief Indicates the radio just received the last byte of a packet.
 455:build\openmote-cc2538_armgcc\openstack\02a-MAClow/IEEE802154E.c **** 
 456:build\openmote-cc2538_armgcc\openstack\02a-MAClow/IEEE802154E.c **** This function executes in ISR mode.
 457:build\openmote-cc2538_armgcc\openstack\02a-MAClow/IEEE802154E.c **** */
 458:build\openmote-cc2538_armgcc\openstack\02a-MAClow/IEEE802154E.c **** void ieee154e_endOfFrame(PORT_TIMER_WIDTH capturedTime) {
 1176              		.loc 1 458 0
 1177              		.cfi_startproc
 1178              		@ args = 0, pretend = 0, frame = 16
 1179              		@ frame_needed = 1, uses_anonymous_args = 0
 1180 0600 80B5     		push	{r7, lr}
 1181              		.cfi_def_cfa_offset 8
 1182              		.cfi_offset 7, -8
 1183              		.cfi_offset 14, -4
 1184 0602 84B0     		sub	sp, sp, #16
 1185              		.cfi_def_cfa_offset 24
 1186 0604 00AF     		add	r7, sp, #0
 1187              		.cfi_def_cfa_register 7
 1188 0606 7860     		str	r0, [r7, #4]
 459:build\openmote-cc2538_armgcc\openstack\02a-MAClow/IEEE802154E.c ****     PORT_TIMER_WIDTH referenceTime = capturedTime - ieee154e_vars.startOfSlotReference;
 1189              		.loc 1 459 0
 1190 0608 304B     		ldr	r3, .L82
 1191 060a D3F8AC31 		ldr	r3, [r3, #428]
 1192 060e 7A68     		ldr	r2, [r7, #4]
 1193 0610 D31A     		subs	r3, r2, r3
 1194 0612 FB60     		str	r3, [r7, #12]
 460:build\openmote-cc2538_armgcc\openstack\02a-MAClow/IEEE802154E.c ****     if (ieee154e_vars.isSync==FALSE) {
 1195              		.loc 1 460 0
 1196 0614 2D4B     		ldr	r3, .L82
 1197 0616 1B7C     		ldrb	r3, [r3, #16]	@ zero_extendqisi2
 1198 0618 83F00103 		eor	r3, r3, #1
 1199 061c DBB2     		uxtb	r3, r3
 1200 061e 002B     		cmp	r3, #0
 1201 0620 03D0     		beq	.L74
 461:build\openmote-cc2538_armgcc\openstack\02a-MAClow/IEEE802154E.c ****         activity_synchronize_endOfFrame(referenceTime);
 1202              		.loc 1 461 0
 1203 0622 F868     		ldr	r0, [r7, #12]
 1204 0624 FFF7FEFF 		bl	activity_synchronize_endOfFrame
 1205 0628 47E0     		b	.L75
 1206              	.L74:
 462:build\openmote-cc2538_armgcc\openstack\02a-MAClow/IEEE802154E.c ****     } else {
 463:build\openmote-cc2538_armgcc\openstack\02a-MAClow/IEEE802154E.c ****         switch (ieee154e_vars.state) {
 1207              		.loc 1 463 0
 1208 062a 284B     		ldr	r3, .L82
 1209 062c 93F86431 		ldrb	r3, [r3, #356]	@ zero_extendqisi2
 1210 0630 083B     		subs	r3, r3, #8
 1211 0632 102B     		cmp	r3, #16
 1212 0634 34D8     		bhi	.L76
 1213 0636 01A2     		adr	r2, .L78
 1214 0638 52F823F0 		ldr	pc, [r2, r3, lsl #2]
 1215              		.p2align 2
 1216              	.L78:
 1217 063c 81060000 		.word	.L77+1
 1218 0640 A1060000 		.word	.L76+1
 1219 0644 A1060000 		.word	.L76+1
 1220 0648 A1060000 		.word	.L76+1
 1221 064c A1060000 		.word	.L76+1
 1222 0650 89060000 		.word	.L79+1
 1223 0654 A1060000 		.word	.L76+1
 1224 0658 A1060000 		.word	.L76+1
 1225 065c A1060000 		.word	.L76+1
 1226 0660 A1060000 		.word	.L76+1
 1227 0664 A1060000 		.word	.L76+1
 1228 0668 91060000 		.word	.L80+1
 1229 066c A1060000 		.word	.L76+1
 1230 0670 A1060000 		.word	.L76+1
 1231 0674 A1060000 		.word	.L76+1
 1232 0678 A1060000 		.word	.L76+1
 1233 067c 99060000 		.word	.L81+1
 1234              		.p2align 1
 1235              	.L77:
 464:build\openmote-cc2538_armgcc\openstack\02a-MAClow/IEEE802154E.c ****             case S_TXDATA:
 465:build\openmote-cc2538_armgcc\openstack\02a-MAClow/IEEE802154E.c ****                 activity_ti5(referenceTime);
 1236              		.loc 1 465 0
 1237 0680 F868     		ldr	r0, [r7, #12]
 1238 0682 FFF7FEFF 		bl	activity_ti5
 466:build\openmote-cc2538_armgcc\openstack\02a-MAClow/IEEE802154E.c ****                 break;
 1239              		.loc 1 466 0
 1240 0686 18E0     		b	.L75
 1241              	.L79:
 467:build\openmote-cc2538_armgcc\openstack\02a-MAClow/IEEE802154E.c ****             case S_RXACK:
 468:build\openmote-cc2538_armgcc\openstack\02a-MAClow/IEEE802154E.c ****                 activity_ti9(referenceTime);
 1242              		.loc 1 468 0
 1243 0688 F868     		ldr	r0, [r7, #12]
 1244 068a FFF7FEFF 		bl	activity_ti9
 469:build\openmote-cc2538_armgcc\openstack\02a-MAClow/IEEE802154E.c ****                 break;
 1245              		.loc 1 469 0
 1246 068e 14E0     		b	.L75
 1247              	.L80:
 470:build\openmote-cc2538_armgcc\openstack\02a-MAClow/IEEE802154E.c ****             case S_RXDATA:
 471:build\openmote-cc2538_armgcc\openstack\02a-MAClow/IEEE802154E.c ****                 activity_ri5(referenceTime);
 1248              		.loc 1 471 0
 1249 0690 F868     		ldr	r0, [r7, #12]
 1250 0692 FFF7FEFF 		bl	activity_ri5
 472:build\openmote-cc2538_armgcc\openstack\02a-MAClow/IEEE802154E.c ****                 break;
 1251              		.loc 1 472 0
 1252 0696 10E0     		b	.L75
 1253              	.L81:
 473:build\openmote-cc2538_armgcc\openstack\02a-MAClow/IEEE802154E.c ****             case S_TXACK:
 474:build\openmote-cc2538_armgcc\openstack\02a-MAClow/IEEE802154E.c ****                 activity_ri9(referenceTime);
 1254              		.loc 1 474 0
 1255 0698 F868     		ldr	r0, [r7, #12]
 1256 069a FFF7FEFF 		bl	activity_ri9
 475:build\openmote-cc2538_armgcc\openstack\02a-MAClow/IEEE802154E.c ****                 break;
 1257              		.loc 1 475 0
 1258 069e 0CE0     		b	.L75
 1259              	.L76:
 476:build\openmote-cc2538_armgcc\openstack\02a-MAClow/IEEE802154E.c ****             default:
 477:build\openmote-cc2538_armgcc\openstack\02a-MAClow/IEEE802154E.c ****                 // log the error
 478:build\openmote-cc2538_armgcc\openstack\02a-MAClow/IEEE802154E.c ****                 openserial_printError(
 479:build\openmote-cc2538_armgcc\openstack\02a-MAClow/IEEE802154E.c ****                     COMPONENT_IEEE802154E,ERR_WRONG_STATE_IN_ENDOFFRAME,
 480:build\openmote-cc2538_armgcc\openstack\02a-MAClow/IEEE802154E.c ****                     (errorparameter_t)ieee154e_vars.state,
 1260              		.loc 1 480 0
 1261 06a0 0A4B     		ldr	r3, .L82
 1262 06a2 93F86431 		ldrb	r3, [r3, #356]	@ zero_extendqisi2
 478:build\openmote-cc2538_armgcc\openstack\02a-MAClow/IEEE802154E.c ****                     COMPONENT_IEEE802154E,ERR_WRONG_STATE_IN_ENDOFFRAME,
 1263              		.loc 1 478 0
 1264 06a6 9AB2     		uxth	r2, r3
 481:build\openmote-cc2538_armgcc\openstack\02a-MAClow/IEEE802154E.c ****                     (errorparameter_t)ieee154e_vars.slotOffset
 1265              		.loc 1 481 0
 1266 06a8 084B     		ldr	r3, .L82
 1267 06aa DB88     		ldrh	r3, [r3, #6]
 478:build\openmote-cc2538_armgcc\openstack\02a-MAClow/IEEE802154E.c ****                     COMPONENT_IEEE802154E,ERR_WRONG_STATE_IN_ENDOFFRAME,
 1268              		.loc 1 478 0
 1269 06ac 2221     		movs	r1, #34
 1270 06ae 0920     		movs	r0, #9
 1271 06b0 FFF7FEFF 		bl	openserial_printError
 482:build\openmote-cc2538_armgcc\openstack\02a-MAClow/IEEE802154E.c ****                 );
 483:build\openmote-cc2538_armgcc\openstack\02a-MAClow/IEEE802154E.c ****                 // abort
 484:build\openmote-cc2538_armgcc\openstack\02a-MAClow/IEEE802154E.c ****                 endSlot();
 1272              		.loc 1 484 0
 1273 06b4 FFF7FEFF 		bl	endSlot
 485:build\openmote-cc2538_armgcc\openstack\02a-MAClow/IEEE802154E.c ****                 break;
 1274              		.loc 1 485 0
 1275 06b8 00BF     		nop
 1276              	.L75:
 486:build\openmote-cc2538_armgcc\openstack\02a-MAClow/IEEE802154E.c ****         }
 487:build\openmote-cc2538_armgcc\openstack\02a-MAClow/IEEE802154E.c ****     }
 488:build\openmote-cc2538_armgcc\openstack\02a-MAClow/IEEE802154E.c ****     ieee154e_dbg.num_endOfFrame++;
 1277              		.loc 1 488 0
 1278 06ba 054B     		ldr	r3, .L82+4
 1279 06bc DB68     		ldr	r3, [r3, #12]
 1280 06be 0133     		adds	r3, r3, #1
 1281 06c0 034A     		ldr	r2, .L82+4
 1282 06c2 D360     		str	r3, [r2, #12]
 489:build\openmote-cc2538_armgcc\openstack\02a-MAClow/IEEE802154E.c **** }
 1283              		.loc 1 489 0
 1284 06c4 00BF     		nop
 1285 06c6 1037     		adds	r7, r7, #16
 1286              		.cfi_def_cfa_offset 8
 1287 06c8 BD46     		mov	sp, r7
 1288              		.cfi_def_cfa_register 13
 1289              		@ sp needed
 1290 06ca 80BD     		pop	{r7, pc}
 1291              	.L83:
 1292              		.align	2
 1293              	.L82:
 1294 06cc 00000000 		.word	ieee154e_vars
 1295 06d0 00000000 		.word	ieee154e_dbg
 1296              		.cfi_endproc
 1297              	.LFE12:
 1299              		.align	1
 1300              		.global	debugPrint_asn
 1301              		.syntax unified
 1302              		.thumb
 1303              		.thumb_func
 1304              		.fpu softvfp
 1306              	debugPrint_asn:
 1307              	.LFB13:
 490:build\openmote-cc2538_armgcc\openstack\02a-MAClow/IEEE802154E.c **** 
 491:build\openmote-cc2538_armgcc\openstack\02a-MAClow/IEEE802154E.c **** //======= misc
 492:build\openmote-cc2538_armgcc\openstack\02a-MAClow/IEEE802154E.c **** 
 493:build\openmote-cc2538_armgcc\openstack\02a-MAClow/IEEE802154E.c **** /**
 494:build\openmote-cc2538_armgcc\openstack\02a-MAClow/IEEE802154E.c **** \brief Trigger this module to print status information, over serial.
 495:build\openmote-cc2538_armgcc\openstack\02a-MAClow/IEEE802154E.c **** 
 496:build\openmote-cc2538_armgcc\openstack\02a-MAClow/IEEE802154E.c **** debugPrint_* functions are used by the openserial module to continuously print
 497:build\openmote-cc2538_armgcc\openstack\02a-MAClow/IEEE802154E.c **** status information about several modules in the OpenWSN stack.
 498:build\openmote-cc2538_armgcc\openstack\02a-MAClow/IEEE802154E.c **** 
 499:build\openmote-cc2538_armgcc\openstack\02a-MAClow/IEEE802154E.c **** \returns TRUE if this function printed something, FALSE otherwise.
 500:build\openmote-cc2538_armgcc\openstack\02a-MAClow/IEEE802154E.c **** */
 501:build\openmote-cc2538_armgcc\openstack\02a-MAClow/IEEE802154E.c **** bool debugPrint_asn(void) {
 1308              		.loc 1 501 0
 1309              		.cfi_startproc
 1310              		@ args = 0, pretend = 0, frame = 8
 1311              		@ frame_needed = 1, uses_anonymous_args = 0
 1312 06d4 80B5     		push	{r7, lr}
 1313              		.cfi_def_cfa_offset 8
 1314              		.cfi_offset 7, -8
 1315              		.cfi_offset 14, -4
 1316 06d6 82B0     		sub	sp, sp, #8
 1317              		.cfi_def_cfa_offset 16
 1318 06d8 00AF     		add	r7, sp, #0
 1319              		.cfi_def_cfa_register 7
 502:build\openmote-cc2538_armgcc\openstack\02a-MAClow/IEEE802154E.c ****     asn_t output;
 503:build\openmote-cc2538_armgcc\openstack\02a-MAClow/IEEE802154E.c ****     output.byte4         =  ieee154e_vars.asn.byte4;
 1320              		.loc 1 503 0
 1321 06da 0D4B     		ldr	r3, .L86
 1322 06dc 1B78     		ldrb	r3, [r3]	@ zero_extendqisi2
 1323 06de 3B70     		strb	r3, [r7]
 504:build\openmote-cc2538_armgcc\openstack\02a-MAClow/IEEE802154E.c ****     output.bytes2and3    =  ieee154e_vars.asn.bytes2and3;
 1324              		.loc 1 504 0
 1325 06e0 0B4B     		ldr	r3, .L86
 1326 06e2 B3F80130 		ldrh	r3, [r3, #1]	@ unaligned
 1327 06e6 9BB2     		uxth	r3, r3
 1328 06e8 A7F80130 		strh	r3, [r7, #1]	@ unaligned
 505:build\openmote-cc2538_armgcc\openstack\02a-MAClow/IEEE802154E.c ****     output.bytes0and1    =  ieee154e_vars.asn.bytes0and1;
 1329              		.loc 1 505 0
 1330 06ec 084B     		ldr	r3, .L86
 1331 06ee B3F80330 		ldrh	r3, [r3, #3]	@ unaligned
 1332 06f2 9BB2     		uxth	r3, r3
 1333 06f4 A7F80330 		strh	r3, [r7, #3]	@ unaligned
 506:build\openmote-cc2538_armgcc\openstack\02a-MAClow/IEEE802154E.c ****     openserial_printStatus(STATUS_ASN,(uint8_t*)&output,sizeof(output));
 1334              		.loc 1 506 0
 1335 06f8 3B46     		mov	r3, r7
 1336 06fa 0522     		movs	r2, #5
 1337 06fc 1946     		mov	r1, r3
 1338 06fe 0420     		movs	r0, #4
 1339 0700 FFF7FEFF 		bl	openserial_printStatus
 507:build\openmote-cc2538_armgcc\openstack\02a-MAClow/IEEE802154E.c ****     return TRUE;
 1340              		.loc 1 507 0
 1341 0704 0123     		movs	r3, #1
 508:build\openmote-cc2538_armgcc\openstack\02a-MAClow/IEEE802154E.c **** }
 1342              		.loc 1 508 0
 1343 0706 1846     		mov	r0, r3
 1344 0708 0837     		adds	r7, r7, #8
 1345              		.cfi_def_cfa_offset 8
 1346 070a BD46     		mov	sp, r7
 1347              		.cfi_def_cfa_register 13
 1348              		@ sp needed
 1349 070c 80BD     		pop	{r7, pc}
 1350              	.L87:
 1351 070e 00BF     		.align	2
 1352              	.L86:
 1353 0710 00000000 		.word	ieee154e_vars
 1354              		.cfi_endproc
 1355              	.LFE13:
 1357              		.align	1
 1358              		.global	debugPrint_isSync
 1359              		.syntax unified
 1360              		.thumb
 1361              		.thumb_func
 1362              		.fpu softvfp
 1364              	debugPrint_isSync:
 1365              	.LFB14:
 509:build\openmote-cc2538_armgcc\openstack\02a-MAClow/IEEE802154E.c **** 
 510:build\openmote-cc2538_armgcc\openstack\02a-MAClow/IEEE802154E.c **** /**
 511:build\openmote-cc2538_armgcc\openstack\02a-MAClow/IEEE802154E.c **** \brief Trigger this module to print status information, over serial.
 512:build\openmote-cc2538_armgcc\openstack\02a-MAClow/IEEE802154E.c **** 
 513:build\openmote-cc2538_armgcc\openstack\02a-MAClow/IEEE802154E.c **** debugPrint_* functions are used by the openserial module to continuously print
 514:build\openmote-cc2538_armgcc\openstack\02a-MAClow/IEEE802154E.c **** status information about several modules in the OpenWSN stack.
 515:build\openmote-cc2538_armgcc\openstack\02a-MAClow/IEEE802154E.c **** 
 516:build\openmote-cc2538_armgcc\openstack\02a-MAClow/IEEE802154E.c **** \returns TRUE if this function printed something, FALSE otherwise.
 517:build\openmote-cc2538_armgcc\openstack\02a-MAClow/IEEE802154E.c **** */
 518:build\openmote-cc2538_armgcc\openstack\02a-MAClow/IEEE802154E.c **** bool debugPrint_isSync(void) {
 1366              		.loc 1 518 0
 1367              		.cfi_startproc
 1368              		@ args = 0, pretend = 0, frame = 8
 1369              		@ frame_needed = 1, uses_anonymous_args = 0
 1370 0714 80B5     		push	{r7, lr}
 1371              		.cfi_def_cfa_offset 8
 1372              		.cfi_offset 7, -8
 1373              		.cfi_offset 14, -4
 1374 0716 82B0     		sub	sp, sp, #8
 1375              		.cfi_def_cfa_offset 16
 1376 0718 00AF     		add	r7, sp, #0
 1377              		.cfi_def_cfa_register 7
 519:build\openmote-cc2538_armgcc\openstack\02a-MAClow/IEEE802154E.c ****     uint8_t output=0;
 1378              		.loc 1 519 0
 1379 071a 0023     		movs	r3, #0
 1380 071c FB71     		strb	r3, [r7, #7]
 520:build\openmote-cc2538_armgcc\openstack\02a-MAClow/IEEE802154E.c ****     output = ieee154e_vars.isSync;
 1381              		.loc 1 520 0
 1382 071e 074B     		ldr	r3, .L90
 1383 0720 1B7C     		ldrb	r3, [r3, #16]	@ zero_extendqisi2
 1384 0722 FB71     		strb	r3, [r7, #7]
 521:build\openmote-cc2538_armgcc\openstack\02a-MAClow/IEEE802154E.c ****     openserial_printStatus(STATUS_ISSYNC,(uint8_t*)&output,sizeof(uint8_t));
 1385              		.loc 1 521 0
 1386 0724 FB1D     		adds	r3, r7, #7
 1387 0726 0122     		movs	r2, #1
 1388 0728 1946     		mov	r1, r3
 1389 072a 0020     		movs	r0, #0
 1390 072c FFF7FEFF 		bl	openserial_printStatus
 522:build\openmote-cc2538_armgcc\openstack\02a-MAClow/IEEE802154E.c ****     return TRUE;
 1391              		.loc 1 522 0
 1392 0730 0123     		movs	r3, #1
 523:build\openmote-cc2538_armgcc\openstack\02a-MAClow/IEEE802154E.c **** }
 1393              		.loc 1 523 0
 1394 0732 1846     		mov	r0, r3
 1395 0734 0837     		adds	r7, r7, #8
 1396              		.cfi_def_cfa_offset 8
 1397 0736 BD46     		mov	sp, r7
 1398              		.cfi_def_cfa_register 13
 1399              		@ sp needed
 1400 0738 80BD     		pop	{r7, pc}
 1401              	.L91:
 1402 073a 00BF     		.align	2
 1403              	.L90:
 1404 073c 00000000 		.word	ieee154e_vars
 1405              		.cfi_endproc
 1406              	.LFE14:
 1408              		.align	1
 1409              		.global	debugPrint_macStats
 1410              		.syntax unified
 1411              		.thumb
 1412              		.thumb_func
 1413              		.fpu softvfp
 1415              	debugPrint_macStats:
 1416              	.LFB15:
 524:build\openmote-cc2538_armgcc\openstack\02a-MAClow/IEEE802154E.c **** 
 525:build\openmote-cc2538_armgcc\openstack\02a-MAClow/IEEE802154E.c **** /**
 526:build\openmote-cc2538_armgcc\openstack\02a-MAClow/IEEE802154E.c **** \brief Trigger this module to print status information, over serial.
 527:build\openmote-cc2538_armgcc\openstack\02a-MAClow/IEEE802154E.c **** 
 528:build\openmote-cc2538_armgcc\openstack\02a-MAClow/IEEE802154E.c **** debugPrint_* functions are used by the openserial module to continuously print
 529:build\openmote-cc2538_armgcc\openstack\02a-MAClow/IEEE802154E.c **** status information about several modules in the OpenWSN stack.
 530:build\openmote-cc2538_armgcc\openstack\02a-MAClow/IEEE802154E.c **** 
 531:build\openmote-cc2538_armgcc\openstack\02a-MAClow/IEEE802154E.c **** \returns TRUE if this function printed something, FALSE otherwise.
 532:build\openmote-cc2538_armgcc\openstack\02a-MAClow/IEEE802154E.c **** */
 533:build\openmote-cc2538_armgcc\openstack\02a-MAClow/IEEE802154E.c **** bool debugPrint_macStats(void) {
 1417              		.loc 1 533 0
 1418              		.cfi_startproc
 1419              		@ args = 0, pretend = 0, frame = 0
 1420              		@ frame_needed = 1, uses_anonymous_args = 0
 1421 0740 80B5     		push	{r7, lr}
 1422              		.cfi_def_cfa_offset 8
 1423              		.cfi_offset 7, -8
 1424              		.cfi_offset 14, -4
 1425 0742 00AF     		add	r7, sp, #0
 1426              		.cfi_def_cfa_register 7
 534:build\openmote-cc2538_armgcc\openstack\02a-MAClow/IEEE802154E.c ****     // send current stats over serial
 535:build\openmote-cc2538_armgcc\openstack\02a-MAClow/IEEE802154E.c ****     openserial_printStatus(STATUS_MACSTATS,(uint8_t*)&ieee154e_stats,sizeof(ieee154e_stats_t));
 1427              		.loc 1 535 0
 1428 0744 0F22     		movs	r2, #15
 1429 0746 0349     		ldr	r1, .L94
 1430 0748 0520     		movs	r0, #5
 1431 074a FFF7FEFF 		bl	openserial_printStatus
 536:build\openmote-cc2538_armgcc\openstack\02a-MAClow/IEEE802154E.c ****     return TRUE;
 1432              		.loc 1 536 0
 1433 074e 0123     		movs	r3, #1
 537:build\openmote-cc2538_armgcc\openstack\02a-MAClow/IEEE802154E.c **** }
 1434              		.loc 1 537 0
 1435 0750 1846     		mov	r0, r3
 1436 0752 80BD     		pop	{r7, pc}
 1437              	.L95:
 1438              		.align	2
 1439              	.L94:
 1440 0754 00000000 		.word	ieee154e_stats
 1441              		.cfi_endproc
 1442              	.LFE15:
 1444              		.align	1
 1445              		.global	activity_synchronize_newSlot
 1446              		.syntax unified
 1447              		.thumb
 1448              		.thumb_func
 1449              		.fpu softvfp
 1451              	activity_synchronize_newSlot:
 1452              	.LFB16:
 538:build\openmote-cc2538_armgcc\openstack\02a-MAClow/IEEE802154E.c **** 
 539:build\openmote-cc2538_armgcc\openstack\02a-MAClow/IEEE802154E.c **** //=========================== private =========================================
 540:build\openmote-cc2538_armgcc\openstack\02a-MAClow/IEEE802154E.c **** 
 541:build\openmote-cc2538_armgcc\openstack\02a-MAClow/IEEE802154E.c **** //======= SYNCHRONIZING
 542:build\openmote-cc2538_armgcc\openstack\02a-MAClow/IEEE802154E.c **** 
 543:build\openmote-cc2538_armgcc\openstack\02a-MAClow/IEEE802154E.c **** port_INLINE void activity_synchronize_newSlot(void) {
 1453              		.loc 1 543 0
 1454              		.cfi_startproc
 1455              		@ args = 0, pretend = 0, frame = 0
 1456              		@ frame_needed = 1, uses_anonymous_args = 0
 1457 0758 80B5     		push	{r7, lr}
 1458              		.cfi_def_cfa_offset 8
 1459              		.cfi_offset 7, -8
 1460              		.cfi_offset 14, -4
 1461 075a 82B0     		sub	sp, sp, #8
 1462              		.cfi_def_cfa_offset 16
 1463 075c 02AF     		add	r7, sp, #8
 1464              		.cfi_def_cfa 7, 8
 544:build\openmote-cc2538_armgcc\openstack\02a-MAClow/IEEE802154E.c **** 
 545:build\openmote-cc2538_armgcc\openstack\02a-MAClow/IEEE802154E.c ****     // I'm in the middle of receiving a packet
 546:build\openmote-cc2538_armgcc\openstack\02a-MAClow/IEEE802154E.c ****     if (ieee154e_vars.state==S_SYNCRX) {
 1465              		.loc 1 546 0
 1466 075e 504B     		ldr	r3, .L104
 1467 0760 93F86431 		ldrb	r3, [r3, #356]	@ zero_extendqisi2
 1468 0764 022B     		cmp	r3, #2
 1469 0766 00F09880 		beq	.L103
 547:build\openmote-cc2538_armgcc\openstack\02a-MAClow/IEEE802154E.c ****         return;
 548:build\openmote-cc2538_armgcc\openstack\02a-MAClow/IEEE802154E.c ****     }
 549:build\openmote-cc2538_armgcc\openstack\02a-MAClow/IEEE802154E.c **** 
 550:build\openmote-cc2538_armgcc\openstack\02a-MAClow/IEEE802154E.c ****     ieee154e_vars.radioOnInit=sctimer_readCounter();
 1470              		.loc 1 550 0
 1471 076a FFF7FEFF 		bl	sctimer_readCounter
 1472 076e 0246     		mov	r2, r0
 1473 0770 4B4B     		ldr	r3, .L104
 1474 0772 C3F89821 		str	r2, [r3, #408]
 551:build\openmote-cc2538_armgcc\openstack\02a-MAClow/IEEE802154E.c ****     ieee154e_vars.radioOnThisSlot=TRUE;
 1475              		.loc 1 551 0
 1476 0776 4A4B     		ldr	r3, .L104
 1477 0778 0122     		movs	r2, #1
 1478 077a 83F8A021 		strb	r2, [r3, #416]
 552:build\openmote-cc2538_armgcc\openstack\02a-MAClow/IEEE802154E.c **** 
 553:build\openmote-cc2538_armgcc\openstack\02a-MAClow/IEEE802154E.c ****     // if this is the first time I call this function while not synchronized,
 554:build\openmote-cc2538_armgcc\openstack\02a-MAClow/IEEE802154E.c ****     // switch on the radio in Rx mode
 555:build\openmote-cc2538_armgcc\openstack\02a-MAClow/IEEE802154E.c ****     if (ieee154e_vars.state!=S_SYNCLISTEN) {
 1479              		.loc 1 555 0
 1480 077e 484B     		ldr	r3, .L104
 1481 0780 93F86431 		ldrb	r3, [r3, #356]	@ zero_extendqisi2
 1482 0784 012B     		cmp	r3, #1
 1483 0786 13D0     		beq	.L99
 556:build\openmote-cc2538_armgcc\openstack\02a-MAClow/IEEE802154E.c ****         // change state
 557:build\openmote-cc2538_armgcc\openstack\02a-MAClow/IEEE802154E.c ****         changeState(S_SYNCLISTEN);
 1484              		.loc 1 557 0
 1485 0788 0120     		movs	r0, #1
 1486 078a FFF7FEFF 		bl	changeState
 558:build\openmote-cc2538_armgcc\openstack\02a-MAClow/IEEE802154E.c **** 
 559:build\openmote-cc2538_armgcc\openstack\02a-MAClow/IEEE802154E.c ****         // turn off the radio (in case it wasn't yet)
 560:build\openmote-cc2538_armgcc\openstack\02a-MAClow/IEEE802154E.c ****         radio_rfOff();
 1487              		.loc 1 560 0
 1488 078e FFF7FEFF 		bl	radio_rfOff
 561:build\openmote-cc2538_armgcc\openstack\02a-MAClow/IEEE802154E.c **** 
 562:build\openmote-cc2538_armgcc\openstack\02a-MAClow/IEEE802154E.c ****         // update record of current channel
 563:build\openmote-cc2538_armgcc\openstack\02a-MAClow/IEEE802154E.c ****         ieee154e_vars.freq =  15; // (openrandom_get16b()&0x0F) + 11;
 1489              		.loc 1 563 0
 1490 0792 434B     		ldr	r3, .L104
 1491 0794 0F22     		movs	r2, #15
 1492 0796 83F88021 		strb	r2, [r3, #384]
 564:build\openmote-cc2538_armgcc\openstack\02a-MAClow/IEEE802154E.c **** 
 565:build\openmote-cc2538_armgcc\openstack\02a-MAClow/IEEE802154E.c ****         // configure the radio to listen to the frequency
 566:build\openmote-cc2538_armgcc\openstack\02a-MAClow/IEEE802154E.c ****         radio_setFrequency(ieee154e_vars.freq);
 1493              		.loc 1 566 0
 1494 079a 414B     		ldr	r3, .L104
 1495 079c 93F88031 		ldrb	r3, [r3, #384]	@ zero_extendqisi2
 1496 07a0 1846     		mov	r0, r3
 1497 07a2 FFF7FEFF 		bl	radio_setFrequency
 567:build\openmote-cc2538_armgcc\openstack\02a-MAClow/IEEE802154E.c **** 
 568:build\openmote-cc2538_armgcc\openstack\02a-MAClow/IEEE802154E.c **** #ifdef SLOT_FSM_IMPLEMENTATION_MULTIPLE_TIMER_INTERRUPT
 569:build\openmote-cc2538_armgcc\openstack\02a-MAClow/IEEE802154E.c ****         sctimer_setCapture(ACTION_RX_SFD_DONE);
 570:build\openmote-cc2538_armgcc\openstack\02a-MAClow/IEEE802154E.c ****         sctimer_setCapture(ACTION_RX_DONE);
 571:build\openmote-cc2538_armgcc\openstack\02a-MAClow/IEEE802154E.c **** #endif
 572:build\openmote-cc2538_armgcc\openstack\02a-MAClow/IEEE802154E.c **** 
 573:build\openmote-cc2538_armgcc\openstack\02a-MAClow/IEEE802154E.c ****         // switch on the radio in Rx mode.
 574:build\openmote-cc2538_armgcc\openstack\02a-MAClow/IEEE802154E.c ****         radio_rxEnable();
 1498              		.loc 1 574 0
 1499 07a6 FFF7FEFF 		bl	radio_rxEnable
 575:build\openmote-cc2538_armgcc\openstack\02a-MAClow/IEEE802154E.c ****         radio_rxNow();
 1500              		.loc 1 575 0
 1501 07aa FFF7FEFF 		bl	radio_rxNow
 1502 07ae 33E0     		b	.L100
 1503              	.L99:
 576:build\openmote-cc2538_armgcc\openstack\02a-MAClow/IEEE802154E.c ****     } else {
 577:build\openmote-cc2538_armgcc\openstack\02a-MAClow/IEEE802154E.c ****         // I'm listening last slot
 578:build\openmote-cc2538_armgcc\openstack\02a-MAClow/IEEE802154E.c ****         ieee154e_stats.numTicsOn    += ieee154e_vars.slotDuration;
 1504              		.loc 1 578 0
 1505 07b0 3C4B     		ldr	r3, .L104+4
 1506 07b2 D3F80730 		ldr	r3, [r3, #7]	@ unaligned
 1507 07b6 3A4A     		ldr	r2, .L104
 1508 07b8 B2F8A621 		ldrh	r2, [r2, #422]
 1509 07bc 1344     		add	r3, r3, r2
 1510 07be 394A     		ldr	r2, .L104+4
 1511 07c0 C2F80730 		str	r3, [r2, #7]	@ unaligned
 579:build\openmote-cc2538_armgcc\openstack\02a-MAClow/IEEE802154E.c ****         ieee154e_stats.numTicsTotal += ieee154e_vars.slotDuration;
 1512              		.loc 1 579 0
 1513 07c4 374B     		ldr	r3, .L104+4
 1514 07c6 D3F80B30 		ldr	r3, [r3, #11]	@ unaligned
 1515 07ca 354A     		ldr	r2, .L104
 1516 07cc B2F8A621 		ldrh	r2, [r2, #422]
 1517 07d0 1344     		add	r3, r3, r2
 1518 07d2 344A     		ldr	r2, .L104+4
 1519 07d4 C2F80B30 		str	r3, [r2, #11]	@ unaligned
 580:build\openmote-cc2538_armgcc\openstack\02a-MAClow/IEEE802154E.c **** 
 581:build\openmote-cc2538_armgcc\openstack\02a-MAClow/IEEE802154E.c **** #ifdef SLOT_FSM_IMPLEMENTATION_MULTIPLE_TIMER_INTERRUPT
 582:build\openmote-cc2538_armgcc\openstack\02a-MAClow/IEEE802154E.c ****         sctimer_setCapture(ACTION_RX_SFD_DONE);
 583:build\openmote-cc2538_armgcc\openstack\02a-MAClow/IEEE802154E.c ****         sctimer_setCapture(ACTION_RX_DONE);
 584:build\openmote-cc2538_armgcc\openstack\02a-MAClow/IEEE802154E.c **** #endif
 585:build\openmote-cc2538_armgcc\openstack\02a-MAClow/IEEE802154E.c **** 
 586:build\openmote-cc2538_armgcc\openstack\02a-MAClow/IEEE802154E.c ****         if (ieee154e_vars.asn.bytes0and1%(NUM_CHANNELS*EB_PORTION)==0) {
 1520              		.loc 1 586 0
 1521 07d8 314B     		ldr	r3, .L104
 1522 07da B3F80330 		ldrh	r3, [r3, #3]	@ unaligned
 1523 07de 9AB2     		uxth	r2, r3
 1524 07e0 314B     		ldr	r3, .L104+8
 1525 07e2 A3FB0213 		umull	r1, r3, r3, r2
 1526 07e6 D909     		lsrs	r1, r3, #7
 1527 07e8 0B46     		mov	r3, r1
 1528 07ea 9B00     		lsls	r3, r3, #2
 1529 07ec 0B44     		add	r3, r3, r1
 1530 07ee 5B01     		lsls	r3, r3, #5
 1531 07f0 D31A     		subs	r3, r2, r3
 1532 07f2 9BB2     		uxth	r3, r3
 1533 07f4 002B     		cmp	r3, #0
 1534 07f6 0BD1     		bne	.L101
 587:build\openmote-cc2538_armgcc\openstack\02a-MAClow/IEEE802154E.c ****             // turn off the radio (in case it wasn't yet)
 588:build\openmote-cc2538_armgcc\openstack\02a-MAClow/IEEE802154E.c ****             radio_rfOff();
 1535              		.loc 1 588 0
 1536 07f8 FFF7FEFF 		bl	radio_rfOff
 589:build\openmote-cc2538_armgcc\openstack\02a-MAClow/IEEE802154E.c **** 
 590:build\openmote-cc2538_armgcc\openstack\02a-MAClow/IEEE802154E.c ****             // update record of current channel
 591:build\openmote-cc2538_armgcc\openstack\02a-MAClow/IEEE802154E.c ****             ieee154e_vars.freq =  15; // (openrandom_get16b()&0x0F) + 11;
 1537              		.loc 1 591 0
 1538 07fc 284B     		ldr	r3, .L104
 1539 07fe 0F22     		movs	r2, #15
 1540 0800 83F88021 		strb	r2, [r3, #384]
 592:build\openmote-cc2538_armgcc\openstack\02a-MAClow/IEEE802154E.c **** 
 593:build\openmote-cc2538_armgcc\openstack\02a-MAClow/IEEE802154E.c ****             // configure the radio to listen to the frequency
 594:build\openmote-cc2538_armgcc\openstack\02a-MAClow/IEEE802154E.c ****             radio_setFrequency(ieee154e_vars.freq);
 1541              		.loc 1 594 0
 1542 0804 264B     		ldr	r3, .L104
 1543 0806 93F88031 		ldrb	r3, [r3, #384]	@ zero_extendqisi2
 1544 080a 1846     		mov	r0, r3
 1545 080c FFF7FEFF 		bl	radio_setFrequency
 1546              	.L101:
 595:build\openmote-cc2538_armgcc\openstack\02a-MAClow/IEEE802154E.c ****         }
 596:build\openmote-cc2538_armgcc\openstack\02a-MAClow/IEEE802154E.c **** 
 597:build\openmote-cc2538_armgcc\openstack\02a-MAClow/IEEE802154E.c ****         // switch on the radio in Rx mode.
 598:build\openmote-cc2538_armgcc\openstack\02a-MAClow/IEEE802154E.c ****         radio_rxEnable();
 1547              		.loc 1 598 0
 1548 0810 FFF7FEFF 		bl	radio_rxEnable
 599:build\openmote-cc2538_armgcc\openstack\02a-MAClow/IEEE802154E.c ****         radio_rxNow();
 1549              		.loc 1 599 0
 1550 0814 FFF7FEFF 		bl	radio_rxNow
 1551              	.L100:
 600:build\openmote-cc2538_armgcc\openstack\02a-MAClow/IEEE802154E.c ****     }
 601:build\openmote-cc2538_armgcc\openstack\02a-MAClow/IEEE802154E.c **** 
 602:build\openmote-cc2538_armgcc\openstack\02a-MAClow/IEEE802154E.c ****     // if I'm already in S_SYNCLISTEN, while not synchronized,
 603:build\openmote-cc2538_armgcc\openstack\02a-MAClow/IEEE802154E.c ****     // but the synchronizing channel has been changed,
 604:build\openmote-cc2538_armgcc\openstack\02a-MAClow/IEEE802154E.c ****     // change the synchronizing channel
 605:build\openmote-cc2538_armgcc\openstack\02a-MAClow/IEEE802154E.c ****     if ((ieee154e_vars.state==S_SYNCLISTEN) && (ieee154e_vars.singleChannelChanged == TRUE)) {
 1552              		.loc 1 605 0
 1553 0818 214B     		ldr	r3, .L104
 1554 081a 93F86431 		ldrb	r3, [r3, #356]	@ zero_extendqisi2
 1555 081e 012B     		cmp	r3, #1
 1556 0820 1FD1     		bne	.L102
 1557              		.loc 1 605 0 is_stmt 0 discriminator 1
 1558 0822 1F4B     		ldr	r3, .L104
 1559 0824 93F88331 		ldrb	r3, [r3, #387]	@ zero_extendqisi2
 1560 0828 002B     		cmp	r3, #0
 1561 082a 1AD0     		beq	.L102
 606:build\openmote-cc2538_armgcc\openstack\02a-MAClow/IEEE802154E.c ****         // turn off the radio (in case it wasn't yet)
 607:build\openmote-cc2538_armgcc\openstack\02a-MAClow/IEEE802154E.c ****         radio_rfOff();
 1562              		.loc 1 607 0 is_stmt 1
 1563 082c FFF7FEFF 		bl	radio_rfOff
 608:build\openmote-cc2538_armgcc\openstack\02a-MAClow/IEEE802154E.c **** 
 609:build\openmote-cc2538_armgcc\openstack\02a-MAClow/IEEE802154E.c ****         // update record of current channel
 610:build\openmote-cc2538_armgcc\openstack\02a-MAClow/IEEE802154E.c ****         ieee154e_vars.freq = calculateFrequency(ieee154e_vars.singleChannel);
 1564              		.loc 1 610 0
 1565 0830 1B4B     		ldr	r3, .L104
 1566 0832 93F88231 		ldrb	r3, [r3, #386]	@ zero_extendqisi2
 1567 0836 1846     		mov	r0, r3
 1568 0838 FFF7FEFF 		bl	calculateFrequency
 1569 083c 0346     		mov	r3, r0
 1570 083e 1A46     		mov	r2, r3
 1571 0840 174B     		ldr	r3, .L104
 1572 0842 83F88021 		strb	r2, [r3, #384]
 611:build\openmote-cc2538_armgcc\openstack\02a-MAClow/IEEE802154E.c **** 
 612:build\openmote-cc2538_armgcc\openstack\02a-MAClow/IEEE802154E.c ****         // configure the radio to listen to the default synchronizing channel
 613:build\openmote-cc2538_armgcc\openstack\02a-MAClow/IEEE802154E.c ****         radio_setFrequency(ieee154e_vars.freq);
 1573              		.loc 1 613 0
 1574 0846 164B     		ldr	r3, .L104
 1575 0848 93F88031 		ldrb	r3, [r3, #384]	@ zero_extendqisi2
 1576 084c 1846     		mov	r0, r3
 1577 084e FFF7FEFF 		bl	radio_setFrequency
 614:build\openmote-cc2538_armgcc\openstack\02a-MAClow/IEEE802154E.c **** 
 615:build\openmote-cc2538_armgcc\openstack\02a-MAClow/IEEE802154E.c **** #ifdef SLOT_FSM_IMPLEMENTATION_MULTIPLE_TIMER_INTERRUPT
 616:build\openmote-cc2538_armgcc\openstack\02a-MAClow/IEEE802154E.c ****         sctimer_setCapture(ACTION_RX_SFD_DONE);
 617:build\openmote-cc2538_armgcc\openstack\02a-MAClow/IEEE802154E.c ****         sctimer_setCapture(ACTION_RX_DONE);
 618:build\openmote-cc2538_armgcc\openstack\02a-MAClow/IEEE802154E.c **** #endif
 619:build\openmote-cc2538_armgcc\openstack\02a-MAClow/IEEE802154E.c **** 
 620:build\openmote-cc2538_armgcc\openstack\02a-MAClow/IEEE802154E.c ****         // switch on the radio in Rx mode.
 621:build\openmote-cc2538_armgcc\openstack\02a-MAClow/IEEE802154E.c ****         radio_rxEnable();
 1578              		.loc 1 621 0
 1579 0852 FFF7FEFF 		bl	radio_rxEnable
 622:build\openmote-cc2538_armgcc\openstack\02a-MAClow/IEEE802154E.c ****         radio_rxNow();
 1580              		.loc 1 622 0
 1581 0856 FFF7FEFF 		bl	radio_rxNow
 623:build\openmote-cc2538_armgcc\openstack\02a-MAClow/IEEE802154E.c ****         ieee154e_vars.singleChannelChanged = FALSE;
 1582              		.loc 1 623 0
 1583 085a 114B     		ldr	r3, .L104
 1584 085c 0022     		movs	r2, #0
 1585 085e 83F88321 		strb	r2, [r3, #387]
 1586              	.L102:
 624:build\openmote-cc2538_armgcc\openstack\02a-MAClow/IEEE802154E.c ****     }
 625:build\openmote-cc2538_armgcc\openstack\02a-MAClow/IEEE802154E.c **** 
 626:build\openmote-cc2538_armgcc\openstack\02a-MAClow/IEEE802154E.c ****     // increment dummy ASN to trigger debugprint every now and then
 627:build\openmote-cc2538_armgcc\openstack\02a-MAClow/IEEE802154E.c ****     ieee154e_vars.asn.bytes0and1++;
 1587              		.loc 1 627 0
 1588 0862 0F4B     		ldr	r3, .L104
 1589 0864 B3F80330 		ldrh	r3, [r3, #3]	@ unaligned
 1590 0868 9BB2     		uxth	r3, r3
 1591 086a 0133     		adds	r3, r3, #1
 1592 086c 9AB2     		uxth	r2, r3
 1593 086e 0C4B     		ldr	r3, .L104
 1594 0870 A3F80320 		strh	r2, [r3, #3]	@ unaligned
 628:build\openmote-cc2538_armgcc\openstack\02a-MAClow/IEEE802154E.c **** 
 629:build\openmote-cc2538_armgcc\openstack\02a-MAClow/IEEE802154E.c ****     opentimers_scheduleAbsolute(
 1595              		.loc 1 629 0
 1596 0874 0A4B     		ldr	r3, .L104
 1597 0876 93F8B001 		ldrb	r0, [r3, #432]	@ zero_extendqisi2
 630:build\openmote-cc2538_armgcc\openstack\02a-MAClow/IEEE802154E.c ****         ieee154e_vars.serialInhibitTimerId,     // timerId
 631:build\openmote-cc2538_armgcc\openstack\02a-MAClow/IEEE802154E.c ****         DURATION_si,                            // duration
 1598              		.loc 1 631 0
 1599 087a 094B     		ldr	r3, .L104
 1600 087c B3F8A631 		ldrh	r3, [r3, #422]
 1601 0880 203B     		subs	r3, r3, #32
 629:build\openmote-cc2538_armgcc\openstack\02a-MAClow/IEEE802154E.c ****         ieee154e_vars.serialInhibitTimerId,     // timerId
 1602              		.loc 1 629 0
 1603 0882 1946     		mov	r1, r3
 1604 0884 064B     		ldr	r3, .L104
 1605 0886 D3F8AC21 		ldr	r2, [r3, #428]
 1606 088a 084B     		ldr	r3, .L104+12
 1607 088c 0093     		str	r3, [sp]
 1608 088e 0123     		movs	r3, #1
 1609 0890 FFF7FEFF 		bl	opentimers_scheduleAbsolute
 632:build\openmote-cc2538_armgcc\openstack\02a-MAClow/IEEE802154E.c ****         ieee154e_vars.startOfSlotReference,     // reference
 633:build\openmote-cc2538_armgcc\openstack\02a-MAClow/IEEE802154E.c ****         TIME_TICS,                              // timetype
 634:build\openmote-cc2538_armgcc\openstack\02a-MAClow/IEEE802154E.c ****         isr_ieee154e_inhibitStart               // callback
 635:build\openmote-cc2538_armgcc\openstack\02a-MAClow/IEEE802154E.c ****     );
 636:build\openmote-cc2538_armgcc\openstack\02a-MAClow/IEEE802154E.c **** 
 637:build\openmote-cc2538_armgcc\openstack\02a-MAClow/IEEE802154E.c ****     openserial_inhibitStop();
 1610              		.loc 1 637 0
 1611 0894 FFF7FEFF 		bl	openserial_inhibitStop
 1612 0898 00E0     		b	.L96
 1613              	.L103:
 547:build\openmote-cc2538_armgcc\openstack\02a-MAClow/IEEE802154E.c ****     }
 1614              		.loc 1 547 0
 1615 089a 00BF     		nop
 1616              	.L96:
 638:build\openmote-cc2538_armgcc\openstack\02a-MAClow/IEEE802154E.c **** }
 1617              		.loc 1 638 0
 1618 089c BD46     		mov	sp, r7
 1619              		.cfi_def_cfa_register 13
 1620              		@ sp needed
 1621 089e 80BD     		pop	{r7, pc}
 1622              	.L105:
 1623              		.align	2
 1624              	.L104:
 1625 08a0 00000000 		.word	ieee154e_vars
 1626 08a4 00000000 		.word	ieee154e_stats
 1627 08a8 CDCCCCCC 		.word	-858993459
 1628 08ac 00000000 		.word	isr_ieee154e_inhibitStart
 1629              		.cfi_endproc
 1630              	.LFE16:
 1632              		.align	1
 1633              		.global	activity_synchronize_startOfFrame
 1634              		.syntax unified
 1635              		.thumb
 1636              		.thumb_func
 1637              		.fpu softvfp
 1639              	activity_synchronize_startOfFrame:
 1640              	.LFB17:
 639:build\openmote-cc2538_armgcc\openstack\02a-MAClow/IEEE802154E.c **** 
 640:build\openmote-cc2538_armgcc\openstack\02a-MAClow/IEEE802154E.c **** port_INLINE void activity_synchronize_startOfFrame(PORT_TIMER_WIDTH capturedTime) {
 1641              		.loc 1 640 0
 1642              		.cfi_startproc
 1643              		@ args = 0, pretend = 0, frame = 8
 1644              		@ frame_needed = 1, uses_anonymous_args = 0
 1645 08b0 80B5     		push	{r7, lr}
 1646              		.cfi_def_cfa_offset 8
 1647              		.cfi_offset 7, -8
 1648              		.cfi_offset 14, -4
 1649 08b2 82B0     		sub	sp, sp, #8
 1650              		.cfi_def_cfa_offset 16
 1651 08b4 00AF     		add	r7, sp, #0
 1652              		.cfi_def_cfa_register 7
 1653 08b6 7860     		str	r0, [r7, #4]
 641:build\openmote-cc2538_armgcc\openstack\02a-MAClow/IEEE802154E.c **** 
 642:build\openmote-cc2538_armgcc\openstack\02a-MAClow/IEEE802154E.c ****     // don't care about packet if I'm not listening
 643:build\openmote-cc2538_armgcc\openstack\02a-MAClow/IEEE802154E.c ****     if (ieee154e_vars.state!=S_SYNCLISTEN) {
 1654              		.loc 1 643 0
 1655 08b8 0B4B     		ldr	r3, .L110
 1656 08ba 93F86431 		ldrb	r3, [r3, #356]	@ zero_extendqisi2
 1657 08be 012B     		cmp	r3, #1
 1658 08c0 0DD1     		bne	.L109
 644:build\openmote-cc2538_armgcc\openstack\02a-MAClow/IEEE802154E.c ****         return;
 645:build\openmote-cc2538_armgcc\openstack\02a-MAClow/IEEE802154E.c ****     }
 646:build\openmote-cc2538_armgcc\openstack\02a-MAClow/IEEE802154E.c **** 
 647:build\openmote-cc2538_armgcc\openstack\02a-MAClow/IEEE802154E.c ****     // inhibit serial activity
 648:build\openmote-cc2538_armgcc\openstack\02a-MAClow/IEEE802154E.c ****     openserial_inhibitStart(); // synchronize start of frame
 1659              		.loc 1 648 0
 1660 08c2 FFF7FEFF 		bl	openserial_inhibitStart
 649:build\openmote-cc2538_armgcc\openstack\02a-MAClow/IEEE802154E.c **** 
 650:build\openmote-cc2538_armgcc\openstack\02a-MAClow/IEEE802154E.c ****     // change state
 651:build\openmote-cc2538_armgcc\openstack\02a-MAClow/IEEE802154E.c ****     changeState(S_SYNCRX);
 1661              		.loc 1 651 0
 1662 08c6 0220     		movs	r0, #2
 1663 08c8 FFF7FEFF 		bl	changeState
 652:build\openmote-cc2538_armgcc\openstack\02a-MAClow/IEEE802154E.c ****     // there is no action when the timer fired at S_SYNCRX.
 653:build\openmote-cc2538_armgcc\openstack\02a-MAClow/IEEE802154E.c ****     // hence the inhibit timer scheduled at beginning of slot won't be effected.
 654:build\openmote-cc2538_armgcc\openstack\02a-MAClow/IEEE802154E.c **** 
 655:build\openmote-cc2538_armgcc\openstack\02a-MAClow/IEEE802154E.c ****     // record the captured time
 656:build\openmote-cc2538_armgcc\openstack\02a-MAClow/IEEE802154E.c ****     ieee154e_vars.lastCapturedTime = capturedTime;
 1664              		.loc 1 656 0
 1665 08cc 064A     		ldr	r2, .L110
 1666 08ce 7B68     		ldr	r3, [r7, #4]
 1667 08d0 C2F87831 		str	r3, [r2, #376]
 657:build\openmote-cc2538_armgcc\openstack\02a-MAClow/IEEE802154E.c **** 
 658:build\openmote-cc2538_armgcc\openstack\02a-MAClow/IEEE802154E.c ****     // record the captured time (for sync)
 659:build\openmote-cc2538_armgcc\openstack\02a-MAClow/IEEE802154E.c ****     ieee154e_vars.syncCapturedTime = capturedTime;
 1668              		.loc 1 659 0
 1669 08d4 044A     		ldr	r2, .L110
 1670 08d6 7B68     		ldr	r3, [r7, #4]
 1671 08d8 C2F87C31 		str	r3, [r2, #380]
 1672 08dc 00E0     		b	.L106
 1673              	.L109:
 644:build\openmote-cc2538_armgcc\openstack\02a-MAClow/IEEE802154E.c ****     }
 1674              		.loc 1 644 0
 1675 08de 00BF     		nop
 1676              	.L106:
 660:build\openmote-cc2538_armgcc\openstack\02a-MAClow/IEEE802154E.c **** }
 1677              		.loc 1 660 0
 1678 08e0 0837     		adds	r7, r7, #8
 1679              		.cfi_def_cfa_offset 8
 1680 08e2 BD46     		mov	sp, r7
 1681              		.cfi_def_cfa_register 13
 1682              		@ sp needed
 1683 08e4 80BD     		pop	{r7, pc}
 1684              	.L111:
 1685 08e6 00BF     		.align	2
 1686              	.L110:
 1687 08e8 00000000 		.word	ieee154e_vars
 1688              		.cfi_endproc
 1689              	.LFE17:
 1691              		.align	1
 1692              		.global	activity_synchronize_endOfFrame
 1693              		.syntax unified
 1694              		.thumb
 1695              		.thumb_func
 1696              		.fpu softvfp
 1698              	activity_synchronize_endOfFrame:
 1699              	.LFB18:
 661:build\openmote-cc2538_armgcc\openstack\02a-MAClow/IEEE802154E.c **** 
 662:build\openmote-cc2538_armgcc\openstack\02a-MAClow/IEEE802154E.c **** port_INLINE void activity_synchronize_endOfFrame(PORT_TIMER_WIDTH capturedTime) {
 1700              		.loc 1 662 0
 1701              		.cfi_startproc
 1702              		@ args = 0, pretend = 0, frame = 80
 1703              		@ frame_needed = 1, uses_anonymous_args = 0
 1704 08ec B0B5     		push	{r4, r5, r7, lr}
 1705              		.cfi_def_cfa_offset 16
 1706              		.cfi_offset 4, -16
 1707              		.cfi_offset 5, -12
 1708              		.cfi_offset 7, -8
 1709              		.cfi_offset 14, -4
 1710 08ee 96B0     		sub	sp, sp, #88
 1711              		.cfi_def_cfa_offset 104
 1712 08f0 02AF     		add	r7, sp, #8
 1713              		.cfi_def_cfa 7, 96
 1714 08f2 7860     		str	r0, [r7, #4]
 663:build\openmote-cc2538_armgcc\openstack\02a-MAClow/IEEE802154E.c ****    ieee802154_header_iht ieee802514_header;
 664:build\openmote-cc2538_armgcc\openstack\02a-MAClow/IEEE802154E.c ****    uint16_t              lenIE;
 665:build\openmote-cc2538_armgcc\openstack\02a-MAClow/IEEE802154E.c **** 
 666:build\openmote-cc2538_armgcc\openstack\02a-MAClow/IEEE802154E.c ****    // check state
 667:build\openmote-cc2538_armgcc\openstack\02a-MAClow/IEEE802154E.c ****    if (ieee154e_vars.state!=S_SYNCRX) {
 1715              		.loc 1 667 0
 1716 08f4 AD4B     		ldr	r3, .L132
 1717 08f6 93F86431 		ldrb	r3, [r3, #356]	@ zero_extendqisi2
 1718 08fa 022B     		cmp	r3, #2
 1719 08fc 09D0     		beq	.L113
 668:build\openmote-cc2538_armgcc\openstack\02a-MAClow/IEEE802154E.c ****       // log the error
 669:build\openmote-cc2538_armgcc\openstack\02a-MAClow/IEEE802154E.c ****       openserial_printError(COMPONENT_IEEE802154E,ERR_WRONG_STATE_IN_ENDFRAME_SYNC,
 670:build\openmote-cc2538_armgcc\openstack\02a-MAClow/IEEE802154E.c ****                             (errorparameter_t)ieee154e_vars.state,
 1720              		.loc 1 670 0
 1721 08fe AB4B     		ldr	r3, .L132
 1722 0900 93F86431 		ldrb	r3, [r3, #356]	@ zero_extendqisi2
 669:build\openmote-cc2538_armgcc\openstack\02a-MAClow/IEEE802154E.c ****                             (errorparameter_t)ieee154e_vars.state,
 1723              		.loc 1 669 0
 1724 0904 9AB2     		uxth	r2, r3
 1725 0906 0023     		movs	r3, #0
 1726 0908 1E21     		movs	r1, #30
 1727 090a 0920     		movs	r0, #9
 1728 090c FFF7FEFF 		bl	openserial_printError
 671:build\openmote-cc2538_armgcc\openstack\02a-MAClow/IEEE802154E.c ****                             (errorparameter_t)0);
 672:build\openmote-cc2538_armgcc\openstack\02a-MAClow/IEEE802154E.c ****       // abort
 673:build\openmote-cc2538_armgcc\openstack\02a-MAClow/IEEE802154E.c ****       return;
 1729              		.loc 1 673 0
 1730 0910 48E1     		b	.L112
 1731              	.L113:
 674:build\openmote-cc2538_armgcc\openstack\02a-MAClow/IEEE802154E.c ****    }
 675:build\openmote-cc2538_armgcc\openstack\02a-MAClow/IEEE802154E.c **** 
 676:build\openmote-cc2538_armgcc\openstack\02a-MAClow/IEEE802154E.c ****    // change state
 677:build\openmote-cc2538_armgcc\openstack\02a-MAClow/IEEE802154E.c ****    changeState(S_SYNCPROC);
 1732              		.loc 1 677 0
 1733 0912 0320     		movs	r0, #3
 1734 0914 FFF7FEFF 		bl	changeState
 678:build\openmote-cc2538_armgcc\openstack\02a-MAClow/IEEE802154E.c **** 
 679:build\openmote-cc2538_armgcc\openstack\02a-MAClow/IEEE802154E.c ****    // get a buffer to put the (received) frame in
 680:build\openmote-cc2538_armgcc\openstack\02a-MAClow/IEEE802154E.c ****    ieee154e_vars.dataReceived = openqueue_getFreePacketBuffer(COMPONENT_IEEE802154E);
 1735              		.loc 1 680 0
 1736 0918 0920     		movs	r0, #9
 1737 091a FFF7FEFF 		bl	openqueue_getFreePacketBuffer
 1738 091e 0246     		mov	r2, r0
 1739 0920 A24B     		ldr	r3, .L132
 1740 0922 C3F86C21 		str	r2, [r3, #364]
 681:build\openmote-cc2538_armgcc\openstack\02a-MAClow/IEEE802154E.c ****    if (ieee154e_vars.dataReceived==NULL) {
 1741              		.loc 1 681 0
 1742 0926 A14B     		ldr	r3, .L132
 1743 0928 D3F86C31 		ldr	r3, [r3, #364]
 1744 092c 002B     		cmp	r3, #0
 1745 092e 06D1     		bne	.L115
 682:build\openmote-cc2538_armgcc\openstack\02a-MAClow/IEEE802154E.c ****       // log the error
 683:build\openmote-cc2538_armgcc\openstack\02a-MAClow/IEEE802154E.c ****       openserial_printError(COMPONENT_IEEE802154E,ERR_NO_FREE_PACKET_BUFFER,
 1746              		.loc 1 683 0
 1747 0930 0023     		movs	r3, #0
 1748 0932 0022     		movs	r2, #0
 1749 0934 2D21     		movs	r1, #45
 1750 0936 0920     		movs	r0, #9
 1751 0938 FFF7FEFF 		bl	openserial_printError
 684:build\openmote-cc2538_armgcc\openstack\02a-MAClow/IEEE802154E.c ****                             (errorparameter_t)0,
 685:build\openmote-cc2538_armgcc\openstack\02a-MAClow/IEEE802154E.c ****                             (errorparameter_t)0);
 686:build\openmote-cc2538_armgcc\openstack\02a-MAClow/IEEE802154E.c ****       // abort
 687:build\openmote-cc2538_armgcc\openstack\02a-MAClow/IEEE802154E.c ****       return;
 1752              		.loc 1 687 0
 1753 093c 32E1     		b	.L112
 1754              	.L115:
 688:build\openmote-cc2538_armgcc\openstack\02a-MAClow/IEEE802154E.c ****    }
 689:build\openmote-cc2538_armgcc\openstack\02a-MAClow/IEEE802154E.c **** 
 690:build\openmote-cc2538_armgcc\openstack\02a-MAClow/IEEE802154E.c ****    // declare ownership over that packet
 691:build\openmote-cc2538_armgcc\openstack\02a-MAClow/IEEE802154E.c ****    ieee154e_vars.dataReceived->creator = COMPONENT_IEEE802154E;
 1755              		.loc 1 691 0
 1756 093e 9B4B     		ldr	r3, .L132
 1757 0940 D3F86C31 		ldr	r3, [r3, #364]
 1758 0944 0922     		movs	r2, #9
 1759 0946 1A70     		strb	r2, [r3]
 692:build\openmote-cc2538_armgcc\openstack\02a-MAClow/IEEE802154E.c ****    ieee154e_vars.dataReceived->owner   = COMPONENT_IEEE802154E;
 1760              		.loc 1 692 0
 1761 0948 984B     		ldr	r3, .L132
 1762 094a D3F86C31 		ldr	r3, [r3, #364]
 1763 094e 0922     		movs	r2, #9
 1764 0950 5A70     		strb	r2, [r3, #1]
 693:build\openmote-cc2538_armgcc\openstack\02a-MAClow/IEEE802154E.c **** 
 694:build\openmote-cc2538_armgcc\openstack\02a-MAClow/IEEE802154E.c ****    /*
 695:build\openmote-cc2538_armgcc\openstack\02a-MAClow/IEEE802154E.c ****    The do-while loop that follows is a little parsing trick.
 696:build\openmote-cc2538_armgcc\openstack\02a-MAClow/IEEE802154E.c ****    Because it contains a while(0) condition, it gets executed only once.
 697:build\openmote-cc2538_armgcc\openstack\02a-MAClow/IEEE802154E.c ****    The behavior is:
 698:build\openmote-cc2538_armgcc\openstack\02a-MAClow/IEEE802154E.c ****    - if a break occurs inside the do{} body, the error code below the loop
 699:build\openmote-cc2538_armgcc\openstack\02a-MAClow/IEEE802154E.c ****      gets executed. This indicates something is wrong with the packet being
 700:build\openmote-cc2538_armgcc\openstack\02a-MAClow/IEEE802154E.c ****      parsed.
 701:build\openmote-cc2538_armgcc\openstack\02a-MAClow/IEEE802154E.c ****    - if a return occurs inside the do{} body, the error code below the loop
 702:build\openmote-cc2538_armgcc\openstack\02a-MAClow/IEEE802154E.c ****      does not get executed. This indicates the received packet is correct.
 703:build\openmote-cc2538_armgcc\openstack\02a-MAClow/IEEE802154E.c ****    */
 704:build\openmote-cc2538_armgcc\openstack\02a-MAClow/IEEE802154E.c ****    do { // this "loop" is only executed once
 705:build\openmote-cc2538_armgcc\openstack\02a-MAClow/IEEE802154E.c **** 
 706:build\openmote-cc2538_armgcc\openstack\02a-MAClow/IEEE802154E.c ****       // retrieve the received data frame from the radio's Rx buffer
 707:build\openmote-cc2538_armgcc\openstack\02a-MAClow/IEEE802154E.c ****       ieee154e_vars.dataReceived->payload = &(ieee154e_vars.dataReceived->packet[FIRST_FRAME_BYTE])
 1765              		.loc 1 707 0
 1766 0952 964B     		ldr	r3, .L132
 1767 0954 D3F86C21 		ldr	r2, [r3, #364]
 1768 0958 944B     		ldr	r3, .L132
 1769 095a D3F86C31 		ldr	r3, [r3, #364]
 1770 095e C932     		adds	r2, r2, #201
 1771 0960 5A60     		str	r2, [r3, #4]
 708:build\openmote-cc2538_armgcc\openstack\02a-MAClow/IEEE802154E.c ****       radio_getReceivedFrame(       ieee154e_vars.dataReceived->payload,
 1772              		.loc 1 708 0
 1773 0962 924B     		ldr	r3, .L132
 1774 0964 D3F86C31 		ldr	r3, [r3, #364]
 1775 0968 5868     		ldr	r0, [r3, #4]
 709:build\openmote-cc2538_armgcc\openstack\02a-MAClow/IEEE802154E.c ****                                    &ieee154e_vars.dataReceived->length,
 1776              		.loc 1 709 0
 1777 096a 904B     		ldr	r3, .L132
 1778 096c D3F86C31 		ldr	r3, [r3, #364]
 708:build\openmote-cc2538_armgcc\openstack\02a-MAClow/IEEE802154E.c ****       radio_getReceivedFrame(       ieee154e_vars.dataReceived->payload,
 1779              		.loc 1 708 0
 1780 0970 03F10801 		add	r1, r3, #8
 710:build\openmote-cc2538_armgcc\openstack\02a-MAClow/IEEE802154E.c ****                              sizeof(ieee154e_vars.dataReceived->packet),
 711:build\openmote-cc2538_armgcc\openstack\02a-MAClow/IEEE802154E.c ****                                    &ieee154e_vars.dataReceived->l1_rssi,
 1781              		.loc 1 711 0
 1782 0974 8D4B     		ldr	r3, .L132
 1783 0976 D3F86C31 		ldr	r3, [r3, #364]
 708:build\openmote-cc2538_armgcc\openstack\02a-MAClow/IEEE802154E.c ****                                    &ieee154e_vars.dataReceived->length,
 1784              		.loc 1 708 0
 1785 097a 03F1C504 		add	r4, r3, #197
 712:build\openmote-cc2538_armgcc\openstack\02a-MAClow/IEEE802154E.c ****                                    &ieee154e_vars.dataReceived->l1_lqi,
 1786              		.loc 1 712 0
 1787 097e 8B4B     		ldr	r3, .L132
 1788 0980 D3F86C31 		ldr	r3, [r3, #364]
 708:build\openmote-cc2538_armgcc\openstack\02a-MAClow/IEEE802154E.c ****                                    &ieee154e_vars.dataReceived->length,
 1789              		.loc 1 708 0
 1790 0984 C633     		adds	r3, r3, #198
 713:build\openmote-cc2538_armgcc\openstack\02a-MAClow/IEEE802154E.c ****                                    &ieee154e_vars.dataReceived->l1_crc);
 1791              		.loc 1 713 0
 1792 0986 894A     		ldr	r2, .L132
 1793 0988 D2F86C21 		ldr	r2, [r2, #364]
 708:build\openmote-cc2538_armgcc\openstack\02a-MAClow/IEEE802154E.c ****                                    &ieee154e_vars.dataReceived->length,
 1794              		.loc 1 708 0
 1795 098c C732     		adds	r2, r2, #199
 1796 098e 0192     		str	r2, [sp, #4]
 1797 0990 0093     		str	r3, [sp]
 1798 0992 2346     		mov	r3, r4
 1799 0994 8222     		movs	r2, #130
 1800 0996 FFF7FEFF 		bl	radio_getReceivedFrame
 714:build\openmote-cc2538_armgcc\openstack\02a-MAClow/IEEE802154E.c **** 
 715:build\openmote-cc2538_armgcc\openstack\02a-MAClow/IEEE802154E.c ****       // break if packet too short
 716:build\openmote-cc2538_armgcc\openstack\02a-MAClow/IEEE802154E.c ****       if (ieee154e_vars.dataReceived->length<LENGTH_CRC || ieee154e_vars.dataReceived->length>LENGT
 1801              		.loc 1 716 0
 1802 099a 844B     		ldr	r3, .L132
 1803 099c D3F86C31 		ldr	r3, [r3, #364]
 1804 09a0 1B7A     		ldrb	r3, [r3, #8]	@ zero_extendqisi2
 1805 09a2 012B     		cmp	r3, #1
 1806 09a4 05D9     		bls	.L116
 1807              		.loc 1 716 0 is_stmt 0 discriminator 1
 1808 09a6 814B     		ldr	r3, .L132
 1809 09a8 D3F86C31 		ldr	r3, [r3, #364]
 1810 09ac 1B7A     		ldrb	r3, [r3, #8]	@ zero_extendqisi2
 1811 09ae 802B     		cmp	r3, #128
 1812 09b0 0AD9     		bls	.L117
 1813              	.L116:
 717:build\openmote-cc2538_armgcc\openstack\02a-MAClow/IEEE802154E.c ****          // break from the do-while loop and execute abort code below
 718:build\openmote-cc2538_armgcc\openstack\02a-MAClow/IEEE802154E.c ****           openserial_printError(COMPONENT_IEEE802154E,ERR_INVALIDPACKETFROMRADIO,
 719:build\openmote-cc2538_armgcc\openstack\02a-MAClow/IEEE802154E.c ****                             (errorparameter_t)0,
 720:build\openmote-cc2538_armgcc\openstack\02a-MAClow/IEEE802154E.c ****                             ieee154e_vars.dataReceived->length);
 1814              		.loc 1 720 0 is_stmt 1
 1815 09b2 7E4B     		ldr	r3, .L132
 1816 09b4 D3F86C31 		ldr	r3, [r3, #364]
 1817 09b8 1B7A     		ldrb	r3, [r3, #8]	@ zero_extendqisi2
 718:build\openmote-cc2538_armgcc\openstack\02a-MAClow/IEEE802154E.c ****                             (errorparameter_t)0,
 1818              		.loc 1 718 0
 1819 09ba 9BB2     		uxth	r3, r3
 1820 09bc 0022     		movs	r2, #0
 1821 09be 3821     		movs	r1, #56
 1822 09c0 0920     		movs	r0, #9
 1823 09c2 FFF7FEFF 		bl	openserial_printError
 721:build\openmote-cc2538_armgcc\openstack\02a-MAClow/IEEE802154E.c ****          break;
 1824              		.loc 1 721 0
 1825 09c6 E0E0     		b	.L118
 1826              	.L117:
 722:build\openmote-cc2538_armgcc\openstack\02a-MAClow/IEEE802154E.c ****       }
 723:build\openmote-cc2538_armgcc\openstack\02a-MAClow/IEEE802154E.c **** 
 724:build\openmote-cc2538_armgcc\openstack\02a-MAClow/IEEE802154E.c ****       // toss CRC (2 last bytes)
 725:build\openmote-cc2538_armgcc\openstack\02a-MAClow/IEEE802154E.c ****       packetfunctions_tossFooter(   ieee154e_vars.dataReceived, LENGTH_CRC);
 1827              		.loc 1 725 0
 1828 09c8 784B     		ldr	r3, .L132
 1829 09ca D3F86C31 		ldr	r3, [r3, #364]
 1830 09ce 0221     		movs	r1, #2
 1831 09d0 1846     		mov	r0, r3
 1832 09d2 FFF7FEFF 		bl	packetfunctions_tossFooter
 726:build\openmote-cc2538_armgcc\openstack\02a-MAClow/IEEE802154E.c **** 
 727:build\openmote-cc2538_armgcc\openstack\02a-MAClow/IEEE802154E.c ****       // break if invalid CRC
 728:build\openmote-cc2538_armgcc\openstack\02a-MAClow/IEEE802154E.c ****       if (ieee154e_vars.dataReceived->l1_crc==FALSE) {
 1833              		.loc 1 728 0
 1834 09d6 754B     		ldr	r3, .L132
 1835 09d8 D3F86C31 		ldr	r3, [r3, #364]
 1836 09dc 93F8C730 		ldrb	r3, [r3, #199]	@ zero_extendqisi2
 1837 09e0 83F00103 		eor	r3, r3, #1
 1838 09e4 DBB2     		uxtb	r3, r3
 1839 09e6 002B     		cmp	r3, #0
 1840 09e8 40F0C680 		bne	.L127
 729:build\openmote-cc2538_armgcc\openstack\02a-MAClow/IEEE802154E.c ****          // break from the do-while loop and execute abort code below
 730:build\openmote-cc2538_armgcc\openstack\02a-MAClow/IEEE802154E.c ****          break;
 731:build\openmote-cc2538_armgcc\openstack\02a-MAClow/IEEE802154E.c ****       }
 732:build\openmote-cc2538_armgcc\openstack\02a-MAClow/IEEE802154E.c **** 
 733:build\openmote-cc2538_armgcc\openstack\02a-MAClow/IEEE802154E.c ****       // parse the IEEE802.15.4 header (synchronize, end of frame)
 734:build\openmote-cc2538_armgcc\openstack\02a-MAClow/IEEE802154E.c ****       ieee802154_retrieveHeader(ieee154e_vars.dataReceived,&ieee802514_header);
 1841              		.loc 1 734 0
 1842 09ec 6F4B     		ldr	r3, .L132
 1843 09ee D3F86C31 		ldr	r3, [r3, #364]
 1844 09f2 07F11002 		add	r2, r7, #16
 1845 09f6 1146     		mov	r1, r2
 1846 09f8 1846     		mov	r0, r3
 1847 09fa FFF7FEFF 		bl	ieee802154_retrieveHeader
 735:build\openmote-cc2538_armgcc\openstack\02a-MAClow/IEEE802154E.c **** 
 736:build\openmote-cc2538_armgcc\openstack\02a-MAClow/IEEE802154E.c ****       // break if invalid IEEE802.15.4 header
 737:build\openmote-cc2538_armgcc\openstack\02a-MAClow/IEEE802154E.c ****       if (ieee802514_header.valid==FALSE) {
 1848              		.loc 1 737 0
 1849 09fe 3B7C     		ldrb	r3, [r7, #16]	@ zero_extendqisi2
 1850 0a00 83F00103 		eor	r3, r3, #1
 1851 0a04 DBB2     		uxtb	r3, r3
 1852 0a06 002B     		cmp	r3, #0
 1853 0a08 40F0B880 		bne	.L128
 738:build\openmote-cc2538_armgcc\openstack\02a-MAClow/IEEE802154E.c ****          // break from the do-while loop and execute the clean-up code below
 739:build\openmote-cc2538_armgcc\openstack\02a-MAClow/IEEE802154E.c ****          break;
 740:build\openmote-cc2538_armgcc\openstack\02a-MAClow/IEEE802154E.c ****       }
 741:build\openmote-cc2538_armgcc\openstack\02a-MAClow/IEEE802154E.c **** 
 742:build\openmote-cc2538_armgcc\openstack\02a-MAClow/IEEE802154E.c ****       // store header details in packet buffer
 743:build\openmote-cc2538_armgcc\openstack\02a-MAClow/IEEE802154E.c ****       ieee154e_vars.dataReceived->l2_frameType = ieee802514_header.frameType;
 1854              		.loc 1 743 0
 1855 0a0c 674B     		ldr	r3, .L132
 1856 0a0e D3F86C31 		ldr	r3, [r3, #364]
 1857 0a12 BA7C     		ldrb	r2, [r7, #18]	@ zero_extendqisi2
 1858 0a14 83F85220 		strb	r2, [r3, #82]
 744:build\openmote-cc2538_armgcc\openstack\02a-MAClow/IEEE802154E.c ****       ieee154e_vars.dataReceived->l2_dsn       = ieee802514_header.dsn;
 1859              		.loc 1 744 0
 1860 0a18 644B     		ldr	r3, .L132
 1861 0a1a D3F86C31 		ldr	r3, [r3, #364]
 1862 0a1e 7A7E     		ldrb	r2, [r7, #25]	@ zero_extendqisi2
 1863 0a20 83F85320 		strb	r2, [r3, #83]
 745:build\openmote-cc2538_armgcc\openstack\02a-MAClow/IEEE802154E.c ****       memcpy(&(ieee154e_vars.dataReceived->l2_nextORpreviousHop),&(ieee802514_header.src),sizeof(op
 1864              		.loc 1 745 0
 1865 0a24 614B     		ldr	r3, .L132
 1866 0a26 D3F86C31 		ldr	r3, [r3, #364]
 1867 0a2a 4133     		adds	r3, r3, #65
 1868 0a2c 1A46     		mov	r2, r3
 1869 0a2e 07F13D03 		add	r3, r7, #61
 1870 0a32 1D68     		ldr	r5, [r3]	@ unaligned
 1871 0a34 5C68     		ldr	r4, [r3, #4]	@ unaligned
 1872 0a36 9868     		ldr	r0, [r3, #8]	@ unaligned
 1873 0a38 D968     		ldr	r1, [r3, #12]	@ unaligned
 1874 0a3a 1560     		str	r5, [r2]	@ unaligned
 1875 0a3c 5460     		str	r4, [r2, #4]	@ unaligned
 1876 0a3e 9060     		str	r0, [r2, #8]	@ unaligned
 1877 0a40 D160     		str	r1, [r2, #12]	@ unaligned
 1878 0a42 1B7C     		ldrb	r3, [r3, #16]
 1879 0a44 1374     		strb	r3, [r2, #16]
 746:build\openmote-cc2538_armgcc\openstack\02a-MAClow/IEEE802154E.c **** 
 747:build\openmote-cc2538_armgcc\openstack\02a-MAClow/IEEE802154E.c ****       // verify that incoming security level is acceptable
 748:build\openmote-cc2538_armgcc\openstack\02a-MAClow/IEEE802154E.c ****       if (IEEE802154_security_acceptableLevel(ieee154e_vars.dataReceived, &ieee802514_header) == FA
 1880              		.loc 1 748 0
 1881 0a46 594B     		ldr	r3, .L132
 1882 0a48 D3F86C31 		ldr	r3, [r3, #364]
 1883 0a4c 07F11002 		add	r2, r7, #16
 1884 0a50 1146     		mov	r1, r2
 1885 0a52 1846     		mov	r0, r3
 1886 0a54 FFF7FEFF 		bl	IEEE802154_security_acceptableLevel
 1887 0a58 0346     		mov	r3, r0
 1888 0a5a 83F00103 		eor	r3, r3, #1
 1889 0a5e DBB2     		uxtb	r3, r3
 1890 0a60 002B     		cmp	r3, #0
 1891 0a62 40F08D80 		bne	.L129
 749:build\openmote-cc2538_armgcc\openstack\02a-MAClow/IEEE802154E.c ****             break;
 750:build\openmote-cc2538_armgcc\openstack\02a-MAClow/IEEE802154E.c ****       }
 751:build\openmote-cc2538_armgcc\openstack\02a-MAClow/IEEE802154E.c **** 
 752:build\openmote-cc2538_armgcc\openstack\02a-MAClow/IEEE802154E.c ****       if (ieee154e_vars.dataReceived->l2_securityLevel != IEEE154_ASH_SLF_TYPE_NOSEC) {
 1892              		.loc 1 752 0
 1893 0a66 514B     		ldr	r3, .L132
 1894 0a68 D3F86C31 		ldr	r3, [r3, #364]
 1895 0a6c 93F8A930 		ldrb	r3, [r3, #169]	@ zero_extendqisi2
 1896 0a70 002B     		cmp	r3, #0
 1897 0a72 19D0     		beq	.L122
 753:build\openmote-cc2538_armgcc\openstack\02a-MAClow/IEEE802154E.c ****          // If we are not synced, we need to parse IEs and retrieve the ASN
 754:build\openmote-cc2538_armgcc\openstack\02a-MAClow/IEEE802154E.c ****          // before authenticating the beacon, because nonce is created from the ASN
 755:build\openmote-cc2538_armgcc\openstack\02a-MAClow/IEEE802154E.c ****          if (!ieee154e_vars.isSync && ieee802514_header.frameType == IEEE154_TYPE_BEACON) {
 1898              		.loc 1 755 0
 1899 0a74 4D4B     		ldr	r3, .L132
 1900 0a76 1B7C     		ldrb	r3, [r3, #16]	@ zero_extendqisi2
 1901 0a78 83F00103 		eor	r3, r3, #1
 1902 0a7c DBB2     		uxtb	r3, r3
 1903 0a7e 002B     		cmp	r3, #0
 1904 0a80 00F08380 		beq	.L118
 1905              		.loc 1 755 0 is_stmt 0 discriminator 1
 1906 0a84 BB7C     		ldrb	r3, [r7, #18]	@ zero_extendqisi2
 1907 0a86 002B     		cmp	r3, #0
 1908 0a88 7FD1     		bne	.L118
 756:build\openmote-cc2538_armgcc\openstack\02a-MAClow/IEEE802154E.c ****             if (!isValidJoin(ieee154e_vars.dataReceived, &ieee802514_header)) {
 1909              		.loc 1 756 0 is_stmt 1
 1910 0a8a 484B     		ldr	r3, .L132
 1911 0a8c D3F86C31 		ldr	r3, [r3, #364]
 1912 0a90 07F11002 		add	r2, r7, #16
 1913 0a94 1146     		mov	r1, r2
 1914 0a96 1846     		mov	r0, r3
 1915 0a98 FFF7FEFF 		bl	isValidJoin
 1916 0a9c 0346     		mov	r3, r0
 1917 0a9e 83F00103 		eor	r3, r3, #1
 1918 0aa2 DBB2     		uxtb	r3, r3
 1919 0aa4 002B     		cmp	r3, #0
 1920 0aa6 6DD1     		bne	.L130
 1921              	.L122:
 757:build\openmote-cc2538_armgcc\openstack\02a-MAClow/IEEE802154E.c ****                break;
 758:build\openmote-cc2538_armgcc\openstack\02a-MAClow/IEEE802154E.c ****             }
 759:build\openmote-cc2538_armgcc\openstack\02a-MAClow/IEEE802154E.c ****          } else { // discard other frames as we cannot decrypt without being synced
 760:build\openmote-cc2538_armgcc\openstack\02a-MAClow/IEEE802154E.c ****             break;
 761:build\openmote-cc2538_armgcc\openstack\02a-MAClow/IEEE802154E.c ****          }
 762:build\openmote-cc2538_armgcc\openstack\02a-MAClow/IEEE802154E.c ****       }
 763:build\openmote-cc2538_armgcc\openstack\02a-MAClow/IEEE802154E.c **** 
 764:build\openmote-cc2538_armgcc\openstack\02a-MAClow/IEEE802154E.c ****       // toss the IEEE802.15.4 header -- this does not include IEs as they are processed
 765:build\openmote-cc2538_armgcc\openstack\02a-MAClow/IEEE802154E.c ****       // next.
 766:build\openmote-cc2538_armgcc\openstack\02a-MAClow/IEEE802154E.c ****       packetfunctions_tossHeader(ieee154e_vars.dataReceived,ieee802514_header.headerLength);
 1922              		.loc 1 766 0
 1923 0aa8 404B     		ldr	r3, .L132
 1924 0aaa D3F86C31 		ldr	r3, [r3, #364]
 1925 0aae 7A7C     		ldrb	r2, [r7, #17]	@ zero_extendqisi2
 1926 0ab0 1146     		mov	r1, r2
 1927 0ab2 1846     		mov	r0, r3
 1928 0ab4 FFF7FEFF 		bl	packetfunctions_tossHeader
 767:build\openmote-cc2538_armgcc\openstack\02a-MAClow/IEEE802154E.c **** 
 768:build\openmote-cc2538_armgcc\openstack\02a-MAClow/IEEE802154E.c ****       // process IEs
 769:build\openmote-cc2538_armgcc\openstack\02a-MAClow/IEEE802154E.c ****       lenIE = 0;
 1929              		.loc 1 769 0
 1930 0ab8 0023     		movs	r3, #0
 1931 0aba FB81     		strh	r3, [r7, #14]	@ movhi
 770:build\openmote-cc2538_armgcc\openstack\02a-MAClow/IEEE802154E.c ****       if (
 771:build\openmote-cc2538_armgcc\openstack\02a-MAClow/IEEE802154E.c ****             (
 772:build\openmote-cc2538_armgcc\openstack\02a-MAClow/IEEE802154E.c ****                ieee802514_header.valid==TRUE                                                       
 1932              		.loc 1 772 0
 1933 0abc 3B7C     		ldrb	r3, [r7, #16]	@ zero_extendqisi2
 773:build\openmote-cc2538_armgcc\openstack\02a-MAClow/IEEE802154E.c ****                ieee802514_header.ieListPresent==TRUE                                               
 774:build\openmote-cc2538_armgcc\openstack\02a-MAClow/IEEE802154E.c ****                ieee802514_header.frameType==IEEE154_TYPE_BEACON                                    
 775:build\openmote-cc2538_armgcc\openstack\02a-MAClow/IEEE802154E.c ****                packetfunctions_sameAddress(&ieee802514_header.panid,idmanager_getMyID(ADDR_PANID)) 
 1934              		.loc 1 775 0
 1935 0abe 002B     		cmp	r3, #0
 1936 0ac0 21D0     		beq	.L123
 773:build\openmote-cc2538_armgcc\openstack\02a-MAClow/IEEE802154E.c ****                ieee802514_header.ieListPresent==TRUE                                               
 1937              		.loc 1 773 0
 1938 0ac2 FB7D     		ldrb	r3, [r7, #23]	@ zero_extendqisi2
 772:build\openmote-cc2538_armgcc\openstack\02a-MAClow/IEEE802154E.c ****                ieee802514_header.ieListPresent==TRUE                                               
 1939              		.loc 1 772 0
 1940 0ac4 002B     		cmp	r3, #0
 1941 0ac6 1ED0     		beq	.L123
 774:build\openmote-cc2538_armgcc\openstack\02a-MAClow/IEEE802154E.c ****                packetfunctions_sameAddress(&ieee802514_header.panid,idmanager_getMyID(ADDR_PANID)) 
 1942              		.loc 1 774 0
 1943 0ac8 BB7C     		ldrb	r3, [r7, #18]	@ zero_extendqisi2
 773:build\openmote-cc2538_armgcc\openstack\02a-MAClow/IEEE802154E.c ****                ieee802514_header.ieListPresent==TRUE                                               
 1944              		.loc 1 773 0
 1945 0aca 002B     		cmp	r3, #0
 1946 0acc 1BD1     		bne	.L123
 1947              		.loc 1 775 0
 1948 0ace 0420     		movs	r0, #4
 1949 0ad0 FFF7FEFF 		bl	idmanager_getMyID
 1950 0ad4 0246     		mov	r2, r0
 1951 0ad6 07F11003 		add	r3, r7, #16
 1952 0ada 0B33     		adds	r3, r3, #11
 1953 0adc 1146     		mov	r1, r2
 1954 0ade 1846     		mov	r0, r3
 1955 0ae0 FFF7FEFF 		bl	packetfunctions_sameAddress
 1956 0ae4 0346     		mov	r3, r0
 774:build\openmote-cc2538_armgcc\openstack\02a-MAClow/IEEE802154E.c ****                packetfunctions_sameAddress(&ieee802514_header.panid,idmanager_getMyID(ADDR_PANID)) 
 1957              		.loc 1 774 0
 1958 0ae6 002B     		cmp	r3, #0
 1959 0ae8 0DD0     		beq	.L123
 776:build\openmote-cc2538_armgcc\openstack\02a-MAClow/IEEE802154E.c ****                ieee154e_processIEs(ieee154e_vars.dataReceived,&lenIE)
 1960              		.loc 1 776 0 discriminator 3
 1961 0aea 304B     		ldr	r3, .L132
 1962 0aec D3F86C31 		ldr	r3, [r3, #364]
 1963 0af0 07F10E02 		add	r2, r7, #14
 1964 0af4 1146     		mov	r1, r2
 1965 0af6 1846     		mov	r0, r3
 1966 0af8 FFF7FEFF 		bl	ieee154e_processIEs
 1967 0afc 0346     		mov	r3, r0
 775:build\openmote-cc2538_armgcc\openstack\02a-MAClow/IEEE802154E.c ****                ieee154e_processIEs(ieee154e_vars.dataReceived,&lenIE)
 1968              		.loc 1 775 0 discriminator 3
 1969 0afe 002B     		cmp	r3, #0
 1970 0b00 01D0     		beq	.L123
 775:build\openmote-cc2538_armgcc\openstack\02a-MAClow/IEEE802154E.c ****                ieee154e_processIEs(ieee154e_vars.dataReceived,&lenIE)
 1971              		.loc 1 775 0 is_stmt 0 discriminator 2
 1972 0b02 0123     		movs	r3, #1
 1973 0b04 00E0     		b	.L124
 1974              	.L123:
 775:build\openmote-cc2538_armgcc\openstack\02a-MAClow/IEEE802154E.c ****                ieee154e_processIEs(ieee154e_vars.dataReceived,&lenIE)
 1975              		.loc 1 775 0 discriminator 1
 1976 0b06 0023     		movs	r3, #0
 1977              	.L124:
 770:build\openmote-cc2538_armgcc\openstack\02a-MAClow/IEEE802154E.c ****             (
 1978              		.loc 1 770 0 is_stmt 1
 1979 0b08 002B     		cmp	r3, #0
 1980 0b0a 3DD0     		beq	.L131
 777:build\openmote-cc2538_armgcc\openstack\02a-MAClow/IEEE802154E.c ****             )==FALSE) {
 778:build\openmote-cc2538_armgcc\openstack\02a-MAClow/IEEE802154E.c ****          // break from the do-while loop and execute the clean-up code below
 779:build\openmote-cc2538_armgcc\openstack\02a-MAClow/IEEE802154E.c ****          break;
 780:build\openmote-cc2538_armgcc\openstack\02a-MAClow/IEEE802154E.c ****       }
 781:build\openmote-cc2538_armgcc\openstack\02a-MAClow/IEEE802154E.c **** 
 782:build\openmote-cc2538_armgcc\openstack\02a-MAClow/IEEE802154E.c ****       // turn off the radio
 783:build\openmote-cc2538_armgcc\openstack\02a-MAClow/IEEE802154E.c ****       radio_rfOff();
 1981              		.loc 1 783 0
 1982 0b0c FFF7FEFF 		bl	radio_rfOff
 784:build\openmote-cc2538_armgcc\openstack\02a-MAClow/IEEE802154E.c **** 
 785:build\openmote-cc2538_armgcc\openstack\02a-MAClow/IEEE802154E.c ****       // compute radio duty cycle
 786:build\openmote-cc2538_armgcc\openstack\02a-MAClow/IEEE802154E.c ****       ieee154e_vars.radioOnTics += (sctimer_readCounter()-ieee154e_vars.radioOnInit);
 1983              		.loc 1 786 0
 1984 0b10 FFF7FEFF 		bl	sctimer_readCounter
 1985 0b14 0246     		mov	r2, r0
 1986 0b16 254B     		ldr	r3, .L132
 1987 0b18 D3F89831 		ldr	r3, [r3, #408]
 1988 0b1c D21A     		subs	r2, r2, r3
 1989 0b1e 234B     		ldr	r3, .L132
 1990 0b20 D3F89C31 		ldr	r3, [r3, #412]
 1991 0b24 1344     		add	r3, r3, r2
 1992 0b26 214A     		ldr	r2, .L132
 1993 0b28 C2F89C31 		str	r3, [r2, #412]
 787:build\openmote-cc2538_armgcc\openstack\02a-MAClow/IEEE802154E.c **** 
 788:build\openmote-cc2538_armgcc\openstack\02a-MAClow/IEEE802154E.c ****       // toss the IEs
 789:build\openmote-cc2538_armgcc\openstack\02a-MAClow/IEEE802154E.c ****       packetfunctions_tossHeader(ieee154e_vars.dataReceived,lenIE);
 1994              		.loc 1 789 0
 1995 0b2c 1F4B     		ldr	r3, .L132
 1996 0b2e D3F86C31 		ldr	r3, [r3, #364]
 1997 0b32 FA89     		ldrh	r2, [r7, #14]
 1998 0b34 D2B2     		uxtb	r2, r2
 1999 0b36 1146     		mov	r1, r2
 2000 0b38 1846     		mov	r0, r3
 2001 0b3a FFF7FEFF 		bl	packetfunctions_tossHeader
 790:build\openmote-cc2538_armgcc\openstack\02a-MAClow/IEEE802154E.c **** 
 791:build\openmote-cc2538_armgcc\openstack\02a-MAClow/IEEE802154E.c ****       // synchronize (for the first time) to the sender's EB
 792:build\openmote-cc2538_armgcc\openstack\02a-MAClow/IEEE802154E.c ****       synchronizePacket(ieee154e_vars.syncCapturedTime);
 2002              		.loc 1 792 0
 2003 0b3e 1B4B     		ldr	r3, .L132
 2004 0b40 D3F87C31 		ldr	r3, [r3, #380]
 2005 0b44 1846     		mov	r0, r3
 2006 0b46 FFF7FEFF 		bl	synchronizePacket
 793:build\openmote-cc2538_armgcc\openstack\02a-MAClow/IEEE802154E.c **** 
 794:build\openmote-cc2538_armgcc\openstack\02a-MAClow/IEEE802154E.c ****       // declare synchronized
 795:build\openmote-cc2538_armgcc\openstack\02a-MAClow/IEEE802154E.c ****       changeIsSync(TRUE);
 2007              		.loc 1 795 0
 2008 0b4a 0120     		movs	r0, #1
 2009 0b4c FFF7FEFF 		bl	changeIsSync
 796:build\openmote-cc2538_armgcc\openstack\02a-MAClow/IEEE802154E.c ****       // log the info
 797:build\openmote-cc2538_armgcc\openstack\02a-MAClow/IEEE802154E.c ****       openserial_printInfo(COMPONENT_IEEE802154E,ERR_SYNCHRONIZED,
 798:build\openmote-cc2538_armgcc\openstack\02a-MAClow/IEEE802154E.c ****                             (errorparameter_t)ieee154e_vars.slotOffset,
 2010              		.loc 1 798 0
 2011 0b50 164B     		ldr	r3, .L132
 2012 0b52 DA88     		ldrh	r2, [r3, #6]
 797:build\openmote-cc2538_armgcc\openstack\02a-MAClow/IEEE802154E.c ****                             (errorparameter_t)ieee154e_vars.slotOffset,
 2013              		.loc 1 797 0
 2014 0b54 0023     		movs	r3, #0
 2015 0b56 1C21     		movs	r1, #28
 2016 0b58 0920     		movs	r0, #9
 2017 0b5a FFF7FEFF 		bl	openserial_printInfo
 799:build\openmote-cc2538_armgcc\openstack\02a-MAClow/IEEE802154E.c ****                             (errorparameter_t)0);
 800:build\openmote-cc2538_armgcc\openstack\02a-MAClow/IEEE802154E.c **** 
 801:build\openmote-cc2538_armgcc\openstack\02a-MAClow/IEEE802154E.c ****       // send received EB up the stack so RES can update statistics (synchronizing)
 802:build\openmote-cc2538_armgcc\openstack\02a-MAClow/IEEE802154E.c ****       notif_receive(ieee154e_vars.dataReceived);
 2018              		.loc 1 802 0
 2019 0b5e 134B     		ldr	r3, .L132
 2020 0b60 D3F86C31 		ldr	r3, [r3, #364]
 2021 0b64 1846     		mov	r0, r3
 2022 0b66 FFF7FEFF 		bl	notif_receive
 803:build\openmote-cc2538_armgcc\openstack\02a-MAClow/IEEE802154E.c **** 
 804:build\openmote-cc2538_armgcc\openstack\02a-MAClow/IEEE802154E.c ****       // clear local variable
 805:build\openmote-cc2538_armgcc\openstack\02a-MAClow/IEEE802154E.c ****       ieee154e_vars.dataReceived = NULL;
 2023              		.loc 1 805 0
 2024 0b6a 104B     		ldr	r3, .L132
 2025 0b6c 0022     		movs	r2, #0
 2026 0b6e C3F86C21 		str	r2, [r3, #364]
 806:build\openmote-cc2538_armgcc\openstack\02a-MAClow/IEEE802154E.c **** 
 807:build\openmote-cc2538_armgcc\openstack\02a-MAClow/IEEE802154E.c ****       // official end of synchronization
 808:build\openmote-cc2538_armgcc\openstack\02a-MAClow/IEEE802154E.c ****       endSlot();
 2027              		.loc 1 808 0
 2028 0b72 FFF7FEFF 		bl	endSlot
 809:build\openmote-cc2538_armgcc\openstack\02a-MAClow/IEEE802154E.c **** 
 810:build\openmote-cc2538_armgcc\openstack\02a-MAClow/IEEE802154E.c ****       // everything went well, return here not to execute the error code below
 811:build\openmote-cc2538_armgcc\openstack\02a-MAClow/IEEE802154E.c ****       return;
 2029              		.loc 1 811 0
 2030 0b76 15E0     		b	.L112
 2031              	.L127:
 730:build\openmote-cc2538_armgcc\openstack\02a-MAClow/IEEE802154E.c ****       }
 2032              		.loc 1 730 0
 2033 0b78 00BF     		nop
 2034 0b7a 06E0     		b	.L118
 2035              	.L128:
 739:build\openmote-cc2538_armgcc\openstack\02a-MAClow/IEEE802154E.c ****       }
 2036              		.loc 1 739 0
 2037 0b7c 00BF     		nop
 2038 0b7e 04E0     		b	.L118
 2039              	.L129:
 749:build\openmote-cc2538_armgcc\openstack\02a-MAClow/IEEE802154E.c ****       }
 2040              		.loc 1 749 0
 2041 0b80 00BF     		nop
 2042 0b82 02E0     		b	.L118
 2043              	.L130:
 757:build\openmote-cc2538_armgcc\openstack\02a-MAClow/IEEE802154E.c ****             }
 2044              		.loc 1 757 0
 2045 0b84 00BF     		nop
 2046 0b86 00E0     		b	.L118
 2047              	.L131:
 779:build\openmote-cc2538_armgcc\openstack\02a-MAClow/IEEE802154E.c ****       }
 2048              		.loc 1 779 0
 2049 0b88 00BF     		nop
 2050              	.L118:
 812:build\openmote-cc2538_armgcc\openstack\02a-MAClow/IEEE802154E.c **** 
 813:build\openmote-cc2538_armgcc\openstack\02a-MAClow/IEEE802154E.c ****    } while(0);
 814:build\openmote-cc2538_armgcc\openstack\02a-MAClow/IEEE802154E.c **** 
 815:build\openmote-cc2538_armgcc\openstack\02a-MAClow/IEEE802154E.c ****    // free the (invalid) received data buffer so RAM memory can be recycled
 816:build\openmote-cc2538_armgcc\openstack\02a-MAClow/IEEE802154E.c ****    openqueue_freePacketBuffer(ieee154e_vars.dataReceived);
 2051              		.loc 1 816 0 discriminator 1
 2052 0b8a 084B     		ldr	r3, .L132
 2053 0b8c D3F86C31 		ldr	r3, [r3, #364]
 2054 0b90 1846     		mov	r0, r3
 2055 0b92 FFF7FEFF 		bl	openqueue_freePacketBuffer
 817:build\openmote-cc2538_armgcc\openstack\02a-MAClow/IEEE802154E.c **** 
 818:build\openmote-cc2538_armgcc\openstack\02a-MAClow/IEEE802154E.c ****    // clear local variable
 819:build\openmote-cc2538_armgcc\openstack\02a-MAClow/IEEE802154E.c ****    ieee154e_vars.dataReceived = NULL;
 2056              		.loc 1 819 0 discriminator 1
 2057 0b96 054B     		ldr	r3, .L132
 2058 0b98 0022     		movs	r2, #0
 2059 0b9a C3F86C21 		str	r2, [r3, #364]
 820:build\openmote-cc2538_armgcc\openstack\02a-MAClow/IEEE802154E.c **** 
 821:build\openmote-cc2538_armgcc\openstack\02a-MAClow/IEEE802154E.c ****    // return to listening state
 822:build\openmote-cc2538_armgcc\openstack\02a-MAClow/IEEE802154E.c ****    changeState(S_SYNCLISTEN);
 2060              		.loc 1 822 0 discriminator 1
 2061 0b9e 0120     		movs	r0, #1
 2062 0ba0 FFF7FEFF 		bl	changeState
 2063              	.L112:
 823:build\openmote-cc2538_armgcc\openstack\02a-MAClow/IEEE802154E.c **** }
 2064              		.loc 1 823 0
 2065 0ba4 5037     		adds	r7, r7, #80
 2066              		.cfi_def_cfa_offset 16
 2067 0ba6 BD46     		mov	sp, r7
 2068              		.cfi_def_cfa_register 13
 2069              		@ sp needed
 2070 0ba8 B0BD     		pop	{r4, r5, r7, pc}
 2071              	.L133:
 2072 0baa 00BF     		.align	2
 2073              	.L132:
 2074 0bac 00000000 		.word	ieee154e_vars
 2075              		.cfi_endproc
 2076              	.LFE18:
 2078              		.align	1
 2079              		.global	ieee154e_processIEs
 2080              		.syntax unified
 2081              		.thumb
 2082              		.thumb_func
 2083              		.fpu softvfp
 2085              	ieee154e_processIEs:
 2086              	.LFB19:
 824:build\openmote-cc2538_armgcc\openstack\02a-MAClow/IEEE802154E.c **** 
 825:build\openmote-cc2538_armgcc\openstack\02a-MAClow/IEEE802154E.c **** port_INLINE bool ieee154e_processIEs(OpenQueueEntry_t* pkt, uint16_t* lenIE) {
 2087              		.loc 1 825 0
 2088              		.cfi_startproc
 2089              		@ args = 0, pretend = 0, frame = 16
 2090              		@ frame_needed = 1, uses_anonymous_args = 0
 2091 0bb0 80B5     		push	{r7, lr}
 2092              		.cfi_def_cfa_offset 8
 2093              		.cfi_offset 7, -8
 2094              		.cfi_offset 14, -4
 2095 0bb2 84B0     		sub	sp, sp, #16
 2096              		.cfi_def_cfa_offset 24
 2097 0bb4 00AF     		add	r7, sp, #0
 2098              		.cfi_def_cfa_register 7
 2099 0bb6 7860     		str	r0, [r7, #4]
 2100 0bb8 3960     		str	r1, [r7]
 826:build\openmote-cc2538_armgcc\openstack\02a-MAClow/IEEE802154E.c ****     uint8_t i;
 827:build\openmote-cc2538_armgcc\openstack\02a-MAClow/IEEE802154E.c ****     if (isValidEbFormat(pkt,lenIE)==TRUE){
 2101              		.loc 1 827 0
 2102 0bba 3968     		ldr	r1, [r7]
 2103 0bbc 7868     		ldr	r0, [r7, #4]
 2104 0bbe FFF7FEFF 		bl	isValidEbFormat
 2105 0bc2 0346     		mov	r3, r0
 2106 0bc4 002B     		cmp	r3, #0
 2107 0bc6 2ED0     		beq	.L135
 828:build\openmote-cc2538_armgcc\openstack\02a-MAClow/IEEE802154E.c ****         // at this point, ASN and frame length are known
 829:build\openmote-cc2538_armgcc\openstack\02a-MAClow/IEEE802154E.c ****         // the current slotoffset can be inferred
 830:build\openmote-cc2538_armgcc\openstack\02a-MAClow/IEEE802154E.c ****         ieee154e_syncSlotOffset();
 2108              		.loc 1 830 0
 2109 0bc8 FFF7FEFF 		bl	ieee154e_syncSlotOffset
 831:build\openmote-cc2538_armgcc\openstack\02a-MAClow/IEEE802154E.c ****         schedule_syncSlotOffset(ieee154e_vars.slotOffset);
 2110              		.loc 1 831 0
 2111 0bcc 1B4B     		ldr	r3, .L142
 2112 0bce DB88     		ldrh	r3, [r3, #6]
 2113 0bd0 1846     		mov	r0, r3
 2114 0bd2 FFF7FEFF 		bl	schedule_syncSlotOffset
 832:build\openmote-cc2538_armgcc\openstack\02a-MAClow/IEEE802154E.c ****         ieee154e_vars.nextActiveSlotOffset = schedule_getNextActiveSlotOffset();
 2115              		.loc 1 832 0
 2116 0bd6 FFF7FEFF 		bl	schedule_getNextActiveSlotOffset
 2117 0bda 0346     		mov	r3, r0
 2118 0bdc 1A46     		mov	r2, r3
 2119 0bde 174B     		ldr	r3, .L142
 2120 0be0 1A81     		strh	r2, [r3, #8]	@ movhi
 833:build\openmote-cc2538_armgcc\openstack\02a-MAClow/IEEE802154E.c ****         /*
 834:build\openmote-cc2538_armgcc\openstack\02a-MAClow/IEEE802154E.c ****         infer the asnOffset based on the fact that
 835:build\openmote-cc2538_armgcc\openstack\02a-MAClow/IEEE802154E.c ****         ieee154e_vars.freq = 11 + (asnOffset + channelOffset)%16
 836:build\openmote-cc2538_armgcc\openstack\02a-MAClow/IEEE802154E.c ****         */
 837:build\openmote-cc2538_armgcc\openstack\02a-MAClow/IEEE802154E.c ****         for (i=0;i<NUM_CHANNELS;i++){
 2121              		.loc 1 837 0
 2122 0be2 0023     		movs	r3, #0
 2123 0be4 FB73     		strb	r3, [r7, #15]
 2124 0be6 0DE0     		b	.L136
 2125              	.L139:
 838:build\openmote-cc2538_armgcc\openstack\02a-MAClow/IEEE802154E.c ****             if ((ieee154e_vars.freq - 11)==ieee154e_vars.chTemplate[i]){
 2126              		.loc 1 838 0
 2127 0be8 144B     		ldr	r3, .L142
 2128 0bea 93F88031 		ldrb	r3, [r3, #384]	@ zero_extendqisi2
 2129 0bee 0B3B     		subs	r3, r3, #11
 2130 0bf0 FA7B     		ldrb	r2, [r7, #15]	@ zero_extendqisi2
 2131 0bf2 1249     		ldr	r1, .L142
 2132 0bf4 0A44     		add	r2, r2, r1
 2133 0bf6 92F88421 		ldrb	r2, [r2, #388]	@ zero_extendqisi2
 2134 0bfa 9342     		cmp	r3, r2
 2135 0bfc 06D0     		beq	.L141
 837:build\openmote-cc2538_armgcc\openstack\02a-MAClow/IEEE802154E.c ****             if ((ieee154e_vars.freq - 11)==ieee154e_vars.chTemplate[i]){
 2136              		.loc 1 837 0 discriminator 2
 2137 0bfe FB7B     		ldrb	r3, [r7, #15]	@ zero_extendqisi2
 2138 0c00 0133     		adds	r3, r3, #1
 2139 0c02 FB73     		strb	r3, [r7, #15]
 2140              	.L136:
 837:build\openmote-cc2538_armgcc\openstack\02a-MAClow/IEEE802154E.c ****             if ((ieee154e_vars.freq - 11)==ieee154e_vars.chTemplate[i]){
 2141              		.loc 1 837 0 is_stmt 0 discriminator 1
 2142 0c04 FB7B     		ldrb	r3, [r7, #15]	@ zero_extendqisi2
 2143 0c06 0F2B     		cmp	r3, #15
 2144 0c08 EED9     		bls	.L139
 2145 0c0a 00E0     		b	.L138
 2146              	.L141:
 839:build\openmote-cc2538_armgcc\openstack\02a-MAClow/IEEE802154E.c ****                 break;
 2147              		.loc 1 839 0 is_stmt 1
 2148 0c0c 00BF     		nop
 2149              	.L138:
 840:build\openmote-cc2538_armgcc\openstack\02a-MAClow/IEEE802154E.c ****             }
 841:build\openmote-cc2538_armgcc\openstack\02a-MAClow/IEEE802154E.c ****         }
 842:build\openmote-cc2538_armgcc\openstack\02a-MAClow/IEEE802154E.c ****         ieee154e_vars.asnOffset = i - schedule_getChannelOffset();
 2150              		.loc 1 842 0
 2151 0c0e FFF7FEFF 		bl	schedule_getChannelOffset
 2152 0c12 0346     		mov	r3, r0
 2153 0c14 1A46     		mov	r2, r3
 2154 0c16 FB7B     		ldrb	r3, [r7, #15]
 2155 0c18 9B1A     		subs	r3, r3, r2
 2156 0c1a DAB2     		uxtb	r2, r3
 2157 0c1c 074B     		ldr	r3, .L142
 2158 0c1e 83F88121 		strb	r2, [r3, #385]
 843:build\openmote-cc2538_armgcc\openstack\02a-MAClow/IEEE802154E.c ****         return TRUE;
 2159              		.loc 1 843 0
 2160 0c22 0123     		movs	r3, #1
 2161 0c24 06E0     		b	.L140
 2162              	.L135:
 844:build\openmote-cc2538_armgcc\openstack\02a-MAClow/IEEE802154E.c ****     } else {
 845:build\openmote-cc2538_armgcc\openstack\02a-MAClow/IEEE802154E.c ****         // wrong eb format
 846:build\openmote-cc2538_armgcc\openstack\02a-MAClow/IEEE802154E.c ****         openserial_printError(COMPONENT_IEEE802154E,ERR_UNSUPPORTED_FORMAT,3,0);
 2163              		.loc 1 846 0
 2164 0c26 0023     		movs	r3, #0
 2165 0c28 0322     		movs	r2, #3
 2166 0c2a 4121     		movs	r1, #65
 2167 0c2c 0920     		movs	r0, #9
 2168 0c2e FFF7FEFF 		bl	openserial_printError
 847:build\openmote-cc2538_armgcc\openstack\02a-MAClow/IEEE802154E.c ****         return FALSE;
 2169              		.loc 1 847 0
 2170 0c32 0023     		movs	r3, #0
 2171              	.L140:
 848:build\openmote-cc2538_armgcc\openstack\02a-MAClow/IEEE802154E.c ****     }
 849:build\openmote-cc2538_armgcc\openstack\02a-MAClow/IEEE802154E.c **** }
 2172              		.loc 1 849 0
 2173 0c34 1846     		mov	r0, r3
 2174 0c36 1037     		adds	r7, r7, #16
 2175              		.cfi_def_cfa_offset 8
 2176 0c38 BD46     		mov	sp, r7
 2177              		.cfi_def_cfa_register 13
 2178              		@ sp needed
 2179 0c3a 80BD     		pop	{r7, pc}
 2180              	.L143:
 2181              		.align	2
 2182              	.L142:
 2183 0c3c 00000000 		.word	ieee154e_vars
 2184              		.cfi_endproc
 2185              	.LFE19:
 2187              		.align	1
 2188              		.global	activity_ti1ORri1
 2189              		.syntax unified
 2190              		.thumb
 2191              		.thumb_func
 2192              		.fpu softvfp
 2194              	activity_ti1ORri1:
 2195              	.LFB20:
 850:build\openmote-cc2538_armgcc\openstack\02a-MAClow/IEEE802154E.c **** 
 851:build\openmote-cc2538_armgcc\openstack\02a-MAClow/IEEE802154E.c **** //======= TX
 852:build\openmote-cc2538_armgcc\openstack\02a-MAClow/IEEE802154E.c **** 
 853:build\openmote-cc2538_armgcc\openstack\02a-MAClow/IEEE802154E.c **** port_INLINE void activity_ti1ORri1(void) {
 2196              		.loc 1 853 0
 2197              		.cfi_startproc
 2198              		@ args = 0, pretend = 0, frame = 56
 2199              		@ frame_needed = 1, uses_anonymous_args = 0
 2200 0c40 80B5     		push	{r7, lr}
 2201              		.cfi_def_cfa_offset 8
 2202              		.cfi_offset 7, -8
 2203              		.cfi_offset 14, -4
 2204 0c42 90B0     		sub	sp, sp, #64
 2205              		.cfi_def_cfa_offset 72
 2206 0c44 02AF     		add	r7, sp, #8
 2207              		.cfi_def_cfa 7, 64
 854:build\openmote-cc2538_armgcc\openstack\02a-MAClow/IEEE802154E.c ****     cellType_t  cellType;
 855:build\openmote-cc2538_armgcc\openstack\02a-MAClow/IEEE802154E.c ****     open_addr_t neighbor;
 856:build\openmote-cc2538_armgcc\openstack\02a-MAClow/IEEE802154E.c ****     open_addr_t autonomousUnicastNeighbor;
 857:build\openmote-cc2538_armgcc\openstack\02a-MAClow/IEEE802154E.c ****     uint8_t     i;
 858:build\openmote-cc2538_armgcc\openstack\02a-MAClow/IEEE802154E.c ****     uint8_t     asn[5];
 859:build\openmote-cc2538_armgcc\openstack\02a-MAClow/IEEE802154E.c ****     uint8_t     join_priority;
 860:build\openmote-cc2538_armgcc\openstack\02a-MAClow/IEEE802154E.c ****     bool        couldSendEB=FALSE;
 2208              		.loc 1 860 0
 2209 0c46 0023     		movs	r3, #0
 2210 0c48 87F83630 		strb	r3, [r7, #54]
 861:build\openmote-cc2538_armgcc\openstack\02a-MAClow/IEEE802154E.c **** 
 862:build\openmote-cc2538_armgcc\openstack\02a-MAClow/IEEE802154E.c ****     // increment ASN (do this first so debug pins are in sync)
 863:build\openmote-cc2538_armgcc\openstack\02a-MAClow/IEEE802154E.c ****     incrementAsnOffset();
 2211              		.loc 1 863 0
 2212 0c4c FFF7FEFF 		bl	incrementAsnOffset
 864:build\openmote-cc2538_armgcc\openstack\02a-MAClow/IEEE802154E.c **** 
 865:build\openmote-cc2538_armgcc\openstack\02a-MAClow/IEEE802154E.c ****     // wiggle debug pins
 866:build\openmote-cc2538_armgcc\openstack\02a-MAClow/IEEE802154E.c ****     debugpins_slot_toggle();
 2213              		.loc 1 866 0
 2214 0c50 FFF7FEFF 		bl	debugpins_slot_toggle
 867:build\openmote-cc2538_armgcc\openstack\02a-MAClow/IEEE802154E.c ****     if (ieee154e_vars.slotOffset==0) {
 2215              		.loc 1 867 0
 2216 0c54 AB4B     		ldr	r3, .L176
 2217 0c56 DB88     		ldrh	r3, [r3, #6]
 2218 0c58 002B     		cmp	r3, #0
 2219 0c5a 01D1     		bne	.L145
 868:build\openmote-cc2538_armgcc\openstack\02a-MAClow/IEEE802154E.c ****         debugpins_frame_toggle();
 2220              		.loc 1 868 0
 2221 0c5c FFF7FEFF 		bl	debugpins_frame_toggle
 2222              	.L145:
 869:build\openmote-cc2538_armgcc\openstack\02a-MAClow/IEEE802154E.c ****     }
 870:build\openmote-cc2538_armgcc\openstack\02a-MAClow/IEEE802154E.c **** 
 871:build\openmote-cc2538_armgcc\openstack\02a-MAClow/IEEE802154E.c ****     // desynchronize if needed
 872:build\openmote-cc2538_armgcc\openstack\02a-MAClow/IEEE802154E.c ****     if (idmanager_getIsDAGroot()==FALSE) {
 2223              		.loc 1 872 0
 2224 0c60 FFF7FEFF 		bl	idmanager_getIsDAGroot
 2225 0c64 0346     		mov	r3, r0
 2226 0c66 83F00103 		eor	r3, r3, #1
 2227 0c6a DBB2     		uxtb	r3, r3
 2228 0c6c 002B     		cmp	r3, #0
 2229 0c6e 26D0     		beq	.L146
 873:build\openmote-cc2538_armgcc\openstack\02a-MAClow/IEEE802154E.c ****         if(ieee154e_vars.deSyncTimeout > ieee154e_vars.numOfSleepSlots){
 2230              		.loc 1 873 0
 2231 0c70 A44B     		ldr	r3, .L176
 2232 0c72 DA68     		ldr	r2, [r3, #12]
 2233 0c74 A34B     		ldr	r3, .L176
 2234 0c76 D3F86031 		ldr	r3, [r3, #352]
 2235 0c7a 9A42     		cmp	r2, r3
 2236 0c7c 08D9     		bls	.L147
 874:build\openmote-cc2538_armgcc\openstack\02a-MAClow/IEEE802154E.c ****             ieee154e_vars.deSyncTimeout -= ieee154e_vars.numOfSleepSlots;
 2237              		.loc 1 874 0
 2238 0c7e A14B     		ldr	r3, .L176
 2239 0c80 DA68     		ldr	r2, [r3, #12]
 2240 0c82 A04B     		ldr	r3, .L176
 2241 0c84 D3F86031 		ldr	r3, [r3, #352]
 2242 0c88 D31A     		subs	r3, r2, r3
 2243 0c8a 9E4A     		ldr	r2, .L176
 2244 0c8c D360     		str	r3, [r2, #12]
 2245 0c8e 16E0     		b	.L146
 2246              	.L147:
 875:build\openmote-cc2538_armgcc\openstack\02a-MAClow/IEEE802154E.c ****         } else {
 876:build\openmote-cc2538_armgcc\openstack\02a-MAClow/IEEE802154E.c ****             // Reset sleep slots
 877:build\openmote-cc2538_armgcc\openstack\02a-MAClow/IEEE802154E.c ****             ieee154e_vars.numOfSleepSlots = 1;
 2247              		.loc 1 877 0
 2248 0c90 9C4B     		ldr	r3, .L176
 2249 0c92 0122     		movs	r2, #1
 2250 0c94 C3F86021 		str	r2, [r3, #352]
 878:build\openmote-cc2538_armgcc\openstack\02a-MAClow/IEEE802154E.c **** 
 879:build\openmote-cc2538_armgcc\openstack\02a-MAClow/IEEE802154E.c ****             // declare myself desynchronized
 880:build\openmote-cc2538_armgcc\openstack\02a-MAClow/IEEE802154E.c ****             changeIsSync(FALSE);
 2251              		.loc 1 880 0
 2252 0c98 0020     		movs	r0, #0
 2253 0c9a FFF7FEFF 		bl	changeIsSync
 881:build\openmote-cc2538_armgcc\openstack\02a-MAClow/IEEE802154E.c **** 
 882:build\openmote-cc2538_armgcc\openstack\02a-MAClow/IEEE802154E.c ****             // log the error
 883:build\openmote-cc2538_armgcc\openstack\02a-MAClow/IEEE802154E.c ****             openserial_printError(COMPONENT_IEEE802154E,ERR_DESYNCHRONIZED,
 884:build\openmote-cc2538_armgcc\openstack\02a-MAClow/IEEE802154E.c ****                                   (errorparameter_t)ieee154e_vars.slotOffset,
 2254              		.loc 1 884 0
 2255 0c9e 994B     		ldr	r3, .L176
 2256 0ca0 DA88     		ldrh	r2, [r3, #6]
 883:build\openmote-cc2538_armgcc\openstack\02a-MAClow/IEEE802154E.c ****                                   (errorparameter_t)ieee154e_vars.slotOffset,
 2257              		.loc 1 883 0
 2258 0ca2 0023     		movs	r3, #0
 2259 0ca4 1B21     		movs	r1, #27
 2260 0ca6 0920     		movs	r0, #9
 2261 0ca8 FFF7FEFF 		bl	openserial_printError
 885:build\openmote-cc2538_armgcc\openstack\02a-MAClow/IEEE802154E.c ****                                   (errorparameter_t)0);
 886:build\openmote-cc2538_armgcc\openstack\02a-MAClow/IEEE802154E.c **** 
 887:build\openmote-cc2538_armgcc\openstack\02a-MAClow/IEEE802154E.c ****             // update the statistics
 888:build\openmote-cc2538_armgcc\openstack\02a-MAClow/IEEE802154E.c ****             ieee154e_stats.numDeSync++;
 2262              		.loc 1 888 0
 2263 0cac 964B     		ldr	r3, .L176+4
 2264 0cae 9B79     		ldrb	r3, [r3, #6]	@ zero_extendqisi2
 2265 0cb0 0133     		adds	r3, r3, #1
 2266 0cb2 DAB2     		uxtb	r2, r3
 2267 0cb4 944B     		ldr	r3, .L176+4
 2268 0cb6 9A71     		strb	r2, [r3, #6]
 889:build\openmote-cc2538_armgcc\openstack\02a-MAClow/IEEE802154E.c **** 
 890:build\openmote-cc2538_armgcc\openstack\02a-MAClow/IEEE802154E.c ****             // abort
 891:build\openmote-cc2538_armgcc\openstack\02a-MAClow/IEEE802154E.c ****             endSlot();
 2269              		.loc 1 891 0
 2270 0cb8 FFF7FEFF 		bl	endSlot
 892:build\openmote-cc2538_armgcc\openstack\02a-MAClow/IEEE802154E.c ****             return;
 2271              		.loc 1 892 0
 2272 0cbc CDE1     		b	.L144
 2273              	.L146:
 893:build\openmote-cc2538_armgcc\openstack\02a-MAClow/IEEE802154E.c ****         }
 894:build\openmote-cc2538_armgcc\openstack\02a-MAClow/IEEE802154E.c ****     }
 895:build\openmote-cc2538_armgcc\openstack\02a-MAClow/IEEE802154E.c **** 
 896:build\openmote-cc2538_armgcc\openstack\02a-MAClow/IEEE802154E.c ****     // if the previous slot took too long, we will not be in the right state
 897:build\openmote-cc2538_armgcc\openstack\02a-MAClow/IEEE802154E.c ****     if (ieee154e_vars.state!=S_SLEEP) {
 2274              		.loc 1 897 0
 2275 0cbe 914B     		ldr	r3, .L176
 2276 0cc0 93F86431 		ldrb	r3, [r3, #356]	@ zero_extendqisi2
 2277 0cc4 002B     		cmp	r3, #0
 2278 0cc6 16D0     		beq	.L149
 898:build\openmote-cc2538_armgcc\openstack\02a-MAClow/IEEE802154E.c ****         // log the error
 899:build\openmote-cc2538_armgcc\openstack\02a-MAClow/IEEE802154E.c ****         openserial_printError(COMPONENT_IEEE802154E,ERR_WRONG_STATE_IN_STARTSLOT,
 900:build\openmote-cc2538_armgcc\openstack\02a-MAClow/IEEE802154E.c ****                             (errorparameter_t)ieee154e_vars.state,
 2279              		.loc 1 900 0
 2280 0cc8 8E4B     		ldr	r3, .L176
 2281 0cca 93F86431 		ldrb	r3, [r3, #356]	@ zero_extendqisi2
 899:build\openmote-cc2538_armgcc\openstack\02a-MAClow/IEEE802154E.c ****                             (errorparameter_t)ieee154e_vars.state,
 2282              		.loc 1 899 0
 2283 0cce 9AB2     		uxth	r2, r3
 901:build\openmote-cc2538_armgcc\openstack\02a-MAClow/IEEE802154E.c ****                             (errorparameter_t)ieee154e_vars.slotOffset);
 2284              		.loc 1 901 0
 2285 0cd0 8C4B     		ldr	r3, .L176
 2286 0cd2 DB88     		ldrh	r3, [r3, #6]
 899:build\openmote-cc2538_armgcc\openstack\02a-MAClow/IEEE802154E.c ****                             (errorparameter_t)ieee154e_vars.state,
 2287              		.loc 1 899 0
 2288 0cd4 1F21     		movs	r1, #31
 2289 0cd6 0920     		movs	r0, #9
 2290 0cd8 FFF7FEFF 		bl	openserial_printError
 902:build\openmote-cc2538_armgcc\openstack\02a-MAClow/IEEE802154E.c **** 
 903:build\openmote-cc2538_armgcc\openstack\02a-MAClow/IEEE802154E.c ****         openserial_printError(COMPONENT_IEEE802154E,ERR_HWAN,
 904:build\openmote-cc2538_armgcc\openstack\02a-MAClow/IEEE802154E.c ****                             (errorparameter_t)ieee154e_vars.state,
 2291              		.loc 1 904 0
 2292 0cdc 894B     		ldr	r3, .L176
 2293 0cde 93F86431 		ldrb	r3, [r3, #356]	@ zero_extendqisi2
 903:build\openmote-cc2538_armgcc\openstack\02a-MAClow/IEEE802154E.c ****                             (errorparameter_t)ieee154e_vars.state,
 2294              		.loc 1 903 0
 2295 0ce2 9AB2     		uxth	r2, r3
 905:build\openmote-cc2538_armgcc\openstack\02a-MAClow/IEEE802154E.c ****                             (errorparameter_t)ieee154e_vars.slotOffset);
 2296              		.loc 1 905 0
 2297 0ce4 874B     		ldr	r3, .L176
 2298 0ce6 DB88     		ldrh	r3, [r3, #6]
 903:build\openmote-cc2538_armgcc\openstack\02a-MAClow/IEEE802154E.c ****                             (errorparameter_t)ieee154e_vars.state,
 2299              		.loc 1 903 0
 2300 0ce8 4C21     		movs	r1, #76
 2301 0cea 0920     		movs	r0, #9
 2302 0cec FFF7FEFF 		bl	openserial_printError
 906:build\openmote-cc2538_armgcc\openstack\02a-MAClow/IEEE802154E.c ****         // abort
 907:build\openmote-cc2538_armgcc\openstack\02a-MAClow/IEEE802154E.c ****         endSlot();
 2303              		.loc 1 907 0
 2304 0cf0 FFF7FEFF 		bl	endSlot
 908:build\openmote-cc2538_armgcc\openstack\02a-MAClow/IEEE802154E.c ****         return;
 2305              		.loc 1 908 0
 2306 0cf4 B1E1     		b	.L144
 2307              	.L149:
 909:build\openmote-cc2538_armgcc\openstack\02a-MAClow/IEEE802154E.c ****     }
 910:build\openmote-cc2538_armgcc\openstack\02a-MAClow/IEEE802154E.c **** 
 911:build\openmote-cc2538_armgcc\openstack\02a-MAClow/IEEE802154E.c ****     // Reset sleep slots
 912:build\openmote-cc2538_armgcc\openstack\02a-MAClow/IEEE802154E.c ****     ieee154e_vars.numOfSleepSlots = 1;
 2308              		.loc 1 912 0
 2309 0cf6 834B     		ldr	r3, .L176
 2310 0cf8 0122     		movs	r2, #1
 2311 0cfa C3F86021 		str	r2, [r3, #352]
 913:build\openmote-cc2538_armgcc\openstack\02a-MAClow/IEEE802154E.c **** 
 914:build\openmote-cc2538_armgcc\openstack\02a-MAClow/IEEE802154E.c ****     if (ieee154e_vars.slotOffset==ieee154e_vars.nextActiveSlotOffset) {
 2312              		.loc 1 914 0
 2313 0cfe 814B     		ldr	r3, .L176
 2314 0d00 DA88     		ldrh	r2, [r3, #6]
 2315 0d02 804B     		ldr	r3, .L176
 2316 0d04 1B89     		ldrh	r3, [r3, #8]
 2317 0d06 9A42     		cmp	r2, r3
 2318 0d08 40F08380 		bne	.L150
 915:build\openmote-cc2538_armgcc\openstack\02a-MAClow/IEEE802154E.c ****         // this is the next active slot
 916:build\openmote-cc2538_armgcc\openstack\02a-MAClow/IEEE802154E.c **** 
 917:build\openmote-cc2538_armgcc\openstack\02a-MAClow/IEEE802154E.c ****         // advance the schedule
 918:build\openmote-cc2538_armgcc\openstack\02a-MAClow/IEEE802154E.c ****         schedule_advanceSlot();
 2319              		.loc 1 918 0
 2320 0d0c FFF7FEFF 		bl	schedule_advanceSlot
 919:build\openmote-cc2538_armgcc\openstack\02a-MAClow/IEEE802154E.c **** 
 920:build\openmote-cc2538_armgcc\openstack\02a-MAClow/IEEE802154E.c ****         // calculate the frequency to transmit on
 921:build\openmote-cc2538_armgcc\openstack\02a-MAClow/IEEE802154E.c ****         ieee154e_vars.freq = calculateFrequency(schedule_getChannelOffset());
 2321              		.loc 1 921 0
 2322 0d10 FFF7FEFF 		bl	schedule_getChannelOffset
 2323 0d14 0346     		mov	r3, r0
 2324 0d16 1846     		mov	r0, r3
 2325 0d18 FFF7FEFF 		bl	calculateFrequency
 2326 0d1c 0346     		mov	r3, r0
 2327 0d1e 1A46     		mov	r2, r3
 2328 0d20 784B     		ldr	r3, .L176
 2329 0d22 83F88021 		strb	r2, [r3, #384]
 922:build\openmote-cc2538_armgcc\openstack\02a-MAClow/IEEE802154E.c **** 
 923:build\openmote-cc2538_armgcc\openstack\02a-MAClow/IEEE802154E.c ****         // find the next one
 924:build\openmote-cc2538_armgcc\openstack\02a-MAClow/IEEE802154E.c ****         ieee154e_vars.nextActiveSlotOffset = schedule_getNextActiveSlotOffset();
 2330              		.loc 1 924 0
 2331 0d26 FFF7FEFF 		bl	schedule_getNextActiveSlotOffset
 2332 0d2a 0346     		mov	r3, r0
 2333 0d2c 1A46     		mov	r2, r3
 2334 0d2e 754B     		ldr	r3, .L176
 2335 0d30 1A81     		strh	r2, [r3, #8]	@ movhi
 925:build\openmote-cc2538_armgcc\openstack\02a-MAClow/IEEE802154E.c ****         if (idmanager_getIsSlotSkip() && idmanager_getIsDAGroot()==FALSE) {
 2336              		.loc 1 925 0
 2337 0d32 FFF7FEFF 		bl	idmanager_getIsSlotSkip
 2338 0d36 0346     		mov	r3, r0
 2339 0d38 002B     		cmp	r3, #0
 2340 0d3a 59D0     		beq	.L151
 2341              		.loc 1 925 0 is_stmt 0 discriminator 1
 2342 0d3c FFF7FEFF 		bl	idmanager_getIsDAGroot
 2343 0d40 0346     		mov	r3, r0
 2344 0d42 83F00103 		eor	r3, r3, #1
 2345 0d46 DBB2     		uxtb	r3, r3
 2346 0d48 002B     		cmp	r3, #0
 2347 0d4a 51D0     		beq	.L151
 926:build\openmote-cc2538_armgcc\openstack\02a-MAClow/IEEE802154E.c ****             if (ieee154e_vars.nextActiveSlotOffset>ieee154e_vars.slotOffset) {
 2348              		.loc 1 926 0 is_stmt 1
 2349 0d4c 6D4B     		ldr	r3, .L176
 2350 0d4e 1A89     		ldrh	r2, [r3, #8]
 2351 0d50 6C4B     		ldr	r3, .L176
 2352 0d52 DB88     		ldrh	r3, [r3, #6]
 2353 0d54 9A42     		cmp	r2, r3
 2354 0d56 0AD9     		bls	.L152
 927:build\openmote-cc2538_armgcc\openstack\02a-MAClow/IEEE802154E.c ****                 ieee154e_vars.numOfSleepSlots = ieee154e_vars.nextActiveSlotOffset-ieee154e_vars.sl
 2355              		.loc 1 927 0
 2356 0d58 6A4B     		ldr	r3, .L176
 2357 0d5a 1B89     		ldrh	r3, [r3, #8]
 2358 0d5c 1A46     		mov	r2, r3
 2359 0d5e 694B     		ldr	r3, .L176
 2360 0d60 DB88     		ldrh	r3, [r3, #6]
 2361 0d62 D31A     		subs	r3, r2, r3
 2362 0d64 1A46     		mov	r2, r3
 2363 0d66 674B     		ldr	r3, .L176
 2364 0d68 C3F86021 		str	r2, [r3, #352]
 2365 0d6c 0DE0     		b	.L153
 2366              	.L152:
 928:build\openmote-cc2538_armgcc\openstack\02a-MAClow/IEEE802154E.c ****             } else {
 929:build\openmote-cc2538_armgcc\openstack\02a-MAClow/IEEE802154E.c ****                 ieee154e_vars.numOfSleepSlots = schedule_getFrameLength()+ieee154e_vars.nextActiveS
 2367              		.loc 1 929 0
 2368 0d6e FFF7FEFF 		bl	schedule_getFrameLength
 2369 0d72 0346     		mov	r3, r0
 2370 0d74 1A46     		mov	r2, r3
 2371 0d76 634B     		ldr	r3, .L176
 2372 0d78 1B89     		ldrh	r3, [r3, #8]
 2373 0d7a 1344     		add	r3, r3, r2
 2374 0d7c 614A     		ldr	r2, .L176
 2375 0d7e D288     		ldrh	r2, [r2, #6]
 2376 0d80 9B1A     		subs	r3, r3, r2
 2377 0d82 1A46     		mov	r2, r3
 2378 0d84 5F4B     		ldr	r3, .L176
 2379 0d86 C3F86021 		str	r2, [r3, #352]
 2380              	.L153:
 930:build\openmote-cc2538_armgcc\openstack\02a-MAClow/IEEE802154E.c ****             }
 931:build\openmote-cc2538_armgcc\openstack\02a-MAClow/IEEE802154E.c **** 
 932:build\openmote-cc2538_armgcc\openstack\02a-MAClow/IEEE802154E.c ****             opentimers_scheduleAbsolute(
 2381              		.loc 1 932 0
 2382 0d8a 5E4B     		ldr	r3, .L176
 2383 0d8c 93F8A801 		ldrb	r0, [r3, #424]	@ zero_extendqisi2
 933:build\openmote-cc2538_armgcc\openstack\02a-MAClow/IEEE802154E.c ****                 ieee154e_vars.timerId,                            // timerId
 934:build\openmote-cc2538_armgcc\openstack\02a-MAClow/IEEE802154E.c ****                 TsSlotDuration*(ieee154e_vars.numOfSleepSlots),   // duration
 2384              		.loc 1 934 0
 2385 0d90 5C4B     		ldr	r3, .L176
 2386 0d92 D3F86031 		ldr	r3, [r3, #352]
 932:build\openmote-cc2538_armgcc\openstack\02a-MAClow/IEEE802154E.c ****                 ieee154e_vars.timerId,                            // timerId
 2387              		.loc 1 932 0
 2388 0d96 4FF4A472 		mov	r2, #328
 2389 0d9a 02FB03F1 		mul	r1, r2, r3
 2390 0d9e 594B     		ldr	r3, .L176
 2391 0da0 D3F8AC21 		ldr	r2, [r3, #428]
 2392 0da4 594B     		ldr	r3, .L176+8
 2393 0da6 0093     		str	r3, [sp]
 2394 0da8 0123     		movs	r3, #1
 2395 0daa FFF7FEFF 		bl	opentimers_scheduleAbsolute
 935:build\openmote-cc2538_armgcc\openstack\02a-MAClow/IEEE802154E.c ****                 ieee154e_vars.startOfSlotReference,               // reference
 936:build\openmote-cc2538_armgcc\openstack\02a-MAClow/IEEE802154E.c ****                 TIME_TICS,                                        // timetype
 937:build\openmote-cc2538_armgcc\openstack\02a-MAClow/IEEE802154E.c ****                 isr_ieee154e_newSlot                              // callback
 938:build\openmote-cc2538_armgcc\openstack\02a-MAClow/IEEE802154E.c ****             );
 939:build\openmote-cc2538_armgcc\openstack\02a-MAClow/IEEE802154E.c ****             ieee154e_vars.slotDuration = TsSlotDuration*(ieee154e_vars.numOfSleepSlots);
 2396              		.loc 1 939 0
 2397 0dae 554B     		ldr	r3, .L176
 2398 0db0 D3F86031 		ldr	r3, [r3, #352]
 2399 0db4 9BB2     		uxth	r3, r3
 2400 0db6 1A46     		mov	r2, r3	@ movhi
 2401 0db8 9200     		lsls	r2, r2, #2
 2402 0dba 1A44     		add	r2, r2, r3
 2403 0dbc D200     		lsls	r2, r2, #3
 2404 0dbe 1344     		add	r3, r3, r2
 2405 0dc0 DB00     		lsls	r3, r3, #3
 2406 0dc2 9AB2     		uxth	r2, r3
 2407 0dc4 4F4B     		ldr	r3, .L176
 2408 0dc6 A3F8A621 		strh	r2, [r3, #422]	@ movhi
 940:build\openmote-cc2538_armgcc\openstack\02a-MAClow/IEEE802154E.c ****             // radiotimer_setPeriod(TsSlotDuration*(ieee154e_vars.numOfSleepSlots));
 941:build\openmote-cc2538_armgcc\openstack\02a-MAClow/IEEE802154E.c **** 
 942:build\openmote-cc2538_armgcc\openstack\02a-MAClow/IEEE802154E.c ****             //increase ASN by numOfSleepSlots-1 slots as at this slot is already incremented by 1
 943:build\openmote-cc2538_armgcc\openstack\02a-MAClow/IEEE802154E.c ****             for (i=0;i<ieee154e_vars.numOfSleepSlots-1;i++){
 2409              		.loc 1 943 0
 2410 0dca 0023     		movs	r3, #0
 2411 0dcc 87F83730 		strb	r3, [r7, #55]
 2412 0dd0 06E0     		b	.L154
 2413              	.L155:
 944:build\openmote-cc2538_armgcc\openstack\02a-MAClow/IEEE802154E.c ****                 incrementAsnOffset();
 2414              		.loc 1 944 0 discriminator 3
 2415 0dd2 FFF7FEFF 		bl	incrementAsnOffset
 943:build\openmote-cc2538_armgcc\openstack\02a-MAClow/IEEE802154E.c ****                 incrementAsnOffset();
 2416              		.loc 1 943 0 discriminator 3
 2417 0dd6 97F83730 		ldrb	r3, [r7, #55]	@ zero_extendqisi2
 2418 0dda 0133     		adds	r3, r3, #1
 2419 0ddc 87F83730 		strb	r3, [r7, #55]
 2420              	.L154:
 943:build\openmote-cc2538_armgcc\openstack\02a-MAClow/IEEE802154E.c ****                 incrementAsnOffset();
 2421              		.loc 1 943 0 is_stmt 0 discriminator 1
 2422 0de0 97F83720 		ldrb	r2, [r7, #55]	@ zero_extendqisi2
 2423 0de4 474B     		ldr	r3, .L176
 2424 0de6 D3F86031 		ldr	r3, [r3, #352]
 2425 0dea 013B     		subs	r3, r3, #1
 2426 0dec 9A42     		cmp	r2, r3
 2427 0dee F0D3     		bcc	.L155
 2428              	.L151:
 945:build\openmote-cc2538_armgcc\openstack\02a-MAClow/IEEE802154E.c ****             }
 946:build\openmote-cc2538_armgcc\openstack\02a-MAClow/IEEE802154E.c ****         }
 947:build\openmote-cc2538_armgcc\openstack\02a-MAClow/IEEE802154E.c ****         ieee154e_vars.nextActiveSlotOffset = schedule_getNextActiveSlotOffset();
 2429              		.loc 1 947 0 is_stmt 1
 2430 0df0 FFF7FEFF 		bl	schedule_getNextActiveSlotOffset
 2431 0df4 0346     		mov	r3, r0
 2432 0df6 1A46     		mov	r2, r3
 2433 0df8 424B     		ldr	r3, .L176
 2434 0dfa 1A81     		strh	r2, [r3, #8]	@ movhi
 948:build\openmote-cc2538_armgcc\openstack\02a-MAClow/IEEE802154E.c ****     } else {
 949:build\openmote-cc2538_armgcc\openstack\02a-MAClow/IEEE802154E.c ****         // this is NOT the next active slot, abort
 950:build\openmote-cc2538_armgcc\openstack\02a-MAClow/IEEE802154E.c **** 
 951:build\openmote-cc2538_armgcc\openstack\02a-MAClow/IEEE802154E.c ****         // abort the slot
 952:build\openmote-cc2538_armgcc\openstack\02a-MAClow/IEEE802154E.c ****         endSlot();
 953:build\openmote-cc2538_armgcc\openstack\02a-MAClow/IEEE802154E.c **** 
 954:build\openmote-cc2538_armgcc\openstack\02a-MAClow/IEEE802154E.c ****         return;
 955:build\openmote-cc2538_armgcc\openstack\02a-MAClow/IEEE802154E.c ****     }
 956:build\openmote-cc2538_armgcc\openstack\02a-MAClow/IEEE802154E.c **** 
 957:build\openmote-cc2538_armgcc\openstack\02a-MAClow/IEEE802154E.c ****     // check the schedule to see what type of slot this is
 958:build\openmote-cc2538_armgcc\openstack\02a-MAClow/IEEE802154E.c ****     cellType = schedule_getType();
 2435              		.loc 1 958 0
 2436 0dfc FFF7FEFF 		bl	schedule_getType
 2437 0e00 0346     		mov	r3, r0
 2438 0e02 87F83530 		strb	r3, [r7, #53]
 959:build\openmote-cc2538_armgcc\openstack\02a-MAClow/IEEE802154E.c ****     switch (cellType) {
 2439              		.loc 1 959 0
 2440 0e06 97F83530 		ldrb	r3, [r7, #53]	@ zero_extendqisi2
 2441 0e0a 022B     		cmp	r3, #2
 2442 0e0c 00F00581 		beq	.L158
 2443 0e10 02E0     		b	.L174
 2444              	.L150:
 952:build\openmote-cc2538_armgcc\openstack\02a-MAClow/IEEE802154E.c **** 
 2445              		.loc 1 952 0
 2446 0e12 FFF7FEFF 		bl	endSlot
 954:build\openmote-cc2538_armgcc\openstack\02a-MAClow/IEEE802154E.c ****     }
 2447              		.loc 1 954 0
 2448 0e16 20E1     		b	.L144
 2449              	.L174:
 2450              		.loc 1 959 0
 2451 0e18 032B     		cmp	r3, #3
 2452 0e1a 02D0     		beq	.L159
 2453 0e1c 012B     		cmp	r3, #1
 2454 0e1e 40F01081 		bne	.L175
 2455              	.L159:
 960:build\openmote-cc2538_armgcc\openstack\02a-MAClow/IEEE802154E.c ****         case CELLTYPE_TXRX:
 961:build\openmote-cc2538_armgcc\openstack\02a-MAClow/IEEE802154E.c ****         case CELLTYPE_TX:
 962:build\openmote-cc2538_armgcc\openstack\02a-MAClow/IEEE802154E.c ****             // assuming that there is nothing to send
 963:build\openmote-cc2538_armgcc\openstack\02a-MAClow/IEEE802154E.c ****             ieee154e_vars.dataToSend = NULL;
 2456              		.loc 1 963 0
 2457 0e22 384B     		ldr	r3, .L176
 2458 0e24 0022     		movs	r2, #0
 2459 0e26 C3F86821 		str	r2, [r3, #360]
 964:build\openmote-cc2538_armgcc\openstack\02a-MAClow/IEEE802154E.c ****             // get the neighbor to check this is dedicated cell or not later
 965:build\openmote-cc2538_armgcc\openstack\02a-MAClow/IEEE802154E.c ****             schedule_getNeighbor(&neighbor);
 2460              		.loc 1 965 0
 2461 0e2a 07F12403 		add	r3, r7, #36
 2462 0e2e 1846     		mov	r0, r3
 2463 0e30 FFF7FEFF 		bl	schedule_getNeighbor
 966:build\openmote-cc2538_armgcc\openstack\02a-MAClow/IEEE802154E.c **** 
 967:build\openmote-cc2538_armgcc\openstack\02a-MAClow/IEEE802154E.c ****             // check whether we can send
 968:build\openmote-cc2538_armgcc\openstack\02a-MAClow/IEEE802154E.c ****             if (schedule_getOkToSend()) {
 2464              		.loc 1 968 0
 2465 0e34 FFF7FEFF 		bl	schedule_getOkToSend
 2466 0e38 0346     		mov	r3, r0
 2467 0e3a 002B     		cmp	r3, #0
 2468 0e3c 00F09A80 		beq	.L160
 969:build\openmote-cc2538_armgcc\openstack\02a-MAClow/IEEE802154E.c ****                 if (packetfunctions_isBroadcastMulticast(&neighbor)==FALSE){
 2469              		.loc 1 969 0
 2470 0e40 07F12403 		add	r3, r7, #36
 2471 0e44 1846     		mov	r0, r3
 2472 0e46 FFF7FEFF 		bl	packetfunctions_isBroadcastMulticast
 2473 0e4a 0346     		mov	r3, r0
 2474 0e4c 83F00103 		eor	r3, r3, #1
 2475 0e50 DBB2     		uxtb	r3, r3
 2476 0e52 002B     		cmp	r3, #0
 2477 0e54 3BD0     		beq	.L161
 970:build\openmote-cc2538_armgcc\openstack\02a-MAClow/IEEE802154E.c **** 
 971:build\openmote-cc2538_armgcc\openstack\02a-MAClow/IEEE802154E.c ****                     if (schedule_getShared()){
 2478              		.loc 1 971 0
 2479 0e56 FFF7FEFF 		bl	schedule_getShared
 2480 0e5a 0346     		mov	r3, r0
 2481 0e5c 002B     		cmp	r3, #0
 2482 0e5e 09D0     		beq	.L162
 972:build\openmote-cc2538_armgcc\openstack\02a-MAClow/IEEE802154E.c ****                         // this is an autonomous TxRx cell (unicast)
 973:build\openmote-cc2538_armgcc\openstack\02a-MAClow/IEEE802154E.c ****                         ieee154e_vars.dataToSend = openqueue_macGet6PandJoinPacket(&neighbor);
 2483              		.loc 1 973 0
 2484 0e60 07F12403 		add	r3, r7, #36
 2485 0e64 1846     		mov	r0, r3
 2486 0e66 FFF7FEFF 		bl	openqueue_macGet6PandJoinPacket
 2487 0e6a 0246     		mov	r2, r0
 2488 0e6c 254B     		ldr	r3, .L176
 2489 0e6e C3F86821 		str	r2, [r3, #360]
 2490 0e72 7FE0     		b	.L160
 2491              	.L162:
 974:build\openmote-cc2538_armgcc\openstack\02a-MAClow/IEEE802154E.c ****                     } else {
 975:build\openmote-cc2538_armgcc\openstack\02a-MAClow/IEEE802154E.c ****                         // this is a managed Tx cell
 976:build\openmote-cc2538_armgcc\openstack\02a-MAClow/IEEE802154E.c ****                         ieee154e_vars.dataToSend = openqueue_macGetNonJoinIPv6Packet(&neighbor);
 2492              		.loc 1 976 0
 2493 0e74 07F12403 		add	r3, r7, #36
 2494 0e78 1846     		mov	r0, r3
 2495 0e7a FFF7FEFF 		bl	openqueue_macGetNonJoinIPv6Packet
 2496 0e7e 0246     		mov	r2, r0
 2497 0e80 204B     		ldr	r3, .L176
 2498 0e82 C3F86821 		str	r2, [r3, #360]
 977:build\openmote-cc2538_armgcc\openstack\02a-MAClow/IEEE802154E.c **** 
 978:build\openmote-cc2538_armgcc\openstack\02a-MAClow/IEEE802154E.c ****                         if (ieee154e_vars.dataToSend == NULL){
 2499              		.loc 1 978 0
 2500 0e86 1F4B     		ldr	r3, .L176
 2501 0e88 D3F86831 		ldr	r3, [r3, #360]
 2502 0e8c 002B     		cmp	r3, #0
 2503 0e8e 08D1     		bne	.L164
 979:build\openmote-cc2538_armgcc\openstack\02a-MAClow/IEEE802154E.c ****                             ieee154e_vars.dataToSend = openqueue_macGetKaPacket(&neighbor);
 2504              		.loc 1 979 0
 2505 0e90 07F12403 		add	r3, r7, #36
 2506 0e94 1846     		mov	r0, r3
 2507 0e96 FFF7FEFF 		bl	openqueue_macGetKaPacket
 2508 0e9a 0246     		mov	r2, r0
 2509 0e9c 194B     		ldr	r3, .L176
 2510 0e9e C3F86821 		str	r2, [r3, #360]
 2511              	.L164:
 980:build\openmote-cc2538_armgcc\openstack\02a-MAClow/IEEE802154E.c ****                         }
 981:build\openmote-cc2538_armgcc\openstack\02a-MAClow/IEEE802154E.c **** 
 982:build\openmote-cc2538_armgcc\openstack\02a-MAClow/IEEE802154E.c ****                         // update numcellpassed and numcellused on managed Tx cell
 983:build\openmote-cc2538_armgcc\openstack\02a-MAClow/IEEE802154E.c ****                         if (ieee154e_vars.dataToSend!=NULL) {
 2512              		.loc 1 983 0
 2513 0ea2 184B     		ldr	r3, .L176
 2514 0ea4 D3F86831 		ldr	r3, [r3, #360]
 2515 0ea8 002B     		cmp	r3, #0
 2516 0eaa 0AD0     		beq	.L165
 984:build\openmote-cc2538_armgcc\openstack\02a-MAClow/IEEE802154E.c ****                             ieee154e_vars.dataToSend->l2_sendOnTxCell = TRUE;
 2517              		.loc 1 984 0
 2518 0eac 154B     		ldr	r3, .L176
 2519 0eae D3F86831 		ldr	r3, [r3, #360]
 2520 0eb2 0122     		movs	r2, #1
 2521 0eb4 83F8A820 		strb	r2, [r3, #168]
 985:build\openmote-cc2538_armgcc\openstack\02a-MAClow/IEEE802154E.c ****                             msf_updateCellsUsed(&neighbor);
 2522              		.loc 1 985 0
 2523 0eb8 07F12403 		add	r3, r7, #36
 2524 0ebc 1846     		mov	r0, r3
 2525 0ebe FFF7FEFF 		bl	msf_updateCellsUsed
 2526              	.L165:
 986:build\openmote-cc2538_armgcc\openstack\02a-MAClow/IEEE802154E.c ****                         }
 987:build\openmote-cc2538_armgcc\openstack\02a-MAClow/IEEE802154E.c ****                         msf_updateCellsPassed(&neighbor);
 2527              		.loc 1 987 0
 2528 0ec2 07F12403 		add	r3, r7, #36
 2529 0ec6 1846     		mov	r0, r3
 2530 0ec8 FFF7FEFF 		bl	msf_updateCellsPassed
 2531 0ecc 52E0     		b	.L160
 2532              	.L161:
 988:build\openmote-cc2538_armgcc\openstack\02a-MAClow/IEEE802154E.c ****                     }
 989:build\openmote-cc2538_armgcc\openstack\02a-MAClow/IEEE802154E.c ****                 } else {
 990:build\openmote-cc2538_armgcc\openstack\02a-MAClow/IEEE802154E.c ****                     if (schedule_getShared()) {
 2533              		.loc 1 990 0
 2534 0ece FFF7FEFF 		bl	schedule_getShared
 2535 0ed2 0346     		mov	r3, r0
 2536 0ed4 002B     		cmp	r3, #0
 2537 0ed6 1BD0     		beq	.L166
 991:build\openmote-cc2538_armgcc\openstack\02a-MAClow/IEEE802154E.c ****                         // this is minimal cell
 992:build\openmote-cc2538_armgcc\openstack\02a-MAClow/IEEE802154E.c ****                         ieee154e_vars.dataToSend = openqueue_macGetDIOPacket();
 2538              		.loc 1 992 0
 2539 0ed8 FFF7FEFF 		bl	openqueue_macGetDIOPacket
 2540 0edc 0246     		mov	r2, r0
 2541 0ede 094B     		ldr	r3, .L176
 2542 0ee0 C3F86821 		str	r2, [r3, #360]
 993:build\openmote-cc2538_armgcc\openstack\02a-MAClow/IEEE802154E.c ****                         if (ieee154e_vars.dataToSend==NULL){
 2543              		.loc 1 993 0
 2544 0ee4 074B     		ldr	r3, .L176
 2545 0ee6 D3F86831 		ldr	r3, [r3, #360]
 2546 0eea 002B     		cmp	r3, #0
 2547 0eec 42D1     		bne	.L160
 994:build\openmote-cc2538_armgcc\openstack\02a-MAClow/IEEE802154E.c ****                             couldSendEB=TRUE;
 2548              		.loc 1 994 0
 2549 0eee 0123     		movs	r3, #1
 2550 0ef0 87F83630 		strb	r3, [r7, #54]
 995:build\openmote-cc2538_armgcc\openstack\02a-MAClow/IEEE802154E.c ****                             // look for an EB packet in the queue
 996:build\openmote-cc2538_armgcc\openstack\02a-MAClow/IEEE802154E.c ****                             ieee154e_vars.dataToSend = openqueue_macGetEBPacket();
 2551              		.loc 1 996 0
 2552 0ef4 FFF7FEFF 		bl	openqueue_macGetEBPacket
 2553 0ef8 0246     		mov	r2, r0
 2554 0efa 024B     		ldr	r3, .L176
 2555 0efc C3F86821 		str	r2, [r3, #360]
 2556 0f00 38E0     		b	.L160
 2557              	.L177:
 2558 0f02 00BF     		.align	2
 2559              	.L176:
 2560 0f04 00000000 		.word	ieee154e_vars
 2561 0f08 00000000 		.word	ieee154e_stats
 2562 0f0c 00000000 		.word	isr_ieee154e_newSlot
 2563              	.L166:
 997:build\openmote-cc2538_armgcc\openstack\02a-MAClow/IEEE802154E.c ****                         }
 998:build\openmote-cc2538_armgcc\openstack\02a-MAClow/IEEE802154E.c ****                     } else {
 999:build\openmote-cc2538_armgcc\openstack\02a-MAClow/IEEE802154E.c ****                         // this is autonomous TXRX cell (anycast)
1000:build\openmote-cc2538_armgcc\openstack\02a-MAClow/IEEE802154E.c ****                         if (msf_getHashCollisionFlag()==TRUE){
 2564              		.loc 1 1000 0
 2565 0f10 FFF7FEFF 		bl	msf_getHashCollisionFlag
 2566 0f14 0346     		mov	r3, r0
 2567 0f16 002B     		cmp	r3, #0
 2568 0f18 08D0     		beq	.L168
1001:build\openmote-cc2538_armgcc\openstack\02a-MAClow/IEEE802154E.c ****                             // check whether there is 6p or join request packet to send first
1002:build\openmote-cc2538_armgcc\openstack\02a-MAClow/IEEE802154E.c ****                             ieee154e_vars.dataToSend = openqueue_macGet6PandJoinPacket(&neighbor);
 2569              		.loc 1 1002 0
 2570 0f1a 07F12403 		add	r3, r7, #36
 2571 0f1e 1846     		mov	r0, r3
 2572 0f20 FFF7FEFF 		bl	openqueue_macGet6PandJoinPacket
 2573 0f24 0246     		mov	r2, r0
 2574 0f26 4E4B     		ldr	r3, .L178
 2575 0f28 C3F86821 		str	r2, [r3, #360]
 2576              	.L168:
1003:build\openmote-cc2538_armgcc\openstack\02a-MAClow/IEEE802154E.c ****                         }
1004:build\openmote-cc2538_armgcc\openstack\02a-MAClow/IEEE802154E.c **** 
1005:build\openmote-cc2538_armgcc\openstack\02a-MAClow/IEEE802154E.c ****                         if (ieee154e_vars.dataToSend == NULL) {
 2577              		.loc 1 1005 0
 2578 0f2c 4C4B     		ldr	r3, .L178
 2579 0f2e D3F86831 		ldr	r3, [r3, #360]
 2580 0f32 002B     		cmp	r3, #0
 2581 0f34 10D1     		bne	.L169
1006:build\openmote-cc2538_armgcc\openstack\02a-MAClow/IEEE802154E.c ****                             if (schedule_getAutonomousTxRxCellUnicastNeighbor(&autonomousUnicastNei
 2582              		.loc 1 1006 0
 2583 0f36 07F11003 		add	r3, r7, #16
 2584 0f3a 1846     		mov	r0, r3
 2585 0f3c FFF7FEFF 		bl	schedule_getAutonomousTxRxCellUnicastNeighbor
 2586 0f40 0346     		mov	r3, r0
 2587 0f42 002B     		cmp	r3, #0
 2588 0f44 08D0     		beq	.L169
1007:build\openmote-cc2538_armgcc\openstack\02a-MAClow/IEEE802154E.c ****                                 ieee154e_vars.dataToSend = openqueue_macGet6PRequestOnAnycast(&auto
 2589              		.loc 1 1007 0
 2590 0f46 07F11003 		add	r3, r7, #16
 2591 0f4a 1846     		mov	r0, r3
 2592 0f4c FFF7FEFF 		bl	openqueue_macGet6PRequestOnAnycast
 2593 0f50 0246     		mov	r2, r0
 2594 0f52 434B     		ldr	r3, .L178
 2595 0f54 C3F86821 		str	r2, [r3, #360]
 2596              	.L169:
1008:build\openmote-cc2538_armgcc\openstack\02a-MAClow/IEEE802154E.c ****                             }
1009:build\openmote-cc2538_armgcc\openstack\02a-MAClow/IEEE802154E.c ****                         }
1010:build\openmote-cc2538_armgcc\openstack\02a-MAClow/IEEE802154E.c **** 
1011:build\openmote-cc2538_armgcc\openstack\02a-MAClow/IEEE802154E.c ****                         if (ieee154e_vars.dataToSend == NULL) {
 2597              		.loc 1 1011 0
 2598 0f58 414B     		ldr	r3, .L178
 2599 0f5a D3F86831 		ldr	r3, [r3, #360]
 2600 0f5e 002B     		cmp	r3, #0
 2601 0f60 08D1     		bne	.L160
1012:build\openmote-cc2538_armgcc\openstack\02a-MAClow/IEEE802154E.c ****                             ieee154e_vars.dataToSend = openqueue_macGet6PResponseAndDownStreamPacke
 2602              		.loc 1 1012 0
 2603 0f62 07F12403 		add	r3, r7, #36
 2604 0f66 1846     		mov	r0, r3
 2605 0f68 FFF7FEFF 		bl	openqueue_macGet6PResponseAndDownStreamPacket
 2606 0f6c 0246     		mov	r2, r0
 2607 0f6e 3C4B     		ldr	r3, .L178
 2608 0f70 C3F86821 		str	r2, [r3, #360]
 2609              	.L160:
1013:build\openmote-cc2538_armgcc\openstack\02a-MAClow/IEEE802154E.c ****                         }
1014:build\openmote-cc2538_armgcc\openstack\02a-MAClow/IEEE802154E.c ****                     }
1015:build\openmote-cc2538_armgcc\openstack\02a-MAClow/IEEE802154E.c ****                 }
1016:build\openmote-cc2538_armgcc\openstack\02a-MAClow/IEEE802154E.c ****             }
1017:build\openmote-cc2538_armgcc\openstack\02a-MAClow/IEEE802154E.c **** 
1018:build\openmote-cc2538_armgcc\openstack\02a-MAClow/IEEE802154E.c ****             if (ieee154e_vars.dataToSend==NULL) {
 2610              		.loc 1 1018 0
 2611 0f74 3A4B     		ldr	r3, .L178
 2612 0f76 D3F86831 		ldr	r3, [r3, #360]
 2613 0f7a 002B     		cmp	r3, #0
 2614 0f7c 06D1     		bne	.L170
1019:build\openmote-cc2538_armgcc\openstack\02a-MAClow/IEEE802154E.c ****                 if (cellType==CELLTYPE_TX) {
 2615              		.loc 1 1019 0
 2616 0f7e 97F83530 		ldrb	r3, [r7, #53]	@ zero_extendqisi2
 2617 0f82 012B     		cmp	r3, #1
 2618 0f84 49D1     		bne	.L158
1020:build\openmote-cc2538_armgcc\openstack\02a-MAClow/IEEE802154E.c ****                     // abort
1021:build\openmote-cc2538_armgcc\openstack\02a-MAClow/IEEE802154E.c ****                     endSlot();
 2619              		.loc 1 1021 0
 2620 0f86 FFF7FEFF 		bl	endSlot
1022:build\openmote-cc2538_armgcc\openstack\02a-MAClow/IEEE802154E.c ****                     break;
 2621              		.loc 1 1022 0
 2622 0f8a 66E0     		b	.L144
 2623              	.L170:
1023:build\openmote-cc2538_armgcc\openstack\02a-MAClow/IEEE802154E.c ****                 }
1024:build\openmote-cc2538_armgcc\openstack\02a-MAClow/IEEE802154E.c ****             } else {
1025:build\openmote-cc2538_armgcc\openstack\02a-MAClow/IEEE802154E.c ****                 // change state
1026:build\openmote-cc2538_armgcc\openstack\02a-MAClow/IEEE802154E.c ****                 changeState(S_TXDATAOFFSET);
 2624              		.loc 1 1026 0
 2625 0f8c 0420     		movs	r0, #4
 2626 0f8e FFF7FEFF 		bl	changeState
1027:build\openmote-cc2538_armgcc\openstack\02a-MAClow/IEEE802154E.c ****                 // change owner
1028:build\openmote-cc2538_armgcc\openstack\02a-MAClow/IEEE802154E.c ****                 ieee154e_vars.dataToSend->owner = COMPONENT_IEEE802154E;
 2627              		.loc 1 1028 0
 2628 0f92 334B     		ldr	r3, .L178
 2629 0f94 D3F86831 		ldr	r3, [r3, #360]
 2630 0f98 0922     		movs	r2, #9
 2631 0f9a 5A70     		strb	r2, [r3, #1]
1029:build\openmote-cc2538_armgcc\openstack\02a-MAClow/IEEE802154E.c ****                 if (couldSendEB==TRUE) {        // I will be sending an EB
 2632              		.loc 1 1029 0
 2633 0f9c 97F83630 		ldrb	r3, [r7, #54]	@ zero_extendqisi2
 2634 0fa0 002B     		cmp	r3, #0
 2635 0fa2 20D0     		beq	.L172
1030:build\openmote-cc2538_armgcc\openstack\02a-MAClow/IEEE802154E.c ****                     //copy synch IE  -- should be Little endian???
1031:build\openmote-cc2538_armgcc\openstack\02a-MAClow/IEEE802154E.c ****                     // fill in the ASN field of the EB
1032:build\openmote-cc2538_armgcc\openstack\02a-MAClow/IEEE802154E.c ****                     ieee154e_getAsn(asn);
 2636              		.loc 1 1032 0
 2637 0fa4 07F10803 		add	r3, r7, #8
 2638 0fa8 1846     		mov	r0, r3
 2639 0faa FFF7FEFF 		bl	ieee154e_getAsn
1033:build\openmote-cc2538_armgcc\openstack\02a-MAClow/IEEE802154E.c ****                     join_priority = (icmpv6rpl_getMyDAGrank()/MINHOPRANKINCREASE)-1; //poipoi -- us
 2640              		.loc 1 1033 0
 2641 0fae FFF7FEFF 		bl	icmpv6rpl_getMyDAGrank
 2642 0fb2 0346     		mov	r3, r0
 2643 0fb4 1B0A     		lsrs	r3, r3, #8
 2644 0fb6 9BB2     		uxth	r3, r3
 2645 0fb8 DBB2     		uxtb	r3, r3
 2646 0fba 013B     		subs	r3, r3, #1
 2647 0fbc DBB2     		uxtb	r3, r3
 2648 0fbe FB71     		strb	r3, [r7, #7]
1034:build\openmote-cc2538_armgcc\openstack\02a-MAClow/IEEE802154E.c ****                     memcpy(ieee154e_vars.dataToSend->l2_ASNpayload,&asn[0],sizeof(asn_t));
 2649              		.loc 1 1034 0
 2650 0fc0 274B     		ldr	r3, .L178
 2651 0fc2 D3F86831 		ldr	r3, [r3, #360]
 2652 0fc6 D3F89830 		ldr	r3, [r3, #152]
 2653 0fca 07F10801 		add	r1, r7, #8
 2654 0fce 0522     		movs	r2, #5
 2655 0fd0 1846     		mov	r0, r3
 2656 0fd2 FFF7FEFF 		bl	memcpy
1035:build\openmote-cc2538_armgcc\openstack\02a-MAClow/IEEE802154E.c ****                     memcpy(ieee154e_vars.dataToSend->l2_ASNpayload+sizeof(asn_t),&join_priority,siz
 2657              		.loc 1 1035 0
 2658 0fd6 224B     		ldr	r3, .L178
 2659 0fd8 D3F86831 		ldr	r3, [r3, #360]
 2660 0fdc D3F89830 		ldr	r3, [r3, #152]
 2661 0fe0 0533     		adds	r3, r3, #5
 2662 0fe2 FA79     		ldrb	r2, [r7, #7]	@ zero_extendqisi2
 2663 0fe4 1A70     		strb	r2, [r3]
 2664              	.L172:
1036:build\openmote-cc2538_armgcc\openstack\02a-MAClow/IEEE802154E.c ****                 }
1037:build\openmote-cc2538_armgcc\openstack\02a-MAClow/IEEE802154E.c ****                 // record that I attempt to transmit this packet
1038:build\openmote-cc2538_armgcc\openstack\02a-MAClow/IEEE802154E.c ****                 ieee154e_vars.dataToSend->l2_numTxAttempts++;
 2665              		.loc 1 1038 0
 2666 0fe6 1E4B     		ldr	r3, .L178
 2667 0fe8 D3F86831 		ldr	r3, [r3, #360]
 2668 0fec 93F85520 		ldrb	r2, [r3, #85]	@ zero_extendqisi2
 2669 0ff0 0132     		adds	r2, r2, #1
 2670 0ff2 D2B2     		uxtb	r2, r2
 2671 0ff4 83F85520 		strb	r2, [r3, #85]
1039:build\openmote-cc2538_armgcc\openstack\02a-MAClow/IEEE802154E.c **** #ifdef SLOT_FSM_IMPLEMENTATION_MULTIPLE_TIMER_INTERRUPT
1040:build\openmote-cc2538_armgcc\openstack\02a-MAClow/IEEE802154E.c ****                 // 1. schedule timer for loading packet
1041:build\openmote-cc2538_armgcc\openstack\02a-MAClow/IEEE802154E.c ****             sctimer_scheduleActionIn(ACTION_LOAD_PACKET, ieee154e_vars.startOfSlotReference+DURATIO
1042:build\openmote-cc2538_armgcc\openstack\02a-MAClow/IEEE802154E.c ****                 // prepare the packet for load packet action at DURATION_tt1
1043:build\openmote-cc2538_armgcc\openstack\02a-MAClow/IEEE802154E.c ****                 // make a local copy of the frame
1044:build\openmote-cc2538_armgcc\openstack\02a-MAClow/IEEE802154E.c ****                 packetfunctions_duplicatePacket(&ieee154e_vars.localCopyForTransmission, ieee154e_v
1045:build\openmote-cc2538_armgcc\openstack\02a-MAClow/IEEE802154E.c **** 
1046:build\openmote-cc2538_armgcc\openstack\02a-MAClow/IEEE802154E.c ****                 // check if packet needs to be encrypted/authenticated before transmission
1047:build\openmote-cc2538_armgcc\openstack\02a-MAClow/IEEE802154E.c ****                 if (ieee154e_vars.localCopyForTransmission.l2_securityLevel != IEEE154_ASH_SLF_TYPE
1048:build\openmote-cc2538_armgcc\openstack\02a-MAClow/IEEE802154E.c ****                     // encrypt in a local copy
1049:build\openmote-cc2538_armgcc\openstack\02a-MAClow/IEEE802154E.c ****                     if (IEEE802154_security_outgoingFrameSecurity(&ieee154e_vars.localCopyForTransm
1050:build\openmote-cc2538_armgcc\openstack\02a-MAClow/IEEE802154E.c ****                         // keep the frame in the OpenQueue in order to retry later
1051:build\openmote-cc2538_armgcc\openstack\02a-MAClow/IEEE802154E.c ****                         endSlot(); // abort
1052:build\openmote-cc2538_armgcc\openstack\02a-MAClow/IEEE802154E.c ****                         return;
1053:build\openmote-cc2538_armgcc\openstack\02a-MAClow/IEEE802154E.c ****                     }
1054:build\openmote-cc2538_armgcc\openstack\02a-MAClow/IEEE802154E.c ****                 }
1055:build\openmote-cc2538_armgcc\openstack\02a-MAClow/IEEE802154E.c ****                 // add 2 CRC bytes only to the local copy as we end up here for each retransmission
1056:build\openmote-cc2538_armgcc\openstack\02a-MAClow/IEEE802154E.c ****                 packetfunctions_reserveFooterSize(&ieee154e_vars.localCopyForTransmission, 2);
1057:build\openmote-cc2538_armgcc\openstack\02a-MAClow/IEEE802154E.c **** 
1058:build\openmote-cc2538_armgcc\openstack\02a-MAClow/IEEE802154E.c ****             // configure the radio for that frequency
1059:build\openmote-cc2538_armgcc\openstack\02a-MAClow/IEEE802154E.c ****             radio_setFrequency(ieee154e_vars.freq);
1060:build\openmote-cc2538_armgcc\openstack\02a-MAClow/IEEE802154E.c **** 
1061:build\openmote-cc2538_armgcc\openstack\02a-MAClow/IEEE802154E.c ****                 // set the tx buffer address and length register.(packet is NOT loaded at this mome
1062:build\openmote-cc2538_armgcc\openstack\02a-MAClow/IEEE802154E.c ****                 radio_loadPacket_prepare(ieee154e_vars.localCopyForTransmission.payload,
1063:build\openmote-cc2538_armgcc\openstack\02a-MAClow/IEEE802154E.c ****                                      ieee154e_vars.localCopyForTransmission.length);
1064:build\openmote-cc2538_armgcc\openstack\02a-MAClow/IEEE802154E.c ****                 // 2. schedule timer for sending packet
1065:build\openmote-cc2538_armgcc\openstack\02a-MAClow/IEEE802154E.c ****             sctimer_scheduleActionIn(ACTION_SEND_PACKET,  ieee154e_vars.startOfSlotReference+DURATI
1066:build\openmote-cc2538_armgcc\openstack\02a-MAClow/IEEE802154E.c ****                 // 3. schedule timer radio tx watchdog
1067:build\openmote-cc2538_armgcc\openstack\02a-MAClow/IEEE802154E.c ****             sctimer_scheduleActionIn(ACTION_SET_TIMEOUT, ieee154e_vars.startOfSlotReference+DURATIO
1068:build\openmote-cc2538_armgcc\openstack\02a-MAClow/IEEE802154E.c ****                 // 4. set capture interrupt for Tx SFD senddone and packet senddone
1069:build\openmote-cc2538_armgcc\openstack\02a-MAClow/IEEE802154E.c ****             sctimer_setCapture(ACTION_TX_SFD_DONE);
1070:build\openmote-cc2538_armgcc\openstack\02a-MAClow/IEEE802154E.c ****             sctimer_setCapture(ACTION_TX_SEND_DONE);
1071:build\openmote-cc2538_armgcc\openstack\02a-MAClow/IEEE802154E.c **** #else
1072:build\openmote-cc2538_armgcc\openstack\02a-MAClow/IEEE802154E.c ****                 // arm tt1
1073:build\openmote-cc2538_armgcc\openstack\02a-MAClow/IEEE802154E.c ****                 opentimers_scheduleAbsolute(
 2672              		.loc 1 1073 0
 2673 0ff8 194B     		ldr	r3, .L178
 2674 0ffa 93F8A801 		ldrb	r0, [r3, #424]	@ zero_extendqisi2
1074:build\openmote-cc2538_armgcc\openstack\02a-MAClow/IEEE802154E.c ****                     ieee154e_vars.timerId,                            // timerId
1075:build\openmote-cc2538_armgcc\openstack\02a-MAClow/IEEE802154E.c ****                     DURATION_tt1,                                     // duration
 2675              		.loc 1 1075 0
 2676 0ffe 184B     		ldr	r3, .L178
 2677 1000 D3F87831 		ldr	r3, [r3, #376]
1073:build\openmote-cc2538_armgcc\openstack\02a-MAClow/IEEE802154E.c ****                     ieee154e_vars.timerId,                            // timerId
 2678              		.loc 1 1073 0
 2679 1004 03F13401 		add	r1, r3, #52
 2680 1008 154B     		ldr	r3, .L178
 2681 100a D3F8AC21 		ldr	r2, [r3, #428]
 2682 100e 154B     		ldr	r3, .L178+4
 2683 1010 0093     		str	r3, [sp]
 2684 1012 0123     		movs	r3, #1
 2685 1014 FFF7FEFF 		bl	opentimers_scheduleAbsolute
1076:build\openmote-cc2538_armgcc\openstack\02a-MAClow/IEEE802154E.c ****                     ieee154e_vars.startOfSlotReference,               // reference
1077:build\openmote-cc2538_armgcc\openstack\02a-MAClow/IEEE802154E.c ****                     TIME_TICS,                                        // timetype
1078:build\openmote-cc2538_armgcc\openstack\02a-MAClow/IEEE802154E.c ****                     isr_ieee154e_timer                                // callback
1079:build\openmote-cc2538_armgcc\openstack\02a-MAClow/IEEE802154E.c ****                 );
1080:build\openmote-cc2538_armgcc\openstack\02a-MAClow/IEEE802154E.c ****                 // radiotimer_schedule(DURATION_tt1);
1081:build\openmote-cc2538_armgcc\openstack\02a-MAClow/IEEE802154E.c **** #endif
1082:build\openmote-cc2538_armgcc\openstack\02a-MAClow/IEEE802154E.c ****                 break;
 2686              		.loc 1 1082 0
 2687 1018 1FE0     		b	.L144
 2688              	.L158:
1083:build\openmote-cc2538_armgcc\openstack\02a-MAClow/IEEE802154E.c ****             }
1084:build\openmote-cc2538_armgcc\openstack\02a-MAClow/IEEE802154E.c ****         case CELLTYPE_RX:
1085:build\openmote-cc2538_armgcc\openstack\02a-MAClow/IEEE802154E.c ****             // change state
1086:build\openmote-cc2538_armgcc\openstack\02a-MAClow/IEEE802154E.c ****             changeState(S_RXDATAOFFSET);
 2689              		.loc 1 1086 0
 2690 101a 0F20     		movs	r0, #15
 2691 101c FFF7FEFF 		bl	changeState
1087:build\openmote-cc2538_armgcc\openstack\02a-MAClow/IEEE802154E.c **** #ifdef SLOT_FSM_IMPLEMENTATION_MULTIPLE_TIMER_INTERRUPT
1088:build\openmote-cc2538_armgcc\openstack\02a-MAClow/IEEE802154E.c ****             // arm rt1
1089:build\openmote-cc2538_armgcc\openstack\02a-MAClow/IEEE802154E.c ****          sctimer_scheduleActionIn(ACTION_RADIORX_ENABLE,ieee154e_vars.startOfSlotReference+DURATION
1090:build\openmote-cc2538_armgcc\openstack\02a-MAClow/IEEE802154E.c ****             radio_rxPacket_prepare();
1091:build\openmote-cc2538_armgcc\openstack\02a-MAClow/IEEE802154E.c ****             // 2. schedule timer for starting
1092:build\openmote-cc2538_armgcc\openstack\02a-MAClow/IEEE802154E.c ****          sctimer_scheduleActionIn(ACTION_SET_TIMEOUT,  ieee154e_vars.startOfSlotReference+DURATION_
1093:build\openmote-cc2538_armgcc\openstack\02a-MAClow/IEEE802154E.c ****             // 3.  set capture interrupt for Rx SFD done and receiving packet done
1094:build\openmote-cc2538_armgcc\openstack\02a-MAClow/IEEE802154E.c ****          sctimer_setCapture(ACTION_RX_SFD_DONE);
1095:build\openmote-cc2538_armgcc\openstack\02a-MAClow/IEEE802154E.c ****          sctimer_setCapture(ACTION_RX_DONE);
1096:build\openmote-cc2538_armgcc\openstack\02a-MAClow/IEEE802154E.c **** 
1097:build\openmote-cc2538_armgcc\openstack\02a-MAClow/IEEE802154E.c ****          // configure the radio for that frequency
1098:build\openmote-cc2538_armgcc\openstack\02a-MAClow/IEEE802154E.c ****          radio_setFrequency(ieee154e_vars.freq);
1099:build\openmote-cc2538_armgcc\openstack\02a-MAClow/IEEE802154E.c **** #else
1100:build\openmote-cc2538_armgcc\openstack\02a-MAClow/IEEE802154E.c ****             // arm rt1
1101:build\openmote-cc2538_armgcc\openstack\02a-MAClow/IEEE802154E.c ****             opentimers_scheduleAbsolute(
 2692              		.loc 1 1101 0
 2693 1020 0F4B     		ldr	r3, .L178
 2694 1022 93F8A801 		ldrb	r0, [r3, #424]	@ zero_extendqisi2
1102:build\openmote-cc2538_armgcc\openstack\02a-MAClow/IEEE802154E.c ****                 ieee154e_vars.timerId,                            // timerId
1103:build\openmote-cc2538_armgcc\openstack\02a-MAClow/IEEE802154E.c ****                 DURATION_rt1,                                     // duration
 2695              		.loc 1 1103 0
 2696 1026 0E4B     		ldr	r3, .L178
 2697 1028 D3F87831 		ldr	r3, [r3, #376]
1101:build\openmote-cc2538_armgcc\openstack\02a-MAClow/IEEE802154E.c ****                 ieee154e_vars.timerId,                            // timerId
 2698              		.loc 1 1101 0
 2699 102c 03F11E01 		add	r1, r3, #30
 2700 1030 0B4B     		ldr	r3, .L178
 2701 1032 D3F8AC21 		ldr	r2, [r3, #428]
 2702 1036 0B4B     		ldr	r3, .L178+4
 2703 1038 0093     		str	r3, [sp]
 2704 103a 0123     		movs	r3, #1
 2705 103c FFF7FEFF 		bl	opentimers_scheduleAbsolute
1104:build\openmote-cc2538_armgcc\openstack\02a-MAClow/IEEE802154E.c ****                 ieee154e_vars.startOfSlotReference,               // reference
1105:build\openmote-cc2538_armgcc\openstack\02a-MAClow/IEEE802154E.c ****                 TIME_TICS,                                        // timetype
1106:build\openmote-cc2538_armgcc\openstack\02a-MAClow/IEEE802154E.c ****                 isr_ieee154e_timer                                // callback
1107:build\openmote-cc2538_armgcc\openstack\02a-MAClow/IEEE802154E.c ****             );
1108:build\openmote-cc2538_armgcc\openstack\02a-MAClow/IEEE802154E.c ****             // radiotimer_schedule(DURATION_rt1);
1109:build\openmote-cc2538_armgcc\openstack\02a-MAClow/IEEE802154E.c **** #endif
1110:build\openmote-cc2538_armgcc\openstack\02a-MAClow/IEEE802154E.c ****             break;
 2706              		.loc 1 1110 0
 2707 1040 0BE0     		b	.L144
 2708              	.L175:
1111:build\openmote-cc2538_armgcc\openstack\02a-MAClow/IEEE802154E.c ****         default:
1112:build\openmote-cc2538_armgcc\openstack\02a-MAClow/IEEE802154E.c **** 
1113:build\openmote-cc2538_armgcc\openstack\02a-MAClow/IEEE802154E.c ****             // log the error
1114:build\openmote-cc2538_armgcc\openstack\02a-MAClow/IEEE802154E.c ****             openserial_printCritical(COMPONENT_IEEE802154E,ERR_WRONG_CELLTYPE,
 2709              		.loc 1 1114 0
 2710 1042 97F83530 		ldrb	r3, [r7, #53]	@ zero_extendqisi2
 2711 1046 9AB2     		uxth	r2, r3
1115:build\openmote-cc2538_armgcc\openstack\02a-MAClow/IEEE802154E.c ****                                (errorparameter_t)cellType,
1116:build\openmote-cc2538_armgcc\openstack\02a-MAClow/IEEE802154E.c ****                                (errorparameter_t)ieee154e_vars.slotOffset);
 2712              		.loc 1 1116 0
 2713 1048 054B     		ldr	r3, .L178
 2714 104a DB88     		ldrh	r3, [r3, #6]
1114:build\openmote-cc2538_armgcc\openstack\02a-MAClow/IEEE802154E.c ****                                (errorparameter_t)cellType,
 2715              		.loc 1 1114 0
 2716 104c 1921     		movs	r1, #25
 2717 104e 0920     		movs	r0, #9
 2718 1050 FFF7FEFF 		bl	openserial_printCritical
1117:build\openmote-cc2538_armgcc\openstack\02a-MAClow/IEEE802154E.c ****             // abort
1118:build\openmote-cc2538_armgcc\openstack\02a-MAClow/IEEE802154E.c ****             endSlot();
 2719              		.loc 1 1118 0
 2720 1054 FFF7FEFF 		bl	endSlot
1119:build\openmote-cc2538_armgcc\openstack\02a-MAClow/IEEE802154E.c ****             break;
 2721              		.loc 1 1119 0
 2722 1058 00BF     		nop
 2723              	.L144:
1120:build\openmote-cc2538_armgcc\openstack\02a-MAClow/IEEE802154E.c ****     }
1121:build\openmote-cc2538_armgcc\openstack\02a-MAClow/IEEE802154E.c **** }
 2724              		.loc 1 1121 0
 2725 105a 3837     		adds	r7, r7, #56
 2726              		.cfi_def_cfa_offset 8
 2727 105c BD46     		mov	sp, r7
 2728              		.cfi_def_cfa_register 13
 2729              		@ sp needed
 2730 105e 80BD     		pop	{r7, pc}
 2731              	.L179:
 2732              		.align	2
 2733              	.L178:
 2734 1060 00000000 		.word	ieee154e_vars
 2735 1064 00000000 		.word	isr_ieee154e_timer
 2736              		.cfi_endproc
 2737              	.LFE20:
 2739              		.align	1
 2740              		.global	activity_ti2
 2741              		.syntax unified
 2742              		.thumb
 2743              		.thumb_func
 2744              		.fpu softvfp
 2746              	activity_ti2:
 2747              	.LFB21:
1122:build\openmote-cc2538_armgcc\openstack\02a-MAClow/IEEE802154E.c **** 
1123:build\openmote-cc2538_armgcc\openstack\02a-MAClow/IEEE802154E.c **** port_INLINE void activity_ti2(void) {
 2748              		.loc 1 1123 0
 2749              		.cfi_startproc
 2750              		@ args = 0, pretend = 0, frame = 0
 2751              		@ frame_needed = 1, uses_anonymous_args = 0
 2752 1068 80B5     		push	{r7, lr}
 2753              		.cfi_def_cfa_offset 8
 2754              		.cfi_offset 7, -8
 2755              		.cfi_offset 14, -4
 2756 106a 82B0     		sub	sp, sp, #8
 2757              		.cfi_def_cfa_offset 16
 2758 106c 02AF     		add	r7, sp, #8
 2759              		.cfi_def_cfa 7, 8
1124:build\openmote-cc2538_armgcc\openstack\02a-MAClow/IEEE802154E.c **** 
1125:build\openmote-cc2538_armgcc\openstack\02a-MAClow/IEEE802154E.c ****     // change state
1126:build\openmote-cc2538_armgcc\openstack\02a-MAClow/IEEE802154E.c ****     changeState(S_TXDATAPREPARE);
 2760              		.loc 1 1126 0
 2761 106e 0520     		movs	r0, #5
 2762 1070 FFF7FEFF 		bl	changeState
1127:build\openmote-cc2538_armgcc\openstack\02a-MAClow/IEEE802154E.c **** 
1128:build\openmote-cc2538_armgcc\openstack\02a-MAClow/IEEE802154E.c **** #ifdef SLOT_FSM_IMPLEMENTATION_MULTIPLE_TIMER_INTERRUPT
1129:build\openmote-cc2538_armgcc\openstack\02a-MAClow/IEEE802154E.c **** #else
1130:build\openmote-cc2538_armgcc\openstack\02a-MAClow/IEEE802154E.c ****     // arm tt2
1131:build\openmote-cc2538_armgcc\openstack\02a-MAClow/IEEE802154E.c ****     opentimers_scheduleAbsolute(
 2763              		.loc 1 1131 0
 2764 1074 244B     		ldr	r3, .L183
 2765 1076 93F8A801 		ldrb	r0, [r3, #424]	@ zero_extendqisi2
1132:build\openmote-cc2538_armgcc\openstack\02a-MAClow/IEEE802154E.c ****           ieee154e_vars.timerId,                            // timerId
1133:build\openmote-cc2538_armgcc\openstack\02a-MAClow/IEEE802154E.c ****           DURATION_tt2,                                     // duration
 2766              		.loc 1 1133 0
 2767 107a 234B     		ldr	r3, .L183
 2768 107c D3F87831 		ldr	r3, [r3, #376]
1131:build\openmote-cc2538_armgcc\openstack\02a-MAClow/IEEE802154E.c ****           ieee154e_vars.timerId,                            // timerId
 2769              		.loc 1 1131 0
 2770 1080 03F13E01 		add	r1, r3, #62
 2771 1084 204B     		ldr	r3, .L183
 2772 1086 D3F8AC21 		ldr	r2, [r3, #428]
 2773 108a 204B     		ldr	r3, .L183+4
 2774 108c 0093     		str	r3, [sp]
 2775 108e 0123     		movs	r3, #1
 2776 1090 FFF7FEFF 		bl	opentimers_scheduleAbsolute
1134:build\openmote-cc2538_armgcc\openstack\02a-MAClow/IEEE802154E.c ****           ieee154e_vars.startOfSlotReference,               // reference
1135:build\openmote-cc2538_armgcc\openstack\02a-MAClow/IEEE802154E.c ****           TIME_TICS,                                        // timetype
1136:build\openmote-cc2538_armgcc\openstack\02a-MAClow/IEEE802154E.c ****           isr_ieee154e_timer                                // callback
1137:build\openmote-cc2538_armgcc\openstack\02a-MAClow/IEEE802154E.c ****     );
1138:build\openmote-cc2538_armgcc\openstack\02a-MAClow/IEEE802154E.c ****     // radiotimer_schedule(DURATION_tt2);
1139:build\openmote-cc2538_armgcc\openstack\02a-MAClow/IEEE802154E.c **** 
1140:build\openmote-cc2538_armgcc\openstack\02a-MAClow/IEEE802154E.c ****     // make a local copy of the frame
1141:build\openmote-cc2538_armgcc\openstack\02a-MAClow/IEEE802154E.c ****     packetfunctions_duplicatePacket(&ieee154e_vars.localCopyForTransmission, ieee154e_vars.dataToSe
 2777              		.loc 1 1141 0
 2778 1094 1C4B     		ldr	r3, .L183
 2779 1096 D3F86831 		ldr	r3, [r3, #360]
 2780 109a 1946     		mov	r1, r3
 2781 109c 1C48     		ldr	r0, .L183+8
 2782 109e FFF7FEFF 		bl	packetfunctions_duplicatePacket
1142:build\openmote-cc2538_armgcc\openstack\02a-MAClow/IEEE802154E.c **** 
1143:build\openmote-cc2538_armgcc\openstack\02a-MAClow/IEEE802154E.c ****     // check if packet needs to be encrypted/authenticated before transmission
1144:build\openmote-cc2538_armgcc\openstack\02a-MAClow/IEEE802154E.c ****     if (ieee154e_vars.localCopyForTransmission.l2_securityLevel != IEEE154_ASH_SLF_TYPE_NOSEC) { //
 2783              		.loc 1 1144 0
 2784 10a2 194B     		ldr	r3, .L183
 2785 10a4 93F8BD30 		ldrb	r3, [r3, #189]	@ zero_extendqisi2
 2786 10a8 002B     		cmp	r3, #0
 2787 10aa 08D0     		beq	.L181
1145:build\openmote-cc2538_armgcc\openstack\02a-MAClow/IEEE802154E.c ****         // encrypt in a local copy
1146:build\openmote-cc2538_armgcc\openstack\02a-MAClow/IEEE802154E.c ****         if (IEEE802154_security_outgoingFrameSecurity(&ieee154e_vars.localCopyForTransmission) != E
 2788              		.loc 1 1146 0
 2789 10ac 1848     		ldr	r0, .L183+8
 2790 10ae FFF7FEFF 		bl	IEEE802154_security_outgoingFrameSecurity
 2791 10b2 0346     		mov	r3, r0
 2792 10b4 002B     		cmp	r3, #0
 2793 10b6 02D0     		beq	.L181
1147:build\openmote-cc2538_armgcc\openstack\02a-MAClow/IEEE802154E.c ****             // keep the frame in the OpenQueue in order to retry later
1148:build\openmote-cc2538_armgcc\openstack\02a-MAClow/IEEE802154E.c ****             endSlot(); // abort
 2794              		.loc 1 1148 0
 2795 10b8 FFF7FEFF 		bl	endSlot
1149:build\openmote-cc2538_armgcc\openstack\02a-MAClow/IEEE802154E.c ****             return;
 2796              		.loc 1 1149 0
 2797 10bc 21E0     		b	.L180
 2798              	.L181:
1150:build\openmote-cc2538_armgcc\openstack\02a-MAClow/IEEE802154E.c ****         }
1151:build\openmote-cc2538_armgcc\openstack\02a-MAClow/IEEE802154E.c ****     }
1152:build\openmote-cc2538_armgcc\openstack\02a-MAClow/IEEE802154E.c **** 
1153:build\openmote-cc2538_armgcc\openstack\02a-MAClow/IEEE802154E.c ****     // add 2 CRC bytes only to the local copy as we end up here for each retransmission
1154:build\openmote-cc2538_armgcc\openstack\02a-MAClow/IEEE802154E.c ****     packetfunctions_reserveFooterSize(&ieee154e_vars.localCopyForTransmission, 2);
 2799              		.loc 1 1154 0
 2800 10be 0221     		movs	r1, #2
 2801 10c0 1348     		ldr	r0, .L183+8
 2802 10c2 FFF7FEFF 		bl	packetfunctions_reserveFooterSize
1155:build\openmote-cc2538_armgcc\openstack\02a-MAClow/IEEE802154E.c **** 
1156:build\openmote-cc2538_armgcc\openstack\02a-MAClow/IEEE802154E.c ****     // configure the radio for that frequency
1157:build\openmote-cc2538_armgcc\openstack\02a-MAClow/IEEE802154E.c ****     radio_setFrequency(ieee154e_vars.freq);
 2803              		.loc 1 1157 0
 2804 10c6 104B     		ldr	r3, .L183
 2805 10c8 93F88031 		ldrb	r3, [r3, #384]	@ zero_extendqisi2
 2806 10cc 1846     		mov	r0, r3
 2807 10ce FFF7FEFF 		bl	radio_setFrequency
1158:build\openmote-cc2538_armgcc\openstack\02a-MAClow/IEEE802154E.c **** 
1159:build\openmote-cc2538_armgcc\openstack\02a-MAClow/IEEE802154E.c ****     // load the packet in the radio's Tx buffer
1160:build\openmote-cc2538_armgcc\openstack\02a-MAClow/IEEE802154E.c ****     radio_loadPacket(ieee154e_vars.localCopyForTransmission.payload,
 2808              		.loc 1 1160 0
 2809 10d2 0D4B     		ldr	r3, .L183
 2810 10d4 9A69     		ldr	r2, [r3, #24]
1161:build\openmote-cc2538_armgcc\openstack\02a-MAClow/IEEE802154E.c ****                     ieee154e_vars.localCopyForTransmission.length);
 2811              		.loc 1 1161 0
 2812 10d6 0C4B     		ldr	r3, .L183
 2813 10d8 1B7F     		ldrb	r3, [r3, #28]	@ zero_extendqisi2
1160:build\openmote-cc2538_armgcc\openstack\02a-MAClow/IEEE802154E.c ****                     ieee154e_vars.localCopyForTransmission.length);
 2814              		.loc 1 1160 0
 2815 10da 9BB2     		uxth	r3, r3
 2816 10dc 1946     		mov	r1, r3
 2817 10de 1046     		mov	r0, r2
 2818 10e0 FFF7FEFF 		bl	radio_loadPacket
1162:build\openmote-cc2538_armgcc\openstack\02a-MAClow/IEEE802154E.c **** #endif
1163:build\openmote-cc2538_armgcc\openstack\02a-MAClow/IEEE802154E.c ****     // enable the radio in Tx mode. This does not send the packet.
1164:build\openmote-cc2538_armgcc\openstack\02a-MAClow/IEEE802154E.c ****     radio_txEnable();
 2819              		.loc 1 1164 0
 2820 10e4 FFF7FEFF 		bl	radio_txEnable
1165:build\openmote-cc2538_armgcc\openstack\02a-MAClow/IEEE802154E.c **** 
1166:build\openmote-cc2538_armgcc\openstack\02a-MAClow/IEEE802154E.c ****     ieee154e_vars.radioOnInit=sctimer_readCounter();
 2821              		.loc 1 1166 0
 2822 10e8 FFF7FEFF 		bl	sctimer_readCounter
 2823 10ec 0246     		mov	r2, r0
 2824 10ee 064B     		ldr	r3, .L183
 2825 10f0 C3F89821 		str	r2, [r3, #408]
1167:build\openmote-cc2538_armgcc\openstack\02a-MAClow/IEEE802154E.c ****     ieee154e_vars.radioOnThisSlot=TRUE;
 2826              		.loc 1 1167 0
 2827 10f4 044B     		ldr	r3, .L183
 2828 10f6 0122     		movs	r2, #1
 2829 10f8 83F8A021 		strb	r2, [r3, #416]
1168:build\openmote-cc2538_armgcc\openstack\02a-MAClow/IEEE802154E.c ****     // change state
1169:build\openmote-cc2538_armgcc\openstack\02a-MAClow/IEEE802154E.c ****     changeState(S_TXDATAREADY);
 2830              		.loc 1 1169 0
 2831 10fc 0620     		movs	r0, #6
 2832 10fe FFF7FEFF 		bl	changeState
 2833              	.L180:
1170:build\openmote-cc2538_armgcc\openstack\02a-MAClow/IEEE802154E.c **** }
 2834              		.loc 1 1170 0
 2835 1102 BD46     		mov	sp, r7
 2836              		.cfi_def_cfa_register 13
 2837              		@ sp needed
 2838 1104 80BD     		pop	{r7, pc}
 2839              	.L184:
 2840 1106 00BF     		.align	2
 2841              	.L183:
 2842 1108 00000000 		.word	ieee154e_vars
 2843 110c 00000000 		.word	isr_ieee154e_timer
 2844 1110 14000000 		.word	ieee154e_vars+20
 2845              		.cfi_endproc
 2846              	.LFE21:
 2848              		.align	1
 2849              		.global	activity_tie1
 2850              		.syntax unified
 2851              		.thumb
 2852              		.thumb_func
 2853              		.fpu softvfp
 2855              	activity_tie1:
 2856              	.LFB22:
1171:build\openmote-cc2538_armgcc\openstack\02a-MAClow/IEEE802154E.c **** 
1172:build\openmote-cc2538_armgcc\openstack\02a-MAClow/IEEE802154E.c **** port_INLINE void activity_tie1(void) {
 2857              		.loc 1 1172 0
 2858              		.cfi_startproc
 2859              		@ args = 0, pretend = 0, frame = 0
 2860              		@ frame_needed = 1, uses_anonymous_args = 0
 2861 1114 80B5     		push	{r7, lr}
 2862              		.cfi_def_cfa_offset 8
 2863              		.cfi_offset 7, -8
 2864              		.cfi_offset 14, -4
 2865 1116 00AF     		add	r7, sp, #0
 2866              		.cfi_def_cfa_register 7
1173:build\openmote-cc2538_armgcc\openstack\02a-MAClow/IEEE802154E.c ****     // log the error
1174:build\openmote-cc2538_armgcc\openstack\02a-MAClow/IEEE802154E.c ****     openserial_printError(COMPONENT_IEEE802154E,ERR_MAXTXDATAPREPARE_OVERFLOW,
1175:build\openmote-cc2538_armgcc\openstack\02a-MAClow/IEEE802154E.c ****                          (errorparameter_t)ieee154e_vars.state,
 2867              		.loc 1 1175 0
 2868 1118 064B     		ldr	r3, .L186
 2869 111a 93F86431 		ldrb	r3, [r3, #356]	@ zero_extendqisi2
1174:build\openmote-cc2538_armgcc\openstack\02a-MAClow/IEEE802154E.c ****                          (errorparameter_t)ieee154e_vars.state,
 2870              		.loc 1 1174 0
 2871 111e 9AB2     		uxth	r2, r3
1176:build\openmote-cc2538_armgcc\openstack\02a-MAClow/IEEE802154E.c ****                          (errorparameter_t)ieee154e_vars.slotOffset);
 2872              		.loc 1 1176 0
 2873 1120 044B     		ldr	r3, .L186
 2874 1122 DB88     		ldrh	r3, [r3, #6]
1174:build\openmote-cc2538_armgcc\openstack\02a-MAClow/IEEE802154E.c ****                          (errorparameter_t)ieee154e_vars.state,
 2875              		.loc 1 1174 0
 2876 1124 2321     		movs	r1, #35
 2877 1126 0920     		movs	r0, #9
 2878 1128 FFF7FEFF 		bl	openserial_printError
1177:build\openmote-cc2538_armgcc\openstack\02a-MAClow/IEEE802154E.c **** 
1178:build\openmote-cc2538_armgcc\openstack\02a-MAClow/IEEE802154E.c ****     // abort
1179:build\openmote-cc2538_armgcc\openstack\02a-MAClow/IEEE802154E.c ****     endSlot();
 2879              		.loc 1 1179 0
 2880 112c FFF7FEFF 		bl	endSlot
1180:build\openmote-cc2538_armgcc\openstack\02a-MAClow/IEEE802154E.c **** }
 2881              		.loc 1 1180 0
 2882 1130 00BF     		nop
 2883 1132 80BD     		pop	{r7, pc}
 2884              	.L187:
 2885              		.align	2
 2886              	.L186:
 2887 1134 00000000 		.word	ieee154e_vars
 2888              		.cfi_endproc
 2889              	.LFE22:
 2891              		.align	1
 2892              		.global	activity_ti3
 2893              		.syntax unified
 2894              		.thumb
 2895              		.thumb_func
 2896              		.fpu softvfp
 2898              	activity_ti3:
 2899              	.LFB23:
1181:build\openmote-cc2538_armgcc\openstack\02a-MAClow/IEEE802154E.c **** 
1182:build\openmote-cc2538_armgcc\openstack\02a-MAClow/IEEE802154E.c **** port_INLINE void activity_ti3(void) {
 2900              		.loc 1 1182 0
 2901              		.cfi_startproc
 2902              		@ args = 0, pretend = 0, frame = 0
 2903              		@ frame_needed = 1, uses_anonymous_args = 0
 2904 1138 80B5     		push	{r7, lr}
 2905              		.cfi_def_cfa_offset 8
 2906              		.cfi_offset 7, -8
 2907              		.cfi_offset 14, -4
 2908 113a 82B0     		sub	sp, sp, #8
 2909              		.cfi_def_cfa_offset 16
 2910 113c 02AF     		add	r7, sp, #8
 2911              		.cfi_def_cfa 7, 8
1183:build\openmote-cc2538_armgcc\openstack\02a-MAClow/IEEE802154E.c ****     // change state
1184:build\openmote-cc2538_armgcc\openstack\02a-MAClow/IEEE802154E.c ****     changeState(S_TXDATADELAY);
 2912              		.loc 1 1184 0
 2913 113e 0720     		movs	r0, #7
 2914 1140 FFF7FEFF 		bl	changeState
1185:build\openmote-cc2538_armgcc\openstack\02a-MAClow/IEEE802154E.c **** #ifdef SLOT_FSM_IMPLEMENTATION_MULTIPLE_TIMER_INTERRUPT
1186:build\openmote-cc2538_armgcc\openstack\02a-MAClow/IEEE802154E.c **** #else
1187:build\openmote-cc2538_armgcc\openstack\02a-MAClow/IEEE802154E.c ****     // arm tt3
1188:build\openmote-cc2538_armgcc\openstack\02a-MAClow/IEEE802154E.c ****     opentimers_scheduleAbsolute(
 2915              		.loc 1 1188 0
 2916 1144 0A4B     		ldr	r3, .L189
 2917 1146 93F8A801 		ldrb	r0, [r3, #424]	@ zero_extendqisi2
1189:build\openmote-cc2538_armgcc\openstack\02a-MAClow/IEEE802154E.c ****         ieee154e_vars.timerId,                            // timerId
1190:build\openmote-cc2538_armgcc\openstack\02a-MAClow/IEEE802154E.c ****         DURATION_tt3,                                     // duration
 2918              		.loc 1 1190 0
 2919 114a 094B     		ldr	r3, .L189
 2920 114c D3F87831 		ldr	r3, [r3, #376]
1188:build\openmote-cc2538_armgcc\openstack\02a-MAClow/IEEE802154E.c ****         ieee154e_vars.timerId,                            // timerId
 2921              		.loc 1 1188 0
 2922 1150 03F16B01 		add	r1, r3, #107
 2923 1154 064B     		ldr	r3, .L189
 2924 1156 D3F8AC21 		ldr	r2, [r3, #428]
 2925 115a 064B     		ldr	r3, .L189+4
 2926 115c 0093     		str	r3, [sp]
 2927 115e 0123     		movs	r3, #1
 2928 1160 FFF7FEFF 		bl	opentimers_scheduleAbsolute
1191:build\openmote-cc2538_armgcc\openstack\02a-MAClow/IEEE802154E.c ****         ieee154e_vars.startOfSlotReference,               // reference
1192:build\openmote-cc2538_armgcc\openstack\02a-MAClow/IEEE802154E.c ****         TIME_TICS,                                        // timetype
1193:build\openmote-cc2538_armgcc\openstack\02a-MAClow/IEEE802154E.c ****         isr_ieee154e_timer                                // callback
1194:build\openmote-cc2538_armgcc\openstack\02a-MAClow/IEEE802154E.c ****     );
1195:build\openmote-cc2538_armgcc\openstack\02a-MAClow/IEEE802154E.c ****     // radiotimer_schedule(DURATION_tt3);
1196:build\openmote-cc2538_armgcc\openstack\02a-MAClow/IEEE802154E.c **** 
1197:build\openmote-cc2538_armgcc\openstack\02a-MAClow/IEEE802154E.c ****     // give the 'go' to transmit
1198:build\openmote-cc2538_armgcc\openstack\02a-MAClow/IEEE802154E.c ****     radio_txNow();
 2929              		.loc 1 1198 0
 2930 1164 FFF7FEFF 		bl	radio_txNow
1199:build\openmote-cc2538_armgcc\openstack\02a-MAClow/IEEE802154E.c **** #endif
1200:build\openmote-cc2538_armgcc\openstack\02a-MAClow/IEEE802154E.c **** }
 2931              		.loc 1 1200 0
 2932 1168 00BF     		nop
 2933 116a BD46     		mov	sp, r7
 2934              		.cfi_def_cfa_register 13
 2935              		@ sp needed
 2936 116c 80BD     		pop	{r7, pc}
 2937              	.L190:
 2938 116e 00BF     		.align	2
 2939              	.L189:
 2940 1170 00000000 		.word	ieee154e_vars
 2941 1174 00000000 		.word	isr_ieee154e_timer
 2942              		.cfi_endproc
 2943              	.LFE23:
 2945              		.align	1
 2946              		.global	activity_tie2
 2947              		.syntax unified
 2948              		.thumb
 2949              		.thumb_func
 2950              		.fpu softvfp
 2952              	activity_tie2:
 2953              	.LFB24:
1201:build\openmote-cc2538_armgcc\openstack\02a-MAClow/IEEE802154E.c **** 
1202:build\openmote-cc2538_armgcc\openstack\02a-MAClow/IEEE802154E.c **** port_INLINE void activity_tie2(void) {
 2954              		.loc 1 1202 0
 2955              		.cfi_startproc
 2956              		@ args = 0, pretend = 0, frame = 0
 2957              		@ frame_needed = 1, uses_anonymous_args = 0
 2958 1178 80B5     		push	{r7, lr}
 2959              		.cfi_def_cfa_offset 8
 2960              		.cfi_offset 7, -8
 2961              		.cfi_offset 14, -4
 2962 117a 00AF     		add	r7, sp, #0
 2963              		.cfi_def_cfa_register 7
1203:build\openmote-cc2538_armgcc\openstack\02a-MAClow/IEEE802154E.c ****     // log the error
1204:build\openmote-cc2538_armgcc\openstack\02a-MAClow/IEEE802154E.c ****     openserial_printError(COMPONENT_IEEE802154E,ERR_WDRADIO_OVERFLOWS,
1205:build\openmote-cc2538_armgcc\openstack\02a-MAClow/IEEE802154E.c ****                          (errorparameter_t)ieee154e_vars.state,
 2964              		.loc 1 1205 0
 2965 117c 064B     		ldr	r3, .L192
 2966 117e 93F86431 		ldrb	r3, [r3, #356]	@ zero_extendqisi2
1204:build\openmote-cc2538_armgcc\openstack\02a-MAClow/IEEE802154E.c ****                          (errorparameter_t)ieee154e_vars.state,
 2967              		.loc 1 1204 0
 2968 1182 9AB2     		uxth	r2, r3
1206:build\openmote-cc2538_armgcc\openstack\02a-MAClow/IEEE802154E.c ****                          (errorparameter_t)ieee154e_vars.slotOffset);
 2969              		.loc 1 1206 0
 2970 1184 044B     		ldr	r3, .L192
 2971 1186 DB88     		ldrh	r3, [r3, #6]
1204:build\openmote-cc2538_armgcc\openstack\02a-MAClow/IEEE802154E.c ****                          (errorparameter_t)ieee154e_vars.state,
 2972              		.loc 1 1204 0
 2973 1188 2821     		movs	r1, #40
 2974 118a 0920     		movs	r0, #9
 2975 118c FFF7FEFF 		bl	openserial_printError
1207:build\openmote-cc2538_armgcc\openstack\02a-MAClow/IEEE802154E.c **** 
1208:build\openmote-cc2538_armgcc\openstack\02a-MAClow/IEEE802154E.c ****     // abort
1209:build\openmote-cc2538_armgcc\openstack\02a-MAClow/IEEE802154E.c ****     endSlot();
 2976              		.loc 1 1209 0
 2977 1190 FFF7FEFF 		bl	endSlot
1210:build\openmote-cc2538_armgcc\openstack\02a-MAClow/IEEE802154E.c **** }
 2978              		.loc 1 1210 0
 2979 1194 00BF     		nop
 2980 1196 80BD     		pop	{r7, pc}
 2981              	.L193:
 2982              		.align	2
 2983              	.L192:
 2984 1198 00000000 		.word	ieee154e_vars
 2985              		.cfi_endproc
 2986              	.LFE24:
 2988              		.align	1
 2989              		.global	activity_ti4
 2990              		.syntax unified
 2991              		.thumb
 2992              		.thumb_func
 2993              		.fpu softvfp
 2995              	activity_ti4:
 2996              	.LFB25:
1211:build\openmote-cc2538_armgcc\openstack\02a-MAClow/IEEE802154E.c **** 
1212:build\openmote-cc2538_armgcc\openstack\02a-MAClow/IEEE802154E.c **** //start of frame interrupt
1213:build\openmote-cc2538_armgcc\openstack\02a-MAClow/IEEE802154E.c **** port_INLINE void activity_ti4(PORT_TIMER_WIDTH capturedTime) {
 2997              		.loc 1 1213 0
 2998              		.cfi_startproc
 2999              		@ args = 0, pretend = 0, frame = 8
 3000              		@ frame_needed = 1, uses_anonymous_args = 0
 3001 119c 80B5     		push	{r7, lr}
 3002              		.cfi_def_cfa_offset 8
 3003              		.cfi_offset 7, -8
 3004              		.cfi_offset 14, -4
 3005 119e 84B0     		sub	sp, sp, #16
 3006              		.cfi_def_cfa_offset 24
 3007 11a0 02AF     		add	r7, sp, #8
 3008              		.cfi_def_cfa 7, 16
 3009 11a2 7860     		str	r0, [r7, #4]
1214:build\openmote-cc2538_armgcc\openstack\02a-MAClow/IEEE802154E.c ****     // change state
1215:build\openmote-cc2538_armgcc\openstack\02a-MAClow/IEEE802154E.c ****     changeState(S_TXDATA);
 3010              		.loc 1 1215 0
 3011 11a4 0820     		movs	r0, #8
 3012 11a6 FFF7FEFF 		bl	changeState
1216:build\openmote-cc2538_armgcc\openstack\02a-MAClow/IEEE802154E.c **** #ifdef SLOT_FSM_IMPLEMENTATION_MULTIPLE_TIMER_INTERRUPT
1217:build\openmote-cc2538_armgcc\openstack\02a-MAClow/IEEE802154E.c ****     // cancel tt3
