   1              		.cpu cortex-m3
   2              		.eabi_attribute 20, 1
   3              		.eabi_attribute 21, 1
   4              		.eabi_attribute 23, 3
   5              		.eabi_attribute 24, 1
   6              		.eabi_attribute 25, 1
   7              		.eabi_attribute 26, 1
   8              		.eabi_attribute 30, 6
   9              		.eabi_attribute 34, 1
  10              		.eabi_attribute 18, 4
  11              		.file	"IEEE802154E.c"
  12              		.text
  13              	.Ltext0:
  14              		.cfi_sections	.debug_frame
  15              		.section	.rodata
  16              		.align	2
  19              	rreg_uriquery:
  20 0000 683D7563 		.ascii	"h=ucb\000"
  20      6200
  21 0006 0000     		.align	2
  24              	infoBoardname:
  25 0008 43433235 		.ascii	"CC2538\000"
  25      333800
  26 000f 00       		.align	2
  29              	infouCName:
  30 0010 43433235 		.ascii	"CC2538\000"
  30      333800
  31 0017 00       		.align	2
  34              	infoRadioName:
  35 0018 43433235 		.ascii	"CC2538 SoC\000"
  35      33382053 
  35      6F4300
  36 0023 00       		.align	2
  39              	infoStackName:
  40 0024 4F70656E 		.ascii	"OpenWSN \000"
  40      57534E20 
  40      00
  41 002d 000000   		.align	2
  44              	chTemplate_default:
  45 0030 05       		.byte	5
  46 0031 06       		.byte	6
  47 0032 0C       		.byte	12
  48 0033 07       		.byte	7
  49 0034 0F       		.byte	15
  50 0035 04       		.byte	4
  51 0036 0E       		.byte	14
  52 0037 0B       		.byte	11
  53 0038 08       		.byte	8
  54 0039 00       		.byte	0
  55 003a 01       		.byte	1
  56 003b 02       		.byte	2
  57 003c 0D       		.byte	13
  58 003d 03       		.byte	3
  59 003e 09       		.byte	9
  60 003f 0A       		.byte	10
  61              		.align	2
  64              	ebIEsBytestream:
  65 0040 1A       		.byte	26
  66 0041 88       		.byte	-120
  67 0042 06       		.byte	6
  68 0043 1A       		.byte	26
  69 0044 00       		.byte	0
  70 0045 00       		.byte	0
  71 0046 00       		.byte	0
  72 0047 00       		.byte	0
  73 0048 00       		.byte	0
  74 0049 00       		.byte	0
  75 004a 01       		.byte	1
  76 004b 1C       		.byte	28
  77 004c 00       		.byte	0
  78 004d 01       		.byte	1
  79 004e C8       		.byte	-56
  80 004f 00       		.byte	0
  81 0050 0A       		.byte	10
  82 0051 1B       		.byte	27
  83 0052 01       		.byte	1
  84 0053 00       		.byte	0
  85 0054 0D       		.byte	13
  86 0055 00       		.byte	0
  87 0056 01       		.byte	1
  88 0057 00       		.byte	0
  89 0058 00       		.byte	0
  90 0059 00       		.byte	0
  91 005a 00       		.byte	0
  92 005b 0F       		.byte	15
  93              		.align	2
  96              	linklocalprefix:
  97 005c FE       		.byte	-2
  98 005d 80       		.byte	-128
  99 005e 00       		.byte	0
 100 005f 00       		.byte	0
 101 0060 00       		.byte	0
 102 0061 00       		.byte	0
 103 0062 00       		.byte	0
 104 0063 00       		.byte	0
 105              		.align	2
 108              	all_routers_multicast:
 109 0064 FF       		.byte	-1
 110 0065 02       		.byte	2
 111 0066 00       		.byte	0
 112 0067 00       		.byte	0
 113 0068 00       		.byte	0
 114 0069 00       		.byte	0
 115 006a 00       		.byte	0
 116 006b 00       		.byte	0
 117 006c 00       		.byte	0
 118 006d 00       		.byte	0
 119 006e 00       		.byte	0
 120 006f 00       		.byte	0
 121 0070 00       		.byte	0
 122 0071 00       		.byte	0
 123 0072 00       		.byte	0
 124 0073 1A       		.byte	26
 125              		.comm	ieee154e_vars,436,4
 126              		.comm	ieee154e_stats,15,4
 127              		.comm	ieee154e_dbg,16,4
 128              		.text
 129              		.align	1
 130              		.global	ieee154e_init
 131              		.syntax unified
 132              		.thumb
 133              		.thumb_func
 134              		.fpu softvfp
 136              	ieee154e_init:
 137              	.LFB3:
 138              		.file 1 "build\\openmote-cc2538_armgcc\\openstack\\02a-MAClow\\IEEE802154E.c"
   1:build\openmote-cc2538_armgcc\openstack\02a-MAClow/IEEE802154E.c **** #include "opendefs.h"
   2:build\openmote-cc2538_armgcc\openstack\02a-MAClow/IEEE802154E.c **** #include "IEEE802154E.h"
   3:build\openmote-cc2538_armgcc\openstack\02a-MAClow/IEEE802154E.c **** #include "radio.h"
   4:build\openmote-cc2538_armgcc\openstack\02a-MAClow/IEEE802154E.c **** #include "IEEE802154.h"
   5:build\openmote-cc2538_armgcc\openstack\02a-MAClow/IEEE802154E.c **** #include "IEEE802154_security.h"
   6:build\openmote-cc2538_armgcc\openstack\02a-MAClow/IEEE802154E.c **** #include "openqueue.h"
   7:build\openmote-cc2538_armgcc\openstack\02a-MAClow/IEEE802154E.c **** #include "idmanager.h"
   8:build\openmote-cc2538_armgcc\openstack\02a-MAClow/IEEE802154E.c **** #include "openserial.h"
   9:build\openmote-cc2538_armgcc\openstack\02a-MAClow/IEEE802154E.c **** #include "schedule.h"
  10:build\openmote-cc2538_armgcc\openstack\02a-MAClow/IEEE802154E.c **** #include "packetfunctions.h"
  11:build\openmote-cc2538_armgcc\openstack\02a-MAClow/IEEE802154E.c **** #include "scheduler.h"
  12:build\openmote-cc2538_armgcc\openstack\02a-MAClow/IEEE802154E.c **** #include "leds.h"
  13:build\openmote-cc2538_armgcc\openstack\02a-MAClow/IEEE802154E.c **** #include "neighbors.h"
  14:build\openmote-cc2538_armgcc\openstack\02a-MAClow/IEEE802154E.c **** #include "debugpins.h"
  15:build\openmote-cc2538_armgcc\openstack\02a-MAClow/IEEE802154E.c **** #include "sixtop.h"
  16:build\openmote-cc2538_armgcc\openstack\02a-MAClow/IEEE802154E.c **** #include "adaptive_sync.h"
  17:build\openmote-cc2538_armgcc\openstack\02a-MAClow/IEEE802154E.c **** #include "sctimer.h"
  18:build\openmote-cc2538_armgcc\openstack\02a-MAClow/IEEE802154E.c **** #include "openrandom.h"
  19:build\openmote-cc2538_armgcc\openstack\02a-MAClow/IEEE802154E.c **** #include "msf.h"
  20:build\openmote-cc2538_armgcc\openstack\02a-MAClow/IEEE802154E.c **** 
  21:build\openmote-cc2538_armgcc\openstack\02a-MAClow/IEEE802154E.c **** //=========================== definition ======================================
  22:build\openmote-cc2538_armgcc\openstack\02a-MAClow/IEEE802154E.c **** 
  23:build\openmote-cc2538_armgcc\openstack\02a-MAClow/IEEE802154E.c **** //=========================== variables =======================================
  24:build\openmote-cc2538_armgcc\openstack\02a-MAClow/IEEE802154E.c **** 
  25:build\openmote-cc2538_armgcc\openstack\02a-MAClow/IEEE802154E.c **** ieee154e_vars_t    ieee154e_vars;
  26:build\openmote-cc2538_armgcc\openstack\02a-MAClow/IEEE802154E.c **** ieee154e_stats_t   ieee154e_stats;
  27:build\openmote-cc2538_armgcc\openstack\02a-MAClow/IEEE802154E.c **** ieee154e_dbg_t     ieee154e_dbg;
  28:build\openmote-cc2538_armgcc\openstack\02a-MAClow/IEEE802154E.c **** 
  29:build\openmote-cc2538_armgcc\openstack\02a-MAClow/IEEE802154E.c **** //=========================== prototypes ======================================
  30:build\openmote-cc2538_armgcc\openstack\02a-MAClow/IEEE802154E.c **** 
  31:build\openmote-cc2538_armgcc\openstack\02a-MAClow/IEEE802154E.c **** // SYNCHRONIZING
  32:build\openmote-cc2538_armgcc\openstack\02a-MAClow/IEEE802154E.c **** void     activity_synchronize_newSlot(void);
  33:build\openmote-cc2538_armgcc\openstack\02a-MAClow/IEEE802154E.c **** void     activity_synchronize_startOfFrame(PORT_TIMER_WIDTH capturedTime);
  34:build\openmote-cc2538_armgcc\openstack\02a-MAClow/IEEE802154E.c **** void     activity_synchronize_endOfFrame(PORT_TIMER_WIDTH capturedTime);
  35:build\openmote-cc2538_armgcc\openstack\02a-MAClow/IEEE802154E.c **** // TX
  36:build\openmote-cc2538_armgcc\openstack\02a-MAClow/IEEE802154E.c **** void     activity_ti1ORri1(void);
  37:build\openmote-cc2538_armgcc\openstack\02a-MAClow/IEEE802154E.c **** void     activity_ti2(void);
  38:build\openmote-cc2538_armgcc\openstack\02a-MAClow/IEEE802154E.c **** void     activity_tie1(void);
  39:build\openmote-cc2538_armgcc\openstack\02a-MAClow/IEEE802154E.c **** void     activity_ti3(void);
  40:build\openmote-cc2538_armgcc\openstack\02a-MAClow/IEEE802154E.c **** void     activity_tie2(void);
  41:build\openmote-cc2538_armgcc\openstack\02a-MAClow/IEEE802154E.c **** void     activity_ti4(PORT_TIMER_WIDTH capturedTime);
  42:build\openmote-cc2538_armgcc\openstack\02a-MAClow/IEEE802154E.c **** void     activity_tie3(void);
  43:build\openmote-cc2538_armgcc\openstack\02a-MAClow/IEEE802154E.c **** void     activity_ti5(PORT_TIMER_WIDTH capturedTime);
  44:build\openmote-cc2538_armgcc\openstack\02a-MAClow/IEEE802154E.c **** void     activity_ti6(void);
  45:build\openmote-cc2538_armgcc\openstack\02a-MAClow/IEEE802154E.c **** void     activity_tie4(void);
  46:build\openmote-cc2538_armgcc\openstack\02a-MAClow/IEEE802154E.c **** void     activity_ti7(void);
  47:build\openmote-cc2538_armgcc\openstack\02a-MAClow/IEEE802154E.c **** void     activity_tie5(void);
  48:build\openmote-cc2538_armgcc\openstack\02a-MAClow/IEEE802154E.c **** void     activity_ti8(PORT_TIMER_WIDTH capturedTime);
  49:build\openmote-cc2538_armgcc\openstack\02a-MAClow/IEEE802154E.c **** void     activity_tie6(void);
  50:build\openmote-cc2538_armgcc\openstack\02a-MAClow/IEEE802154E.c **** void     activity_ti9(PORT_TIMER_WIDTH capturedTime);
  51:build\openmote-cc2538_armgcc\openstack\02a-MAClow/IEEE802154E.c **** // RX
  52:build\openmote-cc2538_armgcc\openstack\02a-MAClow/IEEE802154E.c **** void     activity_ri2(void);
  53:build\openmote-cc2538_armgcc\openstack\02a-MAClow/IEEE802154E.c **** void     activity_rie1(void);
  54:build\openmote-cc2538_armgcc\openstack\02a-MAClow/IEEE802154E.c **** void     activity_ri3(void);
  55:build\openmote-cc2538_armgcc\openstack\02a-MAClow/IEEE802154E.c **** void     activity_rie2(void);
  56:build\openmote-cc2538_armgcc\openstack\02a-MAClow/IEEE802154E.c **** void     activity_ri4(PORT_TIMER_WIDTH capturedTime);
  57:build\openmote-cc2538_armgcc\openstack\02a-MAClow/IEEE802154E.c **** void     activity_rie3(void);
  58:build\openmote-cc2538_armgcc\openstack\02a-MAClow/IEEE802154E.c **** void     activity_ri5(PORT_TIMER_WIDTH capturedTime);
  59:build\openmote-cc2538_armgcc\openstack\02a-MAClow/IEEE802154E.c **** void     activity_ri6(void);
  60:build\openmote-cc2538_armgcc\openstack\02a-MAClow/IEEE802154E.c **** void     activity_rie4(void);
  61:build\openmote-cc2538_armgcc\openstack\02a-MAClow/IEEE802154E.c **** void     activity_ri7(void);
  62:build\openmote-cc2538_armgcc\openstack\02a-MAClow/IEEE802154E.c **** void     activity_rie5(void);
  63:build\openmote-cc2538_armgcc\openstack\02a-MAClow/IEEE802154E.c **** void     activity_ri8(PORT_TIMER_WIDTH capturedTime);
  64:build\openmote-cc2538_armgcc\openstack\02a-MAClow/IEEE802154E.c **** void     activity_rie6(void);
  65:build\openmote-cc2538_armgcc\openstack\02a-MAClow/IEEE802154E.c **** void     activity_ri9(PORT_TIMER_WIDTH capturedTime);
  66:build\openmote-cc2538_armgcc\openstack\02a-MAClow/IEEE802154E.c **** 
  67:build\openmote-cc2538_armgcc\openstack\02a-MAClow/IEEE802154E.c **** // frame validity check
  68:build\openmote-cc2538_armgcc\openstack\02a-MAClow/IEEE802154E.c **** bool     isValidRxFrame(ieee802154_header_iht* ieee802514_header);
  69:build\openmote-cc2538_armgcc\openstack\02a-MAClow/IEEE802154E.c **** bool     isValidAck(ieee802154_header_iht*     ieee802514_header,
  70:build\openmote-cc2538_armgcc\openstack\02a-MAClow/IEEE802154E.c ****                     OpenQueueEntry_t*          packetSent);
  71:build\openmote-cc2538_armgcc\openstack\02a-MAClow/IEEE802154E.c **** bool     isValidJoin(OpenQueueEntry_t* eb, ieee802154_header_iht *parsedHeader);
  72:build\openmote-cc2538_armgcc\openstack\02a-MAClow/IEEE802154E.c **** bool     isValidEbFormat(OpenQueueEntry_t* pkt, uint16_t* lenIE);
  73:build\openmote-cc2538_armgcc\openstack\02a-MAClow/IEEE802154E.c **** // IEs Handling
  74:build\openmote-cc2538_armgcc\openstack\02a-MAClow/IEEE802154E.c **** bool     ieee154e_processIEs(OpenQueueEntry_t* pkt, uint16_t* lenIE);
  75:build\openmote-cc2538_armgcc\openstack\02a-MAClow/IEEE802154E.c **** void     timeslotTemplateIDStoreFromEB(uint8_t id);
  76:build\openmote-cc2538_armgcc\openstack\02a-MAClow/IEEE802154E.c **** void     channelhoppingTemplateIDStoreFromEB(uint8_t id);
  77:build\openmote-cc2538_armgcc\openstack\02a-MAClow/IEEE802154E.c **** // ASN handling
  78:build\openmote-cc2538_armgcc\openstack\02a-MAClow/IEEE802154E.c **** void     incrementAsnOffset(void);
  79:build\openmote-cc2538_armgcc\openstack\02a-MAClow/IEEE802154E.c **** void     ieee154e_resetAsn(void);
  80:build\openmote-cc2538_armgcc\openstack\02a-MAClow/IEEE802154E.c **** void     ieee154e_syncSlotOffset(void);
  81:build\openmote-cc2538_armgcc\openstack\02a-MAClow/IEEE802154E.c **** void     asnStoreFromEB(uint8_t* asn);
  82:build\openmote-cc2538_armgcc\openstack\02a-MAClow/IEEE802154E.c **** void     joinPriorityStoreFromEB(uint8_t jp);
  83:build\openmote-cc2538_armgcc\openstack\02a-MAClow/IEEE802154E.c **** // synchronization
  84:build\openmote-cc2538_armgcc\openstack\02a-MAClow/IEEE802154E.c **** void     synchronizePacket(PORT_TIMER_WIDTH timeReceived);
  85:build\openmote-cc2538_armgcc\openstack\02a-MAClow/IEEE802154E.c **** void     synchronizeAck(PORT_SIGNED_INT_WIDTH timeCorrection);
  86:build\openmote-cc2538_armgcc\openstack\02a-MAClow/IEEE802154E.c **** void     changeIsSync(bool newIsSync);
  87:build\openmote-cc2538_armgcc\openstack\02a-MAClow/IEEE802154E.c **** // notifying upper layer
  88:build\openmote-cc2538_armgcc\openstack\02a-MAClow/IEEE802154E.c **** void     notif_sendDone(OpenQueueEntry_t* packetSent, owerror_t error);
  89:build\openmote-cc2538_armgcc\openstack\02a-MAClow/IEEE802154E.c **** void     notif_receive(OpenQueueEntry_t* packetReceived);
  90:build\openmote-cc2538_armgcc\openstack\02a-MAClow/IEEE802154E.c **** // statistics
  91:build\openmote-cc2538_armgcc\openstack\02a-MAClow/IEEE802154E.c **** void     resetStats(void);
  92:build\openmote-cc2538_armgcc\openstack\02a-MAClow/IEEE802154E.c **** void     updateStats(PORT_SIGNED_INT_WIDTH timeCorrection);
  93:build\openmote-cc2538_armgcc\openstack\02a-MAClow/IEEE802154E.c **** // misc
  94:build\openmote-cc2538_armgcc\openstack\02a-MAClow/IEEE802154E.c **** uint8_t  calculateFrequency(uint8_t channelOffset);
  95:build\openmote-cc2538_armgcc\openstack\02a-MAClow/IEEE802154E.c **** void     changeState(ieee154e_state_t newstate);
  96:build\openmote-cc2538_armgcc\openstack\02a-MAClow/IEEE802154E.c **** void     endSlot(void);
  97:build\openmote-cc2538_armgcc\openstack\02a-MAClow/IEEE802154E.c **** bool     debugPrint_asn(void);
  98:build\openmote-cc2538_armgcc\openstack\02a-MAClow/IEEE802154E.c **** bool     debugPrint_isSync(void);
  99:build\openmote-cc2538_armgcc\openstack\02a-MAClow/IEEE802154E.c **** // interrupts
 100:build\openmote-cc2538_armgcc\openstack\02a-MAClow/IEEE802154E.c **** void     isr_ieee154e_newSlot(opentimers_id_t id);
 101:build\openmote-cc2538_armgcc\openstack\02a-MAClow/IEEE802154E.c **** void     isr_ieee154e_timer(opentimers_id_t id);
 102:build\openmote-cc2538_armgcc\openstack\02a-MAClow/IEEE802154E.c **** void     isr_ieee154e_inhibitStart(opentimers_id_t id);
 103:build\openmote-cc2538_armgcc\openstack\02a-MAClow/IEEE802154E.c **** 
 104:build\openmote-cc2538_armgcc\openstack\02a-MAClow/IEEE802154E.c **** //=========================== admin ===========================================
 105:build\openmote-cc2538_armgcc\openstack\02a-MAClow/IEEE802154E.c **** 
 106:build\openmote-cc2538_armgcc\openstack\02a-MAClow/IEEE802154E.c **** /**
 107:build\openmote-cc2538_armgcc\openstack\02a-MAClow/IEEE802154E.c **** \brief This function initializes this module.
 108:build\openmote-cc2538_armgcc\openstack\02a-MAClow/IEEE802154E.c **** 
 109:build\openmote-cc2538_armgcc\openstack\02a-MAClow/IEEE802154E.c **** Call this function once before any other function in this module, possibly
 110:build\openmote-cc2538_armgcc\openstack\02a-MAClow/IEEE802154E.c **** during boot-up.
 111:build\openmote-cc2538_armgcc\openstack\02a-MAClow/IEEE802154E.c **** */
 112:build\openmote-cc2538_armgcc\openstack\02a-MAClow/IEEE802154E.c **** void ieee154e_init(void) {
 139              		.loc 1 112 0
 140              		.cfi_startproc
 141              		@ args = 0, pretend = 0, frame = 0
 142              		@ frame_needed = 1, uses_anonymous_args = 0
 143 0000 B0B5     		push	{r4, r5, r7, lr}
 144              		.cfi_def_cfa_offset 16
 145              		.cfi_offset 4, -16
 146              		.cfi_offset 5, -12
 147              		.cfi_offset 7, -8
 148              		.cfi_offset 14, -4
 149 0002 82B0     		sub	sp, sp, #8
 150              		.cfi_def_cfa_offset 24
 151 0004 02AF     		add	r7, sp, #8
 152              		.cfi_def_cfa 7, 16
 113:build\openmote-cc2538_armgcc\openstack\02a-MAClow/IEEE802154E.c **** 
 114:build\openmote-cc2538_armgcc\openstack\02a-MAClow/IEEE802154E.c ****     // initialize variables
 115:build\openmote-cc2538_armgcc\openstack\02a-MAClow/IEEE802154E.c ****     memset(&ieee154e_vars,0,sizeof(ieee154e_vars_t));
 153              		.loc 1 115 0
 154 0006 4FF4DA72 		mov	r2, #436
 155 000a 0021     		movs	r1, #0
 156 000c 3248     		ldr	r0, .L4
 157 000e FFF7FEFF 		bl	memset
 116:build\openmote-cc2538_armgcc\openstack\02a-MAClow/IEEE802154E.c ****     memset(&ieee154e_dbg,0,sizeof(ieee154e_dbg_t));
 158              		.loc 1 116 0
 159 0012 1022     		movs	r2, #16
 160 0014 0021     		movs	r1, #0
 161 0016 3148     		ldr	r0, .L4+4
 162 0018 FFF7FEFF 		bl	memset
 117:build\openmote-cc2538_armgcc\openstack\02a-MAClow/IEEE802154E.c **** 
 118:build\openmote-cc2538_armgcc\openstack\02a-MAClow/IEEE802154E.c ****     // set singleChannel to 0 to enable channel hopping.
 119:build\openmote-cc2538_armgcc\openstack\02a-MAClow/IEEE802154E.c ****     ieee154e_vars.singleChannel     = 15;
 163              		.loc 1 119 0
 164 001c 2E4B     		ldr	r3, .L4
 165 001e 0F22     		movs	r2, #15
 166 0020 83F88221 		strb	r2, [r3, #386]
 120:build\openmote-cc2538_armgcc\openstack\02a-MAClow/IEEE802154E.c ****     ieee154e_vars.isAckEnabled      = TRUE;
 167              		.loc 1 120 0
 168 0024 2C4B     		ldr	r3, .L4
 169 0026 0122     		movs	r2, #1
 170 0028 83F8A121 		strb	r2, [r3, #417]
 121:build\openmote-cc2538_armgcc\openstack\02a-MAClow/IEEE802154E.c ****     ieee154e_vars.isSecurityEnabled = FALSE;
 171              		.loc 1 121 0
 172 002c 2A4B     		ldr	r3, .L4
 173 002e 0022     		movs	r2, #0
 174 0030 83F8A221 		strb	r2, [r3, #418]
 122:build\openmote-cc2538_armgcc\openstack\02a-MAClow/IEEE802154E.c ****     ieee154e_vars.slotDuration      = TsSlotDuration;
 175              		.loc 1 122 0
 176 0034 284B     		ldr	r3, .L4
 177 0036 4FF4A472 		mov	r2, #328
 178 003a A3F8A621 		strh	r2, [r3, #422]	@ movhi
 123:build\openmote-cc2538_armgcc\openstack\02a-MAClow/IEEE802154E.c ****     ieee154e_vars.numOfSleepSlots   = 1;
 179              		.loc 1 123 0
 180 003e 264B     		ldr	r3, .L4
 181 0040 0122     		movs	r2, #1
 182 0042 C3F86021 		str	r2, [r3, #352]
 124:build\openmote-cc2538_armgcc\openstack\02a-MAClow/IEEE802154E.c **** 
 125:build\openmote-cc2538_armgcc\openstack\02a-MAClow/IEEE802154E.c ****     // default hopping template
 126:build\openmote-cc2538_armgcc\openstack\02a-MAClow/IEEE802154E.c ****     memcpy(
 183              		.loc 1 126 0
 184 0046 244B     		ldr	r3, .L4
 185 0048 254A     		ldr	r2, .L4+8
 186 004a 03F5C274 		add	r4, r3, #388
 187 004e 1346     		mov	r3, r2
 188 0050 0FCB     		ldm	r3, {r0, r1, r2, r3}
 189 0052 84E80F00 		stm	r4, {r0, r1, r2, r3}
 127:build\openmote-cc2538_armgcc\openstack\02a-MAClow/IEEE802154E.c ****         &(ieee154e_vars.chTemplate[0]),
 128:build\openmote-cc2538_armgcc\openstack\02a-MAClow/IEEE802154E.c ****         chTemplate_default,
 129:build\openmote-cc2538_armgcc\openstack\02a-MAClow/IEEE802154E.c ****         sizeof(ieee154e_vars.chTemplate)
 130:build\openmote-cc2538_armgcc\openstack\02a-MAClow/IEEE802154E.c ****     );
 131:build\openmote-cc2538_armgcc\openstack\02a-MAClow/IEEE802154E.c **** 
 132:build\openmote-cc2538_armgcc\openstack\02a-MAClow/IEEE802154E.c ****     if (idmanager_getIsDAGroot()==TRUE) {
 190              		.loc 1 132 0
 191 0056 FFF7FEFF 		bl	idmanager_getIsDAGroot
 192 005a 0346     		mov	r3, r0
 193 005c 002B     		cmp	r3, #0
 194 005e 03D0     		beq	.L2
 133:build\openmote-cc2538_armgcc\openstack\02a-MAClow/IEEE802154E.c ****         changeIsSync(TRUE);
 195              		.loc 1 133 0
 196 0060 0120     		movs	r0, #1
 197 0062 FFF7FEFF 		bl	changeIsSync
 198 0066 02E0     		b	.L3
 199              	.L2:
 134:build\openmote-cc2538_armgcc\openstack\02a-MAClow/IEEE802154E.c ****     } else {
 135:build\openmote-cc2538_armgcc\openstack\02a-MAClow/IEEE802154E.c ****         changeIsSync(FALSE);
 200              		.loc 1 135 0
 201 0068 0020     		movs	r0, #0
 202 006a FFF7FEFF 		bl	changeIsSync
 203              	.L3:
 136:build\openmote-cc2538_armgcc\openstack\02a-MAClow/IEEE802154E.c ****     }
 137:build\openmote-cc2538_armgcc\openstack\02a-MAClow/IEEE802154E.c **** 
 138:build\openmote-cc2538_armgcc\openstack\02a-MAClow/IEEE802154E.c ****     resetStats();
 204              		.loc 1 138 0
 205 006e FFF7FEFF 		bl	resetStats
 139:build\openmote-cc2538_armgcc\openstack\02a-MAClow/IEEE802154E.c ****     ieee154e_stats.numDeSync                 = 0;
 206              		.loc 1 139 0
 207 0072 1C4B     		ldr	r3, .L4+12
 208 0074 0022     		movs	r2, #0
 209 0076 9A71     		strb	r2, [r3, #6]
 140:build\openmote-cc2538_armgcc\openstack\02a-MAClow/IEEE802154E.c **** 
 141:build\openmote-cc2538_armgcc\openstack\02a-MAClow/IEEE802154E.c ****     // switch radio on
 142:build\openmote-cc2538_armgcc\openstack\02a-MAClow/IEEE802154E.c ****     radio_rfOn();
 210              		.loc 1 142 0
 211 0078 FFF7FEFF 		bl	radio_rfOn
 143:build\openmote-cc2538_armgcc\openstack\02a-MAClow/IEEE802154E.c **** 
 144:build\openmote-cc2538_armgcc\openstack\02a-MAClow/IEEE802154E.c ****     // set callback functions for the radio
 145:build\openmote-cc2538_armgcc\openstack\02a-MAClow/IEEE802154E.c ****     //radiotimer_setOverflowCb(isr_ieee154e_newSlot);
 146:build\openmote-cc2538_armgcc\openstack\02a-MAClow/IEEE802154E.c ****     //radiotimer_setCompareCb(isr_ieee154e_timer);
 147:build\openmote-cc2538_armgcc\openstack\02a-MAClow/IEEE802154E.c **** #ifdef SLOT_FSM_IMPLEMENTATION_MULTIPLE_TIMER_INTERRUPT
 148:build\openmote-cc2538_armgcc\openstack\02a-MAClow/IEEE802154E.c ****     sctimer_set_actionCallback(isr_ieee154e_timer);
 149:build\openmote-cc2538_armgcc\openstack\02a-MAClow/IEEE802154E.c **** #endif
 150:build\openmote-cc2538_armgcc\openstack\02a-MAClow/IEEE802154E.c ****     radio_setStartFrameCb(ieee154e_startOfFrame);
 212              		.loc 1 150 0
 213 007c 1A48     		ldr	r0, .L4+16
 214 007e FFF7FEFF 		bl	radio_setStartFrameCb
 151:build\openmote-cc2538_armgcc\openstack\02a-MAClow/IEEE802154E.c ****     radio_setEndFrameCb(ieee154e_endOfFrame);
 215              		.loc 1 151 0
 216 0082 1A48     		ldr	r0, .L4+20
 217 0084 FFF7FEFF 		bl	radio_setEndFrameCb
 152:build\openmote-cc2538_armgcc\openstack\02a-MAClow/IEEE802154E.c ****     // have the radio start its timer and assign ieee802154e timer with highest priority
 153:build\openmote-cc2538_armgcc\openstack\02a-MAClow/IEEE802154E.c ****     ieee154e_vars.timerId = opentimers_create(TIMER_TSCH, TASKPRIO_NONE);
 218              		.loc 1 153 0
 219 0088 0021     		movs	r1, #0
 220 008a 0120     		movs	r0, #1
 221 008c FFF7FEFF 		bl	opentimers_create
 222 0090 0346     		mov	r3, r0
 223 0092 1A46     		mov	r2, r3
 224 0094 104B     		ldr	r3, .L4
 225 0096 83F8A821 		strb	r2, [r3, #424]
 154:build\openmote-cc2538_armgcc\openstack\02a-MAClow/IEEE802154E.c ****     opentimers_scheduleAbsolute(
 226              		.loc 1 154 0
 227 009a 0F4B     		ldr	r3, .L4
 228 009c 93F8A841 		ldrb	r4, [r3, #424]	@ zero_extendqisi2
 155:build\openmote-cc2538_armgcc\openstack\02a-MAClow/IEEE802154E.c ****         ieee154e_vars.timerId,          // timerId
 156:build\openmote-cc2538_armgcc\openstack\02a-MAClow/IEEE802154E.c ****         ieee154e_vars.slotDuration,     // duration
 229              		.loc 1 156 0
 230 00a0 0D4B     		ldr	r3, .L4
 231 00a2 B3F8A631 		ldrh	r3, [r3, #422]
 154:build\openmote-cc2538_armgcc\openstack\02a-MAClow/IEEE802154E.c ****     opentimers_scheduleAbsolute(
 232              		.loc 1 154 0
 233 00a6 1D46     		mov	r5, r3
 234 00a8 FFF7FEFF 		bl	sctimer_readCounter
 235 00ac 0246     		mov	r2, r0
 236 00ae 104B     		ldr	r3, .L4+24
 237 00b0 0093     		str	r3, [sp]
 238 00b2 0123     		movs	r3, #1
 239 00b4 2946     		mov	r1, r5
 240 00b6 2046     		mov	r0, r4
 241 00b8 FFF7FEFF 		bl	opentimers_scheduleAbsolute
 157:build\openmote-cc2538_armgcc\openstack\02a-MAClow/IEEE802154E.c ****         sctimer_readCounter(),          // reference
 158:build\openmote-cc2538_armgcc\openstack\02a-MAClow/IEEE802154E.c ****         TIME_TICS,                      // timetype
 159:build\openmote-cc2538_armgcc\openstack\02a-MAClow/IEEE802154E.c ****         isr_ieee154e_newSlot            // callback
 160:build\openmote-cc2538_armgcc\openstack\02a-MAClow/IEEE802154E.c ****     );
 161:build\openmote-cc2538_armgcc\openstack\02a-MAClow/IEEE802154E.c ****     // radiotimer_start(ieee154e_vars.slotDuration);
 162:build\openmote-cc2538_armgcc\openstack\02a-MAClow/IEEE802154E.c ****     IEEE802154_security_init();
 242              		.loc 1 162 0
 243 00bc FFF7FEFF 		bl	IEEE802154_security_init
 163:build\openmote-cc2538_armgcc\openstack\02a-MAClow/IEEE802154E.c ****     ieee154e_vars.serialInhibitTimerId = opentimers_create(TIMER_INHIBIT, TASKPRIO_NONE);
 244              		.loc 1 163 0
 245 00c0 0021     		movs	r1, #0
 246 00c2 0020     		movs	r0, #0
 247 00c4 FFF7FEFF 		bl	opentimers_create
 248 00c8 0346     		mov	r3, r0
 249 00ca 1A46     		mov	r2, r3
 250 00cc 024B     		ldr	r3, .L4
 251 00ce 83F8B021 		strb	r2, [r3, #432]
 164:build\openmote-cc2538_armgcc\openstack\02a-MAClow/IEEE802154E.c **** }
 252              		.loc 1 164 0
 253 00d2 00BF     		nop
 254 00d4 BD46     		mov	sp, r7
 255              		.cfi_def_cfa_register 13
 256              		@ sp needed
 257 00d6 B0BD     		pop	{r4, r5, r7, pc}
 258              	.L5:
 259              		.align	2
 260              	.L4:
 261 00d8 00000000 		.word	ieee154e_vars
 262 00dc 00000000 		.word	ieee154e_dbg
 263 00e0 30000000 		.word	chTemplate_default
 264 00e4 00000000 		.word	ieee154e_stats
 265 00e8 00000000 		.word	ieee154e_startOfFrame
 266 00ec 00000000 		.word	ieee154e_endOfFrame
 267 00f0 00000000 		.word	isr_ieee154e_newSlot
 268              		.cfi_endproc
 269              	.LFE3:
 271              		.align	1
 272              		.global	ieee154e_asnDiff
 273              		.syntax unified
 274              		.thumb
 275              		.thumb_func
 276              		.fpu softvfp
 278              	ieee154e_asnDiff:
 279              	.LFB4:
 165:build\openmote-cc2538_armgcc\openstack\02a-MAClow/IEEE802154E.c **** 
 166:build\openmote-cc2538_armgcc\openstack\02a-MAClow/IEEE802154E.c **** //=========================== public ==========================================
 167:build\openmote-cc2538_armgcc\openstack\02a-MAClow/IEEE802154E.c **** 
 168:build\openmote-cc2538_armgcc\openstack\02a-MAClow/IEEE802154E.c **** /**
 169:build\openmote-cc2538_armgcc\openstack\02a-MAClow/IEEE802154E.c **** /brief Difference between some older ASN and the current ASN.
 170:build\openmote-cc2538_armgcc\openstack\02a-MAClow/IEEE802154E.c **** 
 171:build\openmote-cc2538_armgcc\openstack\02a-MAClow/IEEE802154E.c **** \param[in] someASN some ASN to compare to the current
 172:build\openmote-cc2538_armgcc\openstack\02a-MAClow/IEEE802154E.c **** 
 173:build\openmote-cc2538_armgcc\openstack\02a-MAClow/IEEE802154E.c **** \returns The ASN difference, or 0xffff if more than 65535 different
 174:build\openmote-cc2538_armgcc\openstack\02a-MAClow/IEEE802154E.c **** */
 175:build\openmote-cc2538_armgcc\openstack\02a-MAClow/IEEE802154E.c **** PORT_TIMER_WIDTH ieee154e_asnDiff(asn_t* someASN) {
 280              		.loc 1 175 0
 281              		.cfi_startproc
 282              		@ args = 0, pretend = 0, frame = 16
 283              		@ frame_needed = 1, uses_anonymous_args = 0
 284 00f4 80B5     		push	{r7, lr}
 285              		.cfi_def_cfa_offset 8
 286              		.cfi_offset 7, -8
 287              		.cfi_offset 14, -4
 288 00f6 84B0     		sub	sp, sp, #16
 289              		.cfi_def_cfa_offset 24
 290 00f8 00AF     		add	r7, sp, #0
 291              		.cfi_def_cfa_register 7
 292 00fa 7860     		str	r0, [r7, #4]
 176:build\openmote-cc2538_armgcc\openstack\02a-MAClow/IEEE802154E.c ****     PORT_TIMER_WIDTH diff;
 177:build\openmote-cc2538_armgcc\openstack\02a-MAClow/IEEE802154E.c ****     INTERRUPT_DECLARATION();
 178:build\openmote-cc2538_armgcc\openstack\02a-MAClow/IEEE802154E.c ****     DISABLE_INTERRUPTS();
 293              		.loc 1 178 0
 294 00fc FFF7FEFF 		bl	IntMasterDisable
 179:build\openmote-cc2538_armgcc\openstack\02a-MAClow/IEEE802154E.c ****     if (ieee154e_vars.asn.byte4 != someASN->byte4) {
 295              		.loc 1 179 0
 296 0100 264B     		ldr	r3, .L12
 297 0102 1A78     		ldrb	r2, [r3]	@ zero_extendqisi2
 298 0104 7B68     		ldr	r3, [r7, #4]
 299 0106 1B78     		ldrb	r3, [r3]	@ zero_extendqisi2
 300 0108 9A42     		cmp	r2, r3
 301 010a 04D0     		beq	.L7
 180:build\openmote-cc2538_armgcc\openstack\02a-MAClow/IEEE802154E.c ****         ENABLE_INTERRUPTS();
 302              		.loc 1 180 0
 303 010c FFF7FEFF 		bl	IntMasterEnable
 181:build\openmote-cc2538_armgcc\openstack\02a-MAClow/IEEE802154E.c ****         return (PORT_TIMER_WIDTH)0xFFFFFFFF;;
 304              		.loc 1 181 0
 305 0110 4FF0FF33 		mov	r3, #-1
 306 0114 3EE0     		b	.L8
 307              	.L7:
 182:build\openmote-cc2538_armgcc\openstack\02a-MAClow/IEEE802154E.c ****     }
 183:build\openmote-cc2538_armgcc\openstack\02a-MAClow/IEEE802154E.c **** 
 184:build\openmote-cc2538_armgcc\openstack\02a-MAClow/IEEE802154E.c ****     diff = 0;
 308              		.loc 1 184 0
 309 0116 0023     		movs	r3, #0
 310 0118 FB60     		str	r3, [r7, #12]
 185:build\openmote-cc2538_armgcc\openstack\02a-MAClow/IEEE802154E.c ****     if (ieee154e_vars.asn.bytes2and3 == someASN->bytes2and3) {
 311              		.loc 1 185 0
 312 011a 204B     		ldr	r3, .L12
 313 011c B3F80130 		ldrh	r3, [r3, #1]	@ unaligned
 314 0120 9AB2     		uxth	r2, r3
 315 0122 7B68     		ldr	r3, [r7, #4]
 316 0124 B3F80130 		ldrh	r3, [r3, #1]	@ unaligned
 317 0128 9BB2     		uxth	r3, r3
 318 012a 9A42     		cmp	r2, r3
 319 012c 0CD1     		bne	.L9
 186:build\openmote-cc2538_armgcc\openstack\02a-MAClow/IEEE802154E.c ****         ENABLE_INTERRUPTS();
 320              		.loc 1 186 0
 321 012e FFF7FEFF 		bl	IntMasterEnable
 187:build\openmote-cc2538_armgcc\openstack\02a-MAClow/IEEE802154E.c ****         return ieee154e_vars.asn.bytes0and1-someASN->bytes0and1;
 322              		.loc 1 187 0
 323 0132 1A4B     		ldr	r3, .L12
 324 0134 B3F80330 		ldrh	r3, [r3, #3]	@ unaligned
 325 0138 9BB2     		uxth	r3, r3
 326 013a 1A46     		mov	r2, r3
 327 013c 7B68     		ldr	r3, [r7, #4]
 328 013e B3F80330 		ldrh	r3, [r3, #3]	@ unaligned
 329 0142 9BB2     		uxth	r3, r3
 330 0144 D31A     		subs	r3, r2, r3
 331 0146 25E0     		b	.L8
 332              	.L9:
 188:build\openmote-cc2538_armgcc\openstack\02a-MAClow/IEEE802154E.c ****     } else if (ieee154e_vars.asn.bytes2and3-someASN->bytes2and3==1) {
 333              		.loc 1 188 0
 334 0148 144B     		ldr	r3, .L12
 335 014a B3F80130 		ldrh	r3, [r3, #1]	@ unaligned
 336 014e 9BB2     		uxth	r3, r3
 337 0150 1A46     		mov	r2, r3
 338 0152 7B68     		ldr	r3, [r7, #4]
 339 0154 B3F80130 		ldrh	r3, [r3, #1]	@ unaligned
 340 0158 9BB2     		uxth	r3, r3
 341 015a D31A     		subs	r3, r2, r3
 342 015c 012B     		cmp	r3, #1
 343 015e 13D1     		bne	.L10
 189:build\openmote-cc2538_armgcc\openstack\02a-MAClow/IEEE802154E.c ****         diff  = ieee154e_vars.asn.bytes0and1;
 344              		.loc 1 189 0
 345 0160 0E4B     		ldr	r3, .L12
 346 0162 B3F80330 		ldrh	r3, [r3, #3]	@ unaligned
 347 0166 9BB2     		uxth	r3, r3
 348 0168 FB60     		str	r3, [r7, #12]
 190:build\openmote-cc2538_armgcc\openstack\02a-MAClow/IEEE802154E.c ****         diff += 0xffff-someASN->bytes0and1;
 349              		.loc 1 190 0
 350 016a 7B68     		ldr	r3, [r7, #4]
 351 016c B3F80330 		ldrh	r3, [r3, #3]	@ unaligned
 352 0170 9BB2     		uxth	r3, r3
 353 0172 1A46     		mov	r2, r3
 354 0174 FB68     		ldr	r3, [r7, #12]
 355 0176 9B1A     		subs	r3, r3, r2
 356 0178 03F57F43 		add	r3, r3, #65280
 357 017c FF33     		adds	r3, r3, #255
 358 017e FB60     		str	r3, [r7, #12]
 191:build\openmote-cc2538_armgcc\openstack\02a-MAClow/IEEE802154E.c ****         diff += 1;
 359              		.loc 1 191 0
 360 0180 FB68     		ldr	r3, [r7, #12]
 361 0182 0133     		adds	r3, r3, #1
 362 0184 FB60     		str	r3, [r7, #12]
 363 0186 02E0     		b	.L11
 364              	.L10:
 192:build\openmote-cc2538_armgcc\openstack\02a-MAClow/IEEE802154E.c ****     } else {
 193:build\openmote-cc2538_armgcc\openstack\02a-MAClow/IEEE802154E.c ****         diff = (PORT_TIMER_WIDTH)0xFFFFFFFF;;
 365              		.loc 1 193 0
 366 0188 4FF0FF33 		mov	r3, #-1
 367 018c FB60     		str	r3, [r7, #12]
 368              	.L11:
 194:build\openmote-cc2538_armgcc\openstack\02a-MAClow/IEEE802154E.c ****     }
 195:build\openmote-cc2538_armgcc\openstack\02a-MAClow/IEEE802154E.c ****     ENABLE_INTERRUPTS();
 369              		.loc 1 195 0
 370 018e FFF7FEFF 		bl	IntMasterEnable
 196:build\openmote-cc2538_armgcc\openstack\02a-MAClow/IEEE802154E.c ****     return diff;
 371              		.loc 1 196 0
 372 0192 FB68     		ldr	r3, [r7, #12]
 373              	.L8:
 197:build\openmote-cc2538_armgcc\openstack\02a-MAClow/IEEE802154E.c **** }
 374              		.loc 1 197 0
 375 0194 1846     		mov	r0, r3
 376 0196 1037     		adds	r7, r7, #16
 377              		.cfi_def_cfa_offset 8
 378 0198 BD46     		mov	sp, r7
 379              		.cfi_def_cfa_register 13
 380              		@ sp needed
 381 019a 80BD     		pop	{r7, pc}
 382              	.L13:
 383              		.align	2
 384              	.L12:
 385 019c 00000000 		.word	ieee154e_vars
 386              		.cfi_endproc
 387              	.LFE4:
 389              		.align	1
 390              		.global	ieee154e_computeAsnDiff
 391              		.syntax unified
 392              		.thumb
 393              		.thumb_func
 394              		.fpu softvfp
 396              	ieee154e_computeAsnDiff:
 397              	.LFB5:
 198:build\openmote-cc2538_armgcc\openstack\02a-MAClow/IEEE802154E.c **** 
 199:build\openmote-cc2538_armgcc\openstack\02a-MAClow/IEEE802154E.c **** #ifdef DEADLINE_OPTION_ENABLED
 200:build\openmote-cc2538_armgcc\openstack\02a-MAClow/IEEE802154E.c **** /**
 201:build\openmote-cc2538_armgcc\openstack\02a-MAClow/IEEE802154E.c **** /brief Difference between two ASN values
 202:build\openmote-cc2538_armgcc\openstack\02a-MAClow/IEEE802154E.c **** 
 203:build\openmote-cc2538_armgcc\openstack\02a-MAClow/IEEE802154E.c **** \param[in] h_asn bigger ASN value
 204:build\openmote-cc2538_armgcc\openstack\02a-MAClow/IEEE802154E.c **** \param[in] l_asn smaller ASN value
 205:build\openmote-cc2538_armgcc\openstack\02a-MAClow/IEEE802154E.c **** 
 206:build\openmote-cc2538_armgcc\openstack\02a-MAClow/IEEE802154E.c **** \returns The ASN difference, or 0xffff if more than 65535 different
 207:build\openmote-cc2538_armgcc\openstack\02a-MAClow/IEEE802154E.c **** */
 208:build\openmote-cc2538_armgcc\openstack\02a-MAClow/IEEE802154E.c **** int16_t ieee154e_computeAsnDiff(asn_t* h_asn, asn_t* l_asn) {
 398              		.loc 1 208 0
 399              		.cfi_startproc
 400              		@ args = 0, pretend = 0, frame = 16
 401              		@ frame_needed = 1, uses_anonymous_args = 0
 402              		@ link register save eliminated.
 403 01a0 80B4     		push	{r7}
 404              		.cfi_def_cfa_offset 4
 405              		.cfi_offset 7, -4
 406 01a2 85B0     		sub	sp, sp, #20
 407              		.cfi_def_cfa_offset 24
 408 01a4 00AF     		add	r7, sp, #0
 409              		.cfi_def_cfa_register 7
 410 01a6 7860     		str	r0, [r7, #4]
 411 01a8 3960     		str	r1, [r7]
 209:build\openmote-cc2538_armgcc\openstack\02a-MAClow/IEEE802154E.c ****     int16_t diff;
 210:build\openmote-cc2538_armgcc\openstack\02a-MAClow/IEEE802154E.c **** 
 211:build\openmote-cc2538_armgcc\openstack\02a-MAClow/IEEE802154E.c ****     if (h_asn->byte4 != l_asn->byte4) {
 412              		.loc 1 211 0
 413 01aa 7B68     		ldr	r3, [r7, #4]
 414 01ac 1A78     		ldrb	r2, [r3]	@ zero_extendqisi2
 415 01ae 3B68     		ldr	r3, [r7]
 416 01b0 1B78     		ldrb	r3, [r3]	@ zero_extendqisi2
 417 01b2 9A42     		cmp	r2, r3
 418 01b4 02D0     		beq	.L15
 212:build\openmote-cc2538_armgcc\openstack\02a-MAClow/IEEE802154E.c ****         return (int16_t)0xFFFFFFFF;
 419              		.loc 1 212 0
 420 01b6 4FF0FF33 		mov	r3, #-1
 421 01ba 3CE0     		b	.L16
 422              	.L15:
 213:build\openmote-cc2538_armgcc\openstack\02a-MAClow/IEEE802154E.c ****     }
 214:build\openmote-cc2538_armgcc\openstack\02a-MAClow/IEEE802154E.c **** 
 215:build\openmote-cc2538_armgcc\openstack\02a-MAClow/IEEE802154E.c ****     diff = 0;
 423              		.loc 1 215 0
 424 01bc 0023     		movs	r3, #0
 425 01be FB81     		strh	r3, [r7, #14]	@ movhi
 216:build\openmote-cc2538_armgcc\openstack\02a-MAClow/IEEE802154E.c ****     if (h_asn->bytes2and3 == l_asn->bytes2and3) {
 426              		.loc 1 216 0
 427 01c0 7B68     		ldr	r3, [r7, #4]
 428 01c2 B3F80130 		ldrh	r3, [r3, #1]	@ unaligned
 429 01c6 9AB2     		uxth	r2, r3
 430 01c8 3B68     		ldr	r3, [r7]
 431 01ca B3F80130 		ldrh	r3, [r3, #1]	@ unaligned
 432 01ce 9BB2     		uxth	r3, r3
 433 01d0 9A42     		cmp	r2, r3
 434 01d2 0BD1     		bne	.L17
 217:build\openmote-cc2538_armgcc\openstack\02a-MAClow/IEEE802154E.c ****         return h_asn->bytes0and1-l_asn->bytes0and1;
 435              		.loc 1 217 0
 436 01d4 7B68     		ldr	r3, [r7, #4]
 437 01d6 B3F80330 		ldrh	r3, [r3, #3]	@ unaligned
 438 01da 9AB2     		uxth	r2, r3
 439 01dc 3B68     		ldr	r3, [r7]
 440 01de B3F80330 		ldrh	r3, [r3, #3]	@ unaligned
 441 01e2 9BB2     		uxth	r3, r3
 442 01e4 D31A     		subs	r3, r2, r3
 443 01e6 9BB2     		uxth	r3, r3
 444 01e8 1BB2     		sxth	r3, r3
 445 01ea 24E0     		b	.L16
 446              	.L17:
 218:build\openmote-cc2538_armgcc\openstack\02a-MAClow/IEEE802154E.c ****     } else if (h_asn->bytes2and3-l_asn->bytes2and3==1) {
 447              		.loc 1 218 0
 448 01ec 7B68     		ldr	r3, [r7, #4]
 449 01ee B3F80130 		ldrh	r3, [r3, #1]	@ unaligned
 450 01f2 9BB2     		uxth	r3, r3
 451 01f4 1A46     		mov	r2, r3
 452 01f6 3B68     		ldr	r3, [r7]
 453 01f8 B3F80130 		ldrh	r3, [r3, #1]	@ unaligned
 454 01fc 9BB2     		uxth	r3, r3
 455 01fe D31A     		subs	r3, r2, r3
 456 0200 012B     		cmp	r3, #1
 457 0202 13D1     		bne	.L18
 219:build\openmote-cc2538_armgcc\openstack\02a-MAClow/IEEE802154E.c ****         diff  = h_asn->bytes0and1;
 458              		.loc 1 219 0
 459 0204 7B68     		ldr	r3, [r7, #4]
 460 0206 B3F80330 		ldrh	r3, [r3, #3]	@ unaligned
 461 020a 9BB2     		uxth	r3, r3
 462 020c FB81     		strh	r3, [r7, #14]	@ movhi
 220:build\openmote-cc2538_armgcc\openstack\02a-MAClow/IEEE802154E.c ****         diff += 0xffff-l_asn->bytes0and1;
 463              		.loc 1 220 0
 464 020e FA89     		ldrh	r2, [r7, #14]
 465 0210 3B68     		ldr	r3, [r7]
 466 0212 B3F80330 		ldrh	r3, [r3, #3]	@ unaligned
 467 0216 9BB2     		uxth	r3, r3
 468 0218 D31A     		subs	r3, r2, r3
 469 021a 9BB2     		uxth	r3, r3
 470 021c 013B     		subs	r3, r3, #1
 471 021e 9BB2     		uxth	r3, r3
 472 0220 FB81     		strh	r3, [r7, #14]	@ movhi
 221:build\openmote-cc2538_armgcc\openstack\02a-MAClow/IEEE802154E.c ****         diff += 1;
 473              		.loc 1 221 0
 474 0222 FB89     		ldrh	r3, [r7, #14]
 475 0224 0133     		adds	r3, r3, #1
 476 0226 9BB2     		uxth	r3, r3
 477 0228 FB81     		strh	r3, [r7, #14]	@ movhi
 478 022a 02E0     		b	.L19
 479              	.L18:
 222:build\openmote-cc2538_armgcc\openstack\02a-MAClow/IEEE802154E.c ****     } else {
 223:build\openmote-cc2538_armgcc\openstack\02a-MAClow/IEEE802154E.c ****         diff = (int16_t)0xFFFFFFFF;
 480              		.loc 1 223 0
 481 022c 4FF6FF73 		movw	r3, #65535
 482 0230 FB81     		strh	r3, [r7, #14]	@ movhi
 483              	.L19:
 224:build\openmote-cc2538_armgcc\openstack\02a-MAClow/IEEE802154E.c ****     }
 225:build\openmote-cc2538_armgcc\openstack\02a-MAClow/IEEE802154E.c ****     return diff;
 484              		.loc 1 225 0
 485 0232 B7F90E30 		ldrsh	r3, [r7, #14]
 486              	.L16:
 226:build\openmote-cc2538_armgcc\openstack\02a-MAClow/IEEE802154E.c **** }
 487              		.loc 1 226 0
 488 0236 1846     		mov	r0, r3
 489 0238 1437     		adds	r7, r7, #20
 490              		.cfi_def_cfa_offset 4
 491 023a BD46     		mov	sp, r7
 492              		.cfi_def_cfa_register 13
 493              		@ sp needed
 494 023c 80BC     		pop	{r7}
 495              		.cfi_restore 7
 496              		.cfi_def_cfa_offset 0
 497 023e 7047     		bx	lr
 498              		.cfi_endproc
 499              	.LFE5:
 501              		.align	1
 502              		.global	ieee154e_calculateExpTime
 503              		.syntax unified
 504              		.thumb
 505              		.thumb_func
 506              		.fpu softvfp
 508              	ieee154e_calculateExpTime:
 509              	.LFB6:
 227:build\openmote-cc2538_armgcc\openstack\02a-MAClow/IEEE802154E.c **** 
 228:build\openmote-cc2538_armgcc\openstack\02a-MAClow/IEEE802154E.c **** /**
 229:build\openmote-cc2538_armgcc\openstack\02a-MAClow/IEEE802154E.c **** /brief Determine Expiration Time in ASN
 230:build\openmote-cc2538_armgcc\openstack\02a-MAClow/IEEE802154E.c **** 
 231:build\openmote-cc2538_armgcc\openstack\02a-MAClow/IEEE802154E.c **** \param[in]  max_delay Maximum permissible delay before which
 232:build\openmote-cc2538_armgcc\openstack\02a-MAClow/IEEE802154E.c ****             packet is expected to reach destination
 233:build\openmote-cc2538_armgcc\openstack\02a-MAClow/IEEE802154E.c **** 
 234:build\openmote-cc2538_armgcc\openstack\02a-MAClow/IEEE802154E.c **** \param[out] et_asn bigger ASN value
 235:build\openmote-cc2538_armgcc\openstack\02a-MAClow/IEEE802154E.c **** */
 236:build\openmote-cc2538_armgcc\openstack\02a-MAClow/IEEE802154E.c **** void ieee154e_calculateExpTime(uint16_t max_delay, uint8_t* et_asn) {
 510              		.loc 1 236 0
 511              		.cfi_startproc
 512              		@ args = 0, pretend = 0, frame = 24
 513              		@ frame_needed = 1, uses_anonymous_args = 0
 514 0240 80B5     		push	{r7, lr}
 515              		.cfi_def_cfa_offset 8
 516              		.cfi_offset 7, -8
 517              		.cfi_offset 14, -4
 518 0242 86B0     		sub	sp, sp, #24
 519              		.cfi_def_cfa_offset 32
 520 0244 00AF     		add	r7, sp, #0
 521              		.cfi_def_cfa_register 7
 522 0246 0346     		mov	r3, r0
 523 0248 3960     		str	r1, [r7]
 524 024a FB80     		strh	r3, [r7, #6]	@ movhi
 237:build\openmote-cc2538_armgcc\openstack\02a-MAClow/IEEE802154E.c ****     uint8_t delay_array[5];
 238:build\openmote-cc2538_armgcc\openstack\02a-MAClow/IEEE802154E.c ****     uint8_t i =0, carry = 0,slot_time = 0;
 525              		.loc 1 238 0
 526 024c 0023     		movs	r3, #0
 527 024e FB75     		strb	r3, [r7, #23]
 528 0250 0023     		movs	r3, #0
 529 0252 BB75     		strb	r3, [r7, #22]
 530 0254 0023     		movs	r3, #0
 531 0256 7B75     		strb	r3, [r7, #21]
 239:build\openmote-cc2538_armgcc\openstack\02a-MAClow/IEEE802154E.c ****     uint16_t sum = 0, delay_in_asn =0;
 532              		.loc 1 239 0
 533 0258 0023     		movs	r3, #0
 534 025a 7B82     		strh	r3, [r7, #18]	@ movhi
 535 025c 0023     		movs	r3, #0
 536 025e 3B82     		strh	r3, [r7, #16]	@ movhi
 240:build\openmote-cc2538_armgcc\openstack\02a-MAClow/IEEE802154E.c **** 
 241:build\openmote-cc2538_armgcc\openstack\02a-MAClow/IEEE802154E.c ****     memset(&delay_array[0],0,5);
 537              		.loc 1 241 0
 538 0260 07F10803 		add	r3, r7, #8
 539 0264 0522     		movs	r2, #5
 540 0266 0021     		movs	r1, #0
 541 0268 1846     		mov	r0, r3
 542 026a FFF7FEFF 		bl	memset
 242:build\openmote-cc2538_armgcc\openstack\02a-MAClow/IEEE802154E.c **** 
 243:build\openmote-cc2538_armgcc\openstack\02a-MAClow/IEEE802154E.c ****     //Slot time = (Duration in ticks * Time equivalent ticks w.r.t 32kHz) in ms
 244:build\openmote-cc2538_armgcc\openstack\02a-MAClow/IEEE802154E.c ****     slot_time = (ieee154e_getSlotDuration()*305)/10000;
 543              		.loc 1 244 0
 544 026e FFF7FEFF 		bl	ieee154e_getSlotDuration
 545 0272 0346     		mov	r3, r0
 546 0274 1A46     		mov	r2, r3
 547 0276 40F23113 		movw	r3, #305
 548 027a 03FB02F3 		mul	r3, r3, r2
 549 027e 204A     		ldr	r2, .L23
 550 0280 82FB0312 		smull	r1, r2, r2, r3
 551 0284 1213     		asrs	r2, r2, #12
 552 0286 DB17     		asrs	r3, r3, #31
 553 0288 D31A     		subs	r3, r2, r3
 554 028a 7B75     		strb	r3, [r7, #21]
 245:build\openmote-cc2538_armgcc\openstack\02a-MAClow/IEEE802154E.c ****     delay_in_asn = max_delay / slot_time;
 555              		.loc 1 245 0
 556 028c FA88     		ldrh	r2, [r7, #6]
 557 028e 7B7D     		ldrb	r3, [r7, #21]	@ zero_extendqisi2
 558 0290 92FBF3F3 		sdiv	r3, r2, r3
 559 0294 3B82     		strh	r3, [r7, #16]	@ movhi
 246:build\openmote-cc2538_armgcc\openstack\02a-MAClow/IEEE802154E.c **** 
 247:build\openmote-cc2538_armgcc\openstack\02a-MAClow/IEEE802154E.c ****     delay_array[0]         = (delay_in_asn     & 0xff);
 560              		.loc 1 247 0
 561 0296 3B8A     		ldrh	r3, [r7, #16]	@ movhi
 562 0298 DBB2     		uxtb	r3, r3
 563 029a 3B72     		strb	r3, [r7, #8]
 248:build\openmote-cc2538_armgcc\openstack\02a-MAClow/IEEE802154E.c ****     delay_array[1]         = (delay_in_asn/256 & 0xff);
 564              		.loc 1 248 0
 565 029c 3B8A     		ldrh	r3, [r7, #16]
 566 029e 1B0A     		lsrs	r3, r3, #8
 567 02a0 9BB2     		uxth	r3, r3
 568 02a2 DBB2     		uxtb	r3, r3
 569 02a4 7B72     		strb	r3, [r7, #9]
 249:build\openmote-cc2538_armgcc\openstack\02a-MAClow/IEEE802154E.c **** 
 250:build\openmote-cc2538_armgcc\openstack\02a-MAClow/IEEE802154E.c ****     ieee154e_getAsn(&et_asn[0]);
 570              		.loc 1 250 0
 571 02a6 3868     		ldr	r0, [r7]
 572 02a8 FFF7FEFF 		bl	ieee154e_getAsn
 251:build\openmote-cc2538_armgcc\openstack\02a-MAClow/IEEE802154E.c ****     for(i=0; i<5; i++) {
 573              		.loc 1 251 0
 574 02ac 0023     		movs	r3, #0
 575 02ae FB75     		strb	r3, [r7, #23]
 576 02b0 1EE0     		b	.L21
 577              	.L22:
 252:build\openmote-cc2538_armgcc\openstack\02a-MAClow/IEEE802154E.c ****         sum = et_asn[i] + delay_array[i] + carry;
 578              		.loc 1 252 0 discriminator 3
 579 02b2 FB7D     		ldrb	r3, [r7, #23]	@ zero_extendqisi2
 580 02b4 3A68     		ldr	r2, [r7]
 581 02b6 1344     		add	r3, r3, r2
 582 02b8 1B78     		ldrb	r3, [r3]	@ zero_extendqisi2
 583 02ba 9AB2     		uxth	r2, r3
 584 02bc FB7D     		ldrb	r3, [r7, #23]	@ zero_extendqisi2
 585 02be 07F11801 		add	r1, r7, #24
 586 02c2 0B44     		add	r3, r3, r1
 587 02c4 13F8103C 		ldrb	r3, [r3, #-16]	@ zero_extendqisi2
 588 02c8 9BB2     		uxth	r3, r3
 589 02ca 1344     		add	r3, r3, r2
 590 02cc 9AB2     		uxth	r2, r3
 591 02ce BB7D     		ldrb	r3, [r7, #22]	@ zero_extendqisi2
 592 02d0 9BB2     		uxth	r3, r3
 593 02d2 1344     		add	r3, r3, r2
 594 02d4 7B82     		strh	r3, [r7, #18]	@ movhi
 253:build\openmote-cc2538_armgcc\openstack\02a-MAClow/IEEE802154E.c ****         et_asn[i] = sum & 0xFF;
 595              		.loc 1 253 0 discriminator 3
 596 02d6 FB7D     		ldrb	r3, [r7, #23]	@ zero_extendqisi2
 597 02d8 3A68     		ldr	r2, [r7]
 598 02da 1344     		add	r3, r3, r2
 599 02dc 7A8A     		ldrh	r2, [r7, #18]	@ movhi
 600 02de D2B2     		uxtb	r2, r2
 601 02e0 1A70     		strb	r2, [r3]
 254:build\openmote-cc2538_armgcc\openstack\02a-MAClow/IEEE802154E.c ****         carry = ((sum >> 8) & 0xFF);
 602              		.loc 1 254 0 discriminator 3
 603 02e2 7B8A     		ldrh	r3, [r7, #18]
 604 02e4 1B0A     		lsrs	r3, r3, #8
 605 02e6 9BB2     		uxth	r3, r3
 606 02e8 BB75     		strb	r3, [r7, #22]
 251:build\openmote-cc2538_armgcc\openstack\02a-MAClow/IEEE802154E.c ****         sum = et_asn[i] + delay_array[i] + carry;
 607              		.loc 1 251 0 discriminator 3
 608 02ea FB7D     		ldrb	r3, [r7, #23]	@ zero_extendqisi2
 609 02ec 0133     		adds	r3, r3, #1
 610 02ee FB75     		strb	r3, [r7, #23]
 611              	.L21:
 251:build\openmote-cc2538_armgcc\openstack\02a-MAClow/IEEE802154E.c ****         sum = et_asn[i] + delay_array[i] + carry;
 612              		.loc 1 251 0 is_stmt 0 discriminator 1
 613 02f0 FB7D     		ldrb	r3, [r7, #23]	@ zero_extendqisi2
 614 02f2 042B     		cmp	r3, #4
 615 02f4 DDD9     		bls	.L22
 255:build\openmote-cc2538_armgcc\openstack\02a-MAClow/IEEE802154E.c ****     }
 256:build\openmote-cc2538_armgcc\openstack\02a-MAClow/IEEE802154E.c **** }
 616              		.loc 1 256 0 is_stmt 1
 617 02f6 00BF     		nop
 618 02f8 1837     		adds	r7, r7, #24
 619              		.cfi_def_cfa_offset 8
 620 02fa BD46     		mov	sp, r7
 621              		.cfi_def_cfa_register 13
 622              		@ sp needed
 623 02fc 80BD     		pop	{r7, pc}
 624              	.L24:
 625 02fe 00BF     		.align	2
 626              	.L23:
 627 0300 AD8BDB68 		.word	1759218605
 628              		.cfi_endproc
 629              	.LFE6:
 631              		.align	1
 632              		.global	ieee154e_orderToASNStructure
 633              		.syntax unified
 634              		.thumb
 635              		.thumb_func
 636              		.fpu softvfp
 638              	ieee154e_orderToASNStructure:
 639              	.LFB7:
 257:build\openmote-cc2538_armgcc\openstack\02a-MAClow/IEEE802154E.c **** 
 258:build\openmote-cc2538_armgcc\openstack\02a-MAClow/IEEE802154E.c **** /**
 259:build\openmote-cc2538_armgcc\openstack\02a-MAClow/IEEE802154E.c **** /brief Format asn to asn_t structure
 260:build\openmote-cc2538_armgcc\openstack\02a-MAClow/IEEE802154E.c **** 
 261:build\openmote-cc2538_armgcc\openstack\02a-MAClow/IEEE802154E.c **** \param[in]  in  asn value represented in array format
 262:build\openmote-cc2538_armgcc\openstack\02a-MAClow/IEEE802154E.c **** 
 263:build\openmote-cc2538_armgcc\openstack\02a-MAClow/IEEE802154E.c **** \param[out] val_asn   asn value represented in asn_t format
 264:build\openmote-cc2538_armgcc\openstack\02a-MAClow/IEEE802154E.c **** */
 265:build\openmote-cc2538_armgcc\openstack\02a-MAClow/IEEE802154E.c **** void ieee154e_orderToASNStructure(uint8_t* in,asn_t* val_asn) {
 640              		.loc 1 265 0
 641              		.cfi_startproc
 642              		@ args = 0, pretend = 0, frame = 8
 643              		@ frame_needed = 1, uses_anonymous_args = 0
 644              		@ link register save eliminated.
 645 0304 80B4     		push	{r7}
 646              		.cfi_def_cfa_offset 4
 647              		.cfi_offset 7, -4
 648 0306 83B0     		sub	sp, sp, #12
 649              		.cfi_def_cfa_offset 16
 650 0308 00AF     		add	r7, sp, #0
 651              		.cfi_def_cfa_register 7
 652 030a 7860     		str	r0, [r7, #4]
 653 030c 3960     		str	r1, [r7]
 266:build\openmote-cc2538_armgcc\openstack\02a-MAClow/IEEE802154E.c ****     val_asn->bytes0and1   =     in[0] + 256*in[1];
 654              		.loc 1 266 0
 655 030e 7B68     		ldr	r3, [r7, #4]
 656 0310 1B78     		ldrb	r3, [r3]	@ zero_extendqisi2
 657 0312 9AB2     		uxth	r2, r3
 658 0314 7B68     		ldr	r3, [r7, #4]
 659 0316 0133     		adds	r3, r3, #1
 660 0318 1B78     		ldrb	r3, [r3]	@ zero_extendqisi2
 661 031a 9BB2     		uxth	r3, r3
 662 031c 1B02     		lsls	r3, r3, #8
 663 031e 9BB2     		uxth	r3, r3
 664 0320 1344     		add	r3, r3, r2
 665 0322 9AB2     		uxth	r2, r3
 666 0324 3B68     		ldr	r3, [r7]
 667 0326 A3F80320 		strh	r2, [r3, #3]	@ unaligned
 267:build\openmote-cc2538_armgcc\openstack\02a-MAClow/IEEE802154E.c ****     val_asn->bytes2and3   =     in[2] + 256*in[3];
 668              		.loc 1 267 0
 669 032a 7B68     		ldr	r3, [r7, #4]
 670 032c 0233     		adds	r3, r3, #2
 671 032e 1B78     		ldrb	r3, [r3]	@ zero_extendqisi2
 672 0330 9AB2     		uxth	r2, r3
 673 0332 7B68     		ldr	r3, [r7, #4]
 674 0334 0333     		adds	r3, r3, #3
 675 0336 1B78     		ldrb	r3, [r3]	@ zero_extendqisi2
 676 0338 9BB2     		uxth	r3, r3
 677 033a 1B02     		lsls	r3, r3, #8
 678 033c 9BB2     		uxth	r3, r3
 679 033e 1344     		add	r3, r3, r2
 680 0340 9AB2     		uxth	r2, r3
 681 0342 3B68     		ldr	r3, [r7]
 682 0344 A3F80120 		strh	r2, [r3, #1]	@ unaligned
 268:build\openmote-cc2538_armgcc\openstack\02a-MAClow/IEEE802154E.c ****     val_asn->byte4        =     in[4];
 683              		.loc 1 268 0
 684 0348 7B68     		ldr	r3, [r7, #4]
 685 034a 1A79     		ldrb	r2, [r3, #4]	@ zero_extendqisi2
 686 034c 3B68     		ldr	r3, [r7]
 687 034e 1A70     		strb	r2, [r3]
 269:build\openmote-cc2538_armgcc\openstack\02a-MAClow/IEEE802154E.c **** }
 688              		.loc 1 269 0
 689 0350 00BF     		nop
 690 0352 0C37     		adds	r7, r7, #12
 691              		.cfi_def_cfa_offset 4
 692 0354 BD46     		mov	sp, r7
 693              		.cfi_def_cfa_register 13
 694              		@ sp needed
 695 0356 80BC     		pop	{r7}
 696              		.cfi_restore 7
 697              		.cfi_def_cfa_offset 0
 698 0358 7047     		bx	lr
 699              		.cfi_endproc
 700              	.LFE7:
 702              		.align	1
 703              		.global	isr_ieee154e_newSlot
 704              		.syntax unified
 705              		.thumb
 706              		.thumb_func
 707              		.fpu softvfp
 709              	isr_ieee154e_newSlot:
 710              	.LFB8:
 270:build\openmote-cc2538_armgcc\openstack\02a-MAClow/IEEE802154E.c **** #endif
 271:build\openmote-cc2538_armgcc\openstack\02a-MAClow/IEEE802154E.c **** //======= events
 272:build\openmote-cc2538_armgcc\openstack\02a-MAClow/IEEE802154E.c **** 
 273:build\openmote-cc2538_armgcc\openstack\02a-MAClow/IEEE802154E.c **** /**
 274:build\openmote-cc2538_armgcc\openstack\02a-MAClow/IEEE802154E.c **** \brief Indicates a new slot has just started.
 275:build\openmote-cc2538_armgcc\openstack\02a-MAClow/IEEE802154E.c **** 
 276:build\openmote-cc2538_armgcc\openstack\02a-MAClow/IEEE802154E.c **** This function executes in ISR mode, when the new slot timer fires.
 277:build\openmote-cc2538_armgcc\openstack\02a-MAClow/IEEE802154E.c **** */
 278:build\openmote-cc2538_armgcc\openstack\02a-MAClow/IEEE802154E.c **** void isr_ieee154e_newSlot(opentimers_id_t id) {
 711              		.loc 1 278 0
 712              		.cfi_startproc
 713              		@ args = 0, pretend = 0, frame = 8
 714              		@ frame_needed = 1, uses_anonymous_args = 0
 715 035a 80B5     		push	{r7, lr}
 716              		.cfi_def_cfa_offset 8
 717              		.cfi_offset 7, -8
 718              		.cfi_offset 14, -4
 719 035c 84B0     		sub	sp, sp, #16
 720              		.cfi_def_cfa_offset 24
 721 035e 02AF     		add	r7, sp, #8
 722              		.cfi_def_cfa 7, 16
 723 0360 0346     		mov	r3, r0
 724 0362 FB71     		strb	r3, [r7, #7]
 279:build\openmote-cc2538_armgcc\openstack\02a-MAClow/IEEE802154E.c **** 
 280:build\openmote-cc2538_armgcc\openstack\02a-MAClow/IEEE802154E.c ****     ieee154e_vars.startOfSlotReference = opentimers_getCurrentCompareValue();
 725              		.loc 1 280 0
 726 0364 FFF7FEFF 		bl	opentimers_getCurrentCompareValue
 727 0368 0246     		mov	r2, r0
 728 036a 1D4B     		ldr	r3, .L31
 729 036c C3F8AC21 		str	r2, [r3, #428]
 281:build\openmote-cc2538_armgcc\openstack\02a-MAClow/IEEE802154E.c ****     opentimers_scheduleAbsolute(
 730              		.loc 1 281 0
 731 0370 1B4B     		ldr	r3, .L31
 732 0372 93F8A801 		ldrb	r0, [r3, #424]	@ zero_extendqisi2
 733 0376 1A4B     		ldr	r3, .L31
 734 0378 D3F8AC21 		ldr	r2, [r3, #428]
 735 037c 194B     		ldr	r3, .L31+4
 736 037e 0093     		str	r3, [sp]
 737 0380 0123     		movs	r3, #1
 738 0382 4FF4A471 		mov	r1, #328
 739 0386 FFF7FEFF 		bl	opentimers_scheduleAbsolute
 282:build\openmote-cc2538_armgcc\openstack\02a-MAClow/IEEE802154E.c ****         ieee154e_vars.timerId,                  // timerId
 283:build\openmote-cc2538_armgcc\openstack\02a-MAClow/IEEE802154E.c ****         TsSlotDuration,                         // duration
 284:build\openmote-cc2538_armgcc\openstack\02a-MAClow/IEEE802154E.c ****         ieee154e_vars.startOfSlotReference,     // reference
 285:build\openmote-cc2538_armgcc\openstack\02a-MAClow/IEEE802154E.c ****         TIME_TICS,                              // timetype
 286:build\openmote-cc2538_armgcc\openstack\02a-MAClow/IEEE802154E.c ****         isr_ieee154e_newSlot                    // callback
 287:build\openmote-cc2538_armgcc\openstack\02a-MAClow/IEEE802154E.c ****     );
 288:build\openmote-cc2538_armgcc\openstack\02a-MAClow/IEEE802154E.c ****     ieee154e_vars.slotDuration          = TsSlotDuration;
 740              		.loc 1 288 0
 741 038a 154B     		ldr	r3, .L31
 742 038c 4FF4A472 		mov	r2, #328
 743 0390 A3F8A621 		strh	r2, [r3, #422]	@ movhi
 289:build\openmote-cc2538_armgcc\openstack\02a-MAClow/IEEE802154E.c ****     // radiotimer_setPeriod(ieee154e_vars.slotDuration);
 290:build\openmote-cc2538_armgcc\openstack\02a-MAClow/IEEE802154E.c ****     if (ieee154e_vars.isSync==FALSE) {
 744              		.loc 1 290 0
 745 0394 124B     		ldr	r3, .L31
 746 0396 1B7C     		ldrb	r3, [r3, #16]	@ zero_extendqisi2
 747 0398 83F00103 		eor	r3, r3, #1
 748 039c DBB2     		uxtb	r3, r3
 749 039e 002B     		cmp	r3, #0
 750 03a0 13D0     		beq	.L27
 291:build\openmote-cc2538_armgcc\openstack\02a-MAClow/IEEE802154E.c ****         if (idmanager_getIsDAGroot()==TRUE) {
 751              		.loc 1 291 0
 752 03a2 FFF7FEFF 		bl	idmanager_getIsDAGroot
 753 03a6 0346     		mov	r3, r0
 754 03a8 002B     		cmp	r3, #0
 755 03aa 0BD0     		beq	.L28
 292:build\openmote-cc2538_armgcc\openstack\02a-MAClow/IEEE802154E.c ****             changeIsSync(TRUE);
 756              		.loc 1 292 0
 757 03ac 0120     		movs	r0, #1
 758 03ae FFF7FEFF 		bl	changeIsSync
 293:build\openmote-cc2538_armgcc\openstack\02a-MAClow/IEEE802154E.c ****             ieee154e_resetAsn();
 759              		.loc 1 293 0
 760 03b2 FFF7FEFF 		bl	ieee154e_resetAsn
 294:build\openmote-cc2538_armgcc\openstack\02a-MAClow/IEEE802154E.c ****             ieee154e_vars.nextActiveSlotOffset = schedule_getNextActiveSlotOffset();
 761              		.loc 1 294 0
 762 03b6 FFF7FEFF 		bl	schedule_getNextActiveSlotOffset
 763 03ba 0346     		mov	r3, r0
 764 03bc 1A46     		mov	r2, r3
 765 03be 084B     		ldr	r3, .L31
 766 03c0 1A81     		strh	r2, [r3, #8]	@ movhi
 767 03c2 04E0     		b	.L30
 768              	.L28:
 295:build\openmote-cc2538_armgcc\openstack\02a-MAClow/IEEE802154E.c ****         } else {
 296:build\openmote-cc2538_armgcc\openstack\02a-MAClow/IEEE802154E.c ****             activity_synchronize_newSlot();
 769              		.loc 1 296 0
 770 03c4 FFF7FEFF 		bl	activity_synchronize_newSlot
 771 03c8 01E0     		b	.L30
 772              	.L27:
 297:build\openmote-cc2538_armgcc\openstack\02a-MAClow/IEEE802154E.c ****         }
 298:build\openmote-cc2538_armgcc\openstack\02a-MAClow/IEEE802154E.c ****     } else {
 299:build\openmote-cc2538_armgcc\openstack\02a-MAClow/IEEE802154E.c **** #ifdef ADAPTIVE_SYNC
 300:build\openmote-cc2538_armgcc\openstack\02a-MAClow/IEEE802154E.c ****         // adaptive synchronization
 301:build\openmote-cc2538_armgcc\openstack\02a-MAClow/IEEE802154E.c ****         adaptive_sync_countCompensationTimeout();
 302:build\openmote-cc2538_armgcc\openstack\02a-MAClow/IEEE802154E.c **** #endif
 303:build\openmote-cc2538_armgcc\openstack\02a-MAClow/IEEE802154E.c ****         activity_ti1ORri1();
 773              		.loc 1 303 0
 774 03ca FFF7FEFF 		bl	activity_ti1ORri1
 775              	.L30:
 304:build\openmote-cc2538_armgcc\openstack\02a-MAClow/IEEE802154E.c ****    }
 305:build\openmote-cc2538_armgcc\openstack\02a-MAClow/IEEE802154E.c ****    ieee154e_dbg.num_newSlot++;
 776              		.loc 1 305 0
 777 03ce 064B     		ldr	r3, .L31+8
 778 03d0 1B68     		ldr	r3, [r3]
 779 03d2 0133     		adds	r3, r3, #1
 780 03d4 044A     		ldr	r2, .L31+8
 781 03d6 1360     		str	r3, [r2]
 306:build\openmote-cc2538_armgcc\openstack\02a-MAClow/IEEE802154E.c **** }
 782              		.loc 1 306 0
 783 03d8 00BF     		nop
 784 03da 0837     		adds	r7, r7, #8
 785              		.cfi_def_cfa_offset 8
 786 03dc BD46     		mov	sp, r7
 787              		.cfi_def_cfa_register 13
 788              		@ sp needed
 789 03de 80BD     		pop	{r7, pc}
 790              	.L32:
 791              		.align	2
 792              	.L31:
 793 03e0 00000000 		.word	ieee154e_vars
 794 03e4 00000000 		.word	isr_ieee154e_newSlot
 795 03e8 00000000 		.word	ieee154e_dbg
 796              		.cfi_endproc
 797              	.LFE8:
 799              		.align	1
 800              		.global	isr_ieee154e_timer
 801              		.syntax unified
 802              		.thumb
 803              		.thumb_func
 804              		.fpu softvfp
 806              	isr_ieee154e_timer:
 807              	.LFB9:
 307:build\openmote-cc2538_armgcc\openstack\02a-MAClow/IEEE802154E.c **** 
 308:build\openmote-cc2538_armgcc\openstack\02a-MAClow/IEEE802154E.c **** /**
 309:build\openmote-cc2538_armgcc\openstack\02a-MAClow/IEEE802154E.c **** \brief Indicates the FSM timer has fired.
 310:build\openmote-cc2538_armgcc\openstack\02a-MAClow/IEEE802154E.c **** 
 311:build\openmote-cc2538_armgcc\openstack\02a-MAClow/IEEE802154E.c **** This function executes in ISR mode, when the FSM timer fires.
 312:build\openmote-cc2538_armgcc\openstack\02a-MAClow/IEEE802154E.c **** */
 313:build\openmote-cc2538_armgcc\openstack\02a-MAClow/IEEE802154E.c **** void isr_ieee154e_timer(opentimers_id_t id) {
 808              		.loc 1 313 0
 809              		.cfi_startproc
 810              		@ args = 0, pretend = 0, frame = 8
 811              		@ frame_needed = 1, uses_anonymous_args = 0
 812 03ec 80B5     		push	{r7, lr}
 813              		.cfi_def_cfa_offset 8
 814              		.cfi_offset 7, -8
 815              		.cfi_offset 14, -4
 816 03ee 82B0     		sub	sp, sp, #8
 817              		.cfi_def_cfa_offset 16
 818 03f0 00AF     		add	r7, sp, #0
 819              		.cfi_def_cfa_register 7
 820 03f2 0346     		mov	r3, r0
 821 03f4 FB71     		strb	r3, [r7, #7]
 314:build\openmote-cc2538_armgcc\openstack\02a-MAClow/IEEE802154E.c ****     switch (ieee154e_vars.state) {
 822              		.loc 1 314 0
 823 03f6 454B     		ldr	r3, .L59
 824 03f8 93F86431 		ldrb	r3, [r3, #356]	@ zero_extendqisi2
 825 03fc 023B     		subs	r3, r3, #2
 826 03fe 162B     		cmp	r3, #22
 827 0400 6CD8     		bhi	.L34
 828 0402 01A2     		adr	r2, .L36
 829 0404 52F823F0 		ldr	pc, [r2, r3, lsl #2]
 830              		.p2align 2
 831              	.L36:
 832 0408 F7040000 		.word	.L58+1
 833 040c DD040000 		.word	.L34+1
 834 0410 65040000 		.word	.L37+1
 835 0414 6B040000 		.word	.L38+1
 836 0418 71040000 		.word	.L39+1
 837 041c 77040000 		.word	.L40+1
 838 0420 7D040000 		.word	.L41+1
 839 0424 83040000 		.word	.L42+1
 840 0428 89040000 		.word	.L43+1
 841 042c 8F040000 		.word	.L44+1
 842 0430 95040000 		.word	.L45+1
 843 0434 9B040000 		.word	.L46+1
 844 0438 DD040000 		.word	.L34+1
 845 043c A1040000 		.word	.L47+1
 846 0440 A7040000 		.word	.L48+1
 847 0444 AD040000 		.word	.L49+1
 848 0448 B3040000 		.word	.L50+1
 849 044c B9040000 		.word	.L51+1
 850 0450 BF040000 		.word	.L52+1
 851 0454 C5040000 		.word	.L53+1
 852 0458 CB040000 		.word	.L54+1
 853 045c D1040000 		.word	.L55+1
 854 0460 D7040000 		.word	.L56+1
 855              		.p2align 1
 856              	.L37:
 315:build\openmote-cc2538_armgcc\openstack\02a-MAClow/IEEE802154E.c ****         case S_TXDATAOFFSET:
 316:build\openmote-cc2538_armgcc\openstack\02a-MAClow/IEEE802154E.c ****             activity_ti2();
 857              		.loc 1 316 0
 858 0464 FFF7FEFF 		bl	activity_ti2
 317:build\openmote-cc2538_armgcc\openstack\02a-MAClow/IEEE802154E.c ****             break;
 859              		.loc 1 317 0
 860 0468 46E0     		b	.L57
 861              	.L38:
 318:build\openmote-cc2538_armgcc\openstack\02a-MAClow/IEEE802154E.c ****         case S_TXDATAPREPARE:
 319:build\openmote-cc2538_armgcc\openstack\02a-MAClow/IEEE802154E.c ****             activity_tie1();
 862              		.loc 1 319 0
 863 046a FFF7FEFF 		bl	activity_tie1
 320:build\openmote-cc2538_armgcc\openstack\02a-MAClow/IEEE802154E.c ****             break;
 864              		.loc 1 320 0
 865 046e 43E0     		b	.L57
 866              	.L39:
 321:build\openmote-cc2538_armgcc\openstack\02a-MAClow/IEEE802154E.c ****         case S_TXDATAREADY:
 322:build\openmote-cc2538_armgcc\openstack\02a-MAClow/IEEE802154E.c ****             activity_ti3();
 867              		.loc 1 322 0
 868 0470 FFF7FEFF 		bl	activity_ti3
 323:build\openmote-cc2538_armgcc\openstack\02a-MAClow/IEEE802154E.c ****             break;
 869              		.loc 1 323 0
 870 0474 40E0     		b	.L57
 871              	.L40:
 324:build\openmote-cc2538_armgcc\openstack\02a-MAClow/IEEE802154E.c ****         case S_TXDATADELAY:
 325:build\openmote-cc2538_armgcc\openstack\02a-MAClow/IEEE802154E.c ****             activity_tie2();
 872              		.loc 1 325 0
 873 0476 FFF7FEFF 		bl	activity_tie2
 326:build\openmote-cc2538_armgcc\openstack\02a-MAClow/IEEE802154E.c ****             break;
 874              		.loc 1 326 0
 875 047a 3DE0     		b	.L57
 876              	.L41:
 327:build\openmote-cc2538_armgcc\openstack\02a-MAClow/IEEE802154E.c ****         case S_TXDATA:
 328:build\openmote-cc2538_armgcc\openstack\02a-MAClow/IEEE802154E.c ****             activity_tie3();
 877              		.loc 1 328 0
 878 047c FFF7FEFF 		bl	activity_tie3
 329:build\openmote-cc2538_armgcc\openstack\02a-MAClow/IEEE802154E.c ****             break;
 879              		.loc 1 329 0
 880 0480 3AE0     		b	.L57
 881              	.L42:
 330:build\openmote-cc2538_armgcc\openstack\02a-MAClow/IEEE802154E.c ****         case S_RXACKOFFSET:
 331:build\openmote-cc2538_armgcc\openstack\02a-MAClow/IEEE802154E.c ****             activity_ti6();
 882              		.loc 1 331 0
 883 0482 FFF7FEFF 		bl	activity_ti6
 332:build\openmote-cc2538_armgcc\openstack\02a-MAClow/IEEE802154E.c ****             break;
 884              		.loc 1 332 0
 885 0486 37E0     		b	.L57
 886              	.L43:
 333:build\openmote-cc2538_armgcc\openstack\02a-MAClow/IEEE802154E.c ****         case S_RXACKPREPARE:
 334:build\openmote-cc2538_armgcc\openstack\02a-MAClow/IEEE802154E.c ****             activity_tie4();
 887              		.loc 1 334 0
 888 0488 FFF7FEFF 		bl	activity_tie4
 335:build\openmote-cc2538_armgcc\openstack\02a-MAClow/IEEE802154E.c ****             break;
 889              		.loc 1 335 0
 890 048c 34E0     		b	.L57
 891              	.L44:
 336:build\openmote-cc2538_armgcc\openstack\02a-MAClow/IEEE802154E.c ****         case S_RXACKREADY:
 337:build\openmote-cc2538_armgcc\openstack\02a-MAClow/IEEE802154E.c ****             activity_ti7();
 892              		.loc 1 337 0
 893 048e FFF7FEFF 		bl	activity_ti7
 338:build\openmote-cc2538_armgcc\openstack\02a-MAClow/IEEE802154E.c ****             break;
 894              		.loc 1 338 0
 895 0492 31E0     		b	.L57
 896              	.L45:
 339:build\openmote-cc2538_armgcc\openstack\02a-MAClow/IEEE802154E.c ****         case S_RXACKLISTEN:
 340:build\openmote-cc2538_armgcc\openstack\02a-MAClow/IEEE802154E.c ****             activity_tie5();
 897              		.loc 1 340 0
 898 0494 FFF7FEFF 		bl	activity_tie5
 341:build\openmote-cc2538_armgcc\openstack\02a-MAClow/IEEE802154E.c ****             break;
 899              		.loc 1 341 0
 900 0498 2EE0     		b	.L57
 901              	.L46:
 342:build\openmote-cc2538_armgcc\openstack\02a-MAClow/IEEE802154E.c ****         case S_RXACK:
 343:build\openmote-cc2538_armgcc\openstack\02a-MAClow/IEEE802154E.c ****             activity_tie6();
 902              		.loc 1 343 0
 903 049a FFF7FEFF 		bl	activity_tie6
 344:build\openmote-cc2538_armgcc\openstack\02a-MAClow/IEEE802154E.c ****             break;
 904              		.loc 1 344 0
 905 049e 2BE0     		b	.L57
 906              	.L47:
 345:build\openmote-cc2538_armgcc\openstack\02a-MAClow/IEEE802154E.c ****         case S_RXDATAOFFSET:
 346:build\openmote-cc2538_armgcc\openstack\02a-MAClow/IEEE802154E.c ****             activity_ri2();
 907              		.loc 1 346 0
 908 04a0 FFF7FEFF 		bl	activity_ri2
 347:build\openmote-cc2538_armgcc\openstack\02a-MAClow/IEEE802154E.c ****             break;
 909              		.loc 1 347 0
 910 04a4 28E0     		b	.L57
 911              	.L48:
 348:build\openmote-cc2538_armgcc\openstack\02a-MAClow/IEEE802154E.c ****         case S_RXDATAPREPARE:
 349:build\openmote-cc2538_armgcc\openstack\02a-MAClow/IEEE802154E.c ****             activity_rie1();
 912              		.loc 1 349 0
 913 04a6 FFF7FEFF 		bl	activity_rie1
 350:build\openmote-cc2538_armgcc\openstack\02a-MAClow/IEEE802154E.c ****             break;
 914              		.loc 1 350 0
 915 04aa 25E0     		b	.L57
 916              	.L49:
 351:build\openmote-cc2538_armgcc\openstack\02a-MAClow/IEEE802154E.c ****         case S_RXDATAREADY:
 352:build\openmote-cc2538_armgcc\openstack\02a-MAClow/IEEE802154E.c ****             activity_ri3();
 917              		.loc 1 352 0
 918 04ac FFF7FEFF 		bl	activity_ri3
 353:build\openmote-cc2538_armgcc\openstack\02a-MAClow/IEEE802154E.c ****             break;
 919              		.loc 1 353 0
 920 04b0 22E0     		b	.L57
 921              	.L50:
 354:build\openmote-cc2538_armgcc\openstack\02a-MAClow/IEEE802154E.c ****         case S_RXDATALISTEN:
 355:build\openmote-cc2538_armgcc\openstack\02a-MAClow/IEEE802154E.c ****             activity_rie2();
 922              		.loc 1 355 0
 923 04b2 FFF7FEFF 		bl	activity_rie2
 356:build\openmote-cc2538_armgcc\openstack\02a-MAClow/IEEE802154E.c ****             break;
 924              		.loc 1 356 0
 925 04b6 1FE0     		b	.L57
 926              	.L51:
 357:build\openmote-cc2538_armgcc\openstack\02a-MAClow/IEEE802154E.c ****         case S_RXDATA:
 358:build\openmote-cc2538_armgcc\openstack\02a-MAClow/IEEE802154E.c ****             activity_rie3();
 927              		.loc 1 358 0
 928 04b8 FFF7FEFF 		bl	activity_rie3
 359:build\openmote-cc2538_armgcc\openstack\02a-MAClow/IEEE802154E.c ****             break;
 929              		.loc 1 359 0
 930 04bc 1CE0     		b	.L57
 931              	.L52:
 360:build\openmote-cc2538_armgcc\openstack\02a-MAClow/IEEE802154E.c ****         case S_TXACKOFFSET:
 361:build\openmote-cc2538_armgcc\openstack\02a-MAClow/IEEE802154E.c ****             activity_ri6();
 932              		.loc 1 361 0
 933 04be FFF7FEFF 		bl	activity_ri6
 362:build\openmote-cc2538_armgcc\openstack\02a-MAClow/IEEE802154E.c ****             break;
 934              		.loc 1 362 0
 935 04c2 19E0     		b	.L57
 936              	.L53:
 363:build\openmote-cc2538_armgcc\openstack\02a-MAClow/IEEE802154E.c ****         case S_TXACKPREPARE:
 364:build\openmote-cc2538_armgcc\openstack\02a-MAClow/IEEE802154E.c ****             activity_rie4();
 937              		.loc 1 364 0
 938 04c4 FFF7FEFF 		bl	activity_rie4
 365:build\openmote-cc2538_armgcc\openstack\02a-MAClow/IEEE802154E.c ****             break;
 939              		.loc 1 365 0
 940 04c8 16E0     		b	.L57
 941              	.L54:
 366:build\openmote-cc2538_armgcc\openstack\02a-MAClow/IEEE802154E.c ****         case S_TXACKREADY:
 367:build\openmote-cc2538_armgcc\openstack\02a-MAClow/IEEE802154E.c ****             activity_ri7();
 942              		.loc 1 367 0
 943 04ca FFF7FEFF 		bl	activity_ri7
 368:build\openmote-cc2538_armgcc\openstack\02a-MAClow/IEEE802154E.c ****             break;
 944              		.loc 1 368 0
 945 04ce 13E0     		b	.L57
 946              	.L55:
 369:build\openmote-cc2538_armgcc\openstack\02a-MAClow/IEEE802154E.c ****         case S_TXACKDELAY:
 370:build\openmote-cc2538_armgcc\openstack\02a-MAClow/IEEE802154E.c ****             activity_rie5();
 947              		.loc 1 370 0
 948 04d0 FFF7FEFF 		bl	activity_rie5
 371:build\openmote-cc2538_armgcc\openstack\02a-MAClow/IEEE802154E.c ****             break;
 949              		.loc 1 371 0
 950 04d4 10E0     		b	.L57
 951              	.L56:
 372:build\openmote-cc2538_armgcc\openstack\02a-MAClow/IEEE802154E.c ****         case S_TXACK:
 373:build\openmote-cc2538_armgcc\openstack\02a-MAClow/IEEE802154E.c ****             activity_rie6();
 952              		.loc 1 373 0
 953 04d6 FFF7FEFF 		bl	activity_rie6
 374:build\openmote-cc2538_armgcc\openstack\02a-MAClow/IEEE802154E.c ****             break;
 954              		.loc 1 374 0
 955 04da 0DE0     		b	.L57
 956              	.L34:
 375:build\openmote-cc2538_armgcc\openstack\02a-MAClow/IEEE802154E.c ****         case S_SYNCRX:
 376:build\openmote-cc2538_armgcc\openstack\02a-MAClow/IEEE802154E.c ****             break;
 377:build\openmote-cc2538_armgcc\openstack\02a-MAClow/IEEE802154E.c ****         default:
 378:build\openmote-cc2538_armgcc\openstack\02a-MAClow/IEEE802154E.c ****             // log the error
 379:build\openmote-cc2538_armgcc\openstack\02a-MAClow/IEEE802154E.c ****             openserial_printCritical(
 380:build\openmote-cc2538_armgcc\openstack\02a-MAClow/IEEE802154E.c ****                 COMPONENT_IEEE802154E,
 381:build\openmote-cc2538_armgcc\openstack\02a-MAClow/IEEE802154E.c ****                 ERR_WRONG_STATE_IN_TIMERFIRES,
 382:build\openmote-cc2538_armgcc\openstack\02a-MAClow/IEEE802154E.c ****                 (errorparameter_t)ieee154e_vars.state,
 957              		.loc 1 382 0
 958 04dc 0B4B     		ldr	r3, .L59
 959 04de 93F86431 		ldrb	r3, [r3, #356]	@ zero_extendqisi2
 379:build\openmote-cc2538_armgcc\openstack\02a-MAClow/IEEE802154E.c ****                 COMPONENT_IEEE802154E,
 960              		.loc 1 379 0
 961 04e2 9AB2     		uxth	r2, r3
 383:build\openmote-cc2538_armgcc\openstack\02a-MAClow/IEEE802154E.c ****                 (errorparameter_t)ieee154e_vars.slotOffset
 962              		.loc 1 383 0
 963 04e4 094B     		ldr	r3, .L59
 964 04e6 DB88     		ldrh	r3, [r3, #6]
 379:build\openmote-cc2538_armgcc\openstack\02a-MAClow/IEEE802154E.c ****                 COMPONENT_IEEE802154E,
 965              		.loc 1 379 0
 966 04e8 2021     		movs	r1, #32
 967 04ea 0920     		movs	r0, #9
 968 04ec FFF7FEFF 		bl	openserial_printCritical
 384:build\openmote-cc2538_armgcc\openstack\02a-MAClow/IEEE802154E.c ****             );
 385:build\openmote-cc2538_armgcc\openstack\02a-MAClow/IEEE802154E.c ****             // abort
 386:build\openmote-cc2538_armgcc\openstack\02a-MAClow/IEEE802154E.c ****             endSlot();
 969              		.loc 1 386 0
 970 04f0 FFF7FEFF 		bl	endSlot
 387:build\openmote-cc2538_armgcc\openstack\02a-MAClow/IEEE802154E.c ****             break;
 971              		.loc 1 387 0
 972 04f4 00E0     		b	.L57
 973              	.L58:
 376:build\openmote-cc2538_armgcc\openstack\02a-MAClow/IEEE802154E.c ****         default:
 974              		.loc 1 376 0
 975 04f6 00BF     		nop
 976              	.L57:
 388:build\openmote-cc2538_armgcc\openstack\02a-MAClow/IEEE802154E.c ****     }
 389:build\openmote-cc2538_armgcc\openstack\02a-MAClow/IEEE802154E.c ****     ieee154e_dbg.num_timer++;
 977              		.loc 1 389 0
 978 04f8 054B     		ldr	r3, .L59+4
 979 04fa 5B68     		ldr	r3, [r3, #4]
 980 04fc 0133     		adds	r3, r3, #1
 981 04fe 044A     		ldr	r2, .L59+4
 982 0500 5360     		str	r3, [r2, #4]
 390:build\openmote-cc2538_armgcc\openstack\02a-MAClow/IEEE802154E.c **** }
 983              		.loc 1 390 0
 984 0502 00BF     		nop
 985 0504 0837     		adds	r7, r7, #8
 986              		.cfi_def_cfa_offset 8
 987 0506 BD46     		mov	sp, r7
 988              		.cfi_def_cfa_register 13
 989              		@ sp needed
 990 0508 80BD     		pop	{r7, pc}
 991              	.L60:
 992 050a 00BF     		.align	2
 993              	.L59:
 994 050c 00000000 		.word	ieee154e_vars
 995 0510 00000000 		.word	ieee154e_dbg
 996              		.cfi_endproc
 997              	.LFE9:
 999              		.align	1
 1000              		.global	isr_ieee154e_inhibitStart
 1001              		.syntax unified
 1002              		.thumb
 1003              		.thumb_func
 1004              		.fpu softvfp
 1006              	isr_ieee154e_inhibitStart:
 1007              	.LFB10:
 391:build\openmote-cc2538_armgcc\openstack\02a-MAClow/IEEE802154E.c **** 
 392:build\openmote-cc2538_armgcc\openstack\02a-MAClow/IEEE802154E.c **** /**
 393:build\openmote-cc2538_armgcc\openstack\02a-MAClow/IEEE802154E.c **** \brief Inhibit the serial activity.
 394:build\openmote-cc2538_armgcc\openstack\02a-MAClow/IEEE802154E.c **** 
 395:build\openmote-cc2538_armgcc\openstack\02a-MAClow/IEEE802154E.c **** This needs to happen
 396:build\openmote-cc2538_armgcc\openstack\02a-MAClow/IEEE802154E.c **** 
 397:build\openmote-cc2538_armgcc\openstack\02a-MAClow/IEEE802154E.c **** This function executes in ISR mode.
 398:build\openmote-cc2538_armgcc\openstack\02a-MAClow/IEEE802154E.c **** */
 399:build\openmote-cc2538_armgcc\openstack\02a-MAClow/IEEE802154E.c **** void isr_ieee154e_inhibitStart(opentimers_id_t id) {
 1008              		.loc 1 399 0
 1009              		.cfi_startproc
 1010              		@ args = 0, pretend = 0, frame = 8
 1011              		@ frame_needed = 1, uses_anonymous_args = 0
 1012 0514 80B5     		push	{r7, lr}
 1013              		.cfi_def_cfa_offset 8
 1014              		.cfi_offset 7, -8
 1015              		.cfi_offset 14, -4
 1016 0516 82B0     		sub	sp, sp, #8
 1017              		.cfi_def_cfa_offset 16
 1018 0518 00AF     		add	r7, sp, #0
 1019              		.cfi_def_cfa_register 7
 1020 051a 0346     		mov	r3, r0
 1021 051c FB71     		strb	r3, [r7, #7]
 400:build\openmote-cc2538_armgcc\openstack\02a-MAClow/IEEE802154E.c ****     // inhibit serial activity
 401:build\openmote-cc2538_armgcc\openstack\02a-MAClow/IEEE802154E.c ****     openserial_inhibitStart(); // activity_inhibitSerial
 1022              		.loc 1 401 0
 1023 051e FFF7FEFF 		bl	openserial_inhibitStart
 402:build\openmote-cc2538_armgcc\openstack\02a-MAClow/IEEE802154E.c **** }
 1024              		.loc 1 402 0
 1025 0522 00BF     		nop
 1026 0524 0837     		adds	r7, r7, #8
 1027              		.cfi_def_cfa_offset 8
 1028 0526 BD46     		mov	sp, r7
 1029              		.cfi_def_cfa_register 13
 1030              		@ sp needed
 1031 0528 80BD     		pop	{r7, pc}
 1032              		.cfi_endproc
 1033              	.LFE10:
 1035              		.align	1
 1036              		.global	ieee154e_startOfFrame
 1037              		.syntax unified
 1038              		.thumb
 1039              		.thumb_func
 1040              		.fpu softvfp
 1042              	ieee154e_startOfFrame:
 1043              	.LFB11:
 403:build\openmote-cc2538_armgcc\openstack\02a-MAClow/IEEE802154E.c **** 
 404:build\openmote-cc2538_armgcc\openstack\02a-MAClow/IEEE802154E.c **** /**
 405:build\openmote-cc2538_armgcc\openstack\02a-MAClow/IEEE802154E.c **** \brief Indicates the radio just received the first byte of a packet.
 406:build\openmote-cc2538_armgcc\openstack\02a-MAClow/IEEE802154E.c **** 
 407:build\openmote-cc2538_armgcc\openstack\02a-MAClow/IEEE802154E.c **** This function executes in ISR mode.
 408:build\openmote-cc2538_armgcc\openstack\02a-MAClow/IEEE802154E.c **** */
 409:build\openmote-cc2538_armgcc\openstack\02a-MAClow/IEEE802154E.c **** void ieee154e_startOfFrame(PORT_TIMER_WIDTH capturedTime) {
 1044              		.loc 1 409 0
 1045              		.cfi_startproc
 1046              		@ args = 0, pretend = 0, frame = 16
 1047              		@ frame_needed = 1, uses_anonymous_args = 0
 1048 052a 80B5     		push	{r7, lr}
 1049              		.cfi_def_cfa_offset 8
 1050              		.cfi_offset 7, -8
 1051              		.cfi_offset 14, -4
 1052 052c 84B0     		sub	sp, sp, #16
 1053              		.cfi_def_cfa_offset 24
 1054 052e 00AF     		add	r7, sp, #0
 1055              		.cfi_def_cfa_register 7
 1056 0530 7860     		str	r0, [r7, #4]
 410:build\openmote-cc2538_armgcc\openstack\02a-MAClow/IEEE802154E.c ****     PORT_TIMER_WIDTH referenceTime = capturedTime - ieee154e_vars.startOfSlotReference;
 1057              		.loc 1 410 0
 1058 0532 314B     		ldr	r3, .L71
 1059 0534 D3F8AC31 		ldr	r3, [r3, #428]
 1060 0538 7A68     		ldr	r2, [r7, #4]
 1061 053a D31A     		subs	r3, r2, r3
 1062 053c FB60     		str	r3, [r7, #12]
 411:build\openmote-cc2538_armgcc\openstack\02a-MAClow/IEEE802154E.c ****     if (ieee154e_vars.isSync==FALSE) {
 1063              		.loc 1 411 0
 1064 053e 2E4B     		ldr	r3, .L71
 1065 0540 1B7C     		ldrb	r3, [r3, #16]	@ zero_extendqisi2
 1066 0542 83F00103 		eor	r3, r3, #1
 1067 0546 DBB2     		uxtb	r3, r3
 1068 0548 002B     		cmp	r3, #0
 1069 054a 03D0     		beq	.L63
 412:build\openmote-cc2538_armgcc\openstack\02a-MAClow/IEEE802154E.c ****         activity_synchronize_startOfFrame(referenceTime);
 1070              		.loc 1 412 0
 1071 054c F868     		ldr	r0, [r7, #12]
 1072 054e FFF7FEFF 		bl	activity_synchronize_startOfFrame
 1073 0552 48E0     		b	.L64
 1074              	.L63:
 413:build\openmote-cc2538_armgcc\openstack\02a-MAClow/IEEE802154E.c ****     } else {
 414:build\openmote-cc2538_armgcc\openstack\02a-MAClow/IEEE802154E.c ****         switch (ieee154e_vars.state) {
 1075              		.loc 1 414 0
 1076 0554 284B     		ldr	r3, .L71
 1077 0556 93F86431 		ldrb	r3, [r3, #356]	@ zero_extendqisi2
 1078 055a 073B     		subs	r3, r3, #7
 1079 055c 102B     		cmp	r3, #16
 1080 055e 35D8     		bhi	.L65
 1081 0560 01A2     		adr	r2, .L67
 1082 0562 52F823F0 		ldr	pc, [r2, r3, lsl #2]
 1083 0566 00BF     		.p2align 2
 1084              	.L67:
 1085 0568 AD050000 		.word	.L66+1
 1086 056c CD050000 		.word	.L65+1
 1087 0570 CD050000 		.word	.L65+1
 1088 0574 CD050000 		.word	.L65+1
 1089 0578 B5050000 		.word	.L68+1
 1090 057c B5050000 		.word	.L68+1
 1091 0580 CD050000 		.word	.L65+1
 1092 0584 CD050000 		.word	.L65+1
 1093 0588 CD050000 		.word	.L65+1
 1094 058c CD050000 		.word	.L65+1
 1095 0590 BD050000 		.word	.L69+1
 1096 0594 BD050000 		.word	.L69+1
 1097 0598 CD050000 		.word	.L65+1
 1098 059c CD050000 		.word	.L65+1
 1099 05a0 CD050000 		.word	.L65+1
 1100 05a4 CD050000 		.word	.L65+1
 1101 05a8 C5050000 		.word	.L70+1
 1102              		.p2align 1
 1103              	.L66:
 415:build\openmote-cc2538_armgcc\openstack\02a-MAClow/IEEE802154E.c ****             case S_TXDATADELAY:
 416:build\openmote-cc2538_armgcc\openstack\02a-MAClow/IEEE802154E.c ****                 activity_ti4(referenceTime);
 1104              		.loc 1 416 0
 1105 05ac F868     		ldr	r0, [r7, #12]
 1106 05ae FFF7FEFF 		bl	activity_ti4
 417:build\openmote-cc2538_armgcc\openstack\02a-MAClow/IEEE802154E.c ****                 break;
 1107              		.loc 1 417 0
 1108 05b2 18E0     		b	.L64
 1109              	.L68:
 418:build\openmote-cc2538_armgcc\openstack\02a-MAClow/IEEE802154E.c ****             case S_RXACKREADY:
 419:build\openmote-cc2538_armgcc\openstack\02a-MAClow/IEEE802154E.c ****                 /*
 420:build\openmote-cc2538_armgcc\openstack\02a-MAClow/IEEE802154E.c ****                 It is possible to receive in this state for radio where there is no
 421:build\openmote-cc2538_armgcc\openstack\02a-MAClow/IEEE802154E.c ****                 way of differentiated between "ready to listen" and "listening"
 422:build\openmote-cc2538_armgcc\openstack\02a-MAClow/IEEE802154E.c ****                 (e.g. CC2420). We must therefore expect to the start of a packet in
 423:build\openmote-cc2538_armgcc\openstack\02a-MAClow/IEEE802154E.c ****                 this "ready" state.
 424:build\openmote-cc2538_armgcc\openstack\02a-MAClow/IEEE802154E.c ****                 */
 425:build\openmote-cc2538_armgcc\openstack\02a-MAClow/IEEE802154E.c ****                 // no break!
 426:build\openmote-cc2538_armgcc\openstack\02a-MAClow/IEEE802154E.c ****             case S_RXACKLISTEN:
 427:build\openmote-cc2538_armgcc\openstack\02a-MAClow/IEEE802154E.c ****                 activity_ti8(referenceTime);
 1110              		.loc 1 427 0
 1111 05b4 F868     		ldr	r0, [r7, #12]
 1112 05b6 FFF7FEFF 		bl	activity_ti8
 428:build\openmote-cc2538_armgcc\openstack\02a-MAClow/IEEE802154E.c ****                 break;
 1113              		.loc 1 428 0
 1114 05ba 14E0     		b	.L64
 1115              	.L69:
 429:build\openmote-cc2538_armgcc\openstack\02a-MAClow/IEEE802154E.c ****             case S_RXDATAREADY:
 430:build\openmote-cc2538_armgcc\openstack\02a-MAClow/IEEE802154E.c ****                 /*
 431:build\openmote-cc2538_armgcc\openstack\02a-MAClow/IEEE802154E.c ****                 Similarly as above.
 432:build\openmote-cc2538_armgcc\openstack\02a-MAClow/IEEE802154E.c ****                 */
 433:build\openmote-cc2538_armgcc\openstack\02a-MAClow/IEEE802154E.c ****                 // no break!
 434:build\openmote-cc2538_armgcc\openstack\02a-MAClow/IEEE802154E.c ****             case S_RXDATALISTEN:
 435:build\openmote-cc2538_armgcc\openstack\02a-MAClow/IEEE802154E.c ****                 activity_ri4(referenceTime);
 1116              		.loc 1 435 0
 1117 05bc F868     		ldr	r0, [r7, #12]
 1118 05be FFF7FEFF 		bl	activity_ri4
 436:build\openmote-cc2538_armgcc\openstack\02a-MAClow/IEEE802154E.c ****                 break;
 1119              		.loc 1 436 0
 1120 05c2 10E0     		b	.L64
 1121              	.L70:
 437:build\openmote-cc2538_armgcc\openstack\02a-MAClow/IEEE802154E.c ****             case S_TXACKDELAY:
 438:build\openmote-cc2538_armgcc\openstack\02a-MAClow/IEEE802154E.c ****                 activity_ri8(referenceTime);
 1122              		.loc 1 438 0
 1123 05c4 F868     		ldr	r0, [r7, #12]
 1124 05c6 FFF7FEFF 		bl	activity_ri8
 439:build\openmote-cc2538_armgcc\openstack\02a-MAClow/IEEE802154E.c ****                 break;
 1125              		.loc 1 439 0
 1126 05ca 0CE0     		b	.L64
 1127              	.L65:
 440:build\openmote-cc2538_armgcc\openstack\02a-MAClow/IEEE802154E.c ****             default:
 441:build\openmote-cc2538_armgcc\openstack\02a-MAClow/IEEE802154E.c ****                 // log the error
 442:build\openmote-cc2538_armgcc\openstack\02a-MAClow/IEEE802154E.c ****                 openserial_printError(COMPONENT_IEEE802154E,ERR_WRONG_STATE_IN_NEWSLOT,
 443:build\openmote-cc2538_armgcc\openstack\02a-MAClow/IEEE802154E.c ****                                   (errorparameter_t)ieee154e_vars.state,
 1128              		.loc 1 443 0
 1129 05cc 0A4B     		ldr	r3, .L71
 1130 05ce 93F86431 		ldrb	r3, [r3, #356]	@ zero_extendqisi2
 442:build\openmote-cc2538_armgcc\openstack\02a-MAClow/IEEE802154E.c ****                                   (errorparameter_t)ieee154e_vars.state,
 1131              		.loc 1 442 0
 1132 05d2 9AB2     		uxth	r2, r3
 444:build\openmote-cc2538_armgcc\openstack\02a-MAClow/IEEE802154E.c ****                                   (errorparameter_t)ieee154e_vars.slotOffset);
 1133              		.loc 1 444 0
 1134 05d4 084B     		ldr	r3, .L71
 1135 05d6 DB88     		ldrh	r3, [r3, #6]
 442:build\openmote-cc2538_armgcc\openstack\02a-MAClow/IEEE802154E.c ****                                   (errorparameter_t)ieee154e_vars.state,
 1136              		.loc 1 442 0
 1137 05d8 2121     		movs	r1, #33
 1138 05da 0920     		movs	r0, #9
 1139 05dc FFF7FEFF 		bl	openserial_printError
 445:build\openmote-cc2538_armgcc\openstack\02a-MAClow/IEEE802154E.c ****                 // abort
 446:build\openmote-cc2538_armgcc\openstack\02a-MAClow/IEEE802154E.c ****                 endSlot();
 1140              		.loc 1 446 0
 1141 05e0 FFF7FEFF 		bl	endSlot
 447:build\openmote-cc2538_armgcc\openstack\02a-MAClow/IEEE802154E.c ****                 break;
 1142              		.loc 1 447 0
 1143 05e4 00BF     		nop
 1144              	.L64:
 448:build\openmote-cc2538_armgcc\openstack\02a-MAClow/IEEE802154E.c ****         }
 449:build\openmote-cc2538_armgcc\openstack\02a-MAClow/IEEE802154E.c ****     }
 450:build\openmote-cc2538_armgcc\openstack\02a-MAClow/IEEE802154E.c ****     ieee154e_dbg.num_startOfFrame++;
 1145              		.loc 1 450 0
 1146 05e6 054B     		ldr	r3, .L71+4
 1147 05e8 9B68     		ldr	r3, [r3, #8]
 1148 05ea 0133     		adds	r3, r3, #1
 1149 05ec 034A     		ldr	r2, .L71+4
 1150 05ee 9360     		str	r3, [r2, #8]
 451:build\openmote-cc2538_armgcc\openstack\02a-MAClow/IEEE802154E.c **** }
 1151              		.loc 1 451 0
 1152 05f0 00BF     		nop
 1153 05f2 1037     		adds	r7, r7, #16
 1154              		.cfi_def_cfa_offset 8
 1155 05f4 BD46     		mov	sp, r7
 1156              		.cfi_def_cfa_register 13
 1157              		@ sp needed
 1158 05f6 80BD     		pop	{r7, pc}
 1159              	.L72:
 1160              		.align	2
 1161              	.L71:
 1162 05f8 00000000 		.word	ieee154e_vars
 1163 05fc 00000000 		.word	ieee154e_dbg
 1164              		.cfi_endproc
 1165              	.LFE11:
 1167              		.align	1
 1168              		.global	ieee154e_endOfFrame
 1169              		.syntax unified
 1170              		.thumb
 1171              		.thumb_func
 1172              		.fpu softvfp
 1174              	ieee154e_endOfFrame:
 1175              	.LFB12:
 452:build\openmote-cc2538_armgcc\openstack\02a-MAClow/IEEE802154E.c **** 
 453:build\openmote-cc2538_armgcc\openstack\02a-MAClow/IEEE802154E.c **** /**
 454:build\openmote-cc2538_armgcc\openstack\02a-MAClow/IEEE802154E.c **** \brief Indicates the radio just received the last byte of a packet.
 455:build\openmote-cc2538_armgcc\openstack\02a-MAClow/IEEE802154E.c **** 
 456:build\openmote-cc2538_armgcc\openstack\02a-MAClow/IEEE802154E.c **** This function executes in ISR mode.
 457:build\openmote-cc2538_armgcc\openstack\02a-MAClow/IEEE802154E.c **** */
 458:build\openmote-cc2538_armgcc\openstack\02a-MAClow/IEEE802154E.c **** void ieee154e_endOfFrame(PORT_TIMER_WIDTH capturedTime) {
 1176              		.loc 1 458 0
 1177              		.cfi_startproc
 1178              		@ args = 0, pretend = 0, frame = 16
 1179              		@ frame_needed = 1, uses_anonymous_args = 0
 1180 0600 80B5     		push	{r7, lr}
 1181              		.cfi_def_cfa_offset 8
 1182              		.cfi_offset 7, -8
 1183              		.cfi_offset 14, -4
 1184 0602 84B0     		sub	sp, sp, #16
 1185              		.cfi_def_cfa_offset 24
 1186 0604 00AF     		add	r7, sp, #0
 1187              		.cfi_def_cfa_register 7
 1188 0606 7860     		str	r0, [r7, #4]
 459:build\openmote-cc2538_armgcc\openstack\02a-MAClow/IEEE802154E.c ****     PORT_TIMER_WIDTH referenceTime = capturedTime - ieee154e_vars.startOfSlotReference;
 1189              		.loc 1 459 0
 1190 0608 304B     		ldr	r3, .L82
 1191 060a D3F8AC31 		ldr	r3, [r3, #428]
 1192 060e 7A68     		ldr	r2, [r7, #4]
 1193 0610 D31A     		subs	r3, r2, r3
 1194 0612 FB60     		str	r3, [r7, #12]
 460:build\openmote-cc2538_armgcc\openstack\02a-MAClow/IEEE802154E.c ****     if (ieee154e_vars.isSync==FALSE) {
 1195              		.loc 1 460 0
 1196 0614 2D4B     		ldr	r3, .L82
 1197 0616 1B7C     		ldrb	r3, [r3, #16]	@ zero_extendqisi2
 1198 0618 83F00103 		eor	r3, r3, #1
 1199 061c DBB2     		uxtb	r3, r3
 1200 061e 002B     		cmp	r3, #0
 1201 0620 03D0     		beq	.L74
 461:build\openmote-cc2538_armgcc\openstack\02a-MAClow/IEEE802154E.c ****         activity_synchronize_endOfFrame(referenceTime);
 1202              		.loc 1 461 0
 1203 0622 F868     		ldr	r0, [r7, #12]
 1204 0624 FFF7FEFF 		bl	activity_synchronize_endOfFrame
 1205 0628 47E0     		b	.L75
 1206              	.L74:
 462:build\openmote-cc2538_armgcc\openstack\02a-MAClow/IEEE802154E.c ****     } else {
 463:build\openmote-cc2538_armgcc\openstack\02a-MAClow/IEEE802154E.c ****         switch (ieee154e_vars.state) {
 1207              		.loc 1 463 0
 1208 062a 284B     		ldr	r3, .L82
 1209 062c 93F86431 		ldrb	r3, [r3, #356]	@ zero_extendqisi2
 1210 0630 083B     		subs	r3, r3, #8
 1211 0632 102B     		cmp	r3, #16
 1212 0634 34D8     		bhi	.L76
 1213 0636 01A2     		adr	r2, .L78
 1214 0638 52F823F0 		ldr	pc, [r2, r3, lsl #2]
 1215              		.p2align 2
 1216              	.L78:
 1217 063c 81060000 		.word	.L77+1
 1218 0640 A1060000 		.word	.L76+1
 1219 0644 A1060000 		.word	.L76+1
 1220 0648 A1060000 		.word	.L76+1
 1221 064c A1060000 		.word	.L76+1
 1222 0650 89060000 		.word	.L79+1
 1223 0654 A1060000 		.word	.L76+1
 1224 0658 A1060000 		.word	.L76+1
 1225 065c A1060000 		.word	.L76+1
 1226 0660 A1060000 		.word	.L76+1
 1227 0664 A1060000 		.word	.L76+1
 1228 0668 91060000 		.word	.L80+1
 1229 066c A1060000 		.word	.L76+1
 1230 0670 A1060000 		.word	.L76+1
 1231 0674 A1060000 		.word	.L76+1
 1232 0678 A1060000 		.word	.L76+1
 1233 067c 99060000 		.word	.L81+1
 1234              		.p2align 1
 1235              	.L77:
 464:build\openmote-cc2538_armgcc\openstack\02a-MAClow/IEEE802154E.c ****             case S_TXDATA:
 465:build\openmote-cc2538_armgcc\openstack\02a-MAClow/IEEE802154E.c ****                 activity_ti5(referenceTime);
 1236              		.loc 1 465 0
 1237 0680 F868     		ldr	r0, [r7, #12]
 1238 0682 FFF7FEFF 		bl	activity_ti5
 466:build\openmote-cc2538_armgcc\openstack\02a-MAClow/IEEE802154E.c ****                 break;
 1239              		.loc 1 466 0
 1240 0686 18E0     		b	.L75
 1241              	.L79:
 467:build\openmote-cc2538_armgcc\openstack\02a-MAClow/IEEE802154E.c ****             case S_RXACK:
 468:build\openmote-cc2538_armgcc\openstack\02a-MAClow/IEEE802154E.c ****                 activity_ti9(referenceTime);
 1242              		.loc 1 468 0
 1243 0688 F868     		ldr	r0, [r7, #12]
 1244 068a FFF7FEFF 		bl	activity_ti9
 469:build\openmote-cc2538_armgcc\openstack\02a-MAClow/IEEE802154E.c ****                 break;
 1245              		.loc 1 469 0
 1246 068e 14E0     		b	.L75
 1247              	.L80:
 470:build\openmote-cc2538_armgcc\openstack\02a-MAClow/IEEE802154E.c ****             case S_RXDATA:
 471:build\openmote-cc2538_armgcc\openstack\02a-MAClow/IEEE802154E.c ****                 activity_ri5(referenceTime);
 1248              		.loc 1 471 0
 1249 0690 F868     		ldr	r0, [r7, #12]
 1250 0692 FFF7FEFF 		bl	activity_ri5
 472:build\openmote-cc2538_armgcc\openstack\02a-MAClow/IEEE802154E.c ****                 break;
 1251              		.loc 1 472 0
 1252 0696 10E0     		b	.L75
 1253              	.L81:
 473:build\openmote-cc2538_armgcc\openstack\02a-MAClow/IEEE802154E.c ****             case S_TXACK:
 474:build\openmote-cc2538_armgcc\openstack\02a-MAClow/IEEE802154E.c ****                 activity_ri9(referenceTime);
 1254              		.loc 1 474 0
 1255 0698 F868     		ldr	r0, [r7, #12]
 1256 069a FFF7FEFF 		bl	activity_ri9
 475:build\openmote-cc2538_armgcc\openstack\02a-MAClow/IEEE802154E.c ****                 break;
 1257              		.loc 1 475 0
 1258 069e 0CE0     		b	.L75
 1259              	.L76:
 476:build\openmote-cc2538_armgcc\openstack\02a-MAClow/IEEE802154E.c ****             default:
 477:build\openmote-cc2538_armgcc\openstack\02a-MAClow/IEEE802154E.c ****                 // log the error
 478:build\openmote-cc2538_armgcc\openstack\02a-MAClow/IEEE802154E.c ****                 openserial_printError(
 479:build\openmote-cc2538_armgcc\openstack\02a-MAClow/IEEE802154E.c ****                     COMPONENT_IEEE802154E,ERR_WRONG_STATE_IN_ENDOFFRAME,
 480:build\openmote-cc2538_armgcc\openstack\02a-MAClow/IEEE802154E.c ****                     (errorparameter_t)ieee154e_vars.state,
 1260              		.loc 1 480 0
 1261 06a0 0A4B     		ldr	r3, .L82
 1262 06a2 93F86431 		ldrb	r3, [r3, #356]	@ zero_extendqisi2
 478:build\openmote-cc2538_armgcc\openstack\02a-MAClow/IEEE802154E.c ****                     COMPONENT_IEEE802154E,ERR_WRONG_STATE_IN_ENDOFFRAME,
 1263              		.loc 1 478 0
 1264 06a6 9AB2     		uxth	r2, r3
 481:build\openmote-cc2538_armgcc\openstack\02a-MAClow/IEEE802154E.c ****                     (errorparameter_t)ieee154e_vars.slotOffset
 1265              		.loc 1 481 0
 1266 06a8 084B     		ldr	r3, .L82
 1267 06aa DB88     		ldrh	r3, [r3, #6]
 478:build\openmote-cc2538_armgcc\openstack\02a-MAClow/IEEE802154E.c ****                     COMPONENT_IEEE802154E,ERR_WRONG_STATE_IN_ENDOFFRAME,
 1268              		.loc 1 478 0
 1269 06ac 2221     		movs	r1, #34
 1270 06ae 0920     		movs	r0, #9
 1271 06b0 FFF7FEFF 		bl	openserial_printError
 482:build\openmote-cc2538_armgcc\openstack\02a-MAClow/IEEE802154E.c ****                 );
 483:build\openmote-cc2538_armgcc\openstack\02a-MAClow/IEEE802154E.c ****                 // abort
 484:build\openmote-cc2538_armgcc\openstack\02a-MAClow/IEEE802154E.c ****                 endSlot();
 1272              		.loc 1 484 0
 1273 06b4 FFF7FEFF 		bl	endSlot
 485:build\openmote-cc2538_armgcc\openstack\02a-MAClow/IEEE802154E.c ****                 break;
 1274              		.loc 1 485 0
 1275 06b8 00BF     		nop
 1276              	.L75:
 486:build\openmote-cc2538_armgcc\openstack\02a-MAClow/IEEE802154E.c ****         }
 487:build\openmote-cc2538_armgcc\openstack\02a-MAClow/IEEE802154E.c ****     }
 488:build\openmote-cc2538_armgcc\openstack\02a-MAClow/IEEE802154E.c ****     ieee154e_dbg.num_endOfFrame++;
 1277              		.loc 1 488 0
 1278 06ba 054B     		ldr	r3, .L82+4
 1279 06bc DB68     		ldr	r3, [r3, #12]
 1280 06be 0133     		adds	r3, r3, #1
 1281 06c0 034A     		ldr	r2, .L82+4
 1282 06c2 D360     		str	r3, [r2, #12]
 489:build\openmote-cc2538_armgcc\openstack\02a-MAClow/IEEE802154E.c **** }
 1283              		.loc 1 489 0
 1284 06c4 00BF     		nop
 1285 06c6 1037     		adds	r7, r7, #16
 1286              		.cfi_def_cfa_offset 8
 1287 06c8 BD46     		mov	sp, r7
 1288              		.cfi_def_cfa_register 13
 1289              		@ sp needed
 1290 06ca 80BD     		pop	{r7, pc}
 1291              	.L83:
 1292              		.align	2
 1293              	.L82:
 1294 06cc 00000000 		.word	ieee154e_vars
 1295 06d0 00000000 		.word	ieee154e_dbg
 1296              		.cfi_endproc
 1297              	.LFE12:
 1299              		.align	1
 1300              		.global	debugPrint_asn
 1301              		.syntax unified
 1302              		.thumb
 1303              		.thumb_func
 1304              		.fpu softvfp
 1306              	debugPrint_asn:
 1307              	.LFB13:
 490:build\openmote-cc2538_armgcc\openstack\02a-MAClow/IEEE802154E.c **** 
 491:build\openmote-cc2538_armgcc\openstack\02a-MAClow/IEEE802154E.c **** //======= misc
 492:build\openmote-cc2538_armgcc\openstack\02a-MAClow/IEEE802154E.c **** 
 493:build\openmote-cc2538_armgcc\openstack\02a-MAClow/IEEE802154E.c **** /**
 494:build\openmote-cc2538_armgcc\openstack\02a-MAClow/IEEE802154E.c **** \brief Trigger this module to print status information, over serial.
 495:build\openmote-cc2538_armgcc\openstack\02a-MAClow/IEEE802154E.c **** 
 496:build\openmote-cc2538_armgcc\openstack\02a-MAClow/IEEE802154E.c **** debugPrint_* functions are used by the openserial module to continuously print
 497:build\openmote-cc2538_armgcc\openstack\02a-MAClow/IEEE802154E.c **** status information about several modules in the OpenWSN stack.
 498:build\openmote-cc2538_armgcc\openstack\02a-MAClow/IEEE802154E.c **** 
 499:build\openmote-cc2538_armgcc\openstack\02a-MAClow/IEEE802154E.c **** \returns TRUE if this function printed something, FALSE otherwise.
 500:build\openmote-cc2538_armgcc\openstack\02a-MAClow/IEEE802154E.c **** */
 501:build\openmote-cc2538_armgcc\openstack\02a-MAClow/IEEE802154E.c **** bool debugPrint_asn(void) {
 1308              		.loc 1 501 0
 1309              		.cfi_startproc
 1310              		@ args = 0, pretend = 0, frame = 8
 1311              		@ frame_needed = 1, uses_anonymous_args = 0
 1312 06d4 80B5     		push	{r7, lr}
 1313              		.cfi_def_cfa_offset 8
 1314              		.cfi_offset 7, -8
 1315              		.cfi_offset 14, -4
 1316 06d6 82B0     		sub	sp, sp, #8
 1317              		.cfi_def_cfa_offset 16
 1318 06d8 00AF     		add	r7, sp, #0
 1319              		.cfi_def_cfa_register 7
 502:build\openmote-cc2538_armgcc\openstack\02a-MAClow/IEEE802154E.c ****     asn_t output;
 503:build\openmote-cc2538_armgcc\openstack\02a-MAClow/IEEE802154E.c ****     output.byte4         =  ieee154e_vars.asn.byte4;
 1320              		.loc 1 503 0
 1321 06da 0D4B     		ldr	r3, .L86
 1322 06dc 1B78     		ldrb	r3, [r3]	@ zero_extendqisi2
 1323 06de 3B70     		strb	r3, [r7]
 504:build\openmote-cc2538_armgcc\openstack\02a-MAClow/IEEE802154E.c ****     output.bytes2and3    =  ieee154e_vars.asn.bytes2and3;
 1324              		.loc 1 504 0
 1325 06e0 0B4B     		ldr	r3, .L86
 1326 06e2 B3F80130 		ldrh	r3, [r3, #1]	@ unaligned
 1327 06e6 9BB2     		uxth	r3, r3
 1328 06e8 A7F80130 		strh	r3, [r7, #1]	@ unaligned
 505:build\openmote-cc2538_armgcc\openstack\02a-MAClow/IEEE802154E.c ****     output.bytes0and1    =  ieee154e_vars.asn.bytes0and1;
 1329              		.loc 1 505 0
 1330 06ec 084B     		ldr	r3, .L86
 1331 06ee B3F80330 		ldrh	r3, [r3, #3]	@ unaligned
 1332 06f2 9BB2     		uxth	r3, r3
 1333 06f4 A7F80330 		strh	r3, [r7, #3]	@ unaligned
 506:build\openmote-cc2538_armgcc\openstack\02a-MAClow/IEEE802154E.c ****     openserial_printStatus(STATUS_ASN,(uint8_t*)&output,sizeof(output));
 1334              		.loc 1 506 0
 1335 06f8 3B46     		mov	r3, r7
 1336 06fa 0522     		movs	r2, #5
 1337 06fc 1946     		mov	r1, r3
 1338 06fe 0420     		movs	r0, #4
 1339 0700 FFF7FEFF 		bl	openserial_printStatus
 507:build\openmote-cc2538_armgcc\openstack\02a-MAClow/IEEE802154E.c ****     return TRUE;
 1340              		.loc 1 507 0
 1341 0704 0123     		movs	r3, #1
 508:build\openmote-cc2538_armgcc\openstack\02a-MAClow/IEEE802154E.c **** }
 1342              		.loc 1 508 0
 1343 0706 1846     		mov	r0, r3
 1344 0708 0837     		adds	r7, r7, #8
 1345              		.cfi_def_cfa_offset 8
 1346 070a BD46     		mov	sp, r7
 1347              		.cfi_def_cfa_register 13
 1348              		@ sp needed
 1349 070c 80BD     		pop	{r7, pc}
 1350              	.L87:
 1351 070e 00BF     		.align	2
 1352              	.L86:
 1353 0710 00000000 		.word	ieee154e_vars
 1354              		.cfi_endproc
 1355              	.LFE13:
 1357              		.align	1
 1358              		.global	debugPrint_isSync
 1359              		.syntax unified
 1360              		.thumb
 1361              		.thumb_func
 1362              		.fpu softvfp
 1364              	debugPrint_isSync:
 1365              	.LFB14:
 509:build\openmote-cc2538_armgcc\openstack\02a-MAClow/IEEE802154E.c **** 
 510:build\openmote-cc2538_armgcc\openstack\02a-MAClow/IEEE802154E.c **** /**
 511:build\openmote-cc2538_armgcc\openstack\02a-MAClow/IEEE802154E.c **** \brief Trigger this module to print status information, over serial.
 512:build\openmote-cc2538_armgcc\openstack\02a-MAClow/IEEE802154E.c **** 
 513:build\openmote-cc2538_armgcc\openstack\02a-MAClow/IEEE802154E.c **** debugPrint_* functions are used by the openserial module to continuously print
 514:build\openmote-cc2538_armgcc\openstack\02a-MAClow/IEEE802154E.c **** status information about several modules in the OpenWSN stack.
 515:build\openmote-cc2538_armgcc\openstack\02a-MAClow/IEEE802154E.c **** 
 516:build\openmote-cc2538_armgcc\openstack\02a-MAClow/IEEE802154E.c **** \returns TRUE if this function printed something, FALSE otherwise.
 517:build\openmote-cc2538_armgcc\openstack\02a-MAClow/IEEE802154E.c **** */
 518:build\openmote-cc2538_armgcc\openstack\02a-MAClow/IEEE802154E.c **** bool debugPrint_isSync(void) {
 1366              		.loc 1 518 0
 1367              		.cfi_startproc
 1368              		@ args = 0, pretend = 0, frame = 8
 1369              		@ frame_needed = 1, uses_anonymous_args = 0
 1370 0714 80B5     		push	{r7, lr}
 1371              		.cfi_def_cfa_offset 8
 1372              		.cfi_offset 7, -8
 1373              		.cfi_offset 14, -4
 1374 0716 82B0     		sub	sp, sp, #8
 1375              		.cfi_def_cfa_offset 16
 1376 0718 00AF     		add	r7, sp, #0
 1377              		.cfi_def_cfa_register 7
 519:build\openmote-cc2538_armgcc\openstack\02a-MAClow/IEEE802154E.c ****     uint8_t output=0;
 1378              		.loc 1 519 0
 1379 071a 0023     		movs	r3, #0
 1380 071c FB71     		strb	r3, [r7, #7]
 520:build\openmote-cc2538_armgcc\openstack\02a-MAClow/IEEE802154E.c ****     output = ieee154e_vars.isSync;
 1381              		.loc 1 520 0
 1382 071e 074B     		ldr	r3, .L90
 1383 0720 1B7C     		ldrb	r3, [r3, #16]	@ zero_extendqisi2
 1384 0722 FB71     		strb	r3, [r7, #7]
 521:build\openmote-cc2538_armgcc\openstack\02a-MAClow/IEEE802154E.c ****     openserial_printStatus(STATUS_ISSYNC,(uint8_t*)&output,sizeof(uint8_t));
 1385              		.loc 1 521 0
 1386 0724 FB1D     		adds	r3, r7, #7
 1387 0726 0122     		movs	r2, #1
 1388 0728 1946     		mov	r1, r3
 1389 072a 0020     		movs	r0, #0
 1390 072c FFF7FEFF 		bl	openserial_printStatus
 522:build\openmote-cc2538_armgcc\openstack\02a-MAClow/IEEE802154E.c ****     return TRUE;
 1391              		.loc 1 522 0
 1392 0730 0123     		movs	r3, #1
 523:build\openmote-cc2538_armgcc\openstack\02a-MAClow/IEEE802154E.c **** }
 1393              		.loc 1 523 0
 1394 0732 1846     		mov	r0, r3
 1395 0734 0837     		adds	r7, r7, #8
 1396              		.cfi_def_cfa_offset 8
 1397 0736 BD46     		mov	sp, r7
 1398              		.cfi_def_cfa_register 13
 1399              		@ sp needed
 1400 0738 80BD     		pop	{r7, pc}
 1401              	.L91:
 1402 073a 00BF     		.align	2
 1403              	.L90:
 1404 073c 00000000 		.word	ieee154e_vars
 1405              		.cfi_endproc
 1406              	.LFE14:
 1408              		.align	1
 1409              		.global	debugPrint_macStats
 1410              		.syntax unified
 1411              		.thumb
 1412              		.thumb_func
 1413              		.fpu softvfp
 1415              	debugPrint_macStats:
 1416              	.LFB15:
 524:build\openmote-cc2538_armgcc\openstack\02a-MAClow/IEEE802154E.c **** 
 525:build\openmote-cc2538_armgcc\openstack\02a-MAClow/IEEE802154E.c **** /**
 526:build\openmote-cc2538_armgcc\openstack\02a-MAClow/IEEE802154E.c **** \brief Trigger this module to print status information, over serial.
 527:build\openmote-cc2538_armgcc\openstack\02a-MAClow/IEEE802154E.c **** 
 528:build\openmote-cc2538_armgcc\openstack\02a-MAClow/IEEE802154E.c **** debugPrint_* functions are used by the openserial module to continuously print
 529:build\openmote-cc2538_armgcc\openstack\02a-MAClow/IEEE802154E.c **** status information about several modules in the OpenWSN stack.
 530:build\openmote-cc2538_armgcc\openstack\02a-MAClow/IEEE802154E.c **** 
 531:build\openmote-cc2538_armgcc\openstack\02a-MAClow/IEEE802154E.c **** \returns TRUE if this function printed something, FALSE otherwise.
 532:build\openmote-cc2538_armgcc\openstack\02a-MAClow/IEEE802154E.c **** */
 533:build\openmote-cc2538_armgcc\openstack\02a-MAClow/IEEE802154E.c **** bool debugPrint_macStats(void) {
 1417              		.loc 1 533 0
 1418              		.cfi_startproc
 1419              		@ args = 0, pretend = 0, frame = 0
 1420              		@ frame_needed = 1, uses_anonymous_args = 0
 1421 0740 80B5     		push	{r7, lr}
 1422              		.cfi_def_cfa_offset 8
 1423              		.cfi_offset 7, -8
 1424              		.cfi_offset 14, -4
 1425 0742 00AF     		add	r7, sp, #0
 1426              		.cfi_def_cfa_register 7
 534:build\openmote-cc2538_armgcc\openstack\02a-MAClow/IEEE802154E.c ****     // send current stats over serial
 535:build\openmote-cc2538_armgcc\openstack\02a-MAClow/IEEE802154E.c ****     openserial_printStatus(STATUS_MACSTATS,(uint8_t*)&ieee154e_stats,sizeof(ieee154e_stats_t));
 1427              		.loc 1 535 0
 1428 0744 0F22     		movs	r2, #15
 1429 0746 0349     		ldr	r1, .L94
 1430 0748 0520     		movs	r0, #5
 1431 074a FFF7FEFF 		bl	openserial_printStatus
 536:build\openmote-cc2538_armgcc\openstack\02a-MAClow/IEEE802154E.c ****     return TRUE;
 1432              		.loc 1 536 0
 1433 074e 0123     		movs	r3, #1
 537:build\openmote-cc2538_armgcc\openstack\02a-MAClow/IEEE802154E.c **** }
 1434              		.loc 1 537 0
 1435 0750 1846     		mov	r0, r3
 1436 0752 80BD     		pop	{r7, pc}
 1437              	.L95:
 1438              		.align	2
 1439              	.L94:
 1440 0754 00000000 		.word	ieee154e_stats
 1441              		.cfi_endproc
 1442              	.LFE15:
 1444              		.align	1
 1445              		.global	activity_synchronize_newSlot
 1446              		.syntax unified
 1447              		.thumb
 1448              		.thumb_func
 1449              		.fpu softvfp
 1451              	activity_synchronize_newSlot:
 1452              	.LFB16:
 538:build\openmote-cc2538_armgcc\openstack\02a-MAClow/IEEE802154E.c **** 
 539:build\openmote-cc2538_armgcc\openstack\02a-MAClow/IEEE802154E.c **** //=========================== private =========================================
 540:build\openmote-cc2538_armgcc\openstack\02a-MAClow/IEEE802154E.c **** 
 541:build\openmote-cc2538_armgcc\openstack\02a-MAClow/IEEE802154E.c **** //======= SYNCHRONIZING
 542:build\openmote-cc2538_armgcc\openstack\02a-MAClow/IEEE802154E.c **** 
 543:build\openmote-cc2538_armgcc\openstack\02a-MAClow/IEEE802154E.c **** port_INLINE void activity_synchronize_newSlot(void) {
 1453              		.loc 1 543 0
 1454              		.cfi_startproc
 1455              		@ args = 0, pretend = 0, frame = 0
 1456              		@ frame_needed = 1, uses_anonymous_args = 0
 1457 0758 80B5     		push	{r7, lr}
 1458              		.cfi_def_cfa_offset 8
 1459              		.cfi_offset 7, -8
 1460              		.cfi_offset 14, -4
 1461 075a 82B0     		sub	sp, sp, #8
 1462              		.cfi_def_cfa_offset 16
 1463 075c 02AF     		add	r7, sp, #8
 1464              		.cfi_def_cfa 7, 8
 544:build\openmote-cc2538_armgcc\openstack\02a-MAClow/IEEE802154E.c **** 
 545:build\openmote-cc2538_armgcc\openstack\02a-MAClow/IEEE802154E.c ****     // I'm in the middle of receiving a packet
 546:build\openmote-cc2538_armgcc\openstack\02a-MAClow/IEEE802154E.c ****     if (ieee154e_vars.state==S_SYNCRX) {
 1465              		.loc 1 546 0
 1466 075e 504B     		ldr	r3, .L104
 1467 0760 93F86431 		ldrb	r3, [r3, #356]	@ zero_extendqisi2
 1468 0764 022B     		cmp	r3, #2
 1469 0766 00F09880 		beq	.L103
 547:build\openmote-cc2538_armgcc\openstack\02a-MAClow/IEEE802154E.c ****         return;
 548:build\openmote-cc2538_armgcc\openstack\02a-MAClow/IEEE802154E.c ****     }
 549:build\openmote-cc2538_armgcc\openstack\02a-MAClow/IEEE802154E.c **** 
 550:build\openmote-cc2538_armgcc\openstack\02a-MAClow/IEEE802154E.c ****     ieee154e_vars.radioOnInit=sctimer_readCounter();
 1470              		.loc 1 550 0
 1471 076a FFF7FEFF 		bl	sctimer_readCounter
 1472 076e 0246     		mov	r2, r0
 1473 0770 4B4B     		ldr	r3, .L104
 1474 0772 C3F89821 		str	r2, [r3, #408]
 551:build\openmote-cc2538_armgcc\openstack\02a-MAClow/IEEE802154E.c ****     ieee154e_vars.radioOnThisSlot=TRUE;
 1475              		.loc 1 551 0
 1476 0776 4A4B     		ldr	r3, .L104
 1477 0778 0122     		movs	r2, #1
 1478 077a 83F8A021 		strb	r2, [r3, #416]
 552:build\openmote-cc2538_armgcc\openstack\02a-MAClow/IEEE802154E.c **** 
 553:build\openmote-cc2538_armgcc\openstack\02a-MAClow/IEEE802154E.c ****     // if this is the first time I call this function while not synchronized,
 554:build\openmote-cc2538_armgcc\openstack\02a-MAClow/IEEE802154E.c ****     // switch on the radio in Rx mode
 555:build\openmote-cc2538_armgcc\openstack\02a-MAClow/IEEE802154E.c ****     if (ieee154e_vars.state!=S_SYNCLISTEN) {
 1479              		.loc 1 555 0
 1480 077e 484B     		ldr	r3, .L104
 1481 0780 93F86431 		ldrb	r3, [r3, #356]	@ zero_extendqisi2
 1482 0784 012B     		cmp	r3, #1
 1483 0786 13D0     		beq	.L99
 556:build\openmote-cc2538_armgcc\openstack\02a-MAClow/IEEE802154E.c ****         // change state
 557:build\openmote-cc2538_armgcc\openstack\02a-MAClow/IEEE802154E.c ****         changeState(S_SYNCLISTEN);
 1484              		.loc 1 557 0
 1485 0788 0120     		movs	r0, #1
 1486 078a FFF7FEFF 		bl	changeState
 558:build\openmote-cc2538_armgcc\openstack\02a-MAClow/IEEE802154E.c **** 
 559:build\openmote-cc2538_armgcc\openstack\02a-MAClow/IEEE802154E.c ****         // turn off the radio (in case it wasn't yet)
 560:build\openmote-cc2538_armgcc\openstack\02a-MAClow/IEEE802154E.c ****         radio_rfOff();
 1487              		.loc 1 560 0
 1488 078e FFF7FEFF 		bl	radio_rfOff
 561:build\openmote-cc2538_armgcc\openstack\02a-MAClow/IEEE802154E.c **** 
 562:build\openmote-cc2538_armgcc\openstack\02a-MAClow/IEEE802154E.c ****         // update record of current channel
 563:build\openmote-cc2538_armgcc\openstack\02a-MAClow/IEEE802154E.c ****         ieee154e_vars.freq =  15; // (openrandom_get16b()&0x0F) + 11;
 1489              		.loc 1 563 0
 1490 0792 434B     		ldr	r3, .L104
 1491 0794 0F22     		movs	r2, #15
 1492 0796 83F88021 		strb	r2, [r3, #384]
 564:build\openmote-cc2538_armgcc\openstack\02a-MAClow/IEEE802154E.c **** 
 565:build\openmote-cc2538_armgcc\openstack\02a-MAClow/IEEE802154E.c ****         // configure the radio to listen to the frequency
 566:build\openmote-cc2538_armgcc\openstack\02a-MAClow/IEEE802154E.c ****         radio_setFrequency(ieee154e_vars.freq);
 1493              		.loc 1 566 0
 1494 079a 414B     		ldr	r3, .L104
 1495 079c 93F88031 		ldrb	r3, [r3, #384]	@ zero_extendqisi2
 1496 07a0 1846     		mov	r0, r3
 1497 07a2 FFF7FEFF 		bl	radio_setFrequency
 567:build\openmote-cc2538_armgcc\openstack\02a-MAClow/IEEE802154E.c **** 
 568:build\openmote-cc2538_armgcc\openstack\02a-MAClow/IEEE802154E.c **** #ifdef SLOT_FSM_IMPLEMENTATION_MULTIPLE_TIMER_INTERRUPT
 569:build\openmote-cc2538_armgcc\openstack\02a-MAClow/IEEE802154E.c ****         sctimer_setCapture(ACTION_RX_SFD_DONE);
 570:build\openmote-cc2538_armgcc\openstack\02a-MAClow/IEEE802154E.c ****         sctimer_setCapture(ACTION_RX_DONE);
 571:build\openmote-cc2538_armgcc\openstack\02a-MAClow/IEEE802154E.c **** #endif
 572:build\openmote-cc2538_armgcc\openstack\02a-MAClow/IEEE802154E.c **** 
 573:build\openmote-cc2538_armgcc\openstack\02a-MAClow/IEEE802154E.c ****         // switch on the radio in Rx mode.
 574:build\openmote-cc2538_armgcc\openstack\02a-MAClow/IEEE802154E.c ****         radio_rxEnable();
 1498              		.loc 1 574 0
 1499 07a6 FFF7FEFF 		bl	radio_rxEnable
 575:build\openmote-cc2538_armgcc\openstack\02a-MAClow/IEEE802154E.c ****         radio_rxNow();
 1500              		.loc 1 575 0
 1501 07aa FFF7FEFF 		bl	radio_rxNow
 1502 07ae 33E0     		b	.L100
 1503              	.L99:
 576:build\openmote-cc2538_armgcc\openstack\02a-MAClow/IEEE802154E.c ****     } else {
 577:build\openmote-cc2538_armgcc\openstack\02a-MAClow/IEEE802154E.c ****         // I'm listening last slot
 578:build\openmote-cc2538_armgcc\openstack\02a-MAClow/IEEE802154E.c ****         ieee154e_stats.numTicsOn    += ieee154e_vars.slotDuration;
 1504              		.loc 1 578 0
 1505 07b0 3C4B     		ldr	r3, .L104+4
 1506 07b2 D3F80730 		ldr	r3, [r3, #7]	@ unaligned
 1507 07b6 3A4A     		ldr	r2, .L104
 1508 07b8 B2F8A621 		ldrh	r2, [r2, #422]
 1509 07bc 1344     		add	r3, r3, r2
 1510 07be 394A     		ldr	r2, .L104+4
 1511 07c0 C2F80730 		str	r3, [r2, #7]	@ unaligned
 579:build\openmote-cc2538_armgcc\openstack\02a-MAClow/IEEE802154E.c ****         ieee154e_stats.numTicsTotal += ieee154e_vars.slotDuration;
 1512              		.loc 1 579 0
 1513 07c4 374B     		ldr	r3, .L104+4
 1514 07c6 D3F80B30 		ldr	r3, [r3, #11]	@ unaligned
 1515 07ca 354A     		ldr	r2, .L104
 1516 07cc B2F8A621 		ldrh	r2, [r2, #422]
 1517 07d0 1344     		add	r3, r3, r2
 1518 07d2 344A     		ldr	r2, .L104+4
 1519 07d4 C2F80B30 		str	r3, [r2, #11]	@ unaligned
 580:build\openmote-cc2538_armgcc\openstack\02a-MAClow/IEEE802154E.c **** 
 581:build\openmote-cc2538_armgcc\openstack\02a-MAClow/IEEE802154E.c **** #ifdef SLOT_FSM_IMPLEMENTATION_MULTIPLE_TIMER_INTERRUPT
 582:build\openmote-cc2538_armgcc\openstack\02a-MAClow/IEEE802154E.c ****         sctimer_setCapture(ACTION_RX_SFD_DONE);
 583:build\openmote-cc2538_armgcc\openstack\02a-MAClow/IEEE802154E.c ****         sctimer_setCapture(ACTION_RX_DONE);
 584:build\openmote-cc2538_armgcc\openstack\02a-MAClow/IEEE802154E.c **** #endif
 585:build\openmote-cc2538_armgcc\openstack\02a-MAClow/IEEE802154E.c **** 
 586:build\openmote-cc2538_armgcc\openstack\02a-MAClow/IEEE802154E.c ****         if (ieee154e_vars.asn.bytes0and1%(NUM_CHANNELS*EB_PORTION)==0) {
 1520              		.loc 1 586 0
 1521 07d8 314B     		ldr	r3, .L104
 1522 07da B3F80330 		ldrh	r3, [r3, #3]	@ unaligned
 1523 07de 9AB2     		uxth	r2, r3
 1524 07e0 314B     		ldr	r3, .L104+8
 1525 07e2 A3FB0213 		umull	r1, r3, r3, r2
 1526 07e6 D909     		lsrs	r1, r3, #7
 1527 07e8 0B46     		mov	r3, r1
 1528 07ea 9B00     		lsls	r3, r3, #2
 1529 07ec 0B44     		add	r3, r3, r1
 1530 07ee 5B01     		lsls	r3, r3, #5
 1531 07f0 D31A     		subs	r3, r2, r3
 1532 07f2 9BB2     		uxth	r3, r3
 1533 07f4 002B     		cmp	r3, #0
 1534 07f6 0BD1     		bne	.L101
 587:build\openmote-cc2538_armgcc\openstack\02a-MAClow/IEEE802154E.c ****             // turn off the radio (in case it wasn't yet)
 588:build\openmote-cc2538_armgcc\openstack\02a-MAClow/IEEE802154E.c ****             radio_rfOff();
 1535              		.loc 1 588 0
 1536 07f8 FFF7FEFF 		bl	radio_rfOff
 589:build\openmote-cc2538_armgcc\openstack\02a-MAClow/IEEE802154E.c **** 
 590:build\openmote-cc2538_armgcc\openstack\02a-MAClow/IEEE802154E.c ****             // update record of current channel
 591:build\openmote-cc2538_armgcc\openstack\02a-MAClow/IEEE802154E.c ****             ieee154e_vars.freq =  15; // (openrandom_get16b()&0x0F) + 11;
 1537              		.loc 1 591 0
 1538 07fc 284B     		ldr	r3, .L104
 1539 07fe 0F22     		movs	r2, #15
 1540 0800 83F88021 		strb	r2, [r3, #384]
 592:build\openmote-cc2538_armgcc\openstack\02a-MAClow/IEEE802154E.c **** 
 593:build\openmote-cc2538_armgcc\openstack\02a-MAClow/IEEE802154E.c ****             // configure the radio to listen to the frequency
 594:build\openmote-cc2538_armgcc\openstack\02a-MAClow/IEEE802154E.c ****             radio_setFrequency(ieee154e_vars.freq);
 1541              		.loc 1 594 0
 1542 0804 264B     		ldr	r3, .L104
 1543 0806 93F88031 		ldrb	r3, [r3, #384]	@ zero_extendqisi2
 1544 080a 1846     		mov	r0, r3
 1545 080c FFF7FEFF 		bl	radio_setFrequency
 1546              	.L101:
 595:build\openmote-cc2538_armgcc\openstack\02a-MAClow/IEEE802154E.c ****         }
 596:build\openmote-cc2538_armgcc\openstack\02a-MAClow/IEEE802154E.c **** 
 597:build\openmote-cc2538_armgcc\openstack\02a-MAClow/IEEE802154E.c ****         // switch on the radio in Rx mode.
 598:build\openmote-cc2538_armgcc\openstack\02a-MAClow/IEEE802154E.c ****         radio_rxEnable();
 1547              		.loc 1 598 0
 1548 0810 FFF7FEFF 		bl	radio_rxEnable
 599:build\openmote-cc2538_armgcc\openstack\02a-MAClow/IEEE802154E.c ****         radio_rxNow();
 1549              		.loc 1 599 0
 1550 0814 FFF7FEFF 		bl	radio_rxNow
 1551              	.L100:
 600:build\openmote-cc2538_armgcc\openstack\02a-MAClow/IEEE802154E.c ****     }
 601:build\openmote-cc2538_armgcc\openstack\02a-MAClow/IEEE802154E.c **** 
 602:build\openmote-cc2538_armgcc\openstack\02a-MAClow/IEEE802154E.c ****     // if I'm already in S_SYNCLISTEN, while not synchronized,
 603:build\openmote-cc2538_armgcc\openstack\02a-MAClow/IEEE802154E.c ****     // but the synchronizing channel has been changed,
 604:build\openmote-cc2538_armgcc\openstack\02a-MAClow/IEEE802154E.c ****     // change the synchronizing channel
 605:build\openmote-cc2538_armgcc\openstack\02a-MAClow/IEEE802154E.c ****     if ((ieee154e_vars.state==S_SYNCLISTEN) && (ieee154e_vars.singleChannelChanged == TRUE)) {
 1552              		.loc 1 605 0
 1553 0818 214B     		ldr	r3, .L104
 1554 081a 93F86431 		ldrb	r3, [r3, #356]	@ zero_extendqisi2
 1555 081e 012B     		cmp	r3, #1
 1556 0820 1FD1     		bne	.L102
 1557              		.loc 1 605 0 is_stmt 0 discriminator 1
 1558 0822 1F4B     		ldr	r3, .L104
 1559 0824 93F88331 		ldrb	r3, [r3, #387]	@ zero_extendqisi2
 1560 0828 002B     		cmp	r3, #0
 1561 082a 1AD0     		beq	.L102
 606:build\openmote-cc2538_armgcc\openstack\02a-MAClow/IEEE802154E.c ****         // turn off the radio (in case it wasn't yet)
 607:build\openmote-cc2538_armgcc\openstack\02a-MAClow/IEEE802154E.c ****         radio_rfOff();
 1562              		.loc 1 607 0 is_stmt 1
 1563 082c FFF7FEFF 		bl	radio_rfOff
 608:build\openmote-cc2538_armgcc\openstack\02a-MAClow/IEEE802154E.c **** 
 609:build\openmote-cc2538_armgcc\openstack\02a-MAClow/IEEE802154E.c ****         // update record of current channel
 610:build\openmote-cc2538_armgcc\openstack\02a-MAClow/IEEE802154E.c ****         ieee154e_vars.freq = calculateFrequency(ieee154e_vars.singleChannel);
 1564              		.loc 1 610 0
 1565 0830 1B4B     		ldr	r3, .L104
 1566 0832 93F88231 		ldrb	r3, [r3, #386]	@ zero_extendqisi2
 1567 0836 1846     		mov	r0, r3
 1568 0838 FFF7FEFF 		bl	calculateFrequency
 1569 083c 0346     		mov	r3, r0
 1570 083e 1A46     		mov	r2, r3
 1571 0840 174B     		ldr	r3, .L104
 1572 0842 83F88021 		strb	r2, [r3, #384]
 611:build\openmote-cc2538_armgcc\openstack\02a-MAClow/IEEE802154E.c **** 
 612:build\openmote-cc2538_armgcc\openstack\02a-MAClow/IEEE802154E.c ****         // configure the radio to listen to the default synchronizing channel
 613:build\openmote-cc2538_armgcc\openstack\02a-MAClow/IEEE802154E.c ****         radio_setFrequency(ieee154e_vars.freq);
 1573              		.loc 1 613 0
 1574 0846 164B     		ldr	r3, .L104
 1575 0848 93F88031 		ldrb	r3, [r3, #384]	@ zero_extendqisi2
 1576 084c 1846     		mov	r0, r3
 1577 084e FFF7FEFF 		bl	radio_setFrequency
 614:build\openmote-cc2538_armgcc\openstack\02a-MAClow/IEEE802154E.c **** 
 615:build\openmote-cc2538_armgcc\openstack\02a-MAClow/IEEE802154E.c **** #ifdef SLOT_FSM_IMPLEMENTATION_MULTIPLE_TIMER_INTERRUPT
 616:build\openmote-cc2538_armgcc\openstack\02a-MAClow/IEEE802154E.c ****         sctimer_setCapture(ACTION_RX_SFD_DONE);
 617:build\openmote-cc2538_armgcc\openstack\02a-MAClow/IEEE802154E.c ****         sctimer_setCapture(ACTION_RX_DONE);
 618:build\openmote-cc2538_armgcc\openstack\02a-MAClow/IEEE802154E.c **** #endif
 619:build\openmote-cc2538_armgcc\openstack\02a-MAClow/IEEE802154E.c **** 
 620:build\openmote-cc2538_armgcc\openstack\02a-MAClow/IEEE802154E.c ****         // switch on the radio in Rx mode.
 621:build\openmote-cc2538_armgcc\openstack\02a-MAClow/IEEE802154E.c ****         radio_rxEnable();
 1578              		.loc 1 621 0
 1579 0852 FFF7FEFF 		bl	radio_rxEnable
 622:build\openmote-cc2538_armgcc\openstack\02a-MAClow/IEEE802154E.c ****         radio_rxNow();
 1580              		.loc 1 622 0
 1581 0856 FFF7FEFF 		bl	radio_rxNow
 623:build\openmote-cc2538_armgcc\openstack\02a-MAClow/IEEE802154E.c ****         ieee154e_vars.singleChannelChanged = FALSE;
 1582              		.loc 1 623 0
 1583 085a 114B     		ldr	r3, .L104
 1584 085c 0022     		movs	r2, #0
 1585 085e 83F88321 		strb	r2, [r3, #387]
 1586              	.L102:
 624:build\openmote-cc2538_armgcc\openstack\02a-MAClow/IEEE802154E.c ****     }
 625:build\openmote-cc2538_armgcc\openstack\02a-MAClow/IEEE802154E.c **** 
 626:build\openmote-cc2538_armgcc\openstack\02a-MAClow/IEEE802154E.c ****     // increment dummy ASN to trigger debugprint every now and then
 627:build\openmote-cc2538_armgcc\openstack\02a-MAClow/IEEE802154E.c ****     ieee154e_vars.asn.bytes0and1++;
 1587              		.loc 1 627 0
 1588 0862 0F4B     		ldr	r3, .L104
 1589 0864 B3F80330 		ldrh	r3, [r3, #3]	@ unaligned
 1590 0868 9BB2     		uxth	r3, r3
 1591 086a 0133     		adds	r3, r3, #1
 1592 086c 9AB2     		uxth	r2, r3
 1593 086e 0C4B     		ldr	r3, .L104
 1594 0870 A3F80320 		strh	r2, [r3, #3]	@ unaligned
 628:build\openmote-cc2538_armgcc\openstack\02a-MAClow/IEEE802154E.c **** 
 629:build\openmote-cc2538_armgcc\openstack\02a-MAClow/IEEE802154E.c ****     opentimers_scheduleAbsolute(
 1595              		.loc 1 629 0
 1596 0874 0A4B     		ldr	r3, .L104
 1597 0876 93F8B001 		ldrb	r0, [r3, #432]	@ zero_extendqisi2
 630:build\openmote-cc2538_armgcc\openstack\02a-MAClow/IEEE802154E.c ****         ieee154e_vars.serialInhibitTimerId,     // timerId
 631:build\openmote-cc2538_armgcc\openstack\02a-MAClow/IEEE802154E.c ****         DURATION_si,                            // duration
 1598              		.loc 1 631 0
 1599 087a 094B     		ldr	r3, .L104
 1600 087c B3F8A631 		ldrh	r3, [r3, #422]
 1601 0880 203B     		subs	r3, r3, #32
 629:build\openmote-cc2538_armgcc\openstack\02a-MAClow/IEEE802154E.c ****         ieee154e_vars.serialInhibitTimerId,     // timerId
 1602              		.loc 1 629 0
 1603 0882 1946     		mov	r1, r3
 1604 0884 064B     		ldr	r3, .L104
 1605 0886 D3F8AC21 		ldr	r2, [r3, #428]
 1606 088a 084B     		ldr	r3, .L104+12
 1607 088c 0093     		str	r3, [sp]
 1608 088e 0123     		movs	r3, #1
 1609 0890 FFF7FEFF 		bl	opentimers_scheduleAbsolute
 632:build\openmote-cc2538_armgcc\openstack\02a-MAClow/IEEE802154E.c ****         ieee154e_vars.startOfSlotReference,     // reference
 633:build\openmote-cc2538_armgcc\openstack\02a-MAClow/IEEE802154E.c ****         TIME_TICS,                              // timetype
 634:build\openmote-cc2538_armgcc\openstack\02a-MAClow/IEEE802154E.c ****         isr_ieee154e_inhibitStart               // callback
 635:build\openmote-cc2538_armgcc\openstack\02a-MAClow/IEEE802154E.c ****     );
 636:build\openmote-cc2538_armgcc\openstack\02a-MAClow/IEEE802154E.c **** 
 637:build\openmote-cc2538_armgcc\openstack\02a-MAClow/IEEE802154E.c ****     openserial_inhibitStop();
 1610              		.loc 1 637 0
 1611 0894 FFF7FEFF 		bl	openserial_inhibitStop
 1612 0898 00E0     		b	.L96
 1613              	.L103:
 547:build\openmote-cc2538_armgcc\openstack\02a-MAClow/IEEE802154E.c ****     }
 1614              		.loc 1 547 0
 1615 089a 00BF     		nop
 1616              	.L96:
 638:build\openmote-cc2538_armgcc\openstack\02a-MAClow/IEEE802154E.c **** }
 1617              		.loc 1 638 0
 1618 089c BD46     		mov	sp, r7
 1619              		.cfi_def_cfa_register 13
 1620              		@ sp needed
 1621 089e 80BD     		pop	{r7, pc}
 1622              	.L105:
 1623              		.align	2
 1624              	.L104:
 1625 08a0 00000000 		.word	ieee154e_vars
 1626 08a4 00000000 		.word	ieee154e_stats
 1627 08a8 CDCCCCCC 		.word	-858993459
 1628 08ac 00000000 		.word	isr_ieee154e_inhibitStart
 1629              		.cfi_endproc
 1630              	.LFE16:
 1632              		.align	1
 1633              		.global	activity_synchronize_startOfFrame
 1634              		.syntax unified
 1635              		.thumb
 1636              		.thumb_func
 1637              		.fpu softvfp
 1639              	activity_synchronize_startOfFrame:
 1640              	.LFB17:
 639:build\openmote-cc2538_armgcc\openstack\02a-MAClow/IEEE802154E.c **** 
 640:build\openmote-cc2538_armgcc\openstack\02a-MAClow/IEEE802154E.c **** port_INLINE void activity_synchronize_startOfFrame(PORT_TIMER_WIDTH capturedTime) {
 1641              		.loc 1 640 0
 1642              		.cfi_startproc
 1643              		@ args = 0, pretend = 0, frame = 8
 1644              		@ frame_needed = 1, uses_anonymous_args = 0
 1645 08b0 80B5     		push	{r7, lr}
 1646              		.cfi_def_cfa_offset 8
 1647              		.cfi_offset 7, -8
 1648              		.cfi_offset 14, -4
 1649 08b2 82B0     		sub	sp, sp, #8
 1650              		.cfi_def_cfa_offset 16
 1651 08b4 00AF     		add	r7, sp, #0
 1652              		.cfi_def_cfa_register 7
 1653 08b6 7860     		str	r0, [r7, #4]
 641:build\openmote-cc2538_armgcc\openstack\02a-MAClow/IEEE802154E.c **** 
 642:build\openmote-cc2538_armgcc\openstack\02a-MAClow/IEEE802154E.c ****     // don't care about packet if I'm not listening
 643:build\openmote-cc2538_armgcc\openstack\02a-MAClow/IEEE802154E.c ****     if (ieee154e_vars.state!=S_SYNCLISTEN) {
 1654              		.loc 1 643 0
 1655 08b8 0B4B     		ldr	r3, .L110
 1656 08ba 93F86431 		ldrb	r3, [r3, #356]	@ zero_extendqisi2
 1657 08be 012B     		cmp	r3, #1
 1658 08c0 0DD1     		bne	.L109
 644:build\openmote-cc2538_armgcc\openstack\02a-MAClow/IEEE802154E.c ****         return;
 645:build\openmote-cc2538_armgcc\openstack\02a-MAClow/IEEE802154E.c ****     }
 646:build\openmote-cc2538_armgcc\openstack\02a-MAClow/IEEE802154E.c **** 
 647:build\openmote-cc2538_armgcc\openstack\02a-MAClow/IEEE802154E.c ****     // inhibit serial activity
 648:build\openmote-cc2538_armgcc\openstack\02a-MAClow/IEEE802154E.c ****     openserial_inhibitStart(); // synchronize start of frame
 1659              		.loc 1 648 0
 1660 08c2 FFF7FEFF 		bl	openserial_inhibitStart
 649:build\openmote-cc2538_armgcc\openstack\02a-MAClow/IEEE802154E.c **** 
 650:build\openmote-cc2538_armgcc\openstack\02a-MAClow/IEEE802154E.c ****     // change state
 651:build\openmote-cc2538_armgcc\openstack\02a-MAClow/IEEE802154E.c ****     changeState(S_SYNCRX);
 1661              		.loc 1 651 0
 1662 08c6 0220     		movs	r0, #2
 1663 08c8 FFF7FEFF 		bl	changeState
 652:build\openmote-cc2538_armgcc\openstack\02a-MAClow/IEEE802154E.c ****     // there is no action when the timer fired at S_SYNCRX.
 653:build\openmote-cc2538_armgcc\openstack\02a-MAClow/IEEE802154E.c ****     // hence the inhibit timer scheduled at beginning of slot won't be effected.
 654:build\openmote-cc2538_armgcc\openstack\02a-MAClow/IEEE802154E.c **** 
 655:build\openmote-cc2538_armgcc\openstack\02a-MAClow/IEEE802154E.c ****     // record the captured time
 656:build\openmote-cc2538_armgcc\openstack\02a-MAClow/IEEE802154E.c ****     ieee154e_vars.lastCapturedTime = capturedTime;
 1664              		.loc 1 656 0
 1665 08cc 064A     		ldr	r2, .L110
 1666 08ce 7B68     		ldr	r3, [r7, #4]
 1667 08d0 C2F87831 		str	r3, [r2, #376]
 657:build\openmote-cc2538_armgcc\openstack\02a-MAClow/IEEE802154E.c **** 
 658:build\openmote-cc2538_armgcc\openstack\02a-MAClow/IEEE802154E.c ****     // record the captured time (for sync)
 659:build\openmote-cc2538_armgcc\openstack\02a-MAClow/IEEE802154E.c ****     ieee154e_vars.syncCapturedTime = capturedTime;
 1668              		.loc 1 659 0
 1669 08d4 044A     		ldr	r2, .L110
 1670 08d6 7B68     		ldr	r3, [r7, #4]
 1671 08d8 C2F87C31 		str	r3, [r2, #380]
 1672 08dc 00E0     		b	.L106
 1673              	.L109:
 644:build\openmote-cc2538_armgcc\openstack\02a-MAClow/IEEE802154E.c ****     }
 1674              		.loc 1 644 0
 1675 08de 00BF     		nop
 1676              	.L106:
 660:build\openmote-cc2538_armgcc\openstack\02a-MAClow/IEEE802154E.c **** }
 1677              		.loc 1 660 0
 1678 08e0 0837     		adds	r7, r7, #8
 1679              		.cfi_def_cfa_offset 8
 1680 08e2 BD46     		mov	sp, r7
 1681              		.cfi_def_cfa_register 13
 1682              		@ sp needed
 1683 08e4 80BD     		pop	{r7, pc}
 1684              	.L111:
 1685 08e6 00BF     		.align	2
 1686              	.L110:
 1687 08e8 00000000 		.word	ieee154e_vars
 1688              		.cfi_endproc
 1689              	.LFE17:
 1691              		.align	1
 1692              		.global	activity_synchronize_endOfFrame
 1693              		.syntax unified
 1694              		.thumb
 1695              		.thumb_func
 1696              		.fpu softvfp
 1698              	activity_synchronize_endOfFrame:
 1699              	.LFB18:
 661:build\openmote-cc2538_armgcc\openstack\02a-MAClow/IEEE802154E.c **** 
 662:build\openmote-cc2538_armgcc\openstack\02a-MAClow/IEEE802154E.c **** port_INLINE void activity_synchronize_endOfFrame(PORT_TIMER_WIDTH capturedTime) {
 1700              		.loc 1 662 0
 1701              		.cfi_startproc
 1702              		@ args = 0, pretend = 0, frame = 80
 1703              		@ frame_needed = 1, uses_anonymous_args = 0
 1704 08ec B0B5     		push	{r4, r5, r7, lr}
 1705              		.cfi_def_cfa_offset 16
 1706              		.cfi_offset 4, -16
 1707              		.cfi_offset 5, -12
 1708              		.cfi_offset 7, -8
 1709              		.cfi_offset 14, -4
 1710 08ee 96B0     		sub	sp, sp, #88
 1711              		.cfi_def_cfa_offset 104
 1712 08f0 02AF     		add	r7, sp, #8
 1713              		.cfi_def_cfa 7, 96
 1714 08f2 7860     		str	r0, [r7, #4]
 663:build\openmote-cc2538_armgcc\openstack\02a-MAClow/IEEE802154E.c ****    ieee802154_header_iht ieee802514_header;
 664:build\openmote-cc2538_armgcc\openstack\02a-MAClow/IEEE802154E.c ****    uint16_t              lenIE;
 665:build\openmote-cc2538_armgcc\openstack\02a-MAClow/IEEE802154E.c **** 
 666:build\openmote-cc2538_armgcc\openstack\02a-MAClow/IEEE802154E.c ****    // check state
 667:build\openmote-cc2538_armgcc\openstack\02a-MAClow/IEEE802154E.c ****    if (ieee154e_vars.state!=S_SYNCRX) {
 1715              		.loc 1 667 0
 1716 08f4 AD4B     		ldr	r3, .L132
 1717 08f6 93F86431 		ldrb	r3, [r3, #356]	@ zero_extendqisi2
 1718 08fa 022B     		cmp	r3, #2
 1719 08fc 09D0     		beq	.L113
 668:build\openmote-cc2538_armgcc\openstack\02a-MAClow/IEEE802154E.c ****       // log the error
 669:build\openmote-cc2538_armgcc\openstack\02a-MAClow/IEEE802154E.c ****       openserial_printError(COMPONENT_IEEE802154E,ERR_WRONG_STATE_IN_ENDFRAME_SYNC,
 670:build\openmote-cc2538_armgcc\openstack\02a-MAClow/IEEE802154E.c ****                             (errorparameter_t)ieee154e_vars.state,
 1720              		.loc 1 670 0
 1721 08fe AB4B     		ldr	r3, .L132
 1722 0900 93F86431 		ldrb	r3, [r3, #356]	@ zero_extendqisi2
 669:build\openmote-cc2538_armgcc\openstack\02a-MAClow/IEEE802154E.c ****                             (errorparameter_t)ieee154e_vars.state,
 1723              		.loc 1 669 0
 1724 0904 9AB2     		uxth	r2, r3
 1725 0906 0023     		movs	r3, #0
 1726 0908 1E21     		movs	r1, #30
 1727 090a 0920     		movs	r0, #9
 1728 090c FFF7FEFF 		bl	openserial_printError
 671:build\openmote-cc2538_armgcc\openstack\02a-MAClow/IEEE802154E.c ****                             (errorparameter_t)0);
 672:build\openmote-cc2538_armgcc\openstack\02a-MAClow/IEEE802154E.c ****       // abort
 673:build\openmote-cc2538_armgcc\openstack\02a-MAClow/IEEE802154E.c ****       return;
 1729              		.loc 1 673 0
 1730 0910 48E1     		b	.L112
 1731              	.L113:
 674:build\openmote-cc2538_armgcc\openstack\02a-MAClow/IEEE802154E.c ****    }
 675:build\openmote-cc2538_armgcc\openstack\02a-MAClow/IEEE802154E.c **** 
 676:build\openmote-cc2538_armgcc\openstack\02a-MAClow/IEEE802154E.c ****    // change state
 677:build\openmote-cc2538_armgcc\openstack\02a-MAClow/IEEE802154E.c ****    changeState(S_SYNCPROC);
 1732              		.loc 1 677 0
 1733 0912 0320     		movs	r0, #3
 1734 0914 FFF7FEFF 		bl	changeState
 678:build\openmote-cc2538_armgcc\openstack\02a-MAClow/IEEE802154E.c **** 
 679:build\openmote-cc2538_armgcc\openstack\02a-MAClow/IEEE802154E.c ****    // get a buffer to put the (received) frame in
 680:build\openmote-cc2538_armgcc\openstack\02a-MAClow/IEEE802154E.c ****    ieee154e_vars.dataReceived = openqueue_getFreePacketBuffer(COMPONENT_IEEE802154E);
 1735              		.loc 1 680 0
 1736 0918 0920     		movs	r0, #9
 1737 091a FFF7FEFF 		bl	openqueue_getFreePacketBuffer
 1738 091e 0246     		mov	r2, r0
 1739 0920 A24B     		ldr	r3, .L132
 1740 0922 C3F86C21 		str	r2, [r3, #364]
 681:build\openmote-cc2538_armgcc\openstack\02a-MAClow/IEEE802154E.c ****    if (ieee154e_vars.dataReceived==NULL) {
 1741              		.loc 1 681 0
 1742 0926 A14B     		ldr	r3, .L132
 1743 0928 D3F86C31 		ldr	r3, [r3, #364]
 1744 092c 002B     		cmp	r3, #0
 1745 092e 06D1     		bne	.L115
 682:build\openmote-cc2538_armgcc\openstack\02a-MAClow/IEEE802154E.c ****       // log the error
 683:build\openmote-cc2538_armgcc\openstack\02a-MAClow/IEEE802154E.c ****       openserial_printError(COMPONENT_IEEE802154E,ERR_NO_FREE_PACKET_BUFFER,
 1746              		.loc 1 683 0
 1747 0930 0023     		movs	r3, #0
 1748 0932 0022     		movs	r2, #0
 1749 0934 2D21     		movs	r1, #45
 1750 0936 0920     		movs	r0, #9
 1751 0938 FFF7FEFF 		bl	openserial_printError
 684:build\openmote-cc2538_armgcc\openstack\02a-MAClow/IEEE802154E.c ****                             (errorparameter_t)0,
 685:build\openmote-cc2538_armgcc\openstack\02a-MAClow/IEEE802154E.c ****                             (errorparameter_t)0);
 686:build\openmote-cc2538_armgcc\openstack\02a-MAClow/IEEE802154E.c ****       // abort
 687:build\openmote-cc2538_armgcc\openstack\02a-MAClow/IEEE802154E.c ****       return;
 1752              		.loc 1 687 0
 1753 093c 32E1     		b	.L112
 1754              	.L115:
 688:build\openmote-cc2538_armgcc\openstack\02a-MAClow/IEEE802154E.c ****    }
 689:build\openmote-cc2538_armgcc\openstack\02a-MAClow/IEEE802154E.c **** 
 690:build\openmote-cc2538_armgcc\openstack\02a-MAClow/IEEE802154E.c ****    // declare ownership over that packet
 691:build\openmote-cc2538_armgcc\openstack\02a-MAClow/IEEE802154E.c ****    ieee154e_vars.dataReceived->creator = COMPONENT_IEEE802154E;
 1755              		.loc 1 691 0
 1756 093e 9B4B     		ldr	r3, .L132
 1757 0940 D3F86C31 		ldr	r3, [r3, #364]
 1758 0944 0922     		movs	r2, #9
 1759 0946 1A70     		strb	r2, [r3]
 692:build\openmote-cc2538_armgcc\openstack\02a-MAClow/IEEE802154E.c ****    ieee154e_vars.dataReceived->owner   = COMPONENT_IEEE802154E;
 1760              		.loc 1 692 0
 1761 0948 984B     		ldr	r3, .L132
 1762 094a D3F86C31 		ldr	r3, [r3, #364]
 1763 094e 0922     		movs	r2, #9
 1764 0950 5A70     		strb	r2, [r3, #1]
 693:build\openmote-cc2538_armgcc\openstack\02a-MAClow/IEEE802154E.c **** 
 694:build\openmote-cc2538_armgcc\openstack\02a-MAClow/IEEE802154E.c ****    /*
 695:build\openmote-cc2538_armgcc\openstack\02a-MAClow/IEEE802154E.c ****    The do-while loop that follows is a little parsing trick.
 696:build\openmote-cc2538_armgcc\openstack\02a-MAClow/IEEE802154E.c ****    Because it contains a while(0) condition, it gets executed only once.
 697:build\openmote-cc2538_armgcc\openstack\02a-MAClow/IEEE802154E.c ****    The behavior is:
 698:build\openmote-cc2538_armgcc\openstack\02a-MAClow/IEEE802154E.c ****    - if a break occurs inside the do{} body, the error code below the loop
 699:build\openmote-cc2538_armgcc\openstack\02a-MAClow/IEEE802154E.c ****      gets executed. This indicates something is wrong with the packet being
 700:build\openmote-cc2538_armgcc\openstack\02a-MAClow/IEEE802154E.c ****      parsed.
 701:build\openmote-cc2538_armgcc\openstack\02a-MAClow/IEEE802154E.c ****    - if a return occurs inside the do{} body, the error code below the loop
 702:build\openmote-cc2538_armgcc\openstack\02a-MAClow/IEEE802154E.c ****      does not get executed. This indicates the received packet is correct.
 703:build\openmote-cc2538_armgcc\openstack\02a-MAClow/IEEE802154E.c ****    */
 704:build\openmote-cc2538_armgcc\openstack\02a-MAClow/IEEE802154E.c ****    do { // this "loop" is only executed once
 705:build\openmote-cc2538_armgcc\openstack\02a-MAClow/IEEE802154E.c **** 
 706:build\openmote-cc2538_armgcc\openstack\02a-MAClow/IEEE802154E.c ****       // retrieve the received data frame from the radio's Rx buffer
 707:build\openmote-cc2538_armgcc\openstack\02a-MAClow/IEEE802154E.c ****       ieee154e_vars.dataReceived->payload = &(ieee154e_vars.dataReceived->packet[FIRST_FRAME_BYTE])
 1765              		.loc 1 707 0
 1766 0952 964B     		ldr	r3, .L132
 1767 0954 D3F86C21 		ldr	r2, [r3, #364]
 1768 0958 944B     		ldr	r3, .L132
 1769 095a D3F86C31 		ldr	r3, [r3, #364]
 1770 095e C932     		adds	r2, r2, #201
 1771 0960 5A60     		str	r2, [r3, #4]
 708:build\openmote-cc2538_armgcc\openstack\02a-MAClow/IEEE802154E.c ****       radio_getReceivedFrame(       ieee154e_vars.dataReceived->payload,
 1772              		.loc 1 708 0
 1773 0962 924B     		ldr	r3, .L132
 1774 0964 D3F86C31 		ldr	r3, [r3, #364]
 1775 0968 5868     		ldr	r0, [r3, #4]
 709:build\openmote-cc2538_armgcc\openstack\02a-MAClow/IEEE802154E.c ****                                    &ieee154e_vars.dataReceived->length,
 1776              		.loc 1 709 0
 1777 096a 904B     		ldr	r3, .L132
 1778 096c D3F86C31 		ldr	r3, [r3, #364]
 708:build\openmote-cc2538_armgcc\openstack\02a-MAClow/IEEE802154E.c ****       radio_getReceivedFrame(       ieee154e_vars.dataReceived->payload,
 1779              		.loc 1 708 0
 1780 0970 03F10801 		add	r1, r3, #8
 710:build\openmote-cc2538_armgcc\openstack\02a-MAClow/IEEE802154E.c ****                              sizeof(ieee154e_vars.dataReceived->packet),
 711:build\openmote-cc2538_armgcc\openstack\02a-MAClow/IEEE802154E.c ****                                    &ieee154e_vars.dataReceived->l1_rssi,
 1781              		.loc 1 711 0
 1782 0974 8D4B     		ldr	r3, .L132
 1783 0976 D3F86C31 		ldr	r3, [r3, #364]
 708:build\openmote-cc2538_armgcc\openstack\02a-MAClow/IEEE802154E.c ****                                    &ieee154e_vars.dataReceived->length,
 1784              		.loc 1 708 0
 1785 097a 03F1C504 		add	r4, r3, #197
 712:build\openmote-cc2538_armgcc\openstack\02a-MAClow/IEEE802154E.c ****                                    &ieee154e_vars.dataReceived->l1_lqi,
 1786              		.loc 1 712 0
 1787 097e 8B4B     		ldr	r3, .L132
 1788 0980 D3F86C31 		ldr	r3, [r3, #364]
 708:build\openmote-cc2538_armgcc\openstack\02a-MAClow/IEEE802154E.c ****                                    &ieee154e_vars.dataReceived->length,
 1789              		.loc 1 708 0
 1790 0984 C633     		adds	r3, r3, #198
 713:build\openmote-cc2538_armgcc\openstack\02a-MAClow/IEEE802154E.c ****                                    &ieee154e_vars.dataReceived->l1_crc);
 1791              		.loc 1 713 0
 1792 0986 894A     		ldr	r2, .L132
 1793 0988 D2F86C21 		ldr	r2, [r2, #364]
 708:build\openmote-cc2538_armgcc\openstack\02a-MAClow/IEEE802154E.c ****                                    &ieee154e_vars.dataReceived->length,
 1794              		.loc 1 708 0
 1795 098c C732     		adds	r2, r2, #199
 1796 098e 0192     		str	r2, [sp, #4]
 1797 0990 0093     		str	r3, [sp]
 1798 0992 2346     		mov	r3, r4
 1799 0994 8222     		movs	r2, #130
 1800 0996 FFF7FEFF 		bl	radio_getReceivedFrame
 714:build\openmote-cc2538_armgcc\openstack\02a-MAClow/IEEE802154E.c **** 
 715:build\openmote-cc2538_armgcc\openstack\02a-MAClow/IEEE802154E.c ****       // break if packet too short
 716:build\openmote-cc2538_armgcc\openstack\02a-MAClow/IEEE802154E.c ****       if (ieee154e_vars.dataReceived->length<LENGTH_CRC || ieee154e_vars.dataReceived->length>LENGT
 1801              		.loc 1 716 0
 1802 099a 844B     		ldr	r3, .L132
 1803 099c D3F86C31 		ldr	r3, [r3, #364]
 1804 09a0 1B7A     		ldrb	r3, [r3, #8]	@ zero_extendqisi2
 1805 09a2 012B     		cmp	r3, #1
 1806 09a4 05D9     		bls	.L116
 1807              		.loc 1 716 0 is_stmt 0 discriminator 1
 1808 09a6 814B     		ldr	r3, .L132
 1809 09a8 D3F86C31 		ldr	r3, [r3, #364]
 1810 09ac 1B7A     		ldrb	r3, [r3, #8]	@ zero_extendqisi2
 1811 09ae 802B     		cmp	r3, #128
 1812 09b0 0AD9     		bls	.L117
 1813              	.L116:
 717:build\openmote-cc2538_armgcc\openstack\02a-MAClow/IEEE802154E.c ****          // break from the do-while loop and execute abort code below
 718:build\openmote-cc2538_armgcc\openstack\02a-MAClow/IEEE802154E.c ****           openserial_printError(COMPONENT_IEEE802154E,ERR_INVALIDPACKETFROMRADIO,
 719:build\openmote-cc2538_armgcc\openstack\02a-MAClow/IEEE802154E.c ****                             (errorparameter_t)0,
 720:build\openmote-cc2538_armgcc\openstack\02a-MAClow/IEEE802154E.c ****                             ieee154e_vars.dataReceived->length);
 1814              		.loc 1 720 0 is_stmt 1
 1815 09b2 7E4B     		ldr	r3, .L132
 1816 09b4 D3F86C31 		ldr	r3, [r3, #364]
 1817 09b8 1B7A     		ldrb	r3, [r3, #8]	@ zero_extendqisi2
 718:build\openmote-cc2538_armgcc\openstack\02a-MAClow/IEEE802154E.c ****                             (errorparameter_t)0,
 1818              		.loc 1 718 0
 1819 09ba 9BB2     		uxth	r3, r3
 1820 09bc 0022     		movs	r2, #0
 1821 09be 3821     		movs	r1, #56
 1822 09c0 0920     		movs	r0, #9
 1823 09c2 FFF7FEFF 		bl	openserial_printError
 721:build\openmote-cc2538_armgcc\openstack\02a-MAClow/IEEE802154E.c ****          break;
 1824              		.loc 1 721 0
 1825 09c6 E0E0     		b	.L118
 1826              	.L117:
 722:build\openmote-cc2538_armgcc\openstack\02a-MAClow/IEEE802154E.c ****       }
 723:build\openmote-cc2538_armgcc\openstack\02a-MAClow/IEEE802154E.c **** 
 724:build\openmote-cc2538_armgcc\openstack\02a-MAClow/IEEE802154E.c ****       // toss CRC (2 last bytes)
 725:build\openmote-cc2538_armgcc\openstack\02a-MAClow/IEEE802154E.c ****       packetfunctions_tossFooter(   ieee154e_vars.dataReceived, LENGTH_CRC);
 1827              		.loc 1 725 0
 1828 09c8 784B     		ldr	r3, .L132
 1829 09ca D3F86C31 		ldr	r3, [r3, #364]
 1830 09ce 0221     		movs	r1, #2
 1831 09d0 1846     		mov	r0, r3
 1832 09d2 FFF7FEFF 		bl	packetfunctions_tossFooter
 726:build\openmote-cc2538_armgcc\openstack\02a-MAClow/IEEE802154E.c **** 
 727:build\openmote-cc2538_armgcc\openstack\02a-MAClow/IEEE802154E.c ****       // break if invalid CRC
 728:build\openmote-cc2538_armgcc\openstack\02a-MAClow/IEEE802154E.c ****       if (ieee154e_vars.dataReceived->l1_crc==FALSE) {
 1833              		.loc 1 728 0
 1834 09d6 754B     		ldr	r3, .L132
 1835 09d8 D3F86C31 		ldr	r3, [r3, #364]
 1836 09dc 93F8C730 		ldrb	r3, [r3, #199]	@ zero_extendqisi2
 1837 09e0 83F00103 		eor	r3, r3, #1
 1838 09e4 DBB2     		uxtb	r3, r3
 1839 09e6 002B     		cmp	r3, #0
 1840 09e8 40F0C680 		bne	.L127
 729:build\openmote-cc2538_armgcc\openstack\02a-MAClow/IEEE802154E.c ****          // break from the do-while loop and execute abort code below
 730:build\openmote-cc2538_armgcc\openstack\02a-MAClow/IEEE802154E.c ****          break;
 731:build\openmote-cc2538_armgcc\openstack\02a-MAClow/IEEE802154E.c ****       }
 732:build\openmote-cc2538_armgcc\openstack\02a-MAClow/IEEE802154E.c **** 
 733:build\openmote-cc2538_armgcc\openstack\02a-MAClow/IEEE802154E.c ****       // parse the IEEE802.15.4 header (synchronize, end of frame)
 734:build\openmote-cc2538_armgcc\openstack\02a-MAClow/IEEE802154E.c ****       ieee802154_retrieveHeader(ieee154e_vars.dataReceived,&ieee802514_header);
 1841              		.loc 1 734 0
 1842 09ec 6F4B     		ldr	r3, .L132
 1843 09ee D3F86C31 		ldr	r3, [r3, #364]
 1844 09f2 07F11002 		add	r2, r7, #16
 1845 09f6 1146     		mov	r1, r2
 1846 09f8 1846     		mov	r0, r3
 1847 09fa FFF7FEFF 		bl	ieee802154_retrieveHeader
 735:build\openmote-cc2538_armgcc\openstack\02a-MAClow/IEEE802154E.c **** 
 736:build\openmote-cc2538_armgcc\openstack\02a-MAClow/IEEE802154E.c ****       // break if invalid IEEE802.15.4 header
 737:build\openmote-cc2538_armgcc\openstack\02a-MAClow/IEEE802154E.c ****       if (ieee802514_header.valid==FALSE) {
 1848              		.loc 1 737 0
 1849 09fe 3B7C     		ldrb	r3, [r7, #16]	@ zero_extendqisi2
 1850 0a00 83F00103 		eor	r3, r3, #1
 1851 0a04 DBB2     		uxtb	r3, r3
 1852 0a06 002B     		cmp	r3, #0
 1853 0a08 40F0B880 		bne	.L128
 738:build\openmote-cc2538_armgcc\openstack\02a-MAClow/IEEE802154E.c ****          // break from the do-while loop and execute the clean-up code below
 739:build\openmote-cc2538_armgcc\openstack\02a-MAClow/IEEE802154E.c ****          break;
 740:build\openmote-cc2538_armgcc\openstack\02a-MAClow/IEEE802154E.c ****       }
 741:build\openmote-cc2538_armgcc\openstack\02a-MAClow/IEEE802154E.c **** 
 742:build\openmote-cc2538_armgcc\openstack\02a-MAClow/IEEE802154E.c ****       // store header details in packet buffer
 743:build\openmote-cc2538_armgcc\openstack\02a-MAClow/IEEE802154E.c ****       ieee154e_vars.dataReceived->l2_frameType = ieee802514_header.frameType;
 1854              		.loc 1 743 0
 1855 0a0c 674B     		ldr	r3, .L132
 1856 0a0e D3F86C31 		ldr	r3, [r3, #364]
 1857 0a12 BA7C     		ldrb	r2, [r7, #18]	@ zero_extendqisi2
 1858 0a14 83F85220 		strb	r2, [r3, #82]
 744:build\openmote-cc2538_armgcc\openstack\02a-MAClow/IEEE802154E.c ****       ieee154e_vars.dataReceived->l2_dsn       = ieee802514_header.dsn;
 1859              		.loc 1 744 0
 1860 0a18 644B     		ldr	r3, .L132
 1861 0a1a D3F86C31 		ldr	r3, [r3, #364]
 1862 0a1e 7A7E     		ldrb	r2, [r7, #25]	@ zero_extendqisi2
 1863 0a20 83F85320 		strb	r2, [r3, #83]
 745:build\openmote-cc2538_armgcc\openstack\02a-MAClow/IEEE802154E.c ****       memcpy(&(ieee154e_vars.dataReceived->l2_nextORpreviousHop),&(ieee802514_header.src),sizeof(op
 1864              		.loc 1 745 0
 1865 0a24 614B     		ldr	r3, .L132
 1866 0a26 D3F86C31 		ldr	r3, [r3, #364]
 1867 0a2a 4133     		adds	r3, r3, #65
 1868 0a2c 1A46     		mov	r2, r3
 1869 0a2e 07F13D03 		add	r3, r7, #61
 1870 0a32 1D68     		ldr	r5, [r3]	@ unaligned
 1871 0a34 5C68     		ldr	r4, [r3, #4]	@ unaligned
 1872 0a36 9868     		ldr	r0, [r3, #8]	@ unaligned
 1873 0a38 D968     		ldr	r1, [r3, #12]	@ unaligned
 1874 0a3a 1560     		str	r5, [r2]	@ unaligned
 1875 0a3c 5460     		str	r4, [r2, #4]	@ unaligned
 1876 0a3e 9060     		str	r0, [r2, #8]	@ unaligned
 1877 0a40 D160     		str	r1, [r2, #12]	@ unaligned
 1878 0a42 1B7C     		ldrb	r3, [r3, #16]
 1879 0a44 1374     		strb	r3, [r2, #16]
 746:build\openmote-cc2538_armgcc\openstack\02a-MAClow/IEEE802154E.c **** 
 747:build\openmote-cc2538_armgcc\openstack\02a-MAClow/IEEE802154E.c ****       // verify that incoming security level is acceptable
 748:build\openmote-cc2538_armgcc\openstack\02a-MAClow/IEEE802154E.c ****       if (IEEE802154_security_acceptableLevel(ieee154e_vars.dataReceived, &ieee802514_header) == FA
 1880              		.loc 1 748 0
 1881 0a46 594B     		ldr	r3, .L132
 1882 0a48 D3F86C31 		ldr	r3, [r3, #364]
 1883 0a4c 07F11002 		add	r2, r7, #16
 1884 0a50 1146     		mov	r1, r2
 1885 0a52 1846     		mov	r0, r3
 1886 0a54 FFF7FEFF 		bl	IEEE802154_security_acceptableLevel
 1887 0a58 0346     		mov	r3, r0
 1888 0a5a 83F00103 		eor	r3, r3, #1
 1889 0a5e DBB2     		uxtb	r3, r3
 1890 0a60 002B     		cmp	r3, #0
 1891 0a62 40F08D80 		bne	.L129
 749:build\openmote-cc2538_armgcc\openstack\02a-MAClow/IEEE802154E.c ****             break;
 750:build\openmote-cc2538_armgcc\openstack\02a-MAClow/IEEE802154E.c ****       }
 751:build\openmote-cc2538_armgcc\openstack\02a-MAClow/IEEE802154E.c **** 
 752:build\openmote-cc2538_armgcc\openstack\02a-MAClow/IEEE802154E.c ****       if (ieee154e_vars.dataReceived->l2_securityLevel != IEEE154_ASH_SLF_TYPE_NOSEC) {
 1892              		.loc 1 752 0
 1893 0a66 514B     		ldr	r3, .L132
 1894 0a68 D3F86C31 		ldr	r3, [r3, #364]
 1895 0a6c 93F8A930 		ldrb	r3, [r3, #169]	@ zero_extendqisi2
 1896 0a70 002B     		cmp	r3, #0
 1897 0a72 19D0     		beq	.L122
 753:build\openmote-cc2538_armgcc\openstack\02a-MAClow/IEEE802154E.c ****          // If we are not synced, we need to parse IEs and retrieve the ASN
 754:build\openmote-cc2538_armgcc\openstack\02a-MAClow/IEEE802154E.c ****          // before authenticating the beacon, because nonce is created from the ASN
 755:build\openmote-cc2538_armgcc\openstack\02a-MAClow/IEEE802154E.c ****          if (!ieee154e_vars.isSync && ieee802514_header.frameType == IEEE154_TYPE_BEACON) {
 1898              		.loc 1 755 0
 1899 0a74 4D4B     		ldr	r3, .L132
 1900 0a76 1B7C     		ldrb	r3, [r3, #16]	@ zero_extendqisi2
 1901 0a78 83F00103 		eor	r3, r3, #1
 1902 0a7c DBB2     		uxtb	r3, r3
 1903 0a7e 002B     		cmp	r3, #0
 1904 0a80 00F08380 		beq	.L118
 1905              		.loc 1 755 0 is_stmt 0 discriminator 1
 1906 0a84 BB7C     		ldrb	r3, [r7, #18]	@ zero_extendqisi2
 1907 0a86 002B     		cmp	r3, #0
 1908 0a88 7FD1     		bne	.L118
 756:build\openmote-cc2538_armgcc\openstack\02a-MAClow/IEEE802154E.c ****             if (!isValidJoin(ieee154e_vars.dataReceived, &ieee802514_header)) {
 1909              		.loc 1 756 0 is_stmt 1
 1910 0a8a 484B     		ldr	r3, .L132
 1911 0a8c D3F86C31 		ldr	r3, [r3, #364]
 1912 0a90 07F11002 		add	r2, r7, #16
 1913 0a94 1146     		mov	r1, r2
 1914 0a96 1846     		mov	r0, r3
 1915 0a98 FFF7FEFF 		bl	isValidJoin
 1916 0a9c 0346     		mov	r3, r0
 1917 0a9e 83F00103 		eor	r3, r3, #1
 1918 0aa2 DBB2     		uxtb	r3, r3
 1919 0aa4 002B     		cmp	r3, #0
 1920 0aa6 6DD1     		bne	.L130
 1921              	.L122:
 757:build\openmote-cc2538_armgcc\openstack\02a-MAClow/IEEE802154E.c ****                break;
 758:build\openmote-cc2538_armgcc\openstack\02a-MAClow/IEEE802154E.c ****             }
 759:build\openmote-cc2538_armgcc\openstack\02a-MAClow/IEEE802154E.c ****          } else { // discard other frames as we cannot decrypt without being synced
 760:build\openmote-cc2538_armgcc\openstack\02a-MAClow/IEEE802154E.c ****             break;
 761:build\openmote-cc2538_armgcc\openstack\02a-MAClow/IEEE802154E.c ****          }
 762:build\openmote-cc2538_armgcc\openstack\02a-MAClow/IEEE802154E.c ****       }
 763:build\openmote-cc2538_armgcc\openstack\02a-MAClow/IEEE802154E.c **** 
 764:build\openmote-cc2538_armgcc\openstack\02a-MAClow/IEEE802154E.c ****       // toss the IEEE802.15.4 header -- this does not include IEs as they are processed
 765:build\openmote-cc2538_armgcc\openstack\02a-MAClow/IEEE802154E.c ****       // next.
 766:build\openmote-cc2538_armgcc\openstack\02a-MAClow/IEEE802154E.c ****       packetfunctions_tossHeader(ieee154e_vars.dataReceived,ieee802514_header.headerLength);
 1922              		.loc 1 766 0
 1923 0aa8 404B     		ldr	r3, .L132
 1924 0aaa D3F86C31 		ldr	r3, [r3, #364]
 1925 0aae 7A7C     		ldrb	r2, [r7, #17]	@ zero_extendqisi2
 1926 0ab0 1146     		mov	r1, r2
 1927 0ab2 1846     		mov	r0, r3
 1928 0ab4 FFF7FEFF 		bl	packetfunctions_tossHeader
 767:build\openmote-cc2538_armgcc\openstack\02a-MAClow/IEEE802154E.c **** 
 768:build\openmote-cc2538_armgcc\openstack\02a-MAClow/IEEE802154E.c ****       // process IEs
 769:build\openmote-cc2538_armgcc\openstack\02a-MAClow/IEEE802154E.c ****       lenIE = 0;
 1929              		.loc 1 769 0
 1930 0ab8 0023     		movs	r3, #0
 1931 0aba FB81     		strh	r3, [r7, #14]	@ movhi
 770:build\openmote-cc2538_armgcc\openstack\02a-MAClow/IEEE802154E.c ****       if (
 771:build\openmote-cc2538_armgcc\openstack\02a-MAClow/IEEE802154E.c ****             (
 772:build\openmote-cc2538_armgcc\openstack\02a-MAClow/IEEE802154E.c ****                ieee802514_header.valid==TRUE                                                       
 1932              		.loc 1 772 0
 1933 0abc 3B7C     		ldrb	r3, [r7, #16]	@ zero_extendqisi2
 773:build\openmote-cc2538_armgcc\openstack\02a-MAClow/IEEE802154E.c ****                ieee802514_header.ieListPresent==TRUE                                               
 774:build\openmote-cc2538_armgcc\openstack\02a-MAClow/IEEE802154E.c ****                ieee802514_header.frameType==IEEE154_TYPE_BEACON                                    
 775:build\openmote-cc2538_armgcc\openstack\02a-MAClow/IEEE802154E.c ****                packetfunctions_sameAddress(&ieee802514_header.panid,idmanager_getMyID(ADDR_PANID)) 
 1934              		.loc 1 775 0
 1935 0abe 002B     		cmp	r3, #0
 1936 0ac0 21D0     		beq	.L123
 773:build\openmote-cc2538_armgcc\openstack\02a-MAClow/IEEE802154E.c ****                ieee802514_header.ieListPresent==TRUE                                               
 1937              		.loc 1 773 0
 1938 0ac2 FB7D     		ldrb	r3, [r7, #23]	@ zero_extendqisi2
 772:build\openmote-cc2538_armgcc\openstack\02a-MAClow/IEEE802154E.c ****                ieee802514_header.ieListPresent==TRUE                                               
 1939              		.loc 1 772 0
 1940 0ac4 002B     		cmp	r3, #0
 1941 0ac6 1ED0     		beq	.L123
 774:build\openmote-cc2538_armgcc\openstack\02a-MAClow/IEEE802154E.c ****                packetfunctions_sameAddress(&ieee802514_header.panid,idmanager_getMyID(ADDR_PANID)) 
 1942              		.loc 1 774 0
 1943 0ac8 BB7C     		ldrb	r3, [r7, #18]	@ zero_extendqisi2
 773:build\openmote-cc2538_armgcc\openstack\02a-MAClow/IEEE802154E.c ****                ieee802514_header.ieListPresent==TRUE                                               
 1944              		.loc 1 773 0
 1945 0aca 002B     		cmp	r3, #0
 1946 0acc 1BD1     		bne	.L123
 1947              		.loc 1 775 0
 1948 0ace 0420     		movs	r0, #4
 1949 0ad0 FFF7FEFF 		bl	idmanager_getMyID
 1950 0ad4 0246     		mov	r2, r0
 1951 0ad6 07F11003 		add	r3, r7, #16
 1952 0ada 0B33     		adds	r3, r3, #11
 1953 0adc 1146     		mov	r1, r2
 1954 0ade 1846     		mov	r0, r3
 1955 0ae0 FFF7FEFF 		bl	packetfunctions_sameAddress
 1956 0ae4 0346     		mov	r3, r0
 774:build\openmote-cc2538_armgcc\openstack\02a-MAClow/IEEE802154E.c ****                packetfunctions_sameAddress(&ieee802514_header.panid,idmanager_getMyID(ADDR_PANID)) 
 1957              		.loc 1 774 0
 1958 0ae6 002B     		cmp	r3, #0
 1959 0ae8 0DD0     		beq	.L123
 776:build\openmote-cc2538_armgcc\openstack\02a-MAClow/IEEE802154E.c ****                ieee154e_processIEs(ieee154e_vars.dataReceived,&lenIE)
 1960              		.loc 1 776 0 discriminator 3
 1961 0aea 304B     		ldr	r3, .L132
 1962 0aec D3F86C31 		ldr	r3, [r3, #364]
 1963 0af0 07F10E02 		add	r2, r7, #14
 1964 0af4 1146     		mov	r1, r2
 1965 0af6 1846     		mov	r0, r3
 1966 0af8 FFF7FEFF 		bl	ieee154e_processIEs
 1967 0afc 0346     		mov	r3, r0
 775:build\openmote-cc2538_armgcc\openstack\02a-MAClow/IEEE802154E.c ****                ieee154e_processIEs(ieee154e_vars.dataReceived,&lenIE)
 1968              		.loc 1 775 0 discriminator 3
 1969 0afe 002B     		cmp	r3, #0
 1970 0b00 01D0     		beq	.L123
 775:build\openmote-cc2538_armgcc\openstack\02a-MAClow/IEEE802154E.c ****                ieee154e_processIEs(ieee154e_vars.dataReceived,&lenIE)
 1971              		.loc 1 775 0 is_stmt 0 discriminator 2
 1972 0b02 0123     		movs	r3, #1
 1973 0b04 00E0     		b	.L124
 1974              	.L123:
 775:build\openmote-cc2538_armgcc\openstack\02a-MAClow/IEEE802154E.c ****                ieee154e_processIEs(ieee154e_vars.dataReceived,&lenIE)
 1975              		.loc 1 775 0 discriminator 1
 1976 0b06 0023     		movs	r3, #0
 1977              	.L124:
 770:build\openmote-cc2538_armgcc\openstack\02a-MAClow/IEEE802154E.c ****             (
 1978              		.loc 1 770 0 is_stmt 1
 1979 0b08 002B     		cmp	r3, #0
 1980 0b0a 3DD0     		beq	.L131
 777:build\openmote-cc2538_armgcc\openstack\02a-MAClow/IEEE802154E.c ****             )==FALSE) {
 778:build\openmote-cc2538_armgcc\openstack\02a-MAClow/IEEE802154E.c ****          // break from the do-while loop and execute the clean-up code below
 779:build\openmote-cc2538_armgcc\openstack\02a-MAClow/IEEE802154E.c ****          break;
 780:build\openmote-cc2538_armgcc\openstack\02a-MAClow/IEEE802154E.c ****       }
 781:build\openmote-cc2538_armgcc\openstack\02a-MAClow/IEEE802154E.c **** 
 782:build\openmote-cc2538_armgcc\openstack\02a-MAClow/IEEE802154E.c ****       // turn off the radio
 783:build\openmote-cc2538_armgcc\openstack\02a-MAClow/IEEE802154E.c ****       radio_rfOff();
 1981              		.loc 1 783 0
 1982 0b0c FFF7FEFF 		bl	radio_rfOff
 784:build\openmote-cc2538_armgcc\openstack\02a-MAClow/IEEE802154E.c **** 
 785:build\openmote-cc2538_armgcc\openstack\02a-MAClow/IEEE802154E.c ****       // compute radio duty cycle
 786:build\openmote-cc2538_armgcc\openstack\02a-MAClow/IEEE802154E.c ****       ieee154e_vars.radioOnTics += (sctimer_readCounter()-ieee154e_vars.radioOnInit);
 1983              		.loc 1 786 0
 1984 0b10 FFF7FEFF 		bl	sctimer_readCounter
 1985 0b14 0246     		mov	r2, r0
 1986 0b16 254B     		ldr	r3, .L132
 1987 0b18 D3F89831 		ldr	r3, [r3, #408]
 1988 0b1c D21A     		subs	r2, r2, r3
 1989 0b1e 234B     		ldr	r3, .L132
 1990 0b20 D3F89C31 		ldr	r3, [r3, #412]
 1991 0b24 1344     		add	r3, r3, r2
 1992 0b26 214A     		ldr	r2, .L132
 1993 0b28 C2F89C31 		str	r3, [r2, #412]
 787:build\openmote-cc2538_armgcc\openstack\02a-MAClow/IEEE802154E.c **** 
 788:build\openmote-cc2538_armgcc\openstack\02a-MAClow/IEEE802154E.c ****       // toss the IEs
 789:build\openmote-cc2538_armgcc\openstack\02a-MAClow/IEEE802154E.c ****       packetfunctions_tossHeader(ieee154e_vars.dataReceived,lenIE);
 1994              		.loc 1 789 0
 1995 0b2c 1F4B     		ldr	r3, .L132
 1996 0b2e D3F86C31 		ldr	r3, [r3, #364]
 1997 0b32 FA89     		ldrh	r2, [r7, #14]
 1998 0b34 D2B2     		uxtb	r2, r2
 1999 0b36 1146     		mov	r1, r2
 2000 0b38 1846     		mov	r0, r3
 2001 0b3a FFF7FEFF 		bl	packetfunctions_tossHeader
 790:build\openmote-cc2538_armgcc\openstack\02a-MAClow/IEEE802154E.c **** 
 791:build\openmote-cc2538_armgcc\openstack\02a-MAClow/IEEE802154E.c ****       // synchronize (for the first time) to the sender's EB
 792:build\openmote-cc2538_armgcc\openstack\02a-MAClow/IEEE802154E.c ****       synchronizePacket(ieee154e_vars.syncCapturedTime);
 2002              		.loc 1 792 0
 2003 0b3e 1B4B     		ldr	r3, .L132
 2004 0b40 D3F87C31 		ldr	r3, [r3, #380]
 2005 0b44 1846     		mov	r0, r3
 2006 0b46 FFF7FEFF 		bl	synchronizePacket
 793:build\openmote-cc2538_armgcc\openstack\02a-MAClow/IEEE802154E.c **** 
 794:build\openmote-cc2538_armgcc\openstack\02a-MAClow/IEEE802154E.c ****       // declare synchronized
 795:build\openmote-cc2538_armgcc\openstack\02a-MAClow/IEEE802154E.c ****       changeIsSync(TRUE);
 2007              		.loc 1 795 0
 2008 0b4a 0120     		movs	r0, #1
 2009 0b4c FFF7FEFF 		bl	changeIsSync
 796:build\openmote-cc2538_armgcc\openstack\02a-MAClow/IEEE802154E.c ****       // log the info
 797:build\openmote-cc2538_armgcc\openstack\02a-MAClow/IEEE802154E.c ****       openserial_printInfo(COMPONENT_IEEE802154E,ERR_SYNCHRONIZED,
 798:build\openmote-cc2538_armgcc\openstack\02a-MAClow/IEEE802154E.c ****                             (errorparameter_t)ieee154e_vars.slotOffset,
 2010              		.loc 1 798 0
 2011 0b50 164B     		ldr	r3, .L132
 2012 0b52 DA88     		ldrh	r2, [r3, #6]
 797:build\openmote-cc2538_armgcc\openstack\02a-MAClow/IEEE802154E.c ****                             (errorparameter_t)ieee154e_vars.slotOffset,
 2013              		.loc 1 797 0
 2014 0b54 0023     		movs	r3, #0
 2015 0b56 1C21     		movs	r1, #28
 2016 0b58 0920     		movs	r0, #9
 2017 0b5a FFF7FEFF 		bl	openserial_printInfo
 799:build\openmote-cc2538_armgcc\openstack\02a-MAClow/IEEE802154E.c ****                             (errorparameter_t)0);
 800:build\openmote-cc2538_armgcc\openstack\02a-MAClow/IEEE802154E.c **** 
 801:build\openmote-cc2538_armgcc\openstack\02a-MAClow/IEEE802154E.c ****       // send received EB up the stack so RES can update statistics (synchronizing)
 802:build\openmote-cc2538_armgcc\openstack\02a-MAClow/IEEE802154E.c ****       notif_receive(ieee154e_vars.dataReceived);
 2018              		.loc 1 802 0
 2019 0b5e 134B     		ldr	r3, .L132
 2020 0b60 D3F86C31 		ldr	r3, [r3, #364]
 2021 0b64 1846     		mov	r0, r3
 2022 0b66 FFF7FEFF 		bl	notif_receive
 803:build\openmote-cc2538_armgcc\openstack\02a-MAClow/IEEE802154E.c **** 
 804:build\openmote-cc2538_armgcc\openstack\02a-MAClow/IEEE802154E.c ****       // clear local variable
 805:build\openmote-cc2538_armgcc\openstack\02a-MAClow/IEEE802154E.c ****       ieee154e_vars.dataReceived = NULL;
 2023              		.loc 1 805 0
 2024 0b6a 104B     		ldr	r3, .L132
 2025 0b6c 0022     		movs	r2, #0
 2026 0b6e C3F86C21 		str	r2, [r3, #364]
 806:build\openmote-cc2538_armgcc\openstack\02a-MAClow/IEEE802154E.c **** 
 807:build\openmote-cc2538_armgcc\openstack\02a-MAClow/IEEE802154E.c ****       // official end of synchronization
 808:build\openmote-cc2538_armgcc\openstack\02a-MAClow/IEEE802154E.c ****       endSlot();
 2027              		.loc 1 808 0
 2028 0b72 FFF7FEFF 		bl	endSlot
 809:build\openmote-cc2538_armgcc\openstack\02a-MAClow/IEEE802154E.c **** 
 810:build\openmote-cc2538_armgcc\openstack\02a-MAClow/IEEE802154E.c ****       // everything went well, return here not to execute the error code below
 811:build\openmote-cc2538_armgcc\openstack\02a-MAClow/IEEE802154E.c ****       return;
 2029              		.loc 1 811 0
 2030 0b76 15E0     		b	.L112
 2031              	.L127:
 730:build\openmote-cc2538_armgcc\openstack\02a-MAClow/IEEE802154E.c ****       }
 2032              		.loc 1 730 0
 2033 0b78 00BF     		nop
 2034 0b7a 06E0     		b	.L118
 2035              	.L128:
 739:build\openmote-cc2538_armgcc\openstack\02a-MAClow/IEEE802154E.c ****       }
 2036              		.loc 1 739 0
 2037 0b7c 00BF     		nop
 2038 0b7e 04E0     		b	.L118
 2039              	.L129:
 749:build\openmote-cc2538_armgcc\openstack\02a-MAClow/IEEE802154E.c ****       }
 2040              		.loc 1 749 0
 2041 0b80 00BF     		nop
 2042 0b82 02E0     		b	.L118
 2043              	.L130:
 757:build\openmote-cc2538_armgcc\openstack\02a-MAClow/IEEE802154E.c ****             }
 2044              		.loc 1 757 0
 2045 0b84 00BF     		nop
 2046 0b86 00E0     		b	.L118
 2047              	.L131:
 779:build\openmote-cc2538_armgcc\openstack\02a-MAClow/IEEE802154E.c ****       }
 2048              		.loc 1 779 0
 2049 0b88 00BF     		nop
 2050              	.L118:
 812:build\openmote-cc2538_armgcc\openstack\02a-MAClow/IEEE802154E.c **** 
 813:build\openmote-cc2538_armgcc\openstack\02a-MAClow/IEEE802154E.c ****    } while(0);
 814:build\openmote-cc2538_armgcc\openstack\02a-MAClow/IEEE802154E.c **** 
 815:build\openmote-cc2538_armgcc\openstack\02a-MAClow/IEEE802154E.c ****    // free the (invalid) received data buffer so RAM memory can be recycled
 816:build\openmote-cc2538_armgcc\openstack\02a-MAClow/IEEE802154E.c ****    openqueue_freePacketBuffer(ieee154e_vars.dataReceived);
 2051              		.loc 1 816 0 discriminator 1
 2052 0b8a 084B     		ldr	r3, .L132
 2053 0b8c D3F86C31 		ldr	r3, [r3, #364]
 2054 0b90 1846     		mov	r0, r3
 2055 0b92 FFF7FEFF 		bl	openqueue_freePacketBuffer
 817:build\openmote-cc2538_armgcc\openstack\02a-MAClow/IEEE802154E.c **** 
 818:build\openmote-cc2538_armgcc\openstack\02a-MAClow/IEEE802154E.c ****    // clear local variable
 819:build\openmote-cc2538_armgcc\openstack\02a-MAClow/IEEE802154E.c ****    ieee154e_vars.dataReceived = NULL;
 2056              		.loc 1 819 0 discriminator 1
 2057 0b96 054B     		ldr	r3, .L132
 2058 0b98 0022     		movs	r2, #0
 2059 0b9a C3F86C21 		str	r2, [r3, #364]
 820:build\openmote-cc2538_armgcc\openstack\02a-MAClow/IEEE802154E.c **** 
 821:build\openmote-cc2538_armgcc\openstack\02a-MAClow/IEEE802154E.c ****    // return to listening state
 822:build\openmote-cc2538_armgcc\openstack\02a-MAClow/IEEE802154E.c ****    changeState(S_SYNCLISTEN);
 2060              		.loc 1 822 0 discriminator 1
 2061 0b9e 0120     		movs	r0, #1
 2062 0ba0 FFF7FEFF 		bl	changeState
 2063              	.L112:
 823:build\openmote-cc2538_armgcc\openstack\02a-MAClow/IEEE802154E.c **** }
 2064              		.loc 1 823 0
 2065 0ba4 5037     		adds	r7, r7, #80
 2066              		.cfi_def_cfa_offset 16
 2067 0ba6 BD46     		mov	sp, r7
 2068              		.cfi_def_cfa_register 13
 2069              		@ sp needed
 2070 0ba8 B0BD     		pop	{r4, r5, r7, pc}
 2071              	.L133:
 2072 0baa 00BF     		.align	2
 2073              	.L132:
 2074 0bac 00000000 		.word	ieee154e_vars
 2075              		.cfi_endproc
 2076              	.LFE18:
 2078              		.align	1
 2079              		.global	ieee154e_processIEs
 2080              		.syntax unified
 2081              		.thumb
 2082              		.thumb_func
 2083              		.fpu softvfp
 2085              	ieee154e_processIEs:
 2086              	.LFB19:
 824:build\openmote-cc2538_armgcc\openstack\02a-MAClow/IEEE802154E.c **** 
 825:build\openmote-cc2538_armgcc\openstack\02a-MAClow/IEEE802154E.c **** port_INLINE bool ieee154e_processIEs(OpenQueueEntry_t* pkt, uint16_t* lenIE) {
 2087              		.loc 1 825 0
 2088              		.cfi_startproc
 2089              		@ args = 0, pretend = 0, frame = 16
 2090              		@ frame_needed = 1, uses_anonymous_args = 0
 2091 0bb0 80B5     		push	{r7, lr}
 2092              		.cfi_def_cfa_offset 8
 2093              		.cfi_offset 7, -8
 2094              		.cfi_offset 14, -4
 2095 0bb2 84B0     		sub	sp, sp, #16
 2096              		.cfi_def_cfa_offset 24
 2097 0bb4 00AF     		add	r7, sp, #0
 2098              		.cfi_def_cfa_register 7
 2099 0bb6 7860     		str	r0, [r7, #4]
 2100 0bb8 3960     		str	r1, [r7]
 826:build\openmote-cc2538_armgcc\openstack\02a-MAClow/IEEE802154E.c ****     uint8_t i;
 827:build\openmote-cc2538_armgcc\openstack\02a-MAClow/IEEE802154E.c ****     if (isValidEbFormat(pkt,lenIE)==TRUE){
 2101              		.loc 1 827 0
 2102 0bba 3968     		ldr	r1, [r7]
 2103 0bbc 7868     		ldr	r0, [r7, #4]
 2104 0bbe FFF7FEFF 		bl	isValidEbFormat
 2105 0bc2 0346     		mov	r3, r0
 2106 0bc4 002B     		cmp	r3, #0
 2107 0bc6 2ED0     		beq	.L135
 828:build\openmote-cc2538_armgcc\openstack\02a-MAClow/IEEE802154E.c ****         // at this point, ASN and frame length are known
 829:build\openmote-cc2538_armgcc\openstack\02a-MAClow/IEEE802154E.c ****         // the current slotoffset can be inferred
 830:build\openmote-cc2538_armgcc\openstack\02a-MAClow/IEEE802154E.c ****         ieee154e_syncSlotOffset();
 2108              		.loc 1 830 0
 2109 0bc8 FFF7FEFF 		bl	ieee154e_syncSlotOffset
 831:build\openmote-cc2538_armgcc\openstack\02a-MAClow/IEEE802154E.c ****         schedule_syncSlotOffset(ieee154e_vars.slotOffset);
 2110              		.loc 1 831 0
 2111 0bcc 1B4B     		ldr	r3, .L142
 2112 0bce DB88     		ldrh	r3, [r3, #6]
 2113 0bd0 1846     		mov	r0, r3
 2114 0bd2 FFF7FEFF 		bl	schedule_syncSlotOffset
 832:build\openmote-cc2538_armgcc\openstack\02a-MAClow/IEEE802154E.c ****         ieee154e_vars.nextActiveSlotOffset = schedule_getNextActiveSlotOffset();
 2115              		.loc 1 832 0
 2116 0bd6 FFF7FEFF 		bl	schedule_getNextActiveSlotOffset
 2117 0bda 0346     		mov	r3, r0
 2118 0bdc 1A46     		mov	r2, r3
 2119 0bde 174B     		ldr	r3, .L142
 2120 0be0 1A81     		strh	r2, [r3, #8]	@ movhi
 833:build\openmote-cc2538_armgcc\openstack\02a-MAClow/IEEE802154E.c ****         /*
 834:build\openmote-cc2538_armgcc\openstack\02a-MAClow/IEEE802154E.c ****         infer the asnOffset based on the fact that
 835:build\openmote-cc2538_armgcc\openstack\02a-MAClow/IEEE802154E.c ****         ieee154e_vars.freq = 11 + (asnOffset + channelOffset)%16
 836:build\openmote-cc2538_armgcc\openstack\02a-MAClow/IEEE802154E.c ****         */
 837:build\openmote-cc2538_armgcc\openstack\02a-MAClow/IEEE802154E.c ****         for (i=0;i<NUM_CHANNELS;i++){
 2121              		.loc 1 837 0
 2122 0be2 0023     		movs	r3, #0
 2123 0be4 FB73     		strb	r3, [r7, #15]
 2124 0be6 0DE0     		b	.L136
 2125              	.L139:
 838:build\openmote-cc2538_armgcc\openstack\02a-MAClow/IEEE802154E.c ****             if ((ieee154e_vars.freq - 11)==ieee154e_vars.chTemplate[i]){
 2126              		.loc 1 838 0
 2127 0be8 144B     		ldr	r3, .L142
 2128 0bea 93F88031 		ldrb	r3, [r3, #384]	@ zero_extendqisi2
 2129 0bee 0B3B     		subs	r3, r3, #11
 2130 0bf0 FA7B     		ldrb	r2, [r7, #15]	@ zero_extendqisi2
 2131 0bf2 1249     		ldr	r1, .L142
 2132 0bf4 0A44     		add	r2, r2, r1
 2133 0bf6 92F88421 		ldrb	r2, [r2, #388]	@ zero_extendqisi2
 2134 0bfa 9342     		cmp	r3, r2
 2135 0bfc 06D0     		beq	.L141
 837:build\openmote-cc2538_armgcc\openstack\02a-MAClow/IEEE802154E.c ****             if ((ieee154e_vars.freq - 11)==ieee154e_vars.chTemplate[i]){
 2136              		.loc 1 837 0 discriminator 2
 2137 0bfe FB7B     		ldrb	r3, [r7, #15]	@ zero_extendqisi2
 2138 0c00 0133     		adds	r3, r3, #1
 2139 0c02 FB73     		strb	r3, [r7, #15]
 2140              	.L136:
 837:build\openmote-cc2538_armgcc\openstack\02a-MAClow/IEEE802154E.c ****             if ((ieee154e_vars.freq - 11)==ieee154e_vars.chTemplate[i]){
 2141              		.loc 1 837 0 is_stmt 0 discriminator 1
 2142 0c04 FB7B     		ldrb	r3, [r7, #15]	@ zero_extendqisi2
 2143 0c06 0F2B     		cmp	r3, #15
 2144 0c08 EED9     		bls	.L139
 2145 0c0a 00E0     		b	.L138
 2146              	.L141:
 839:build\openmote-cc2538_armgcc\openstack\02a-MAClow/IEEE802154E.c ****                 break;
 2147              		.loc 1 839 0 is_stmt 1
 2148 0c0c 00BF     		nop
 2149              	.L138:
 840:build\openmote-cc2538_armgcc\openstack\02a-MAClow/IEEE802154E.c ****             }
 841:build\openmote-cc2538_armgcc\openstack\02a-MAClow/IEEE802154E.c ****         }
 842:build\openmote-cc2538_armgcc\openstack\02a-MAClow/IEEE802154E.c ****         ieee154e_vars.asnOffset = i - schedule_getChannelOffset();
 2150              		.loc 1 842 0
 2151 0c0e FFF7FEFF 		bl	schedule_getChannelOffset
 2152 0c12 0346     		mov	r3, r0
 2153 0c14 1A46     		mov	r2, r3
 2154 0c16 FB7B     		ldrb	r3, [r7, #15]
 2155 0c18 9B1A     		subs	r3, r3, r2
 2156 0c1a DAB2     		uxtb	r2, r3
 2157 0c1c 074B     		ldr	r3, .L142
 2158 0c1e 83F88121 		strb	r2, [r3, #385]
 843:build\openmote-cc2538_armgcc\openstack\02a-MAClow/IEEE802154E.c ****         return TRUE;
 2159              		.loc 1 843 0
 2160 0c22 0123     		movs	r3, #1
 2161 0c24 06E0     		b	.L140
 2162              	.L135:
 844:build\openmote-cc2538_armgcc\openstack\02a-MAClow/IEEE802154E.c ****     } else {
 845:build\openmote-cc2538_armgcc\openstack\02a-MAClow/IEEE802154E.c ****         // wrong eb format
 846:build\openmote-cc2538_armgcc\openstack\02a-MAClow/IEEE802154E.c ****         openserial_printError(COMPONENT_IEEE802154E,ERR_UNSUPPORTED_FORMAT,3,0);
 2163              		.loc 1 846 0
 2164 0c26 0023     		movs	r3, #0
 2165 0c28 0322     		movs	r2, #3
 2166 0c2a 4121     		movs	r1, #65
 2167 0c2c 0920     		movs	r0, #9
 2168 0c2e FFF7FEFF 		bl	openserial_printError
 847:build\openmote-cc2538_armgcc\openstack\02a-MAClow/IEEE802154E.c ****         return FALSE;
 2169              		.loc 1 847 0
 2170 0c32 0023     		movs	r3, #0
 2171              	.L140:
 848:build\openmote-cc2538_armgcc\openstack\02a-MAClow/IEEE802154E.c ****     }
 849:build\openmote-cc2538_armgcc\openstack\02a-MAClow/IEEE802154E.c **** }
 2172              		.loc 1 849 0
 2173 0c34 1846     		mov	r0, r3
 2174 0c36 1037     		adds	r7, r7, #16
 2175              		.cfi_def_cfa_offset 8
 2176 0c38 BD46     		mov	sp, r7
 2177              		.cfi_def_cfa_register 13
 2178              		@ sp needed
 2179 0c3a 80BD     		pop	{r7, pc}
 2180              	.L143:
 2181              		.align	2
 2182              	.L142:
 2183 0c3c 00000000 		.word	ieee154e_vars
 2184              		.cfi_endproc
 2185              	.LFE19:
 2187              		.align	1
 2188              		.global	activity_ti1ORri1
 2189              		.syntax unified
 2190              		.thumb
 2191              		.thumb_func
 2192              		.fpu softvfp
 2194              	activity_ti1ORri1:
 2195              	.LFB20:
 850:build\openmote-cc2538_armgcc\openstack\02a-MAClow/IEEE802154E.c **** 
 851:build\openmote-cc2538_armgcc\openstack\02a-MAClow/IEEE802154E.c **** //======= TX
 852:build\openmote-cc2538_armgcc\openstack\02a-MAClow/IEEE802154E.c **** 
 853:build\openmote-cc2538_armgcc\openstack\02a-MAClow/IEEE802154E.c **** port_INLINE void activity_ti1ORri1(void) {
 2196              		.loc 1 853 0
 2197              		.cfi_startproc
 2198              		@ args = 0, pretend = 0, frame = 56
 2199              		@ frame_needed = 1, uses_anonymous_args = 0
 2200 0c40 80B5     		push	{r7, lr}
 2201              		.cfi_def_cfa_offset 8
 2202              		.cfi_offset 7, -8
 2203              		.cfi_offset 14, -4
 2204 0c42 90B0     		sub	sp, sp, #64
 2205              		.cfi_def_cfa_offset 72
 2206 0c44 02AF     		add	r7, sp, #8
 2207              		.cfi_def_cfa 7, 64
 854:build\openmote-cc2538_armgcc\openstack\02a-MAClow/IEEE802154E.c ****     cellType_t  cellType;
 855:build\openmote-cc2538_armgcc\openstack\02a-MAClow/IEEE802154E.c ****     open_addr_t neighbor;
 856:build\openmote-cc2538_armgcc\openstack\02a-MAClow/IEEE802154E.c ****     open_addr_t autonomousUnicastNeighbor;
 857:build\openmote-cc2538_armgcc\openstack\02a-MAClow/IEEE802154E.c ****     uint8_t     i;
 858:build\openmote-cc2538_armgcc\openstack\02a-MAClow/IEEE802154E.c ****     uint8_t     asn[5];
 859:build\openmote-cc2538_armgcc\openstack\02a-MAClow/IEEE802154E.c ****     uint8_t     join_priority;
 860:build\openmote-cc2538_armgcc\openstack\02a-MAClow/IEEE802154E.c ****     bool        couldSendEB=FALSE;
 2208              		.loc 1 860 0
 2209 0c46 0023     		movs	r3, #0
 2210 0c48 87F83630 		strb	r3, [r7, #54]
 861:build\openmote-cc2538_armgcc\openstack\02a-MAClow/IEEE802154E.c **** 
 862:build\openmote-cc2538_armgcc\openstack\02a-MAClow/IEEE802154E.c ****     // increment ASN (do this first so debug pins are in sync)
 863:build\openmote-cc2538_armgcc\openstack\02a-MAClow/IEEE802154E.c ****     incrementAsnOffset();
 2211              		.loc 1 863 0
 2212 0c4c FFF7FEFF 		bl	incrementAsnOffset
 864:build\openmote-cc2538_armgcc\openstack\02a-MAClow/IEEE802154E.c **** 
 865:build\openmote-cc2538_armgcc\openstack\02a-MAClow/IEEE802154E.c ****     // wiggle debug pins
 866:build\openmote-cc2538_armgcc\openstack\02a-MAClow/IEEE802154E.c ****     debugpins_slot_toggle();
 2213              		.loc 1 866 0
 2214 0c50 FFF7FEFF 		bl	debugpins_slot_toggle
 867:build\openmote-cc2538_armgcc\openstack\02a-MAClow/IEEE802154E.c ****     if (ieee154e_vars.slotOffset==0) {
 2215              		.loc 1 867 0
 2216 0c54 AB4B     		ldr	r3, .L176
 2217 0c56 DB88     		ldrh	r3, [r3, #6]
 2218 0c58 002B     		cmp	r3, #0
 2219 0c5a 01D1     		bne	.L145
 868:build\openmote-cc2538_armgcc\openstack\02a-MAClow/IEEE802154E.c ****         debugpins_frame_toggle();
 2220              		.loc 1 868 0
 2221 0c5c FFF7FEFF 		bl	debugpins_frame_toggle
 2222              	.L145:
 869:build\openmote-cc2538_armgcc\openstack\02a-MAClow/IEEE802154E.c ****     }
 870:build\openmote-cc2538_armgcc\openstack\02a-MAClow/IEEE802154E.c **** 
 871:build\openmote-cc2538_armgcc\openstack\02a-MAClow/IEEE802154E.c ****     // desynchronize if needed
 872:build\openmote-cc2538_armgcc\openstack\02a-MAClow/IEEE802154E.c ****     if (idmanager_getIsDAGroot()==FALSE) {
 2223              		.loc 1 872 0
 2224 0c60 FFF7FEFF 		bl	idmanager_getIsDAGroot
 2225 0c64 0346     		mov	r3, r0
 2226 0c66 83F00103 		eor	r3, r3, #1
 2227 0c6a DBB2     		uxtb	r3, r3
 2228 0c6c 002B     		cmp	r3, #0
 2229 0c6e 26D0     		beq	.L146
 873:build\openmote-cc2538_armgcc\openstack\02a-MAClow/IEEE802154E.c ****         if(ieee154e_vars.deSyncTimeout > ieee154e_vars.numOfSleepSlots){
 2230              		.loc 1 873 0
 2231 0c70 A44B     		ldr	r3, .L176
 2232 0c72 DA68     		ldr	r2, [r3, #12]
 2233 0c74 A34B     		ldr	r3, .L176
 2234 0c76 D3F86031 		ldr	r3, [r3, #352]
 2235 0c7a 9A42     		cmp	r2, r3
 2236 0c7c 08D9     		bls	.L147
 874:build\openmote-cc2538_armgcc\openstack\02a-MAClow/IEEE802154E.c ****             ieee154e_vars.deSyncTimeout -= ieee154e_vars.numOfSleepSlots;
 2237              		.loc 1 874 0
 2238 0c7e A14B     		ldr	r3, .L176
 2239 0c80 DA68     		ldr	r2, [r3, #12]
 2240 0c82 A04B     		ldr	r3, .L176
 2241 0c84 D3F86031 		ldr	r3, [r3, #352]
 2242 0c88 D31A     		subs	r3, r2, r3
 2243 0c8a 9E4A     		ldr	r2, .L176
 2244 0c8c D360     		str	r3, [r2, #12]
 2245 0c8e 16E0     		b	.L146
 2246              	.L147:
 875:build\openmote-cc2538_armgcc\openstack\02a-MAClow/IEEE802154E.c ****         } else {
 876:build\openmote-cc2538_armgcc\openstack\02a-MAClow/IEEE802154E.c ****             // Reset sleep slots
 877:build\openmote-cc2538_armgcc\openstack\02a-MAClow/IEEE802154E.c ****             ieee154e_vars.numOfSleepSlots = 1;
 2247              		.loc 1 877 0
 2248 0c90 9C4B     		ldr	r3, .L176
 2249 0c92 0122     		movs	r2, #1
 2250 0c94 C3F86021 		str	r2, [r3, #352]
 878:build\openmote-cc2538_armgcc\openstack\02a-MAClow/IEEE802154E.c **** 
 879:build\openmote-cc2538_armgcc\openstack\02a-MAClow/IEEE802154E.c ****             // declare myself desynchronized
 880:build\openmote-cc2538_armgcc\openstack\02a-MAClow/IEEE802154E.c ****             changeIsSync(FALSE);
 2251              		.loc 1 880 0
 2252 0c98 0020     		movs	r0, #0
 2253 0c9a FFF7FEFF 		bl	changeIsSync
 881:build\openmote-cc2538_armgcc\openstack\02a-MAClow/IEEE802154E.c **** 
 882:build\openmote-cc2538_armgcc\openstack\02a-MAClow/IEEE802154E.c ****             // log the error
 883:build\openmote-cc2538_armgcc\openstack\02a-MAClow/IEEE802154E.c ****             openserial_printError(COMPONENT_IEEE802154E,ERR_DESYNCHRONIZED,
 884:build\openmote-cc2538_armgcc\openstack\02a-MAClow/IEEE802154E.c ****                                   (errorparameter_t)ieee154e_vars.slotOffset,
 2254              		.loc 1 884 0
 2255 0c9e 994B     		ldr	r3, .L176
 2256 0ca0 DA88     		ldrh	r2, [r3, #6]
 883:build\openmote-cc2538_armgcc\openstack\02a-MAClow/IEEE802154E.c ****                                   (errorparameter_t)ieee154e_vars.slotOffset,
 2257              		.loc 1 883 0
 2258 0ca2 0023     		movs	r3, #0
 2259 0ca4 1B21     		movs	r1, #27
 2260 0ca6 0920     		movs	r0, #9
 2261 0ca8 FFF7FEFF 		bl	openserial_printError
 885:build\openmote-cc2538_armgcc\openstack\02a-MAClow/IEEE802154E.c ****                                   (errorparameter_t)0);
 886:build\openmote-cc2538_armgcc\openstack\02a-MAClow/IEEE802154E.c **** 
 887:build\openmote-cc2538_armgcc\openstack\02a-MAClow/IEEE802154E.c ****             // update the statistics
 888:build\openmote-cc2538_armgcc\openstack\02a-MAClow/IEEE802154E.c ****             ieee154e_stats.numDeSync++;
 2262              		.loc 1 888 0
 2263 0cac 964B     		ldr	r3, .L176+4
 2264 0cae 9B79     		ldrb	r3, [r3, #6]	@ zero_extendqisi2
 2265 0cb0 0133     		adds	r3, r3, #1
 2266 0cb2 DAB2     		uxtb	r2, r3
 2267 0cb4 944B     		ldr	r3, .L176+4
 2268 0cb6 9A71     		strb	r2, [r3, #6]
 889:build\openmote-cc2538_armgcc\openstack\02a-MAClow/IEEE802154E.c **** 
 890:build\openmote-cc2538_armgcc\openstack\02a-MAClow/IEEE802154E.c ****             // abort
 891:build\openmote-cc2538_armgcc\openstack\02a-MAClow/IEEE802154E.c ****             endSlot();
 2269              		.loc 1 891 0
 2270 0cb8 FFF7FEFF 		bl	endSlot
 892:build\openmote-cc2538_armgcc\openstack\02a-MAClow/IEEE802154E.c ****             return;
 2271              		.loc 1 892 0
 2272 0cbc CDE1     		b	.L144
 2273              	.L146:
 893:build\openmote-cc2538_armgcc\openstack\02a-MAClow/IEEE802154E.c ****         }
 894:build\openmote-cc2538_armgcc\openstack\02a-MAClow/IEEE802154E.c ****     }
 895:build\openmote-cc2538_armgcc\openstack\02a-MAClow/IEEE802154E.c **** 
 896:build\openmote-cc2538_armgcc\openstack\02a-MAClow/IEEE802154E.c ****     // if the previous slot took too long, we will not be in the right state
 897:build\openmote-cc2538_armgcc\openstack\02a-MAClow/IEEE802154E.c ****     if (ieee154e_vars.state!=S_SLEEP) {
 2274              		.loc 1 897 0
 2275 0cbe 914B     		ldr	r3, .L176
 2276 0cc0 93F86431 		ldrb	r3, [r3, #356]	@ zero_extendqisi2
 2277 0cc4 002B     		cmp	r3, #0
 2278 0cc6 16D0     		beq	.L149
 898:build\openmote-cc2538_armgcc\openstack\02a-MAClow/IEEE802154E.c ****         // log the error
 899:build\openmote-cc2538_armgcc\openstack\02a-MAClow/IEEE802154E.c ****         openserial_printError(COMPONENT_IEEE802154E,ERR_WRONG_STATE_IN_STARTSLOT,
 900:build\openmote-cc2538_armgcc\openstack\02a-MAClow/IEEE802154E.c ****                             (errorparameter_t)ieee154e_vars.state,
 2279              		.loc 1 900 0
 2280 0cc8 8E4B     		ldr	r3, .L176
 2281 0cca 93F86431 		ldrb	r3, [r3, #356]	@ zero_extendqisi2
 899:build\openmote-cc2538_armgcc\openstack\02a-MAClow/IEEE802154E.c ****                             (errorparameter_t)ieee154e_vars.state,
 2282              		.loc 1 899 0
 2283 0cce 9AB2     		uxth	r2, r3
 901:build\openmote-cc2538_armgcc\openstack\02a-MAClow/IEEE802154E.c ****                             (errorparameter_t)ieee154e_vars.slotOffset);
 2284              		.loc 1 901 0
 2285 0cd0 8C4B     		ldr	r3, .L176
 2286 0cd2 DB88     		ldrh	r3, [r3, #6]
 899:build\openmote-cc2538_armgcc\openstack\02a-MAClow/IEEE802154E.c ****                             (errorparameter_t)ieee154e_vars.state,
 2287              		.loc 1 899 0
 2288 0cd4 1F21     		movs	r1, #31
 2289 0cd6 0920     		movs	r0, #9
 2290 0cd8 FFF7FEFF 		bl	openserial_printError
 902:build\openmote-cc2538_armgcc\openstack\02a-MAClow/IEEE802154E.c **** 
 903:build\openmote-cc2538_armgcc\openstack\02a-MAClow/IEEE802154E.c ****         openserial_printError(COMPONENT_IEEE802154E,ERR_HWAN,
 904:build\openmote-cc2538_armgcc\openstack\02a-MAClow/IEEE802154E.c ****                             (errorparameter_t)ieee154e_vars.state,
 2291              		.loc 1 904 0
 2292 0cdc 894B     		ldr	r3, .L176
 2293 0cde 93F86431 		ldrb	r3, [r3, #356]	@ zero_extendqisi2
 903:build\openmote-cc2538_armgcc\openstack\02a-MAClow/IEEE802154E.c ****                             (errorparameter_t)ieee154e_vars.state,
 2294              		.loc 1 903 0
 2295 0ce2 9AB2     		uxth	r2, r3
 905:build\openmote-cc2538_armgcc\openstack\02a-MAClow/IEEE802154E.c ****                             (errorparameter_t)ieee154e_vars.slotOffset);
 2296              		.loc 1 905 0
 2297 0ce4 874B     		ldr	r3, .L176
 2298 0ce6 DB88     		ldrh	r3, [r3, #6]
 903:build\openmote-cc2538_armgcc\openstack\02a-MAClow/IEEE802154E.c ****                             (errorparameter_t)ieee154e_vars.state,
 2299              		.loc 1 903 0
 2300 0ce8 4C21     		movs	r1, #76
 2301 0cea 0920     		movs	r0, #9
 2302 0cec FFF7FEFF 		bl	openserial_printError
 906:build\openmote-cc2538_armgcc\openstack\02a-MAClow/IEEE802154E.c ****         // abort
 907:build\openmote-cc2538_armgcc\openstack\02a-MAClow/IEEE802154E.c ****         endSlot();
 2303              		.loc 1 907 0
 2304 0cf0 FFF7FEFF 		bl	endSlot
 908:build\openmote-cc2538_armgcc\openstack\02a-MAClow/IEEE802154E.c ****         return;
 2305              		.loc 1 908 0
 2306 0cf4 B1E1     		b	.L144
 2307              	.L149:
 909:build\openmote-cc2538_armgcc\openstack\02a-MAClow/IEEE802154E.c ****     }
 910:build\openmote-cc2538_armgcc\openstack\02a-MAClow/IEEE802154E.c **** 
 911:build\openmote-cc2538_armgcc\openstack\02a-MAClow/IEEE802154E.c ****     // Reset sleep slots
 912:build\openmote-cc2538_armgcc\openstack\02a-MAClow/IEEE802154E.c ****     ieee154e_vars.numOfSleepSlots = 1;
 2308              		.loc 1 912 0
 2309 0cf6 834B     		ldr	r3, .L176
 2310 0cf8 0122     		movs	r2, #1
 2311 0cfa C3F86021 		str	r2, [r3, #352]
 913:build\openmote-cc2538_armgcc\openstack\02a-MAClow/IEEE802154E.c **** 
 914:build\openmote-cc2538_armgcc\openstack\02a-MAClow/IEEE802154E.c ****     if (ieee154e_vars.slotOffset==ieee154e_vars.nextActiveSlotOffset) {
 2312              		.loc 1 914 0
 2313 0cfe 814B     		ldr	r3, .L176
 2314 0d00 DA88     		ldrh	r2, [r3, #6]
 2315 0d02 804B     		ldr	r3, .L176
 2316 0d04 1B89     		ldrh	r3, [r3, #8]
 2317 0d06 9A42     		cmp	r2, r3
 2318 0d08 40F08380 		bne	.L150
 915:build\openmote-cc2538_armgcc\openstack\02a-MAClow/IEEE802154E.c ****         // this is the next active slot
 916:build\openmote-cc2538_armgcc\openstack\02a-MAClow/IEEE802154E.c **** 
 917:build\openmote-cc2538_armgcc\openstack\02a-MAClow/IEEE802154E.c ****         // advance the schedule
 918:build\openmote-cc2538_armgcc\openstack\02a-MAClow/IEEE802154E.c ****         schedule_advanceSlot();
 2319              		.loc 1 918 0
 2320 0d0c FFF7FEFF 		bl	schedule_advanceSlot
 919:build\openmote-cc2538_armgcc\openstack\02a-MAClow/IEEE802154E.c **** 
 920:build\openmote-cc2538_armgcc\openstack\02a-MAClow/IEEE802154E.c ****         // calculate the frequency to transmit on
 921:build\openmote-cc2538_armgcc\openstack\02a-MAClow/IEEE802154E.c ****         ieee154e_vars.freq = calculateFrequency(schedule_getChannelOffset());
 2321              		.loc 1 921 0
 2322 0d10 FFF7FEFF 		bl	schedule_getChannelOffset
 2323 0d14 0346     		mov	r3, r0
 2324 0d16 1846     		mov	r0, r3
 2325 0d18 FFF7FEFF 		bl	calculateFrequency
 2326 0d1c 0346     		mov	r3, r0
 2327 0d1e 1A46     		mov	r2, r3
 2328 0d20 784B     		ldr	r3, .L176
 2329 0d22 83F88021 		strb	r2, [r3, #384]
 922:build\openmote-cc2538_armgcc\openstack\02a-MAClow/IEEE802154E.c **** 
 923:build\openmote-cc2538_armgcc\openstack\02a-MAClow/IEEE802154E.c ****         // find the next one
 924:build\openmote-cc2538_armgcc\openstack\02a-MAClow/IEEE802154E.c ****         ieee154e_vars.nextActiveSlotOffset = schedule_getNextActiveSlotOffset();
 2330              		.loc 1 924 0
 2331 0d26 FFF7FEFF 		bl	schedule_getNextActiveSlotOffset
 2332 0d2a 0346     		mov	r3, r0
 2333 0d2c 1A46     		mov	r2, r3
 2334 0d2e 754B     		ldr	r3, .L176
 2335 0d30 1A81     		strh	r2, [r3, #8]	@ movhi
 925:build\openmote-cc2538_armgcc\openstack\02a-MAClow/IEEE802154E.c ****         if (idmanager_getIsSlotSkip() && idmanager_getIsDAGroot()==FALSE) {
 2336              		.loc 1 925 0
 2337 0d32 FFF7FEFF 		bl	idmanager_getIsSlotSkip
 2338 0d36 0346     		mov	r3, r0
 2339 0d38 002B     		cmp	r3, #0
 2340 0d3a 59D0     		beq	.L151
 2341              		.loc 1 925 0 is_stmt 0 discriminator 1
 2342 0d3c FFF7FEFF 		bl	idmanager_getIsDAGroot
 2343 0d40 0346     		mov	r3, r0
 2344 0d42 83F00103 		eor	r3, r3, #1
 2345 0d46 DBB2     		uxtb	r3, r3
 2346 0d48 002B     		cmp	r3, #0
 2347 0d4a 51D0     		beq	.L151
 926:build\openmote-cc2538_armgcc\openstack\02a-MAClow/IEEE802154E.c ****             if (ieee154e_vars.nextActiveSlotOffset>ieee154e_vars.slotOffset) {
 2348              		.loc 1 926 0 is_stmt 1
 2349 0d4c 6D4B     		ldr	r3, .L176
 2350 0d4e 1A89     		ldrh	r2, [r3, #8]
 2351 0d50 6C4B     		ldr	r3, .L176
 2352 0d52 DB88     		ldrh	r3, [r3, #6]
 2353 0d54 9A42     		cmp	r2, r3
 2354 0d56 0AD9     		bls	.L152
 927:build\openmote-cc2538_armgcc\openstack\02a-MAClow/IEEE802154E.c ****                 ieee154e_vars.numOfSleepSlots = ieee154e_vars.nextActiveSlotOffset-ieee154e_vars.sl
 2355              		.loc 1 927 0
 2356 0d58 6A4B     		ldr	r3, .L176
 2357 0d5a 1B89     		ldrh	r3, [r3, #8]
 2358 0d5c 1A46     		mov	r2, r3
 2359 0d5e 694B     		ldr	r3, .L176
 2360 0d60 DB88     		ldrh	r3, [r3, #6]
 2361 0d62 D31A     		subs	r3, r2, r3
 2362 0d64 1A46     		mov	r2, r3
 2363 0d66 674B     		ldr	r3, .L176
 2364 0d68 C3F86021 		str	r2, [r3, #352]
 2365 0d6c 0DE0     		b	.L153
 2366              	.L152:
 928:build\openmote-cc2538_armgcc\openstack\02a-MAClow/IEEE802154E.c ****             } else {
 929:build\openmote-cc2538_armgcc\openstack\02a-MAClow/IEEE802154E.c ****                 ieee154e_vars.numOfSleepSlots = schedule_getFrameLength()+ieee154e_vars.nextActiveS
 2367              		.loc 1 929 0
 2368 0d6e FFF7FEFF 		bl	schedule_getFrameLength
 2369 0d72 0346     		mov	r3, r0
 2370 0d74 1A46     		mov	r2, r3
 2371 0d76 634B     		ldr	r3, .L176
 2372 0d78 1B89     		ldrh	r3, [r3, #8]
 2373 0d7a 1344     		add	r3, r3, r2
 2374 0d7c 614A     		ldr	r2, .L176
 2375 0d7e D288     		ldrh	r2, [r2, #6]
 2376 0d80 9B1A     		subs	r3, r3, r2
 2377 0d82 1A46     		mov	r2, r3
 2378 0d84 5F4B     		ldr	r3, .L176
 2379 0d86 C3F86021 		str	r2, [r3, #352]
 2380              	.L153:
 930:build\openmote-cc2538_armgcc\openstack\02a-MAClow/IEEE802154E.c ****             }
 931:build\openmote-cc2538_armgcc\openstack\02a-MAClow/IEEE802154E.c **** 
 932:build\openmote-cc2538_armgcc\openstack\02a-MAClow/IEEE802154E.c ****             opentimers_scheduleAbsolute(
 2381              		.loc 1 932 0
 2382 0d8a 5E4B     		ldr	r3, .L176
 2383 0d8c 93F8A801 		ldrb	r0, [r3, #424]	@ zero_extendqisi2
 933:build\openmote-cc2538_armgcc\openstack\02a-MAClow/IEEE802154E.c ****                 ieee154e_vars.timerId,                            // timerId
 934:build\openmote-cc2538_armgcc\openstack\02a-MAClow/IEEE802154E.c ****                 TsSlotDuration*(ieee154e_vars.numOfSleepSlots),   // duration
 2384              		.loc 1 934 0
 2385 0d90 5C4B     		ldr	r3, .L176
 2386 0d92 D3F86031 		ldr	r3, [r3, #352]
 932:build\openmote-cc2538_armgcc\openstack\02a-MAClow/IEEE802154E.c ****                 ieee154e_vars.timerId,                            // timerId
 2387              		.loc 1 932 0
 2388 0d96 4FF4A472 		mov	r2, #328
 2389 0d9a 02FB03F1 		mul	r1, r2, r3
 2390 0d9e 594B     		ldr	r3, .L176
 2391 0da0 D3F8AC21 		ldr	r2, [r3, #428]
 2392 0da4 594B     		ldr	r3, .L176+8
 2393 0da6 0093     		str	r3, [sp]
 2394 0da8 0123     		movs	r3, #1
 2395 0daa FFF7FEFF 		bl	opentimers_scheduleAbsolute
 935:build\openmote-cc2538_armgcc\openstack\02a-MAClow/IEEE802154E.c ****                 ieee154e_vars.startOfSlotReference,               // reference
 936:build\openmote-cc2538_armgcc\openstack\02a-MAClow/IEEE802154E.c ****                 TIME_TICS,                                        // timetype
 937:build\openmote-cc2538_armgcc\openstack\02a-MAClow/IEEE802154E.c ****                 isr_ieee154e_newSlot                              // callback
 938:build\openmote-cc2538_armgcc\openstack\02a-MAClow/IEEE802154E.c ****             );
 939:build\openmote-cc2538_armgcc\openstack\02a-MAClow/IEEE802154E.c ****             ieee154e_vars.slotDuration = TsSlotDuration*(ieee154e_vars.numOfSleepSlots);
 2396              		.loc 1 939 0
 2397 0dae 554B     		ldr	r3, .L176
 2398 0db0 D3F86031 		ldr	r3, [r3, #352]
 2399 0db4 9BB2     		uxth	r3, r3
 2400 0db6 1A46     		mov	r2, r3	@ movhi
 2401 0db8 9200     		lsls	r2, r2, #2
 2402 0dba 1A44     		add	r2, r2, r3
 2403 0dbc D200     		lsls	r2, r2, #3
 2404 0dbe 1344     		add	r3, r3, r2
 2405 0dc0 DB00     		lsls	r3, r3, #3
 2406 0dc2 9AB2     		uxth	r2, r3
 2407 0dc4 4F4B     		ldr	r3, .L176
 2408 0dc6 A3F8A621 		strh	r2, [r3, #422]	@ movhi
 940:build\openmote-cc2538_armgcc\openstack\02a-MAClow/IEEE802154E.c ****             // radiotimer_setPeriod(TsSlotDuration*(ieee154e_vars.numOfSleepSlots));
 941:build\openmote-cc2538_armgcc\openstack\02a-MAClow/IEEE802154E.c **** 
 942:build\openmote-cc2538_armgcc\openstack\02a-MAClow/IEEE802154E.c ****             //increase ASN by numOfSleepSlots-1 slots as at this slot is already incremented by 1
 943:build\openmote-cc2538_armgcc\openstack\02a-MAClow/IEEE802154E.c ****             for (i=0;i<ieee154e_vars.numOfSleepSlots-1;i++){
 2409              		.loc 1 943 0
 2410 0dca 0023     		movs	r3, #0
 2411 0dcc 87F83730 		strb	r3, [r7, #55]
 2412 0dd0 06E0     		b	.L154
 2413              	.L155:
 944:build\openmote-cc2538_armgcc\openstack\02a-MAClow/IEEE802154E.c ****                 incrementAsnOffset();
 2414              		.loc 1 944 0 discriminator 3
 2415 0dd2 FFF7FEFF 		bl	incrementAsnOffset
 943:build\openmote-cc2538_armgcc\openstack\02a-MAClow/IEEE802154E.c ****                 incrementAsnOffset();
 2416              		.loc 1 943 0 discriminator 3
 2417 0dd6 97F83730 		ldrb	r3, [r7, #55]	@ zero_extendqisi2
 2418 0dda 0133     		adds	r3, r3, #1
 2419 0ddc 87F83730 		strb	r3, [r7, #55]
 2420              	.L154:
 943:build\openmote-cc2538_armgcc\openstack\02a-MAClow/IEEE802154E.c ****                 incrementAsnOffset();
 2421              		.loc 1 943 0 is_stmt 0 discriminator 1
 2422 0de0 97F83720 		ldrb	r2, [r7, #55]	@ zero_extendqisi2
 2423 0de4 474B     		ldr	r3, .L176
 2424 0de6 D3F86031 		ldr	r3, [r3, #352]
 2425 0dea 013B     		subs	r3, r3, #1
 2426 0dec 9A42     		cmp	r2, r3
 2427 0dee F0D3     		bcc	.L155
 2428              	.L151:
 945:build\openmote-cc2538_armgcc\openstack\02a-MAClow/IEEE802154E.c ****             }
 946:build\openmote-cc2538_armgcc\openstack\02a-MAClow/IEEE802154E.c ****         }
 947:build\openmote-cc2538_armgcc\openstack\02a-MAClow/IEEE802154E.c ****         ieee154e_vars.nextActiveSlotOffset = schedule_getNextActiveSlotOffset();
 2429              		.loc 1 947 0 is_stmt 1
 2430 0df0 FFF7FEFF 		bl	schedule_getNextActiveSlotOffset
 2431 0df4 0346     		mov	r3, r0
 2432 0df6 1A46     		mov	r2, r3
 2433 0df8 424B     		ldr	r3, .L176
 2434 0dfa 1A81     		strh	r2, [r3, #8]	@ movhi
 948:build\openmote-cc2538_armgcc\openstack\02a-MAClow/IEEE802154E.c ****     } else {
 949:build\openmote-cc2538_armgcc\openstack\02a-MAClow/IEEE802154E.c ****         // this is NOT the next active slot, abort
 950:build\openmote-cc2538_armgcc\openstack\02a-MAClow/IEEE802154E.c **** 
 951:build\openmote-cc2538_armgcc\openstack\02a-MAClow/IEEE802154E.c ****         // abort the slot
 952:build\openmote-cc2538_armgcc\openstack\02a-MAClow/IEEE802154E.c ****         endSlot();
 953:build\openmote-cc2538_armgcc\openstack\02a-MAClow/IEEE802154E.c **** 
 954:build\openmote-cc2538_armgcc\openstack\02a-MAClow/IEEE802154E.c ****         return;
 955:build\openmote-cc2538_armgcc\openstack\02a-MAClow/IEEE802154E.c ****     }
 956:build\openmote-cc2538_armgcc\openstack\02a-MAClow/IEEE802154E.c **** 
 957:build\openmote-cc2538_armgcc\openstack\02a-MAClow/IEEE802154E.c ****     // check the schedule to see what type of slot this is
 958:build\openmote-cc2538_armgcc\openstack\02a-MAClow/IEEE802154E.c ****     cellType = schedule_getType();
 2435              		.loc 1 958 0
 2436 0dfc FFF7FEFF 		bl	schedule_getType
 2437 0e00 0346     		mov	r3, r0
 2438 0e02 87F83530 		strb	r3, [r7, #53]
 959:build\openmote-cc2538_armgcc\openstack\02a-MAClow/IEEE802154E.c ****     switch (cellType) {
 2439              		.loc 1 959 0
 2440 0e06 97F83530 		ldrb	r3, [r7, #53]	@ zero_extendqisi2
 2441 0e0a 022B     		cmp	r3, #2
 2442 0e0c 00F00581 		beq	.L158
 2443 0e10 02E0     		b	.L174
 2444              	.L150:
 952:build\openmote-cc2538_armgcc\openstack\02a-MAClow/IEEE802154E.c **** 
 2445              		.loc 1 952 0
 2446 0e12 FFF7FEFF 		bl	endSlot
 954:build\openmote-cc2538_armgcc\openstack\02a-MAClow/IEEE802154E.c ****     }
 2447              		.loc 1 954 0
 2448 0e16 20E1     		b	.L144
 2449              	.L174:
 2450              		.loc 1 959 0
 2451 0e18 032B     		cmp	r3, #3
 2452 0e1a 02D0     		beq	.L159
 2453 0e1c 012B     		cmp	r3, #1
 2454 0e1e 40F01081 		bne	.L175
 2455              	.L159:
 960:build\openmote-cc2538_armgcc\openstack\02a-MAClow/IEEE802154E.c ****         case CELLTYPE_TXRX:
 961:build\openmote-cc2538_armgcc\openstack\02a-MAClow/IEEE802154E.c ****         case CELLTYPE_TX:
 962:build\openmote-cc2538_armgcc\openstack\02a-MAClow/IEEE802154E.c ****             // assuming that there is nothing to send
 963:build\openmote-cc2538_armgcc\openstack\02a-MAClow/IEEE802154E.c ****             ieee154e_vars.dataToSend = NULL;
 2456              		.loc 1 963 0
 2457 0e22 384B     		ldr	r3, .L176
 2458 0e24 0022     		movs	r2, #0
 2459 0e26 C3F86821 		str	r2, [r3, #360]
 964:build\openmote-cc2538_armgcc\openstack\02a-MAClow/IEEE802154E.c ****             // get the neighbor to check this is dedicated cell or not later
 965:build\openmote-cc2538_armgcc\openstack\02a-MAClow/IEEE802154E.c ****             schedule_getNeighbor(&neighbor);
 2460              		.loc 1 965 0
 2461 0e2a 07F12403 		add	r3, r7, #36
 2462 0e2e 1846     		mov	r0, r3
 2463 0e30 FFF7FEFF 		bl	schedule_getNeighbor
 966:build\openmote-cc2538_armgcc\openstack\02a-MAClow/IEEE802154E.c **** 
 967:build\openmote-cc2538_armgcc\openstack\02a-MAClow/IEEE802154E.c ****             // check whether we can send
 968:build\openmote-cc2538_armgcc\openstack\02a-MAClow/IEEE802154E.c ****             if (schedule_getOkToSend()) {
 2464              		.loc 1 968 0
 2465 0e34 FFF7FEFF 		bl	schedule_getOkToSend
 2466 0e38 0346     		mov	r3, r0
 2467 0e3a 002B     		cmp	r3, #0
 2468 0e3c 00F09A80 		beq	.L160
 969:build\openmote-cc2538_armgcc\openstack\02a-MAClow/IEEE802154E.c ****                 if (packetfunctions_isBroadcastMulticast(&neighbor)==FALSE){
 2469              		.loc 1 969 0
 2470 0e40 07F12403 		add	r3, r7, #36
 2471 0e44 1846     		mov	r0, r3
 2472 0e46 FFF7FEFF 		bl	packetfunctions_isBroadcastMulticast
 2473 0e4a 0346     		mov	r3, r0
 2474 0e4c 83F00103 		eor	r3, r3, #1
 2475 0e50 DBB2     		uxtb	r3, r3
 2476 0e52 002B     		cmp	r3, #0
 2477 0e54 3BD0     		beq	.L161
 970:build\openmote-cc2538_armgcc\openstack\02a-MAClow/IEEE802154E.c **** 
 971:build\openmote-cc2538_armgcc\openstack\02a-MAClow/IEEE802154E.c ****                     if (schedule_getShared()){
 2478              		.loc 1 971 0
 2479 0e56 FFF7FEFF 		bl	schedule_getShared
 2480 0e5a 0346     		mov	r3, r0
 2481 0e5c 002B     		cmp	r3, #0
 2482 0e5e 09D0     		beq	.L162
 972:build\openmote-cc2538_armgcc\openstack\02a-MAClow/IEEE802154E.c ****                         // this is an autonomous TxRx cell (unicast)
 973:build\openmote-cc2538_armgcc\openstack\02a-MAClow/IEEE802154E.c ****                         ieee154e_vars.dataToSend = openqueue_macGet6PandJoinPacket(&neighbor);
 2483              		.loc 1 973 0
 2484 0e60 07F12403 		add	r3, r7, #36
 2485 0e64 1846     		mov	r0, r3
 2486 0e66 FFF7FEFF 		bl	openqueue_macGet6PandJoinPacket
 2487 0e6a 0246     		mov	r2, r0
 2488 0e6c 254B     		ldr	r3, .L176
 2489 0e6e C3F86821 		str	r2, [r3, #360]
 2490 0e72 7FE0     		b	.L160
 2491              	.L162:
 974:build\openmote-cc2538_armgcc\openstack\02a-MAClow/IEEE802154E.c ****                     } else {
 975:build\openmote-cc2538_armgcc\openstack\02a-MAClow/IEEE802154E.c ****                         // this is a managed Tx cell
 976:build\openmote-cc2538_armgcc\openstack\02a-MAClow/IEEE802154E.c ****                         ieee154e_vars.dataToSend = openqueue_macGetNonJoinIPv6Packet(&neighbor);
 2492              		.loc 1 976 0
 2493 0e74 07F12403 		add	r3, r7, #36
 2494 0e78 1846     		mov	r0, r3
 2495 0e7a FFF7FEFF 		bl	openqueue_macGetNonJoinIPv6Packet
 2496 0e7e 0246     		mov	r2, r0
 2497 0e80 204B     		ldr	r3, .L176
 2498 0e82 C3F86821 		str	r2, [r3, #360]
 977:build\openmote-cc2538_armgcc\openstack\02a-MAClow/IEEE802154E.c **** 
 978:build\openmote-cc2538_armgcc\openstack\02a-MAClow/IEEE802154E.c ****                         if (ieee154e_vars.dataToSend == NULL){
 2499              		.loc 1 978 0
 2500 0e86 1F4B     		ldr	r3, .L176
 2501 0e88 D3F86831 		ldr	r3, [r3, #360]
 2502 0e8c 002B     		cmp	r3, #0
 2503 0e8e 08D1     		bne	.L164
 979:build\openmote-cc2538_armgcc\openstack\02a-MAClow/IEEE802154E.c ****                             ieee154e_vars.dataToSend = openqueue_macGetKaPacket(&neighbor);
 2504              		.loc 1 979 0
 2505 0e90 07F12403 		add	r3, r7, #36
 2506 0e94 1846     		mov	r0, r3
 2507 0e96 FFF7FEFF 		bl	openqueue_macGetKaPacket
 2508 0e9a 0246     		mov	r2, r0
 2509 0e9c 194B     		ldr	r3, .L176
 2510 0e9e C3F86821 		str	r2, [r3, #360]
 2511              	.L164:
 980:build\openmote-cc2538_armgcc\openstack\02a-MAClow/IEEE802154E.c ****                         }
 981:build\openmote-cc2538_armgcc\openstack\02a-MAClow/IEEE802154E.c **** 
 982:build\openmote-cc2538_armgcc\openstack\02a-MAClow/IEEE802154E.c ****                         // update numcellpassed and numcellused on managed Tx cell
 983:build\openmote-cc2538_armgcc\openstack\02a-MAClow/IEEE802154E.c ****                         if (ieee154e_vars.dataToSend!=NULL) {
 2512              		.loc 1 983 0
 2513 0ea2 184B     		ldr	r3, .L176
 2514 0ea4 D3F86831 		ldr	r3, [r3, #360]
 2515 0ea8 002B     		cmp	r3, #0
 2516 0eaa 0AD0     		beq	.L165
 984:build\openmote-cc2538_armgcc\openstack\02a-MAClow/IEEE802154E.c ****                             ieee154e_vars.dataToSend->l2_sendOnTxCell = TRUE;
 2517              		.loc 1 984 0
 2518 0eac 154B     		ldr	r3, .L176
 2519 0eae D3F86831 		ldr	r3, [r3, #360]
 2520 0eb2 0122     		movs	r2, #1
 2521 0eb4 83F8A820 		strb	r2, [r3, #168]
 985:build\openmote-cc2538_armgcc\openstack\02a-MAClow/IEEE802154E.c ****                             msf_updateCellsUsed(&neighbor);
 2522              		.loc 1 985 0
 2523 0eb8 07F12403 		add	r3, r7, #36
 2524 0ebc 1846     		mov	r0, r3
 2525 0ebe FFF7FEFF 		bl	msf_updateCellsUsed
 2526              	.L165:
 986:build\openmote-cc2538_armgcc\openstack\02a-MAClow/IEEE802154E.c ****                         }
 987:build\openmote-cc2538_armgcc\openstack\02a-MAClow/IEEE802154E.c ****                         msf_updateCellsPassed(&neighbor);
 2527              		.loc 1 987 0
 2528 0ec2 07F12403 		add	r3, r7, #36
 2529 0ec6 1846     		mov	r0, r3
 2530 0ec8 FFF7FEFF 		bl	msf_updateCellsPassed
 2531 0ecc 52E0     		b	.L160
 2532              	.L161:
 988:build\openmote-cc2538_armgcc\openstack\02a-MAClow/IEEE802154E.c ****                     }
 989:build\openmote-cc2538_armgcc\openstack\02a-MAClow/IEEE802154E.c ****                 } else {
 990:build\openmote-cc2538_armgcc\openstack\02a-MAClow/IEEE802154E.c ****                     if (schedule_getShared()) {
 2533              		.loc 1 990 0
 2534 0ece FFF7FEFF 		bl	schedule_getShared
 2535 0ed2 0346     		mov	r3, r0
 2536 0ed4 002B     		cmp	r3, #0
 2537 0ed6 1BD0     		beq	.L166
 991:build\openmote-cc2538_armgcc\openstack\02a-MAClow/IEEE802154E.c ****                         // this is minimal cell
 992:build\openmote-cc2538_armgcc\openstack\02a-MAClow/IEEE802154E.c ****                         ieee154e_vars.dataToSend = openqueue_macGetDIOPacket();
 2538              		.loc 1 992 0
 2539 0ed8 FFF7FEFF 		bl	openqueue_macGetDIOPacket
 2540 0edc 0246     		mov	r2, r0
 2541 0ede 094B     		ldr	r3, .L176
 2542 0ee0 C3F86821 		str	r2, [r3, #360]
 993:build\openmote-cc2538_armgcc\openstack\02a-MAClow/IEEE802154E.c ****                         if (ieee154e_vars.dataToSend==NULL){
 2543              		.loc 1 993 0
 2544 0ee4 074B     		ldr	r3, .L176
 2545 0ee6 D3F86831 		ldr	r3, [r3, #360]
 2546 0eea 002B     		cmp	r3, #0
 2547 0eec 42D1     		bne	.L160
 994:build\openmote-cc2538_armgcc\openstack\02a-MAClow/IEEE802154E.c ****                             couldSendEB=TRUE;
 2548              		.loc 1 994 0
 2549 0eee 0123     		movs	r3, #1
 2550 0ef0 87F83630 		strb	r3, [r7, #54]
 995:build\openmote-cc2538_armgcc\openstack\02a-MAClow/IEEE802154E.c ****                             // look for an EB packet in the queue
 996:build\openmote-cc2538_armgcc\openstack\02a-MAClow/IEEE802154E.c ****                             ieee154e_vars.dataToSend = openqueue_macGetEBPacket();
 2551              		.loc 1 996 0
 2552 0ef4 FFF7FEFF 		bl	openqueue_macGetEBPacket
 2553 0ef8 0246     		mov	r2, r0
 2554 0efa 024B     		ldr	r3, .L176
 2555 0efc C3F86821 		str	r2, [r3, #360]
 2556 0f00 38E0     		b	.L160
 2557              	.L177:
 2558 0f02 00BF     		.align	2
 2559              	.L176:
 2560 0f04 00000000 		.word	ieee154e_vars
 2561 0f08 00000000 		.word	ieee154e_stats
 2562 0f0c 00000000 		.word	isr_ieee154e_newSlot
 2563              	.L166:
 997:build\openmote-cc2538_armgcc\openstack\02a-MAClow/IEEE802154E.c ****                         }
 998:build\openmote-cc2538_armgcc\openstack\02a-MAClow/IEEE802154E.c ****                     } else {
 999:build\openmote-cc2538_armgcc\openstack\02a-MAClow/IEEE802154E.c ****                         // this is autonomous TXRX cell (anycast)
1000:build\openmote-cc2538_armgcc\openstack\02a-MAClow/IEEE802154E.c ****                         if (msf_getHashCollisionFlag()==TRUE){
 2564              		.loc 1 1000 0
 2565 0f10 FFF7FEFF 		bl	msf_getHashCollisionFlag
 2566 0f14 0346     		mov	r3, r0
 2567 0f16 002B     		cmp	r3, #0
 2568 0f18 08D0     		beq	.L168
1001:build\openmote-cc2538_armgcc\openstack\02a-MAClow/IEEE802154E.c ****                             // check whether there is 6p or join request packet to send first
1002:build\openmote-cc2538_armgcc\openstack\02a-MAClow/IEEE802154E.c ****                             ieee154e_vars.dataToSend = openqueue_macGet6PandJoinPacket(&neighbor);
 2569              		.loc 1 1002 0
 2570 0f1a 07F12403 		add	r3, r7, #36
 2571 0f1e 1846     		mov	r0, r3
 2572 0f20 FFF7FEFF 		bl	openqueue_macGet6PandJoinPacket
 2573 0f24 0246     		mov	r2, r0
 2574 0f26 4E4B     		ldr	r3, .L178
 2575 0f28 C3F86821 		str	r2, [r3, #360]
 2576              	.L168:
1003:build\openmote-cc2538_armgcc\openstack\02a-MAClow/IEEE802154E.c ****                         }
1004:build\openmote-cc2538_armgcc\openstack\02a-MAClow/IEEE802154E.c **** 
1005:build\openmote-cc2538_armgcc\openstack\02a-MAClow/IEEE802154E.c ****                         if (ieee154e_vars.dataToSend == NULL) {
 2577              		.loc 1 1005 0
 2578 0f2c 4C4B     		ldr	r3, .L178
 2579 0f2e D3F86831 		ldr	r3, [r3, #360]
 2580 0f32 002B     		cmp	r3, #0
 2581 0f34 10D1     		bne	.L169
1006:build\openmote-cc2538_armgcc\openstack\02a-MAClow/IEEE802154E.c ****                             if (schedule_getAutonomousTxRxCellUnicastNeighbor(&autonomousUnicastNei
 2582              		.loc 1 1006 0
 2583 0f36 07F11003 		add	r3, r7, #16
 2584 0f3a 1846     		mov	r0, r3
 2585 0f3c FFF7FEFF 		bl	schedule_getAutonomousTxRxCellUnicastNeighbor
 2586 0f40 0346     		mov	r3, r0
 2587 0f42 002B     		cmp	r3, #0
 2588 0f44 08D0     		beq	.L169
1007:build\openmote-cc2538_armgcc\openstack\02a-MAClow/IEEE802154E.c ****                                 ieee154e_vars.dataToSend = openqueue_macGet6PRequestOnAnycast(&auto
 2589              		.loc 1 1007 0
 2590 0f46 07F11003 		add	r3, r7, #16
 2591 0f4a 1846     		mov	r0, r3
 2592 0f4c FFF7FEFF 		bl	openqueue_macGet6PRequestOnAnycast
 2593 0f50 0246     		mov	r2, r0
 2594 0f52 434B     		ldr	r3, .L178
 2595 0f54 C3F86821 		str	r2, [r3, #360]
 2596              	.L169:
1008:build\openmote-cc2538_armgcc\openstack\02a-MAClow/IEEE802154E.c ****                             }
1009:build\openmote-cc2538_armgcc\openstack\02a-MAClow/IEEE802154E.c ****                         }
1010:build\openmote-cc2538_armgcc\openstack\02a-MAClow/IEEE802154E.c **** 
1011:build\openmote-cc2538_armgcc\openstack\02a-MAClow/IEEE802154E.c ****                         if (ieee154e_vars.dataToSend == NULL) {
 2597              		.loc 1 1011 0
 2598 0f58 414B     		ldr	r3, .L178
 2599 0f5a D3F86831 		ldr	r3, [r3, #360]
 2600 0f5e 002B     		cmp	r3, #0
 2601 0f60 08D1     		bne	.L160
1012:build\openmote-cc2538_armgcc\openstack\02a-MAClow/IEEE802154E.c ****                             ieee154e_vars.dataToSend = openqueue_macGet6PResponseAndDownStreamPacke
 2602              		.loc 1 1012 0
 2603 0f62 07F12403 		add	r3, r7, #36
 2604 0f66 1846     		mov	r0, r3
 2605 0f68 FFF7FEFF 		bl	openqueue_macGet6PResponseAndDownStreamPacket
 2606 0f6c 0246     		mov	r2, r0
 2607 0f6e 3C4B     		ldr	r3, .L178
 2608 0f70 C3F86821 		str	r2, [r3, #360]
 2609              	.L160:
1013:build\openmote-cc2538_armgcc\openstack\02a-MAClow/IEEE802154E.c ****                         }
1014:build\openmote-cc2538_armgcc\openstack\02a-MAClow/IEEE802154E.c ****                     }
1015:build\openmote-cc2538_armgcc\openstack\02a-MAClow/IEEE802154E.c ****                 }
1016:build\openmote-cc2538_armgcc\openstack\02a-MAClow/IEEE802154E.c ****             }
1017:build\openmote-cc2538_armgcc\openstack\02a-MAClow/IEEE802154E.c **** 
1018:build\openmote-cc2538_armgcc\openstack\02a-MAClow/IEEE802154E.c ****             if (ieee154e_vars.dataToSend==NULL) {
 2610              		.loc 1 1018 0
 2611 0f74 3A4B     		ldr	r3, .L178
 2612 0f76 D3F86831 		ldr	r3, [r3, #360]
 2613 0f7a 002B     		cmp	r3, #0
 2614 0f7c 06D1     		bne	.L170
1019:build\openmote-cc2538_armgcc\openstack\02a-MAClow/IEEE802154E.c ****                 if (cellType==CELLTYPE_TX) {
 2615              		.loc 1 1019 0
 2616 0f7e 97F83530 		ldrb	r3, [r7, #53]	@ zero_extendqisi2
 2617 0f82 012B     		cmp	r3, #1
 2618 0f84 49D1     		bne	.L158
1020:build\openmote-cc2538_armgcc\openstack\02a-MAClow/IEEE802154E.c ****                     // abort
1021:build\openmote-cc2538_armgcc\openstack\02a-MAClow/IEEE802154E.c ****                     endSlot();
 2619              		.loc 1 1021 0
 2620 0f86 FFF7FEFF 		bl	endSlot
1022:build\openmote-cc2538_armgcc\openstack\02a-MAClow/IEEE802154E.c ****                     break;
 2621              		.loc 1 1022 0
 2622 0f8a 66E0     		b	.L144
 2623              	.L170:
1023:build\openmote-cc2538_armgcc\openstack\02a-MAClow/IEEE802154E.c ****                 }
1024:build\openmote-cc2538_armgcc\openstack\02a-MAClow/IEEE802154E.c ****             } else {
1025:build\openmote-cc2538_armgcc\openstack\02a-MAClow/IEEE802154E.c ****                 // change state
1026:build\openmote-cc2538_armgcc\openstack\02a-MAClow/IEEE802154E.c ****                 changeState(S_TXDATAOFFSET);
 2624              		.loc 1 1026 0
 2625 0f8c 0420     		movs	r0, #4
 2626 0f8e FFF7FEFF 		bl	changeState
1027:build\openmote-cc2538_armgcc\openstack\02a-MAClow/IEEE802154E.c ****                 // change owner
1028:build\openmote-cc2538_armgcc\openstack\02a-MAClow/IEEE802154E.c ****                 ieee154e_vars.dataToSend->owner = COMPONENT_IEEE802154E;
 2627              		.loc 1 1028 0
 2628 0f92 334B     		ldr	r3, .L178
 2629 0f94 D3F86831 		ldr	r3, [r3, #360]
 2630 0f98 0922     		movs	r2, #9
 2631 0f9a 5A70     		strb	r2, [r3, #1]
1029:build\openmote-cc2538_armgcc\openstack\02a-MAClow/IEEE802154E.c ****                 if (couldSendEB==TRUE) {        // I will be sending an EB
 2632              		.loc 1 1029 0
 2633 0f9c 97F83630 		ldrb	r3, [r7, #54]	@ zero_extendqisi2
 2634 0fa0 002B     		cmp	r3, #0
 2635 0fa2 20D0     		beq	.L172
1030:build\openmote-cc2538_armgcc\openstack\02a-MAClow/IEEE802154E.c ****                     //copy synch IE  -- should be Little endian???
1031:build\openmote-cc2538_armgcc\openstack\02a-MAClow/IEEE802154E.c ****                     // fill in the ASN field of the EB
1032:build\openmote-cc2538_armgcc\openstack\02a-MAClow/IEEE802154E.c ****                     ieee154e_getAsn(asn);
 2636              		.loc 1 1032 0
 2637 0fa4 07F10803 		add	r3, r7, #8
 2638 0fa8 1846     		mov	r0, r3
 2639 0faa FFF7FEFF 		bl	ieee154e_getAsn
1033:build\openmote-cc2538_armgcc\openstack\02a-MAClow/IEEE802154E.c ****                     join_priority = (icmpv6rpl_getMyDAGrank()/MINHOPRANKINCREASE)-1; //poipoi -- us
 2640              		.loc 1 1033 0
 2641 0fae FFF7FEFF 		bl	icmpv6rpl_getMyDAGrank
 2642 0fb2 0346     		mov	r3, r0
 2643 0fb4 1B0A     		lsrs	r3, r3, #8
 2644 0fb6 9BB2     		uxth	r3, r3
 2645 0fb8 DBB2     		uxtb	r3, r3
 2646 0fba 013B     		subs	r3, r3, #1
 2647 0fbc DBB2     		uxtb	r3, r3
 2648 0fbe FB71     		strb	r3, [r7, #7]
1034:build\openmote-cc2538_armgcc\openstack\02a-MAClow/IEEE802154E.c ****                     memcpy(ieee154e_vars.dataToSend->l2_ASNpayload,&asn[0],sizeof(asn_t));
 2649              		.loc 1 1034 0
 2650 0fc0 274B     		ldr	r3, .L178
 2651 0fc2 D3F86831 		ldr	r3, [r3, #360]
 2652 0fc6 D3F89830 		ldr	r3, [r3, #152]
 2653 0fca 07F10801 		add	r1, r7, #8
 2654 0fce 0522     		movs	r2, #5
 2655 0fd0 1846     		mov	r0, r3
 2656 0fd2 FFF7FEFF 		bl	memcpy
1035:build\openmote-cc2538_armgcc\openstack\02a-MAClow/IEEE802154E.c ****                     memcpy(ieee154e_vars.dataToSend->l2_ASNpayload+sizeof(asn_t),&join_priority,siz
 2657              		.loc 1 1035 0
 2658 0fd6 224B     		ldr	r3, .L178
 2659 0fd8 D3F86831 		ldr	r3, [r3, #360]
 2660 0fdc D3F89830 		ldr	r3, [r3, #152]
 2661 0fe0 0533     		adds	r3, r3, #5
 2662 0fe2 FA79     		ldrb	r2, [r7, #7]	@ zero_extendqisi2
 2663 0fe4 1A70     		strb	r2, [r3]
 2664              	.L172:
1036:build\openmote-cc2538_armgcc\openstack\02a-MAClow/IEEE802154E.c ****                 }
1037:build\openmote-cc2538_armgcc\openstack\02a-MAClow/IEEE802154E.c ****                 // record that I attempt to transmit this packet
1038:build\openmote-cc2538_armgcc\openstack\02a-MAClow/IEEE802154E.c ****                 ieee154e_vars.dataToSend->l2_numTxAttempts++;
 2665              		.loc 1 1038 0
 2666 0fe6 1E4B     		ldr	r3, .L178
 2667 0fe8 D3F86831 		ldr	r3, [r3, #360]
 2668 0fec 93F85520 		ldrb	r2, [r3, #85]	@ zero_extendqisi2
 2669 0ff0 0132     		adds	r2, r2, #1
 2670 0ff2 D2B2     		uxtb	r2, r2
 2671 0ff4 83F85520 		strb	r2, [r3, #85]
1039:build\openmote-cc2538_armgcc\openstack\02a-MAClow/IEEE802154E.c **** #ifdef SLOT_FSM_IMPLEMENTATION_MULTIPLE_TIMER_INTERRUPT
1040:build\openmote-cc2538_armgcc\openstack\02a-MAClow/IEEE802154E.c ****                 // 1. schedule timer for loading packet
1041:build\openmote-cc2538_armgcc\openstack\02a-MAClow/IEEE802154E.c ****             sctimer_scheduleActionIn(ACTION_LOAD_PACKET, ieee154e_vars.startOfSlotReference+DURATIO
1042:build\openmote-cc2538_armgcc\openstack\02a-MAClow/IEEE802154E.c ****                 // prepare the packet for load packet action at DURATION_tt1
1043:build\openmote-cc2538_armgcc\openstack\02a-MAClow/IEEE802154E.c ****                 // make a local copy of the frame
1044:build\openmote-cc2538_armgcc\openstack\02a-MAClow/IEEE802154E.c ****                 packetfunctions_duplicatePacket(&ieee154e_vars.localCopyForTransmission, ieee154e_v
1045:build\openmote-cc2538_armgcc\openstack\02a-MAClow/IEEE802154E.c **** 
1046:build\openmote-cc2538_armgcc\openstack\02a-MAClow/IEEE802154E.c ****                 // check if packet needs to be encrypted/authenticated before transmission
1047:build\openmote-cc2538_armgcc\openstack\02a-MAClow/IEEE802154E.c ****                 if (ieee154e_vars.localCopyForTransmission.l2_securityLevel != IEEE154_ASH_SLF_TYPE
1048:build\openmote-cc2538_armgcc\openstack\02a-MAClow/IEEE802154E.c ****                     // encrypt in a local copy
1049:build\openmote-cc2538_armgcc\openstack\02a-MAClow/IEEE802154E.c ****                     if (IEEE802154_security_outgoingFrameSecurity(&ieee154e_vars.localCopyForTransm
1050:build\openmote-cc2538_armgcc\openstack\02a-MAClow/IEEE802154E.c ****                         // keep the frame in the OpenQueue in order to retry later
1051:build\openmote-cc2538_armgcc\openstack\02a-MAClow/IEEE802154E.c ****                         endSlot(); // abort
1052:build\openmote-cc2538_armgcc\openstack\02a-MAClow/IEEE802154E.c ****                         return;
1053:build\openmote-cc2538_armgcc\openstack\02a-MAClow/IEEE802154E.c ****                     }
1054:build\openmote-cc2538_armgcc\openstack\02a-MAClow/IEEE802154E.c ****                 }
1055:build\openmote-cc2538_armgcc\openstack\02a-MAClow/IEEE802154E.c ****                 // add 2 CRC bytes only to the local copy as we end up here for each retransmission
1056:build\openmote-cc2538_armgcc\openstack\02a-MAClow/IEEE802154E.c ****                 packetfunctions_reserveFooterSize(&ieee154e_vars.localCopyForTransmission, 2);
1057:build\openmote-cc2538_armgcc\openstack\02a-MAClow/IEEE802154E.c **** 
1058:build\openmote-cc2538_armgcc\openstack\02a-MAClow/IEEE802154E.c ****             // configure the radio for that frequency
1059:build\openmote-cc2538_armgcc\openstack\02a-MAClow/IEEE802154E.c ****             radio_setFrequency(ieee154e_vars.freq);
1060:build\openmote-cc2538_armgcc\openstack\02a-MAClow/IEEE802154E.c **** 
1061:build\openmote-cc2538_armgcc\openstack\02a-MAClow/IEEE802154E.c ****                 // set the tx buffer address and length register.(packet is NOT loaded at this mome
1062:build\openmote-cc2538_armgcc\openstack\02a-MAClow/IEEE802154E.c ****                 radio_loadPacket_prepare(ieee154e_vars.localCopyForTransmission.payload,
1063:build\openmote-cc2538_armgcc\openstack\02a-MAClow/IEEE802154E.c ****                                      ieee154e_vars.localCopyForTransmission.length);
1064:build\openmote-cc2538_armgcc\openstack\02a-MAClow/IEEE802154E.c ****                 // 2. schedule timer for sending packet
1065:build\openmote-cc2538_armgcc\openstack\02a-MAClow/IEEE802154E.c ****             sctimer_scheduleActionIn(ACTION_SEND_PACKET,  ieee154e_vars.startOfSlotReference+DURATI
1066:build\openmote-cc2538_armgcc\openstack\02a-MAClow/IEEE802154E.c ****                 // 3. schedule timer radio tx watchdog
1067:build\openmote-cc2538_armgcc\openstack\02a-MAClow/IEEE802154E.c ****             sctimer_scheduleActionIn(ACTION_SET_TIMEOUT, ieee154e_vars.startOfSlotReference+DURATIO
1068:build\openmote-cc2538_armgcc\openstack\02a-MAClow/IEEE802154E.c ****                 // 4. set capture interrupt for Tx SFD senddone and packet senddone
1069:build\openmote-cc2538_armgcc\openstack\02a-MAClow/IEEE802154E.c ****             sctimer_setCapture(ACTION_TX_SFD_DONE);
1070:build\openmote-cc2538_armgcc\openstack\02a-MAClow/IEEE802154E.c ****             sctimer_setCapture(ACTION_TX_SEND_DONE);
1071:build\openmote-cc2538_armgcc\openstack\02a-MAClow/IEEE802154E.c **** #else
1072:build\openmote-cc2538_armgcc\openstack\02a-MAClow/IEEE802154E.c ****                 // arm tt1
1073:build\openmote-cc2538_armgcc\openstack\02a-MAClow/IEEE802154E.c ****                 opentimers_scheduleAbsolute(
 2672              		.loc 1 1073 0
 2673 0ff8 194B     		ldr	r3, .L178
 2674 0ffa 93F8A801 		ldrb	r0, [r3, #424]	@ zero_extendqisi2
1074:build\openmote-cc2538_armgcc\openstack\02a-MAClow/IEEE802154E.c ****                     ieee154e_vars.timerId,                            // timerId
1075:build\openmote-cc2538_armgcc\openstack\02a-MAClow/IEEE802154E.c ****                     DURATION_tt1,                                     // duration
 2675              		.loc 1 1075 0
 2676 0ffe 184B     		ldr	r3, .L178
 2677 1000 D3F87831 		ldr	r3, [r3, #376]
1073:build\openmote-cc2538_armgcc\openstack\02a-MAClow/IEEE802154E.c ****                     ieee154e_vars.timerId,                            // timerId
 2678              		.loc 1 1073 0
 2679 1004 03F13401 		add	r1, r3, #52
 2680 1008 154B     		ldr	r3, .L178
 2681 100a D3F8AC21 		ldr	r2, [r3, #428]
 2682 100e 154B     		ldr	r3, .L178+4
 2683 1010 0093     		str	r3, [sp]
 2684 1012 0123     		movs	r3, #1
 2685 1014 FFF7FEFF 		bl	opentimers_scheduleAbsolute
1076:build\openmote-cc2538_armgcc\openstack\02a-MAClow/IEEE802154E.c ****                     ieee154e_vars.startOfSlotReference,               // reference
1077:build\openmote-cc2538_armgcc\openstack\02a-MAClow/IEEE802154E.c ****                     TIME_TICS,                                        // timetype
1078:build\openmote-cc2538_armgcc\openstack\02a-MAClow/IEEE802154E.c ****                     isr_ieee154e_timer                                // callback
1079:build\openmote-cc2538_armgcc\openstack\02a-MAClow/IEEE802154E.c ****                 );
1080:build\openmote-cc2538_armgcc\openstack\02a-MAClow/IEEE802154E.c ****                 // radiotimer_schedule(DURATION_tt1);
1081:build\openmote-cc2538_armgcc\openstack\02a-MAClow/IEEE802154E.c **** #endif
1082:build\openmote-cc2538_armgcc\openstack\02a-MAClow/IEEE802154E.c ****                 break;
 2686              		.loc 1 1082 0
 2687 1018 1FE0     		b	.L144
 2688              	.L158:
1083:build\openmote-cc2538_armgcc\openstack\02a-MAClow/IEEE802154E.c ****             }
1084:build\openmote-cc2538_armgcc\openstack\02a-MAClow/IEEE802154E.c ****         case CELLTYPE_RX:
1085:build\openmote-cc2538_armgcc\openstack\02a-MAClow/IEEE802154E.c ****             // change state
1086:build\openmote-cc2538_armgcc\openstack\02a-MAClow/IEEE802154E.c ****             changeState(S_RXDATAOFFSET);
 2689              		.loc 1 1086 0
 2690 101a 0F20     		movs	r0, #15
 2691 101c FFF7FEFF 		bl	changeState
1087:build\openmote-cc2538_armgcc\openstack\02a-MAClow/IEEE802154E.c **** #ifdef SLOT_FSM_IMPLEMENTATION_MULTIPLE_TIMER_INTERRUPT
1088:build\openmote-cc2538_armgcc\openstack\02a-MAClow/IEEE802154E.c ****             // arm rt1
1089:build\openmote-cc2538_armgcc\openstack\02a-MAClow/IEEE802154E.c ****          sctimer_scheduleActionIn(ACTION_RADIORX_ENABLE,ieee154e_vars.startOfSlotReference+DURATION
1090:build\openmote-cc2538_armgcc\openstack\02a-MAClow/IEEE802154E.c ****             radio_rxPacket_prepare();
1091:build\openmote-cc2538_armgcc\openstack\02a-MAClow/IEEE802154E.c ****             // 2. schedule timer for starting
1092:build\openmote-cc2538_armgcc\openstack\02a-MAClow/IEEE802154E.c ****          sctimer_scheduleActionIn(ACTION_SET_TIMEOUT,  ieee154e_vars.startOfSlotReference+DURATION_
1093:build\openmote-cc2538_armgcc\openstack\02a-MAClow/IEEE802154E.c ****             // 3.  set capture interrupt for Rx SFD done and receiving packet done
1094:build\openmote-cc2538_armgcc\openstack\02a-MAClow/IEEE802154E.c ****          sctimer_setCapture(ACTION_RX_SFD_DONE);
1095:build\openmote-cc2538_armgcc\openstack\02a-MAClow/IEEE802154E.c ****          sctimer_setCapture(ACTION_RX_DONE);
1096:build\openmote-cc2538_armgcc\openstack\02a-MAClow/IEEE802154E.c **** 
1097:build\openmote-cc2538_armgcc\openstack\02a-MAClow/IEEE802154E.c ****          // configure the radio for that frequency
1098:build\openmote-cc2538_armgcc\openstack\02a-MAClow/IEEE802154E.c ****          radio_setFrequency(ieee154e_vars.freq);
1099:build\openmote-cc2538_armgcc\openstack\02a-MAClow/IEEE802154E.c **** #else
1100:build\openmote-cc2538_armgcc\openstack\02a-MAClow/IEEE802154E.c ****             // arm rt1
1101:build\openmote-cc2538_armgcc\openstack\02a-MAClow/IEEE802154E.c ****             opentimers_scheduleAbsolute(
 2692              		.loc 1 1101 0
 2693 1020 0F4B     		ldr	r3, .L178
 2694 1022 93F8A801 		ldrb	r0, [r3, #424]	@ zero_extendqisi2
1102:build\openmote-cc2538_armgcc\openstack\02a-MAClow/IEEE802154E.c ****                 ieee154e_vars.timerId,                            // timerId
1103:build\openmote-cc2538_armgcc\openstack\02a-MAClow/IEEE802154E.c ****                 DURATION_rt1,                                     // duration
 2695              		.loc 1 1103 0
 2696 1026 0E4B     		ldr	r3, .L178
 2697 1028 D3F87831 		ldr	r3, [r3, #376]
1101:build\openmote-cc2538_armgcc\openstack\02a-MAClow/IEEE802154E.c ****                 ieee154e_vars.timerId,                            // timerId
 2698              		.loc 1 1101 0
 2699 102c 03F11E01 		add	r1, r3, #30
 2700 1030 0B4B     		ldr	r3, .L178
 2701 1032 D3F8AC21 		ldr	r2, [r3, #428]
 2702 1036 0B4B     		ldr	r3, .L178+4
 2703 1038 0093     		str	r3, [sp]
 2704 103a 0123     		movs	r3, #1
 2705 103c FFF7FEFF 		bl	opentimers_scheduleAbsolute
1104:build\openmote-cc2538_armgcc\openstack\02a-MAClow/IEEE802154E.c ****                 ieee154e_vars.startOfSlotReference,               // reference
1105:build\openmote-cc2538_armgcc\openstack\02a-MAClow/IEEE802154E.c ****                 TIME_TICS,                                        // timetype
1106:build\openmote-cc2538_armgcc\openstack\02a-MAClow/IEEE802154E.c ****                 isr_ieee154e_timer                                // callback
1107:build\openmote-cc2538_armgcc\openstack\02a-MAClow/IEEE802154E.c ****             );
1108:build\openmote-cc2538_armgcc\openstack\02a-MAClow/IEEE802154E.c ****             // radiotimer_schedule(DURATION_rt1);
1109:build\openmote-cc2538_armgcc\openstack\02a-MAClow/IEEE802154E.c **** #endif
1110:build\openmote-cc2538_armgcc\openstack\02a-MAClow/IEEE802154E.c ****             break;
 2706              		.loc 1 1110 0
 2707 1040 0BE0     		b	.L144
 2708              	.L175:
1111:build\openmote-cc2538_armgcc\openstack\02a-MAClow/IEEE802154E.c ****         default:
1112:build\openmote-cc2538_armgcc\openstack\02a-MAClow/IEEE802154E.c **** 
1113:build\openmote-cc2538_armgcc\openstack\02a-MAClow/IEEE802154E.c ****             // log the error
1114:build\openmote-cc2538_armgcc\openstack\02a-MAClow/IEEE802154E.c ****             openserial_printCritical(COMPONENT_IEEE802154E,ERR_WRONG_CELLTYPE,
 2709              		.loc 1 1114 0
 2710 1042 97F83530 		ldrb	r3, [r7, #53]	@ zero_extendqisi2
 2711 1046 9AB2     		uxth	r2, r3
1115:build\openmote-cc2538_armgcc\openstack\02a-MAClow/IEEE802154E.c ****                                (errorparameter_t)cellType,
1116:build\openmote-cc2538_armgcc\openstack\02a-MAClow/IEEE802154E.c ****                                (errorparameter_t)ieee154e_vars.slotOffset);
 2712              		.loc 1 1116 0
 2713 1048 054B     		ldr	r3, .L178
 2714 104a DB88     		ldrh	r3, [r3, #6]
1114:build\openmote-cc2538_armgcc\openstack\02a-MAClow/IEEE802154E.c ****                                (errorparameter_t)cellType,
 2715              		.loc 1 1114 0
 2716 104c 1921     		movs	r1, #25
 2717 104e 0920     		movs	r0, #9
 2718 1050 FFF7FEFF 		bl	openserial_printCritical
1117:build\openmote-cc2538_armgcc\openstack\02a-MAClow/IEEE802154E.c ****             // abort
1118:build\openmote-cc2538_armgcc\openstack\02a-MAClow/IEEE802154E.c ****             endSlot();
 2719              		.loc 1 1118 0
 2720 1054 FFF7FEFF 		bl	endSlot
1119:build\openmote-cc2538_armgcc\openstack\02a-MAClow/IEEE802154E.c ****             break;
 2721              		.loc 1 1119 0
 2722 1058 00BF     		nop
 2723              	.L144:
1120:build\openmote-cc2538_armgcc\openstack\02a-MAClow/IEEE802154E.c ****     }
1121:build\openmote-cc2538_armgcc\openstack\02a-MAClow/IEEE802154E.c **** }
 2724              		.loc 1 1121 0
 2725 105a 3837     		adds	r7, r7, #56
 2726              		.cfi_def_cfa_offset 8
 2727 105c BD46     		mov	sp, r7
 2728              		.cfi_def_cfa_register 13
 2729              		@ sp needed
 2730 105e 80BD     		pop	{r7, pc}
 2731              	.L179:
 2732              		.align	2
 2733              	.L178:
 2734 1060 00000000 		.word	ieee154e_vars
 2735 1064 00000000 		.word	isr_ieee154e_timer
 2736              		.cfi_endproc
 2737              	.LFE20:
 2739              		.align	1
 2740              		.global	activity_ti2
 2741              		.syntax unified
 2742              		.thumb
 2743              		.thumb_func
 2744              		.fpu softvfp
 2746              	activity_ti2:
 2747              	.LFB21:
1122:build\openmote-cc2538_armgcc\openstack\02a-MAClow/IEEE802154E.c **** 
1123:build\openmote-cc2538_armgcc\openstack\02a-MAClow/IEEE802154E.c **** port_INLINE void activity_ti2(void) {
 2748              		.loc 1 1123 0
 2749              		.cfi_startproc
 2750              		@ args = 0, pretend = 0, frame = 0
 2751              		@ frame_needed = 1, uses_anonymous_args = 0
 2752 1068 80B5     		push	{r7, lr}
 2753              		.cfi_def_cfa_offset 8
 2754              		.cfi_offset 7, -8
 2755              		.cfi_offset 14, -4
 2756 106a 82B0     		sub	sp, sp, #8
 2757              		.cfi_def_cfa_offset 16
 2758 106c 02AF     		add	r7, sp, #8
 2759              		.cfi_def_cfa 7, 8
1124:build\openmote-cc2538_armgcc\openstack\02a-MAClow/IEEE802154E.c **** 
1125:build\openmote-cc2538_armgcc\openstack\02a-MAClow/IEEE802154E.c ****     // change state
1126:build\openmote-cc2538_armgcc\openstack\02a-MAClow/IEEE802154E.c ****     changeState(S_TXDATAPREPARE);
 2760              		.loc 1 1126 0
 2761 106e 0520     		movs	r0, #5
 2762 1070 FFF7FEFF 		bl	changeState
1127:build\openmote-cc2538_armgcc\openstack\02a-MAClow/IEEE802154E.c **** 
1128:build\openmote-cc2538_armgcc\openstack\02a-MAClow/IEEE802154E.c **** #ifdef SLOT_FSM_IMPLEMENTATION_MULTIPLE_TIMER_INTERRUPT
1129:build\openmote-cc2538_armgcc\openstack\02a-MAClow/IEEE802154E.c **** #else
1130:build\openmote-cc2538_armgcc\openstack\02a-MAClow/IEEE802154E.c ****     // arm tt2
1131:build\openmote-cc2538_armgcc\openstack\02a-MAClow/IEEE802154E.c ****     opentimers_scheduleAbsolute(
 2763              		.loc 1 1131 0
 2764 1074 244B     		ldr	r3, .L183
 2765 1076 93F8A801 		ldrb	r0, [r3, #424]	@ zero_extendqisi2
1132:build\openmote-cc2538_armgcc\openstack\02a-MAClow/IEEE802154E.c ****           ieee154e_vars.timerId,                            // timerId
1133:build\openmote-cc2538_armgcc\openstack\02a-MAClow/IEEE802154E.c ****           DURATION_tt2,                                     // duration
 2766              		.loc 1 1133 0
 2767 107a 234B     		ldr	r3, .L183
 2768 107c D3F87831 		ldr	r3, [r3, #376]
1131:build\openmote-cc2538_armgcc\openstack\02a-MAClow/IEEE802154E.c ****           ieee154e_vars.timerId,                            // timerId
 2769              		.loc 1 1131 0
 2770 1080 03F13E01 		add	r1, r3, #62
 2771 1084 204B     		ldr	r3, .L183
 2772 1086 D3F8AC21 		ldr	r2, [r3, #428]
 2773 108a 204B     		ldr	r3, .L183+4
 2774 108c 0093     		str	r3, [sp]
 2775 108e 0123     		movs	r3, #1
 2776 1090 FFF7FEFF 		bl	opentimers_scheduleAbsolute
1134:build\openmote-cc2538_armgcc\openstack\02a-MAClow/IEEE802154E.c ****           ieee154e_vars.startOfSlotReference,               // reference
1135:build\openmote-cc2538_armgcc\openstack\02a-MAClow/IEEE802154E.c ****           TIME_TICS,                                        // timetype
1136:build\openmote-cc2538_armgcc\openstack\02a-MAClow/IEEE802154E.c ****           isr_ieee154e_timer                                // callback
1137:build\openmote-cc2538_armgcc\openstack\02a-MAClow/IEEE802154E.c ****     );
1138:build\openmote-cc2538_armgcc\openstack\02a-MAClow/IEEE802154E.c ****     // radiotimer_schedule(DURATION_tt2);
1139:build\openmote-cc2538_armgcc\openstack\02a-MAClow/IEEE802154E.c **** 
1140:build\openmote-cc2538_armgcc\openstack\02a-MAClow/IEEE802154E.c ****     // make a local copy of the frame
1141:build\openmote-cc2538_armgcc\openstack\02a-MAClow/IEEE802154E.c ****     packetfunctions_duplicatePacket(&ieee154e_vars.localCopyForTransmission, ieee154e_vars.dataToSe
 2777              		.loc 1 1141 0
 2778 1094 1C4B     		ldr	r3, .L183
 2779 1096 D3F86831 		ldr	r3, [r3, #360]
 2780 109a 1946     		mov	r1, r3
 2781 109c 1C48     		ldr	r0, .L183+8
 2782 109e FFF7FEFF 		bl	packetfunctions_duplicatePacket
1142:build\openmote-cc2538_armgcc\openstack\02a-MAClow/IEEE802154E.c **** 
1143:build\openmote-cc2538_armgcc\openstack\02a-MAClow/IEEE802154E.c ****     // check if packet needs to be encrypted/authenticated before transmission
1144:build\openmote-cc2538_armgcc\openstack\02a-MAClow/IEEE802154E.c ****     if (ieee154e_vars.localCopyForTransmission.l2_securityLevel != IEEE154_ASH_SLF_TYPE_NOSEC) { //
 2783              		.loc 1 1144 0
 2784 10a2 194B     		ldr	r3, .L183
 2785 10a4 93F8BD30 		ldrb	r3, [r3, #189]	@ zero_extendqisi2
 2786 10a8 002B     		cmp	r3, #0
 2787 10aa 08D0     		beq	.L181
1145:build\openmote-cc2538_armgcc\openstack\02a-MAClow/IEEE802154E.c ****         // encrypt in a local copy
1146:build\openmote-cc2538_armgcc\openstack\02a-MAClow/IEEE802154E.c ****         if (IEEE802154_security_outgoingFrameSecurity(&ieee154e_vars.localCopyForTransmission) != E
 2788              		.loc 1 1146 0
 2789 10ac 1848     		ldr	r0, .L183+8
 2790 10ae FFF7FEFF 		bl	IEEE802154_security_outgoingFrameSecurity
 2791 10b2 0346     		mov	r3, r0
 2792 10b4 002B     		cmp	r3, #0
 2793 10b6 02D0     		beq	.L181
1147:build\openmote-cc2538_armgcc\openstack\02a-MAClow/IEEE802154E.c ****             // keep the frame in the OpenQueue in order to retry later
1148:build\openmote-cc2538_armgcc\openstack\02a-MAClow/IEEE802154E.c ****             endSlot(); // abort
 2794              		.loc 1 1148 0
 2795 10b8 FFF7FEFF 		bl	endSlot
1149:build\openmote-cc2538_armgcc\openstack\02a-MAClow/IEEE802154E.c ****             return;
 2796              		.loc 1 1149 0
 2797 10bc 21E0     		b	.L180
 2798              	.L181:
1150:build\openmote-cc2538_armgcc\openstack\02a-MAClow/IEEE802154E.c ****         }
1151:build\openmote-cc2538_armgcc\openstack\02a-MAClow/IEEE802154E.c ****     }
1152:build\openmote-cc2538_armgcc\openstack\02a-MAClow/IEEE802154E.c **** 
1153:build\openmote-cc2538_armgcc\openstack\02a-MAClow/IEEE802154E.c ****     // add 2 CRC bytes only to the local copy as we end up here for each retransmission
1154:build\openmote-cc2538_armgcc\openstack\02a-MAClow/IEEE802154E.c ****     packetfunctions_reserveFooterSize(&ieee154e_vars.localCopyForTransmission, 2);
 2799              		.loc 1 1154 0
 2800 10be 0221     		movs	r1, #2
 2801 10c0 1348     		ldr	r0, .L183+8
 2802 10c2 FFF7FEFF 		bl	packetfunctions_reserveFooterSize
1155:build\openmote-cc2538_armgcc\openstack\02a-MAClow/IEEE802154E.c **** 
1156:build\openmote-cc2538_armgcc\openstack\02a-MAClow/IEEE802154E.c ****     // configure the radio for that frequency
1157:build\openmote-cc2538_armgcc\openstack\02a-MAClow/IEEE802154E.c ****     radio_setFrequency(ieee154e_vars.freq);
 2803              		.loc 1 1157 0
 2804 10c6 104B     		ldr	r3, .L183
 2805 10c8 93F88031 		ldrb	r3, [r3, #384]	@ zero_extendqisi2
 2806 10cc 1846     		mov	r0, r3
 2807 10ce FFF7FEFF 		bl	radio_setFrequency
1158:build\openmote-cc2538_armgcc\openstack\02a-MAClow/IEEE802154E.c **** 
1159:build\openmote-cc2538_armgcc\openstack\02a-MAClow/IEEE802154E.c ****     // load the packet in the radio's Tx buffer
1160:build\openmote-cc2538_armgcc\openstack\02a-MAClow/IEEE802154E.c ****     radio_loadPacket(ieee154e_vars.localCopyForTransmission.payload,
 2808              		.loc 1 1160 0
 2809 10d2 0D4B     		ldr	r3, .L183
 2810 10d4 9A69     		ldr	r2, [r3, #24]
1161:build\openmote-cc2538_armgcc\openstack\02a-MAClow/IEEE802154E.c ****                     ieee154e_vars.localCopyForTransmission.length);
 2811              		.loc 1 1161 0
 2812 10d6 0C4B     		ldr	r3, .L183
 2813 10d8 1B7F     		ldrb	r3, [r3, #28]	@ zero_extendqisi2
1160:build\openmote-cc2538_armgcc\openstack\02a-MAClow/IEEE802154E.c ****                     ieee154e_vars.localCopyForTransmission.length);
 2814              		.loc 1 1160 0
 2815 10da 9BB2     		uxth	r3, r3
 2816 10dc 1946     		mov	r1, r3
 2817 10de 1046     		mov	r0, r2
 2818 10e0 FFF7FEFF 		bl	radio_loadPacket
1162:build\openmote-cc2538_armgcc\openstack\02a-MAClow/IEEE802154E.c **** #endif
1163:build\openmote-cc2538_armgcc\openstack\02a-MAClow/IEEE802154E.c ****     // enable the radio in Tx mode. This does not send the packet.
1164:build\openmote-cc2538_armgcc\openstack\02a-MAClow/IEEE802154E.c ****     radio_txEnable();
 2819              		.loc 1 1164 0
 2820 10e4 FFF7FEFF 		bl	radio_txEnable
1165:build\openmote-cc2538_armgcc\openstack\02a-MAClow/IEEE802154E.c **** 
1166:build\openmote-cc2538_armgcc\openstack\02a-MAClow/IEEE802154E.c ****     ieee154e_vars.radioOnInit=sctimer_readCounter();
 2821              		.loc 1 1166 0
 2822 10e8 FFF7FEFF 		bl	sctimer_readCounter
 2823 10ec 0246     		mov	r2, r0
 2824 10ee 064B     		ldr	r3, .L183
 2825 10f0 C3F89821 		str	r2, [r3, #408]
1167:build\openmote-cc2538_armgcc\openstack\02a-MAClow/IEEE802154E.c ****     ieee154e_vars.radioOnThisSlot=TRUE;
 2826              		.loc 1 1167 0
 2827 10f4 044B     		ldr	r3, .L183
 2828 10f6 0122     		movs	r2, #1
 2829 10f8 83F8A021 		strb	r2, [r3, #416]
1168:build\openmote-cc2538_armgcc\openstack\02a-MAClow/IEEE802154E.c ****     // change state
1169:build\openmote-cc2538_armgcc\openstack\02a-MAClow/IEEE802154E.c ****     changeState(S_TXDATAREADY);
 2830              		.loc 1 1169 0
 2831 10fc 0620     		movs	r0, #6
 2832 10fe FFF7FEFF 		bl	changeState
 2833              	.L180:
1170:build\openmote-cc2538_armgcc\openstack\02a-MAClow/IEEE802154E.c **** }
 2834              		.loc 1 1170 0
 2835 1102 BD46     		mov	sp, r7
 2836              		.cfi_def_cfa_register 13
 2837              		@ sp needed
 2838 1104 80BD     		pop	{r7, pc}
 2839              	.L184:
 2840 1106 00BF     		.align	2
 2841              	.L183:
 2842 1108 00000000 		.word	ieee154e_vars
 2843 110c 00000000 		.word	isr_ieee154e_timer
 2844 1110 14000000 		.word	ieee154e_vars+20
 2845              		.cfi_endproc
 2846              	.LFE21:
 2848              		.align	1
 2849              		.global	activity_tie1
 2850              		.syntax unified
 2851              		.thumb
 2852              		.thumb_func
 2853              		.fpu softvfp
 2855              	activity_tie1:
 2856              	.LFB22:
1171:build\openmote-cc2538_armgcc\openstack\02a-MAClow/IEEE802154E.c **** 
1172:build\openmote-cc2538_armgcc\openstack\02a-MAClow/IEEE802154E.c **** port_INLINE void activity_tie1(void) {
 2857              		.loc 1 1172 0
 2858              		.cfi_startproc
 2859              		@ args = 0, pretend = 0, frame = 0
 2860              		@ frame_needed = 1, uses_anonymous_args = 0
 2861 1114 80B5     		push	{r7, lr}
 2862              		.cfi_def_cfa_offset 8
 2863              		.cfi_offset 7, -8
 2864              		.cfi_offset 14, -4
 2865 1116 00AF     		add	r7, sp, #0
 2866              		.cfi_def_cfa_register 7
1173:build\openmote-cc2538_armgcc\openstack\02a-MAClow/IEEE802154E.c ****     // log the error
1174:build\openmote-cc2538_armgcc\openstack\02a-MAClow/IEEE802154E.c ****     openserial_printError(COMPONENT_IEEE802154E,ERR_MAXTXDATAPREPARE_OVERFLOW,
1175:build\openmote-cc2538_armgcc\openstack\02a-MAClow/IEEE802154E.c ****                          (errorparameter_t)ieee154e_vars.state,
 2867              		.loc 1 1175 0
 2868 1118 064B     		ldr	r3, .L186
 2869 111a 93F86431 		ldrb	r3, [r3, #356]	@ zero_extendqisi2
1174:build\openmote-cc2538_armgcc\openstack\02a-MAClow/IEEE802154E.c ****                          (errorparameter_t)ieee154e_vars.state,
 2870              		.loc 1 1174 0
 2871 111e 9AB2     		uxth	r2, r3
1176:build\openmote-cc2538_armgcc\openstack\02a-MAClow/IEEE802154E.c ****                          (errorparameter_t)ieee154e_vars.slotOffset);
 2872              		.loc 1 1176 0
 2873 1120 044B     		ldr	r3, .L186
 2874 1122 DB88     		ldrh	r3, [r3, #6]
1174:build\openmote-cc2538_armgcc\openstack\02a-MAClow/IEEE802154E.c ****                          (errorparameter_t)ieee154e_vars.state,
 2875              		.loc 1 1174 0
 2876 1124 2321     		movs	r1, #35
 2877 1126 0920     		movs	r0, #9
 2878 1128 FFF7FEFF 		bl	openserial_printError
1177:build\openmote-cc2538_armgcc\openstack\02a-MAClow/IEEE802154E.c **** 
1178:build\openmote-cc2538_armgcc\openstack\02a-MAClow/IEEE802154E.c ****     // abort
1179:build\openmote-cc2538_armgcc\openstack\02a-MAClow/IEEE802154E.c ****     endSlot();
 2879              		.loc 1 1179 0
 2880 112c FFF7FEFF 		bl	endSlot
1180:build\openmote-cc2538_armgcc\openstack\02a-MAClow/IEEE802154E.c **** }
 2881              		.loc 1 1180 0
 2882 1130 00BF     		nop
 2883 1132 80BD     		pop	{r7, pc}
 2884              	.L187:
 2885              		.align	2
 2886              	.L186:
 2887 1134 00000000 		.word	ieee154e_vars
 2888              		.cfi_endproc
 2889              	.LFE22:
 2891              		.align	1
 2892              		.global	activity_ti3
 2893              		.syntax unified
 2894              		.thumb
 2895              		.thumb_func
 2896              		.fpu softvfp
 2898              	activity_ti3:
 2899              	.LFB23:
1181:build\openmote-cc2538_armgcc\openstack\02a-MAClow/IEEE802154E.c **** 
1182:build\openmote-cc2538_armgcc\openstack\02a-MAClow/IEEE802154E.c **** port_INLINE void activity_ti3(void) {
 2900              		.loc 1 1182 0
 2901              		.cfi_startproc
 2902              		@ args = 0, pretend = 0, frame = 0
 2903              		@ frame_needed = 1, uses_anonymous_args = 0
 2904 1138 80B5     		push	{r7, lr}
 2905              		.cfi_def_cfa_offset 8
 2906              		.cfi_offset 7, -8
 2907              		.cfi_offset 14, -4
 2908 113a 82B0     		sub	sp, sp, #8
 2909              		.cfi_def_cfa_offset 16
 2910 113c 02AF     		add	r7, sp, #8
 2911              		.cfi_def_cfa 7, 8
1183:build\openmote-cc2538_armgcc\openstack\02a-MAClow/IEEE802154E.c ****     // change state
1184:build\openmote-cc2538_armgcc\openstack\02a-MAClow/IEEE802154E.c ****     changeState(S_TXDATADELAY);
 2912              		.loc 1 1184 0
 2913 113e 0720     		movs	r0, #7
 2914 1140 FFF7FEFF 		bl	changeState
1185:build\openmote-cc2538_armgcc\openstack\02a-MAClow/IEEE802154E.c **** #ifdef SLOT_FSM_IMPLEMENTATION_MULTIPLE_TIMER_INTERRUPT
1186:build\openmote-cc2538_armgcc\openstack\02a-MAClow/IEEE802154E.c **** #else
1187:build\openmote-cc2538_armgcc\openstack\02a-MAClow/IEEE802154E.c ****     // arm tt3
1188:build\openmote-cc2538_armgcc\openstack\02a-MAClow/IEEE802154E.c ****     opentimers_scheduleAbsolute(
 2915              		.loc 1 1188 0
 2916 1144 0A4B     		ldr	r3, .L189
 2917 1146 93F8A801 		ldrb	r0, [r3, #424]	@ zero_extendqisi2
1189:build\openmote-cc2538_armgcc\openstack\02a-MAClow/IEEE802154E.c ****         ieee154e_vars.timerId,                            // timerId
1190:build\openmote-cc2538_armgcc\openstack\02a-MAClow/IEEE802154E.c ****         DURATION_tt3,                                     // duration
 2918              		.loc 1 1190 0
 2919 114a 094B     		ldr	r3, .L189
 2920 114c D3F87831 		ldr	r3, [r3, #376]
1188:build\openmote-cc2538_armgcc\openstack\02a-MAClow/IEEE802154E.c ****         ieee154e_vars.timerId,                            // timerId
 2921              		.loc 1 1188 0
 2922 1150 03F16B01 		add	r1, r3, #107
 2923 1154 064B     		ldr	r3, .L189
 2924 1156 D3F8AC21 		ldr	r2, [r3, #428]
 2925 115a 064B     		ldr	r3, .L189+4
 2926 115c 0093     		str	r3, [sp]
 2927 115e 0123     		movs	r3, #1
 2928 1160 FFF7FEFF 		bl	opentimers_scheduleAbsolute
1191:build\openmote-cc2538_armgcc\openstack\02a-MAClow/IEEE802154E.c ****         ieee154e_vars.startOfSlotReference,               // reference
1192:build\openmote-cc2538_armgcc\openstack\02a-MAClow/IEEE802154E.c ****         TIME_TICS,                                        // timetype
1193:build\openmote-cc2538_armgcc\openstack\02a-MAClow/IEEE802154E.c ****         isr_ieee154e_timer                                // callback
1194:build\openmote-cc2538_armgcc\openstack\02a-MAClow/IEEE802154E.c ****     );
1195:build\openmote-cc2538_armgcc\openstack\02a-MAClow/IEEE802154E.c ****     // radiotimer_schedule(DURATION_tt3);
1196:build\openmote-cc2538_armgcc\openstack\02a-MAClow/IEEE802154E.c **** 
1197:build\openmote-cc2538_armgcc\openstack\02a-MAClow/IEEE802154E.c ****     // give the 'go' to transmit
1198:build\openmote-cc2538_armgcc\openstack\02a-MAClow/IEEE802154E.c ****     radio_txNow();
 2929              		.loc 1 1198 0
 2930 1164 FFF7FEFF 		bl	radio_txNow
1199:build\openmote-cc2538_armgcc\openstack\02a-MAClow/IEEE802154E.c **** #endif
1200:build\openmote-cc2538_armgcc\openstack\02a-MAClow/IEEE802154E.c **** }
 2931              		.loc 1 1200 0
 2932 1168 00BF     		nop
 2933 116a BD46     		mov	sp, r7
 2934              		.cfi_def_cfa_register 13
 2935              		@ sp needed
 2936 116c 80BD     		pop	{r7, pc}
 2937              	.L190:
 2938 116e 00BF     		.align	2
 2939              	.L189:
 2940 1170 00000000 		.word	ieee154e_vars
 2941 1174 00000000 		.word	isr_ieee154e_timer
 2942              		.cfi_endproc
 2943              	.LFE23:
 2945              		.align	1
 2946              		.global	activity_tie2
 2947              		.syntax unified
 2948              		.thumb
 2949              		.thumb_func
 2950              		.fpu softvfp
 2952              	activity_tie2:
 2953              	.LFB24:
1201:build\openmote-cc2538_armgcc\openstack\02a-MAClow/IEEE802154E.c **** 
1202:build\openmote-cc2538_armgcc\openstack\02a-MAClow/IEEE802154E.c **** port_INLINE void activity_tie2(void) {
 2954              		.loc 1 1202 0
 2955              		.cfi_startproc
 2956              		@ args = 0, pretend = 0, frame = 0
 2957              		@ frame_needed = 1, uses_anonymous_args = 0
 2958 1178 80B5     		push	{r7, lr}
 2959              		.cfi_def_cfa_offset 8
 2960              		.cfi_offset 7, -8
 2961              		.cfi_offset 14, -4
 2962 117a 00AF     		add	r7, sp, #0
 2963              		.cfi_def_cfa_register 7
1203:build\openmote-cc2538_armgcc\openstack\02a-MAClow/IEEE802154E.c ****     // log the error
1204:build\openmote-cc2538_armgcc\openstack\02a-MAClow/IEEE802154E.c ****     openserial_printError(COMPONENT_IEEE802154E,ERR_WDRADIO_OVERFLOWS,
1205:build\openmote-cc2538_armgcc\openstack\02a-MAClow/IEEE802154E.c ****                          (errorparameter_t)ieee154e_vars.state,
 2964              		.loc 1 1205 0
 2965 117c 064B     		ldr	r3, .L192
 2966 117e 93F86431 		ldrb	r3, [r3, #356]	@ zero_extendqisi2
1204:build\openmote-cc2538_armgcc\openstack\02a-MAClow/IEEE802154E.c ****                          (errorparameter_t)ieee154e_vars.state,
 2967              		.loc 1 1204 0
 2968 1182 9AB2     		uxth	r2, r3
1206:build\openmote-cc2538_armgcc\openstack\02a-MAClow/IEEE802154E.c ****                          (errorparameter_t)ieee154e_vars.slotOffset);
 2969              		.loc 1 1206 0
 2970 1184 044B     		ldr	r3, .L192
 2971 1186 DB88     		ldrh	r3, [r3, #6]
1204:build\openmote-cc2538_armgcc\openstack\02a-MAClow/IEEE802154E.c ****                          (errorparameter_t)ieee154e_vars.state,
 2972              		.loc 1 1204 0
 2973 1188 2821     		movs	r1, #40
 2974 118a 0920     		movs	r0, #9
 2975 118c FFF7FEFF 		bl	openserial_printError
1207:build\openmote-cc2538_armgcc\openstack\02a-MAClow/IEEE802154E.c **** 
1208:build\openmote-cc2538_armgcc\openstack\02a-MAClow/IEEE802154E.c ****     // abort
1209:build\openmote-cc2538_armgcc\openstack\02a-MAClow/IEEE802154E.c ****     endSlot();
 2976              		.loc 1 1209 0
 2977 1190 FFF7FEFF 		bl	endSlot
1210:build\openmote-cc2538_armgcc\openstack\02a-MAClow/IEEE802154E.c **** }
 2978              		.loc 1 1210 0
 2979 1194 00BF     		nop
 2980 1196 80BD     		pop	{r7, pc}
 2981              	.L193:
 2982              		.align	2
 2983              	.L192:
 2984 1198 00000000 		.word	ieee154e_vars
 2985              		.cfi_endproc
 2986              	.LFE24:
 2988              		.align	1
 2989              		.global	activity_ti4
 2990              		.syntax unified
 2991              		.thumb
 2992              		.thumb_func
 2993              		.fpu softvfp
 2995              	activity_ti4:
 2996              	.LFB25:
1211:build\openmote-cc2538_armgcc\openstack\02a-MAClow/IEEE802154E.c **** 
1212:build\openmote-cc2538_armgcc\openstack\02a-MAClow/IEEE802154E.c **** //start of frame interrupt
1213:build\openmote-cc2538_armgcc\openstack\02a-MAClow/IEEE802154E.c **** port_INLINE void activity_ti4(PORT_TIMER_WIDTH capturedTime) {
 2997              		.loc 1 1213 0
 2998              		.cfi_startproc
 2999              		@ args = 0, pretend = 0, frame = 8
 3000              		@ frame_needed = 1, uses_anonymous_args = 0
 3001 119c 80B5     		push	{r7, lr}
 3002              		.cfi_def_cfa_offset 8
 3003              		.cfi_offset 7, -8
 3004              		.cfi_offset 14, -4
 3005 119e 84B0     		sub	sp, sp, #16
 3006              		.cfi_def_cfa_offset 24
 3007 11a0 02AF     		add	r7, sp, #8
 3008              		.cfi_def_cfa 7, 16
 3009 11a2 7860     		str	r0, [r7, #4]
1214:build\openmote-cc2538_armgcc\openstack\02a-MAClow/IEEE802154E.c ****     // change state
1215:build\openmote-cc2538_armgcc\openstack\02a-MAClow/IEEE802154E.c ****     changeState(S_TXDATA);
 3010              		.loc 1 1215 0
 3011 11a4 0820     		movs	r0, #8
 3012 11a6 FFF7FEFF 		bl	changeState
1216:build\openmote-cc2538_armgcc\openstack\02a-MAClow/IEEE802154E.c **** #ifdef SLOT_FSM_IMPLEMENTATION_MULTIPLE_TIMER_INTERRUPT
1217:build\openmote-cc2538_armgcc\openstack\02a-MAClow/IEEE802154E.c ****     // cancel tt3
1218:build\openmote-cc2538_armgcc\openstack\02a-MAClow/IEEE802154E.c ****     sctimer_actionCancel(ACTION_SET_TIMEOUT);
1219:build\openmote-cc2538_armgcc\openstack\02a-MAClow/IEEE802154E.c **** #else
1220:build\openmote-cc2538_armgcc\openstack\02a-MAClow/IEEE802154E.c ****     // cancel tt3
1221:build\openmote-cc2538_armgcc\openstack\02a-MAClow/IEEE802154E.c ****     opentimers_scheduleAbsolute(
 3013              		.loc 1 1221 0
 3014 11aa 134B     		ldr	r3, .L195
 3015 11ac 93F8A801 		ldrb	r0, [r3, #424]	@ zero_extendqisi2
1222:build\openmote-cc2538_armgcc\openstack\02a-MAClow/IEEE802154E.c ****         ieee154e_vars.timerId,                            // timerId
1223:build\openmote-cc2538_armgcc\openstack\02a-MAClow/IEEE802154E.c ****         ieee154e_vars.slotDuration,                       // duration
 3016              		.loc 1 1223 0
 3017 11b0 114B     		ldr	r3, .L195
 3018 11b2 B3F8A631 		ldrh	r3, [r3, #422]
1221:build\openmote-cc2538_armgcc\openstack\02a-MAClow/IEEE802154E.c ****         ieee154e_vars.timerId,                            // timerId
 3019              		.loc 1 1221 0
 3020 11b6 1946     		mov	r1, r3
 3021 11b8 0F4B     		ldr	r3, .L195
 3022 11ba D3F8AC21 		ldr	r2, [r3, #428]
 3023 11be 0F4B     		ldr	r3, .L195+4
 3024 11c0 0093     		str	r3, [sp]
 3025 11c2 0123     		movs	r3, #1
 3026 11c4 FFF7FEFF 		bl	opentimers_scheduleAbsolute
1224:build\openmote-cc2538_armgcc\openstack\02a-MAClow/IEEE802154E.c ****         ieee154e_vars.startOfSlotReference,               // reference
1225:build\openmote-cc2538_armgcc\openstack\02a-MAClow/IEEE802154E.c ****         TIME_TICS,                                        // timetype
1226:build\openmote-cc2538_armgcc\openstack\02a-MAClow/IEEE802154E.c ****         isr_ieee154e_newSlot                              // callback
1227:build\openmote-cc2538_armgcc\openstack\02a-MAClow/IEEE802154E.c ****     );
1228:build\openmote-cc2538_armgcc\openstack\02a-MAClow/IEEE802154E.c ****     // radiotimer_cancel();
1229:build\openmote-cc2538_armgcc\openstack\02a-MAClow/IEEE802154E.c **** #endif
1230:build\openmote-cc2538_armgcc\openstack\02a-MAClow/IEEE802154E.c ****     // record the captured time
1231:build\openmote-cc2538_armgcc\openstack\02a-MAClow/IEEE802154E.c ****     ieee154e_vars.lastCapturedTime = capturedTime;
 3027              		.loc 1 1231 0
 3028 11c8 0B4A     		ldr	r2, .L195
 3029 11ca 7B68     		ldr	r3, [r7, #4]
 3030 11cc C2F87831 		str	r3, [r2, #376]
1232:build\openmote-cc2538_armgcc\openstack\02a-MAClow/IEEE802154E.c **** #ifdef SLOT_FSM_IMPLEMENTATION_MULTIPLE_TIMER_INTERRUPT
1233:build\openmote-cc2538_armgcc\openstack\02a-MAClow/IEEE802154E.c ****     // arm tt4
1234:build\openmote-cc2538_armgcc\openstack\02a-MAClow/IEEE802154E.c ****     sctimer_scheduleActionIn(ACTION_SET_TIMEOUT,ieee154e_vars.startOfSlotReference+DURATION_tt4);
1235:build\openmote-cc2538_armgcc\openstack\02a-MAClow/IEEE802154E.c **** #else
1236:build\openmote-cc2538_armgcc\openstack\02a-MAClow/IEEE802154E.c ****     // arm tt4
1237:build\openmote-cc2538_armgcc\openstack\02a-MAClow/IEEE802154E.c ****     opentimers_scheduleAbsolute(
 3031              		.loc 1 1237 0
 3032 11d0 094B     		ldr	r3, .L195
 3033 11d2 93F8A801 		ldrb	r0, [r3, #424]	@ zero_extendqisi2
1238:build\openmote-cc2538_armgcc\openstack\02a-MAClow/IEEE802154E.c ****         ieee154e_vars.timerId,                            // timerId
1239:build\openmote-cc2538_armgcc\openstack\02a-MAClow/IEEE802154E.c ****         DURATION_tt4,                                     // duration
 3034              		.loc 1 1239 0
 3035 11d6 084B     		ldr	r3, .L195
 3036 11d8 D3F87831 		ldr	r3, [r3, #376]
1237:build\openmote-cc2538_armgcc\openstack\02a-MAClow/IEEE802154E.c ****         ieee154e_vars.timerId,                            // timerId
 3037              		.loc 1 1237 0
 3038 11dc 03F1A401 		add	r1, r3, #164
 3039 11e0 054B     		ldr	r3, .L195
 3040 11e2 D3F8AC21 		ldr	r2, [r3, #428]
 3041 11e6 064B     		ldr	r3, .L195+8
 3042 11e8 0093     		str	r3, [sp]
 3043 11ea 0123     		movs	r3, #1
 3044 11ec FFF7FEFF 		bl	opentimers_scheduleAbsolute
1240:build\openmote-cc2538_armgcc\openstack\02a-MAClow/IEEE802154E.c ****         ieee154e_vars.startOfSlotReference,               // reference
1241:build\openmote-cc2538_armgcc\openstack\02a-MAClow/IEEE802154E.c ****         TIME_TICS,                                        // timetype
1242:build\openmote-cc2538_armgcc\openstack\02a-MAClow/IEEE802154E.c ****         isr_ieee154e_timer                                // callback
1243:build\openmote-cc2538_armgcc\openstack\02a-MAClow/IEEE802154E.c ****     );
1244:build\openmote-cc2538_armgcc\openstack\02a-MAClow/IEEE802154E.c ****     // radiotimer_schedule(DURATION_tt4);
1245:build\openmote-cc2538_armgcc\openstack\02a-MAClow/IEEE802154E.c **** #endif
1246:build\openmote-cc2538_armgcc\openstack\02a-MAClow/IEEE802154E.c **** }
 3045              		.loc 1 1246 0
 3046 11f0 00BF     		nop
 3047 11f2 0837     		adds	r7, r7, #8
 3048              		.cfi_def_cfa_offset 8
 3049 11f4 BD46     		mov	sp, r7
 3050              		.cfi_def_cfa_register 13
 3051              		@ sp needed
 3052 11f6 80BD     		pop	{r7, pc}
 3053              	.L196:
 3054              		.align	2
 3055              	.L195:
 3056 11f8 00000000 		.word	ieee154e_vars
 3057 11fc 00000000 		.word	isr_ieee154e_newSlot
 3058 1200 00000000 		.word	isr_ieee154e_timer
 3059              		.cfi_endproc
 3060              	.LFE25:
 3062              		.align	1
 3063              		.global	activity_tie3
 3064              		.syntax unified
 3065              		.thumb
 3066              		.thumb_func
 3067              		.fpu softvfp
 3069              	activity_tie3:
 3070              	.LFB26:
1247:build\openmote-cc2538_armgcc\openstack\02a-MAClow/IEEE802154E.c **** 
1248:build\openmote-cc2538_armgcc\openstack\02a-MAClow/IEEE802154E.c **** port_INLINE void activity_tie3(void) {
 3071              		.loc 1 1248 0
 3072              		.cfi_startproc
 3073              		@ args = 0, pretend = 0, frame = 0
 3074              		@ frame_needed = 1, uses_anonymous_args = 0
 3075 1204 80B5     		push	{r7, lr}
 3076              		.cfi_def_cfa_offset 8
 3077              		.cfi_offset 7, -8
 3078              		.cfi_offset 14, -4
 3079 1206 00AF     		add	r7, sp, #0
 3080              		.cfi_def_cfa_register 7
1249:build\openmote-cc2538_armgcc\openstack\02a-MAClow/IEEE802154E.c ****     // log the error
1250:build\openmote-cc2538_armgcc\openstack\02a-MAClow/IEEE802154E.c ****     openserial_printError(COMPONENT_IEEE802154E,ERR_WDDATADURATION_OVERFLOWS,
1251:build\openmote-cc2538_armgcc\openstack\02a-MAClow/IEEE802154E.c ****                          (errorparameter_t)ieee154e_vars.state,
 3081              		.loc 1 1251 0
 3082 1208 064B     		ldr	r3, .L198
 3083 120a 93F86431 		ldrb	r3, [r3, #356]	@ zero_extendqisi2
1250:build\openmote-cc2538_armgcc\openstack\02a-MAClow/IEEE802154E.c ****                          (errorparameter_t)ieee154e_vars.state,
 3084              		.loc 1 1250 0
 3085 120e 9AB2     		uxth	r2, r3
1252:build\openmote-cc2538_armgcc\openstack\02a-MAClow/IEEE802154E.c ****                          (errorparameter_t)ieee154e_vars.slotOffset);
 3086              		.loc 1 1252 0
 3087 1210 044B     		ldr	r3, .L198
 3088 1212 DB88     		ldrh	r3, [r3, #6]
1250:build\openmote-cc2538_armgcc\openstack\02a-MAClow/IEEE802154E.c ****                          (errorparameter_t)ieee154e_vars.state,
 3089              		.loc 1 1250 0
 3090 1214 2721     		movs	r1, #39
 3091 1216 0920     		movs	r0, #9
 3092 1218 FFF7FEFF 		bl	openserial_printError
1253:build\openmote-cc2538_armgcc\openstack\02a-MAClow/IEEE802154E.c **** 
1254:build\openmote-cc2538_armgcc\openstack\02a-MAClow/IEEE802154E.c ****     // abort
1255:build\openmote-cc2538_armgcc\openstack\02a-MAClow/IEEE802154E.c ****     endSlot();
 3093              		.loc 1 1255 0
 3094 121c FFF7FEFF 		bl	endSlot
1256:build\openmote-cc2538_armgcc\openstack\02a-MAClow/IEEE802154E.c **** }
 3095              		.loc 1 1256 0
 3096 1220 00BF     		nop
 3097 1222 80BD     		pop	{r7, pc}
 3098              	.L199:
 3099              		.align	2
 3100              	.L198:
 3101 1224 00000000 		.word	ieee154e_vars
 3102              		.cfi_endproc
 3103              	.LFE26:
 3105              		.align	1
 3106              		.global	activity_ti5
 3107              		.syntax unified
 3108              		.thumb
 3109              		.thumb_func
 3110              		.fpu softvfp
 3112              	activity_ti5:
 3113              	.LFB27:
1257:build\openmote-cc2538_armgcc\openstack\02a-MAClow/IEEE802154E.c **** 
1258:build\openmote-cc2538_armgcc\openstack\02a-MAClow/IEEE802154E.c **** port_INLINE void activity_ti5(PORT_TIMER_WIDTH capturedTime) {
 3114              		.loc 1 1258 0
 3115              		.cfi_startproc
 3116              		@ args = 0, pretend = 0, frame = 16
 3117              		@ frame_needed = 1, uses_anonymous_args = 0
 3118 1228 80B5     		push	{r7, lr}
 3119              		.cfi_def_cfa_offset 8
 3120              		.cfi_offset 7, -8
 3121              		.cfi_offset 14, -4
 3122 122a 86B0     		sub	sp, sp, #24
 3123              		.cfi_def_cfa_offset 32
 3124 122c 02AF     		add	r7, sp, #8
 3125              		.cfi_def_cfa 7, 24
 3126 122e 7860     		str	r0, [r7, #4]
1259:build\openmote-cc2538_armgcc\openstack\02a-MAClow/IEEE802154E.c ****     bool listenForAck;
1260:build\openmote-cc2538_armgcc\openstack\02a-MAClow/IEEE802154E.c **** 
1261:build\openmote-cc2538_armgcc\openstack\02a-MAClow/IEEE802154E.c ****     // change state
1262:build\openmote-cc2538_armgcc\openstack\02a-MAClow/IEEE802154E.c ****     changeState(S_RXACKOFFSET);
 3127              		.loc 1 1262 0
 3128 1230 0920     		movs	r0, #9
 3129 1232 FFF7FEFF 		bl	changeState
1263:build\openmote-cc2538_armgcc\openstack\02a-MAClow/IEEE802154E.c **** #ifdef SLOT_FSM_IMPLEMENTATION_MULTIPLE_TIMER_INTERRUPT
1264:build\openmote-cc2538_armgcc\openstack\02a-MAClow/IEEE802154E.c ****     // cancel tt4
1265:build\openmote-cc2538_armgcc\openstack\02a-MAClow/IEEE802154E.c ****     sctimer_actionCancel(ACTION_SET_TIMEOUT);
1266:build\openmote-cc2538_armgcc\openstack\02a-MAClow/IEEE802154E.c **** #else
1267:build\openmote-cc2538_armgcc\openstack\02a-MAClow/IEEE802154E.c ****     // cancel tt4
1268:build\openmote-cc2538_armgcc\openstack\02a-MAClow/IEEE802154E.c ****     opentimers_scheduleAbsolute(
 3130              		.loc 1 1268 0
 3131 1236 2D4B     		ldr	r3, .L206
 3132 1238 93F8A801 		ldrb	r0, [r3, #424]	@ zero_extendqisi2
1269:build\openmote-cc2538_armgcc\openstack\02a-MAClow/IEEE802154E.c ****         ieee154e_vars.timerId,                            // timerId
1270:build\openmote-cc2538_armgcc\openstack\02a-MAClow/IEEE802154E.c ****         ieee154e_vars.slotDuration,                       // duration
 3133              		.loc 1 1270 0
 3134 123c 2B4B     		ldr	r3, .L206
 3135 123e B3F8A631 		ldrh	r3, [r3, #422]
1268:build\openmote-cc2538_armgcc\openstack\02a-MAClow/IEEE802154E.c ****         ieee154e_vars.timerId,                            // timerId
 3136              		.loc 1 1268 0
 3137 1242 1946     		mov	r1, r3
 3138 1244 294B     		ldr	r3, .L206
 3139 1246 D3F8AC21 		ldr	r2, [r3, #428]
 3140 124a 294B     		ldr	r3, .L206+4
 3141 124c 0093     		str	r3, [sp]
 3142 124e 0123     		movs	r3, #1
 3143 1250 FFF7FEFF 		bl	opentimers_scheduleAbsolute
1271:build\openmote-cc2538_armgcc\openstack\02a-MAClow/IEEE802154E.c ****         ieee154e_vars.startOfSlotReference,               // reference
1272:build\openmote-cc2538_armgcc\openstack\02a-MAClow/IEEE802154E.c ****         TIME_TICS,                                        // timetype
1273:build\openmote-cc2538_armgcc\openstack\02a-MAClow/IEEE802154E.c ****         isr_ieee154e_newSlot                              // callback
1274:build\openmote-cc2538_armgcc\openstack\02a-MAClow/IEEE802154E.c ****     );
1275:build\openmote-cc2538_armgcc\openstack\02a-MAClow/IEEE802154E.c ****     // radiotimer_cancel();
1276:build\openmote-cc2538_armgcc\openstack\02a-MAClow/IEEE802154E.c **** #endif
1277:build\openmote-cc2538_armgcc\openstack\02a-MAClow/IEEE802154E.c ****     // turn off the radio
1278:build\openmote-cc2538_armgcc\openstack\02a-MAClow/IEEE802154E.c ****     radio_rfOff();
 3144              		.loc 1 1278 0
 3145 1254 FFF7FEFF 		bl	radio_rfOff
1279:build\openmote-cc2538_armgcc\openstack\02a-MAClow/IEEE802154E.c ****     ieee154e_vars.radioOnTics+=(sctimer_readCounter()-ieee154e_vars.radioOnInit);
 3146              		.loc 1 1279 0
 3147 1258 FFF7FEFF 		bl	sctimer_readCounter
 3148 125c 0246     		mov	r2, r0
 3149 125e 234B     		ldr	r3, .L206
 3150 1260 D3F89831 		ldr	r3, [r3, #408]
 3151 1264 D21A     		subs	r2, r2, r3
 3152 1266 214B     		ldr	r3, .L206
 3153 1268 D3F89C31 		ldr	r3, [r3, #412]
 3154 126c 1344     		add	r3, r3, r2
 3155 126e 1F4A     		ldr	r2, .L206
 3156 1270 C2F89C31 		str	r3, [r2, #412]
1280:build\openmote-cc2538_armgcc\openstack\02a-MAClow/IEEE802154E.c **** 
1281:build\openmote-cc2538_armgcc\openstack\02a-MAClow/IEEE802154E.c ****     // record the captured time
1282:build\openmote-cc2538_armgcc\openstack\02a-MAClow/IEEE802154E.c ****     ieee154e_vars.lastCapturedTime = capturedTime;
 3157              		.loc 1 1282 0
 3158 1274 1D4A     		ldr	r2, .L206
 3159 1276 7B68     		ldr	r3, [r7, #4]
 3160 1278 C2F87831 		str	r3, [r2, #376]
1283:build\openmote-cc2538_armgcc\openstack\02a-MAClow/IEEE802154E.c **** 
1284:build\openmote-cc2538_armgcc\openstack\02a-MAClow/IEEE802154E.c ****     // decides whether to listen for an ACK
1285:build\openmote-cc2538_armgcc\openstack\02a-MAClow/IEEE802154E.c ****     if (packetfunctions_isBroadcastMulticast(&ieee154e_vars.dataToSend->l2_nextORpreviousHop)==TRUE
 3161              		.loc 1 1285 0
 3162 127c 1B4B     		ldr	r3, .L206
 3163 127e D3F86831 		ldr	r3, [r3, #360]
 3164 1282 4133     		adds	r3, r3, #65
 3165 1284 1846     		mov	r0, r3
 3166 1286 FFF7FEFF 		bl	packetfunctions_isBroadcastMulticast
 3167 128a 0346     		mov	r3, r0
 3168 128c 002B     		cmp	r3, #0
 3169 128e 02D0     		beq	.L201
1286:build\openmote-cc2538_armgcc\openstack\02a-MAClow/IEEE802154E.c ****         listenForAck = FALSE;
 3170              		.loc 1 1286 0
 3171 1290 0023     		movs	r3, #0
 3172 1292 FB73     		strb	r3, [r7, #15]
 3173 1294 01E0     		b	.L202
 3174              	.L201:
1287:build\openmote-cc2538_armgcc\openstack\02a-MAClow/IEEE802154E.c ****     } else {
1288:build\openmote-cc2538_armgcc\openstack\02a-MAClow/IEEE802154E.c ****         listenForAck = TRUE;
 3175              		.loc 1 1288 0
 3176 1296 0123     		movs	r3, #1
 3177 1298 FB73     		strb	r3, [r7, #15]
 3178              	.L202:
1289:build\openmote-cc2538_armgcc\openstack\02a-MAClow/IEEE802154E.c ****     }
1290:build\openmote-cc2538_armgcc\openstack\02a-MAClow/IEEE802154E.c **** 
1291:build\openmote-cc2538_armgcc\openstack\02a-MAClow/IEEE802154E.c ****     if (listenForAck==TRUE) {
 3179              		.loc 1 1291 0
 3180 129a FB7B     		ldrb	r3, [r7, #15]	@ zero_extendqisi2
 3181 129c 002B     		cmp	r3, #0
 3182 129e 10D0     		beq	.L203
1292:build\openmote-cc2538_armgcc\openstack\02a-MAClow/IEEE802154E.c **** #ifdef SLOT_FSM_IMPLEMENTATION_MULTIPLE_TIMER_INTERRUPT
1293:build\openmote-cc2538_armgcc\openstack\02a-MAClow/IEEE802154E.c ****         // 1. schedule timer for enabling receiving
1294:build\openmote-cc2538_armgcc\openstack\02a-MAClow/IEEE802154E.c ****         // arm tt5
1295:build\openmote-cc2538_armgcc\openstack\02a-MAClow/IEEE802154E.c ****         sctimer_scheduleActionIn(ACTION_RADIORX_ENABLE,ieee154e_vars.startOfSlotReference+DURATION_
1296:build\openmote-cc2538_armgcc\openstack\02a-MAClow/IEEE802154E.c ****         // set receiving buffer address (radio is NOT enabled at this moment)
1297:build\openmote-cc2538_armgcc\openstack\02a-MAClow/IEEE802154E.c ****         radio_rxPacket_prepare();
1298:build\openmote-cc2538_armgcc\openstack\02a-MAClow/IEEE802154E.c ****         // 2. schedule timer for starting receiving
1299:build\openmote-cc2538_armgcc\openstack\02a-MAClow/IEEE802154E.c ****         sctimer_scheduleActionIn(ACTION_SET_TIMEOUT,ieee154e_vars.startOfSlotReference+DURATION_tt6
1300:build\openmote-cc2538_armgcc\openstack\02a-MAClow/IEEE802154E.c ****         // 3. set capture for receiving SFD and packet receiving done
1301:build\openmote-cc2538_armgcc\openstack\02a-MAClow/IEEE802154E.c ****         sctimer_setCapture(ACTION_RX_SFD_DONE);
1302:build\openmote-cc2538_armgcc\openstack\02a-MAClow/IEEE802154E.c ****         sctimer_setCapture(ACTION_RX_DONE);
1303:build\openmote-cc2538_armgcc\openstack\02a-MAClow/IEEE802154E.c **** 
1304:build\openmote-cc2538_armgcc\openstack\02a-MAClow/IEEE802154E.c ****         // configure the radio for that frequency
1305:build\openmote-cc2538_armgcc\openstack\02a-MAClow/IEEE802154E.c ****         radio_setFrequency(ieee154e_vars.freq);
1306:build\openmote-cc2538_armgcc\openstack\02a-MAClow/IEEE802154E.c **** #else
1307:build\openmote-cc2538_armgcc\openstack\02a-MAClow/IEEE802154E.c ****         // arm tt5
1308:build\openmote-cc2538_armgcc\openstack\02a-MAClow/IEEE802154E.c ****         opentimers_scheduleAbsolute(
 3183              		.loc 1 1308 0
 3184 12a0 124B     		ldr	r3, .L206
 3185 12a2 93F8A801 		ldrb	r0, [r3, #424]	@ zero_extendqisi2
1309:build\openmote-cc2538_armgcc\openstack\02a-MAClow/IEEE802154E.c ****             ieee154e_vars.timerId,                            // timerId
1310:build\openmote-cc2538_armgcc\openstack\02a-MAClow/IEEE802154E.c ****             DURATION_tt5,                                     // duration
 3186              		.loc 1 1310 0
 3187 12a6 114B     		ldr	r3, .L206
 3188 12a8 D3F87831 		ldr	r3, [r3, #376]
1308:build\openmote-cc2538_armgcc\openstack\02a-MAClow/IEEE802154E.c ****             ieee154e_vars.timerId,                            // timerId
 3189              		.loc 1 1308 0
 3190 12ac 03F10A01 		add	r1, r3, #10
 3191 12b0 0E4B     		ldr	r3, .L206
 3192 12b2 D3F8AC21 		ldr	r2, [r3, #428]
 3193 12b6 0F4B     		ldr	r3, .L206+8
 3194 12b8 0093     		str	r3, [sp]
 3195 12ba 0123     		movs	r3, #1
 3196 12bc FFF7FEFF 		bl	opentimers_scheduleAbsolute
1311:build\openmote-cc2538_armgcc\openstack\02a-MAClow/IEEE802154E.c ****             ieee154e_vars.startOfSlotReference,               // reference
1312:build\openmote-cc2538_armgcc\openstack\02a-MAClow/IEEE802154E.c ****             TIME_TICS,                                        // timetype
1313:build\openmote-cc2538_armgcc\openstack\02a-MAClow/IEEE802154E.c ****             isr_ieee154e_timer                                // callback
1314:build\openmote-cc2538_armgcc\openstack\02a-MAClow/IEEE802154E.c ****         );
1315:build\openmote-cc2538_armgcc\openstack\02a-MAClow/IEEE802154E.c ****         // radiotimer_schedule(DURATION_tt5);
1316:build\openmote-cc2538_armgcc\openstack\02a-MAClow/IEEE802154E.c **** #endif
1317:build\openmote-cc2538_armgcc\openstack\02a-MAClow/IEEE802154E.c ****     } else {
1318:build\openmote-cc2538_armgcc\openstack\02a-MAClow/IEEE802154E.c ****         // indicate succesful Tx to schedule to keep statistics
1319:build\openmote-cc2538_armgcc\openstack\02a-MAClow/IEEE802154E.c ****         schedule_indicateTx(&ieee154e_vars.asn,TRUE);
1320:build\openmote-cc2538_armgcc\openstack\02a-MAClow/IEEE802154E.c ****         // indicate to upper later the packet was sent successfully
1321:build\openmote-cc2538_armgcc\openstack\02a-MAClow/IEEE802154E.c ****         notif_sendDone(ieee154e_vars.dataToSend,E_SUCCESS);
1322:build\openmote-cc2538_armgcc\openstack\02a-MAClow/IEEE802154E.c ****         // reset local variable
1323:build\openmote-cc2538_armgcc\openstack\02a-MAClow/IEEE802154E.c ****         ieee154e_vars.dataToSend = NULL;
1324:build\openmote-cc2538_armgcc\openstack\02a-MAClow/IEEE802154E.c ****         // abort
1325:build\openmote-cc2538_armgcc\openstack\02a-MAClow/IEEE802154E.c ****         endSlot();
1326:build\openmote-cc2538_armgcc\openstack\02a-MAClow/IEEE802154E.c ****     }
1327:build\openmote-cc2538_armgcc\openstack\02a-MAClow/IEEE802154E.c **** }
 3197              		.loc 1 1327 0
 3198 12c0 10E0     		b	.L205
 3199              	.L203:
1319:build\openmote-cc2538_armgcc\openstack\02a-MAClow/IEEE802154E.c ****         // indicate to upper later the packet was sent successfully
 3200              		.loc 1 1319 0
 3201 12c2 0121     		movs	r1, #1
 3202 12c4 0948     		ldr	r0, .L206
 3203 12c6 FFF7FEFF 		bl	schedule_indicateTx
1321:build\openmote-cc2538_armgcc\openstack\02a-MAClow/IEEE802154E.c ****         // reset local variable
 3204              		.loc 1 1321 0
 3205 12ca 084B     		ldr	r3, .L206
 3206 12cc D3F86831 		ldr	r3, [r3, #360]
 3207 12d0 0021     		movs	r1, #0
 3208 12d2 1846     		mov	r0, r3
 3209 12d4 FFF7FEFF 		bl	notif_sendDone
1323:build\openmote-cc2538_armgcc\openstack\02a-MAClow/IEEE802154E.c ****         // abort
 3210              		.loc 1 1323 0
 3211 12d8 044B     		ldr	r3, .L206
 3212 12da 0022     		movs	r2, #0
 3213 12dc C3F86821 		str	r2, [r3, #360]
1325:build\openmote-cc2538_armgcc\openstack\02a-MAClow/IEEE802154E.c ****     }
 3214              		.loc 1 1325 0
 3215 12e0 FFF7FEFF 		bl	endSlot
 3216              	.L205:
 3217              		.loc 1 1327 0
 3218 12e4 00BF     		nop
 3219 12e6 1037     		adds	r7, r7, #16
 3220              		.cfi_def_cfa_offset 8
 3221 12e8 BD46     		mov	sp, r7
 3222              		.cfi_def_cfa_register 13
 3223              		@ sp needed
 3224 12ea 80BD     		pop	{r7, pc}
 3225              	.L207:
 3226              		.align	2
 3227              	.L206:
 3228 12ec 00000000 		.word	ieee154e_vars
 3229 12f0 00000000 		.word	isr_ieee154e_newSlot
 3230 12f4 00000000 		.word	isr_ieee154e_timer
 3231              		.cfi_endproc
 3232              	.LFE27:
 3234              		.align	1
 3235              		.global	activity_ti6
 3236              		.syntax unified
 3237              		.thumb
 3238              		.thumb_func
 3239              		.fpu softvfp
 3241              	activity_ti6:
 3242              	.LFB28:
1328:build\openmote-cc2538_armgcc\openstack\02a-MAClow/IEEE802154E.c **** 
1329:build\openmote-cc2538_armgcc\openstack\02a-MAClow/IEEE802154E.c **** port_INLINE void activity_ti6(void) {
 3243              		.loc 1 1329 0
 3244              		.cfi_startproc
 3245              		@ args = 0, pretend = 0, frame = 0
 3246              		@ frame_needed = 1, uses_anonymous_args = 0
 3247 12f8 80B5     		push	{r7, lr}
 3248              		.cfi_def_cfa_offset 8
 3249              		.cfi_offset 7, -8
 3250              		.cfi_offset 14, -4
 3251 12fa 82B0     		sub	sp, sp, #8
 3252              		.cfi_def_cfa_offset 16
 3253 12fc 02AF     		add	r7, sp, #8
 3254              		.cfi_def_cfa 7, 8
1330:build\openmote-cc2538_armgcc\openstack\02a-MAClow/IEEE802154E.c ****     // change state
1331:build\openmote-cc2538_armgcc\openstack\02a-MAClow/IEEE802154E.c ****     changeState(S_RXACKPREPARE);
 3255              		.loc 1 1331 0
 3256 12fe 0A20     		movs	r0, #10
 3257 1300 FFF7FEFF 		bl	changeState
1332:build\openmote-cc2538_armgcc\openstack\02a-MAClow/IEEE802154E.c **** #ifdef SLOT_FSM_IMPLEMENTATION_MULTIPLE_TIMER_INTERRUPT
1333:build\openmote-cc2538_armgcc\openstack\02a-MAClow/IEEE802154E.c ****     // enable the radio in Rx mode. The radio is not actively listening yet.
1334:build\openmote-cc2538_armgcc\openstack\02a-MAClow/IEEE802154E.c ****     radio_rxEnable_scum();
1335:build\openmote-cc2538_armgcc\openstack\02a-MAClow/IEEE802154E.c **** #else
1336:build\openmote-cc2538_armgcc\openstack\02a-MAClow/IEEE802154E.c ****     // arm tt6
1337:build\openmote-cc2538_armgcc\openstack\02a-MAClow/IEEE802154E.c ****     opentimers_scheduleAbsolute(
 3258              		.loc 1 1337 0
 3259 1304 134B     		ldr	r3, .L209
 3260 1306 93F8A801 		ldrb	r0, [r3, #424]	@ zero_extendqisi2
1338:build\openmote-cc2538_armgcc\openstack\02a-MAClow/IEEE802154E.c ****         ieee154e_vars.timerId,                            // timerId
1339:build\openmote-cc2538_armgcc\openstack\02a-MAClow/IEEE802154E.c ****         DURATION_tt6,                                     // duration
 3261              		.loc 1 1339 0
 3262 130a 124B     		ldr	r3, .L209
 3263 130c D3F87831 		ldr	r3, [r3, #376]
1337:build\openmote-cc2538_armgcc\openstack\02a-MAClow/IEEE802154E.c ****         ieee154e_vars.timerId,                            // timerId
 3264              		.loc 1 1337 0
 3265 1310 03F11401 		add	r1, r3, #20
 3266 1314 0F4B     		ldr	r3, .L209
 3267 1316 D3F8AC21 		ldr	r2, [r3, #428]
 3268 131a 0F4B     		ldr	r3, .L209+4
 3269 131c 0093     		str	r3, [sp]
 3270 131e 0123     		movs	r3, #1
 3271 1320 FFF7FEFF 		bl	opentimers_scheduleAbsolute
1340:build\openmote-cc2538_armgcc\openstack\02a-MAClow/IEEE802154E.c ****         ieee154e_vars.startOfSlotReference,               // reference
1341:build\openmote-cc2538_armgcc\openstack\02a-MAClow/IEEE802154E.c ****         TIME_TICS,                                        // timetype
1342:build\openmote-cc2538_armgcc\openstack\02a-MAClow/IEEE802154E.c ****         isr_ieee154e_timer                                // callback
1343:build\openmote-cc2538_armgcc\openstack\02a-MAClow/IEEE802154E.c ****     );
1344:build\openmote-cc2538_armgcc\openstack\02a-MAClow/IEEE802154E.c ****     // radiotimer_schedule(DURATION_tt6);
1345:build\openmote-cc2538_armgcc\openstack\02a-MAClow/IEEE802154E.c **** 
1346:build\openmote-cc2538_armgcc\openstack\02a-MAClow/IEEE802154E.c ****     // configure the radio for that frequency
1347:build\openmote-cc2538_armgcc\openstack\02a-MAClow/IEEE802154E.c ****     radio_setFrequency(ieee154e_vars.freq);
 3272              		.loc 1 1347 0
 3273 1324 0B4B     		ldr	r3, .L209
 3274 1326 93F88031 		ldrb	r3, [r3, #384]	@ zero_extendqisi2
 3275 132a 1846     		mov	r0, r3
 3276 132c FFF7FEFF 		bl	radio_setFrequency
1348:build\openmote-cc2538_armgcc\openstack\02a-MAClow/IEEE802154E.c **** 
1349:build\openmote-cc2538_armgcc\openstack\02a-MAClow/IEEE802154E.c ****     radio_rxEnable();
 3277              		.loc 1 1349 0
 3278 1330 FFF7FEFF 		bl	radio_rxEnable
1350:build\openmote-cc2538_armgcc\openstack\02a-MAClow/IEEE802154E.c **** #endif
1351:build\openmote-cc2538_armgcc\openstack\02a-MAClow/IEEE802154E.c ****     //caputre init of radio for duty cycle calculation
1352:build\openmote-cc2538_armgcc\openstack\02a-MAClow/IEEE802154E.c ****     ieee154e_vars.radioOnInit=sctimer_readCounter();
 3279              		.loc 1 1352 0
 3280 1334 FFF7FEFF 		bl	sctimer_readCounter
 3281 1338 0246     		mov	r2, r0
 3282 133a 064B     		ldr	r3, .L209
 3283 133c C3F89821 		str	r2, [r3, #408]
1353:build\openmote-cc2538_armgcc\openstack\02a-MAClow/IEEE802154E.c ****     ieee154e_vars.radioOnThisSlot=TRUE;
 3284              		.loc 1 1353 0
 3285 1340 044B     		ldr	r3, .L209
 3286 1342 0122     		movs	r2, #1
 3287 1344 83F8A021 		strb	r2, [r3, #416]
1354:build\openmote-cc2538_armgcc\openstack\02a-MAClow/IEEE802154E.c **** 
1355:build\openmote-cc2538_armgcc\openstack\02a-MAClow/IEEE802154E.c ****     // change state
1356:build\openmote-cc2538_armgcc\openstack\02a-MAClow/IEEE802154E.c ****     changeState(S_RXACKREADY);
 3288              		.loc 1 1356 0
 3289 1348 0B20     		movs	r0, #11
 3290 134a FFF7FEFF 		bl	changeState
1357:build\openmote-cc2538_armgcc\openstack\02a-MAClow/IEEE802154E.c **** }
 3291              		.loc 1 1357 0
 3292 134e 00BF     		nop
 3293 1350 BD46     		mov	sp, r7
 3294              		.cfi_def_cfa_register 13
 3295              		@ sp needed
 3296 1352 80BD     		pop	{r7, pc}
 3297              	.L210:
 3298              		.align	2
 3299              	.L209:
 3300 1354 00000000 		.word	ieee154e_vars
 3301 1358 00000000 		.word	isr_ieee154e_timer
 3302              		.cfi_endproc
 3303              	.LFE28:
 3305              		.align	1
 3306              		.global	activity_tie4
 3307              		.syntax unified
 3308              		.thumb
 3309              		.thumb_func
 3310              		.fpu softvfp
 3312              	activity_tie4:
 3313              	.LFB29:
1358:build\openmote-cc2538_armgcc\openstack\02a-MAClow/IEEE802154E.c **** 
1359:build\openmote-cc2538_armgcc\openstack\02a-MAClow/IEEE802154E.c **** port_INLINE void activity_tie4(void) {
 3314              		.loc 1 1359 0
 3315              		.cfi_startproc
 3316              		@ args = 0, pretend = 0, frame = 0
 3317              		@ frame_needed = 1, uses_anonymous_args = 0
 3318 135c 80B5     		push	{r7, lr}
 3319              		.cfi_def_cfa_offset 8
 3320              		.cfi_offset 7, -8
 3321              		.cfi_offset 14, -4
 3322 135e 00AF     		add	r7, sp, #0
 3323              		.cfi_def_cfa_register 7
1360:build\openmote-cc2538_armgcc\openstack\02a-MAClow/IEEE802154E.c ****     // log the error
1361:build\openmote-cc2538_armgcc\openstack\02a-MAClow/IEEE802154E.c ****     openserial_printError(COMPONENT_IEEE802154E,ERR_MAXRXACKPREPARE_OVERFLOWS,
1362:build\openmote-cc2538_armgcc\openstack\02a-MAClow/IEEE802154E.c ****                          (errorparameter_t)ieee154e_vars.state,
 3324              		.loc 1 1362 0
 3325 1360 064B     		ldr	r3, .L212
 3326 1362 93F86431 		ldrb	r3, [r3, #356]	@ zero_extendqisi2
1361:build\openmote-cc2538_armgcc\openstack\02a-MAClow/IEEE802154E.c ****                          (errorparameter_t)ieee154e_vars.state,
 3327              		.loc 1 1361 0
 3328 1366 9AB2     		uxth	r2, r3
1363:build\openmote-cc2538_armgcc\openstack\02a-MAClow/IEEE802154E.c ****                          (errorparameter_t)ieee154e_vars.slotOffset);
 3329              		.loc 1 1363 0
 3330 1368 044B     		ldr	r3, .L212
 3331 136a DB88     		ldrh	r3, [r3, #6]
1361:build\openmote-cc2538_armgcc\openstack\02a-MAClow/IEEE802154E.c ****                          (errorparameter_t)ieee154e_vars.state,
 3332              		.loc 1 1361 0
 3333 136c 2421     		movs	r1, #36
 3334 136e 0920     		movs	r0, #9
 3335 1370 FFF7FEFF 		bl	openserial_printError
1364:build\openmote-cc2538_armgcc\openstack\02a-MAClow/IEEE802154E.c **** 
1365:build\openmote-cc2538_armgcc\openstack\02a-MAClow/IEEE802154E.c ****     // abort
1366:build\openmote-cc2538_armgcc\openstack\02a-MAClow/IEEE802154E.c ****     endSlot();
 3336              		.loc 1 1366 0
 3337 1374 FFF7FEFF 		bl	endSlot
1367:build\openmote-cc2538_armgcc\openstack\02a-MAClow/IEEE802154E.c **** }
 3338              		.loc 1 1367 0
 3339 1378 00BF     		nop
 3340 137a 80BD     		pop	{r7, pc}
 3341              	.L213:
 3342              		.align	2
 3343              	.L212:
 3344 137c 00000000 		.word	ieee154e_vars
 3345              		.cfi_endproc
 3346              	.LFE29:
 3348              		.align	1
 3349              		.global	activity_ti7
 3350              		.syntax unified
 3351              		.thumb
 3352              		.thumb_func
 3353              		.fpu softvfp
 3355              	activity_ti7:
 3356              	.LFB30:
1368:build\openmote-cc2538_armgcc\openstack\02a-MAClow/IEEE802154E.c **** 
1369:build\openmote-cc2538_armgcc\openstack\02a-MAClow/IEEE802154E.c **** port_INLINE void activity_ti7(void) {
 3357              		.loc 1 1369 0
 3358              		.cfi_startproc
 3359              		@ args = 0, pretend = 0, frame = 0
 3360              		@ frame_needed = 1, uses_anonymous_args = 0
 3361 1380 80B5     		push	{r7, lr}
 3362              		.cfi_def_cfa_offset 8
 3363              		.cfi_offset 7, -8
 3364              		.cfi_offset 14, -4
 3365 1382 82B0     		sub	sp, sp, #8
 3366              		.cfi_def_cfa_offset 16
 3367 1384 02AF     		add	r7, sp, #8
 3368              		.cfi_def_cfa 7, 8
1370:build\openmote-cc2538_armgcc\openstack\02a-MAClow/IEEE802154E.c ****     // change state
1371:build\openmote-cc2538_armgcc\openstack\02a-MAClow/IEEE802154E.c ****     changeState(S_RXACKLISTEN);
 3369              		.loc 1 1371 0
 3370 1386 0C20     		movs	r0, #12
 3371 1388 FFF7FEFF 		bl	changeState
1372:build\openmote-cc2538_armgcc\openstack\02a-MAClow/IEEE802154E.c **** 
1373:build\openmote-cc2538_armgcc\openstack\02a-MAClow/IEEE802154E.c ****     // start listening
1374:build\openmote-cc2538_armgcc\openstack\02a-MAClow/IEEE802154E.c ****     radio_rxNow();
 3372              		.loc 1 1374 0
 3373 138c FFF7FEFF 		bl	radio_rxNow
1375:build\openmote-cc2538_armgcc\openstack\02a-MAClow/IEEE802154E.c **** #ifdef SLOT_FSM_IMPLEMENTATION_MULTIPLE_TIMER_INTERRUPT
1376:build\openmote-cc2538_armgcc\openstack\02a-MAClow/IEEE802154E.c ****     // arm tt7
1377:build\openmote-cc2538_armgcc\openstack\02a-MAClow/IEEE802154E.c ****     sctimer_scheduleActionIn(ACTION_SET_TIMEOUT,ieee154e_vars.startOfSlotReference+DURATION_tt7);
1378:build\openmote-cc2538_armgcc\openstack\02a-MAClow/IEEE802154E.c **** #else
1379:build\openmote-cc2538_armgcc\openstack\02a-MAClow/IEEE802154E.c ****     // arm tt7
1380:build\openmote-cc2538_armgcc\openstack\02a-MAClow/IEEE802154E.c ****     opentimers_scheduleAbsolute(
 3374              		.loc 1 1380 0
 3375 1390 094B     		ldr	r3, .L215
 3376 1392 93F8A801 		ldrb	r0, [r3, #424]	@ zero_extendqisi2
1381:build\openmote-cc2538_armgcc\openstack\02a-MAClow/IEEE802154E.c ****         ieee154e_vars.timerId,                            // timerId
1382:build\openmote-cc2538_armgcc\openstack\02a-MAClow/IEEE802154E.c ****         DURATION_tt7,                                     // duration
 3377              		.loc 1 1382 0
 3378 1396 084B     		ldr	r3, .L215
 3379 1398 D3F87831 		ldr	r3, [r3, #376]
1380:build\openmote-cc2538_armgcc\openstack\02a-MAClow/IEEE802154E.c ****         ieee154e_vars.timerId,                            // timerId
 3380              		.loc 1 1380 0
 3381 139c 03F12E01 		add	r1, r3, #46
 3382 13a0 054B     		ldr	r3, .L215
 3383 13a2 D3F8AC21 		ldr	r2, [r3, #428]
 3384 13a6 054B     		ldr	r3, .L215+4
 3385 13a8 0093     		str	r3, [sp]
 3386 13aa 0123     		movs	r3, #1
 3387 13ac FFF7FEFF 		bl	opentimers_scheduleAbsolute
1383:build\openmote-cc2538_armgcc\openstack\02a-MAClow/IEEE802154E.c ****         ieee154e_vars.startOfSlotReference,               // reference
1384:build\openmote-cc2538_armgcc\openstack\02a-MAClow/IEEE802154E.c ****         TIME_TICS,                                        // timetype
1385:build\openmote-cc2538_armgcc\openstack\02a-MAClow/IEEE802154E.c ****         isr_ieee154e_timer                                // callback
1386:build\openmote-cc2538_armgcc\openstack\02a-MAClow/IEEE802154E.c ****     );
1387:build\openmote-cc2538_armgcc\openstack\02a-MAClow/IEEE802154E.c ****     // radiotimer_schedule(DURATION_tt7);
1388:build\openmote-cc2538_armgcc\openstack\02a-MAClow/IEEE802154E.c **** #endif
1389:build\openmote-cc2538_armgcc\openstack\02a-MAClow/IEEE802154E.c **** }
 3388              		.loc 1 1389 0
 3389 13b0 00BF     		nop
 3390 13b2 BD46     		mov	sp, r7
 3391              		.cfi_def_cfa_register 13
 3392              		@ sp needed
 3393 13b4 80BD     		pop	{r7, pc}
 3394              	.L216:
 3395 13b6 00BF     		.align	2
 3396              	.L215:
 3397 13b8 00000000 		.word	ieee154e_vars
 3398 13bc 00000000 		.word	isr_ieee154e_timer
 3399              		.cfi_endproc
 3400              	.LFE30:
 3402              		.align	1
 3403              		.global	activity_tie5
 3404              		.syntax unified
 3405              		.thumb
 3406              		.thumb_func
 3407              		.fpu softvfp
 3409              	activity_tie5:
 3410              	.LFB31:
1390:build\openmote-cc2538_armgcc\openstack\02a-MAClow/IEEE802154E.c **** 
1391:build\openmote-cc2538_armgcc\openstack\02a-MAClow/IEEE802154E.c **** port_INLINE void activity_tie5(void) {
 3411              		.loc 1 1391 0
 3412              		.cfi_startproc
 3413              		@ args = 0, pretend = 0, frame = 0
 3414              		@ frame_needed = 1, uses_anonymous_args = 0
 3415 13c0 80B5     		push	{r7, lr}
 3416              		.cfi_def_cfa_offset 8
 3417              		.cfi_offset 7, -8
 3418              		.cfi_offset 14, -4
 3419 13c2 00AF     		add	r7, sp, #0
 3420              		.cfi_def_cfa_register 7
1392:build\openmote-cc2538_armgcc\openstack\02a-MAClow/IEEE802154E.c ****     // indicate transmit failed to schedule to keep stats
1393:build\openmote-cc2538_armgcc\openstack\02a-MAClow/IEEE802154E.c ****     schedule_indicateTx(&ieee154e_vars.asn,FALSE);
 3421              		.loc 1 1393 0
 3422 13c4 0021     		movs	r1, #0
 3423 13c6 1448     		ldr	r0, .L220
 3424 13c8 FFF7FEFF 		bl	schedule_indicateTx
1394:build\openmote-cc2538_armgcc\openstack\02a-MAClow/IEEE802154E.c **** 
1395:build\openmote-cc2538_armgcc\openstack\02a-MAClow/IEEE802154E.c ****     // decrement transmits left counter
1396:build\openmote-cc2538_armgcc\openstack\02a-MAClow/IEEE802154E.c ****     ieee154e_vars.dataToSend->l2_retriesLeft--;
 3425              		.loc 1 1396 0
 3426 13cc 124B     		ldr	r3, .L220
 3427 13ce D3F86831 		ldr	r3, [r3, #360]
 3428 13d2 93F85420 		ldrb	r2, [r3, #84]	@ zero_extendqisi2
 3429 13d6 013A     		subs	r2, r2, #1
 3430 13d8 D2B2     		uxtb	r2, r2
 3431 13da 83F85420 		strb	r2, [r3, #84]
1397:build\openmote-cc2538_armgcc\openstack\02a-MAClow/IEEE802154E.c **** 
1398:build\openmote-cc2538_armgcc\openstack\02a-MAClow/IEEE802154E.c ****     if (ieee154e_vars.dataToSend->l2_retriesLeft==0) {
 3432              		.loc 1 1398 0
 3433 13de 0E4B     		ldr	r3, .L220
 3434 13e0 D3F86831 		ldr	r3, [r3, #360]
 3435 13e4 93F85430 		ldrb	r3, [r3, #84]	@ zero_extendqisi2
 3436 13e8 002B     		cmp	r3, #0
 3437 13ea 07D1     		bne	.L218
1399:build\openmote-cc2538_armgcc\openstack\02a-MAClow/IEEE802154E.c ****         // indicate tx fail if no more retries left
1400:build\openmote-cc2538_armgcc\openstack\02a-MAClow/IEEE802154E.c ****         notif_sendDone(ieee154e_vars.dataToSend,E_FAIL);
 3438              		.loc 1 1400 0
 3439 13ec 0A4B     		ldr	r3, .L220
 3440 13ee D3F86831 		ldr	r3, [r3, #360]
 3441 13f2 0121     		movs	r1, #1
 3442 13f4 1846     		mov	r0, r3
 3443 13f6 FFF7FEFF 		bl	notif_sendDone
 3444 13fa 04E0     		b	.L219
 3445              	.L218:
1401:build\openmote-cc2538_armgcc\openstack\02a-MAClow/IEEE802154E.c ****     } else {
1402:build\openmote-cc2538_armgcc\openstack\02a-MAClow/IEEE802154E.c ****         // return packet to the virtual COMPONENT_SIXTOP_TO_IEEE802154E component
1403:build\openmote-cc2538_armgcc\openstack\02a-MAClow/IEEE802154E.c ****         ieee154e_vars.dataToSend->owner = COMPONENT_SIXTOP_TO_IEEE802154E;
 3446              		.loc 1 1403 0
 3447 13fc 064B     		ldr	r3, .L220
 3448 13fe D3F86831 		ldr	r3, [r3, #360]
 3449 1402 0A22     		movs	r2, #10
 3450 1404 5A70     		strb	r2, [r3, #1]
 3451              	.L219:
1404:build\openmote-cc2538_armgcc\openstack\02a-MAClow/IEEE802154E.c ****     }
1405:build\openmote-cc2538_armgcc\openstack\02a-MAClow/IEEE802154E.c **** 
1406:build\openmote-cc2538_armgcc\openstack\02a-MAClow/IEEE802154E.c ****     // reset local variable
1407:build\openmote-cc2538_armgcc\openstack\02a-MAClow/IEEE802154E.c ****     ieee154e_vars.dataToSend = NULL;
 3452              		.loc 1 1407 0
 3453 1406 044B     		ldr	r3, .L220
 3454 1408 0022     		movs	r2, #0
 3455 140a C3F86821 		str	r2, [r3, #360]
1408:build\openmote-cc2538_armgcc\openstack\02a-MAClow/IEEE802154E.c **** 
1409:build\openmote-cc2538_armgcc\openstack\02a-MAClow/IEEE802154E.c ****     // abort
1410:build\openmote-cc2538_armgcc\openstack\02a-MAClow/IEEE802154E.c ****     endSlot();
 3456              		.loc 1 1410 0
 3457 140e FFF7FEFF 		bl	endSlot
1411:build\openmote-cc2538_armgcc\openstack\02a-MAClow/IEEE802154E.c **** }
 3458              		.loc 1 1411 0
 3459 1412 00BF     		nop
 3460 1414 80BD     		pop	{r7, pc}
 3461              	.L221:
 3462 1416 00BF     		.align	2
 3463              	.L220:
 3464 1418 00000000 		.word	ieee154e_vars
 3465              		.cfi_endproc
 3466              	.LFE31:
 3468              		.align	1
 3469              		.global	activity_ti8
 3470              		.syntax unified
 3471              		.thumb
 3472              		.thumb_func
 3473              		.fpu softvfp
 3475              	activity_ti8:
 3476              	.LFB32:
1412:build\openmote-cc2538_armgcc\openstack\02a-MAClow/IEEE802154E.c **** 
1413:build\openmote-cc2538_armgcc\openstack\02a-MAClow/IEEE802154E.c **** port_INLINE void activity_ti8(PORT_TIMER_WIDTH capturedTime) {
 3477              		.loc 1 1413 0
 3478              		.cfi_startproc
 3479              		@ args = 0, pretend = 0, frame = 8
 3480              		@ frame_needed = 1, uses_anonymous_args = 0
 3481 141c 80B5     		push	{r7, lr}
 3482              		.cfi_def_cfa_offset 8
 3483              		.cfi_offset 7, -8
 3484              		.cfi_offset 14, -4
 3485 141e 84B0     		sub	sp, sp, #16
 3486              		.cfi_def_cfa_offset 24
 3487 1420 02AF     		add	r7, sp, #8
 3488              		.cfi_def_cfa 7, 16
 3489 1422 7860     		str	r0, [r7, #4]
1414:build\openmote-cc2538_armgcc\openstack\02a-MAClow/IEEE802154E.c ****     // change state
1415:build\openmote-cc2538_armgcc\openstack\02a-MAClow/IEEE802154E.c ****     changeState(S_RXACK);
 3490              		.loc 1 1415 0
 3491 1424 0D20     		movs	r0, #13
 3492 1426 FFF7FEFF 		bl	changeState
1416:build\openmote-cc2538_armgcc\openstack\02a-MAClow/IEEE802154E.c **** #ifdef SLOT_FSM_IMPLEMENTATION_MULTIPLE_TIMER_INTERRUPT
1417:build\openmote-cc2538_armgcc\openstack\02a-MAClow/IEEE802154E.c ****     // cancel tt7
1418:build\openmote-cc2538_armgcc\openstack\02a-MAClow/IEEE802154E.c ****     sctimer_actionCancel(ACTION_SET_TIMEOUT);
1419:build\openmote-cc2538_armgcc\openstack\02a-MAClow/IEEE802154E.c **** #else
1420:build\openmote-cc2538_armgcc\openstack\02a-MAClow/IEEE802154E.c ****     // cancel tt7
1421:build\openmote-cc2538_armgcc\openstack\02a-MAClow/IEEE802154E.c ****     opentimers_scheduleAbsolute(
 3493              		.loc 1 1421 0
 3494 142a 134B     		ldr	r3, .L223
 3495 142c 93F8A801 		ldrb	r0, [r3, #424]	@ zero_extendqisi2
1422:build\openmote-cc2538_armgcc\openstack\02a-MAClow/IEEE802154E.c ****         ieee154e_vars.timerId,                            // timerId
1423:build\openmote-cc2538_armgcc\openstack\02a-MAClow/IEEE802154E.c ****         ieee154e_vars.slotDuration,                       // duration
 3496              		.loc 1 1423 0
 3497 1430 114B     		ldr	r3, .L223
 3498 1432 B3F8A631 		ldrh	r3, [r3, #422]
1421:build\openmote-cc2538_armgcc\openstack\02a-MAClow/IEEE802154E.c ****         ieee154e_vars.timerId,                            // timerId
 3499              		.loc 1 1421 0
 3500 1436 1946     		mov	r1, r3
 3501 1438 0F4B     		ldr	r3, .L223
 3502 143a D3F8AC21 		ldr	r2, [r3, #428]
 3503 143e 0F4B     		ldr	r3, .L223+4
 3504 1440 0093     		str	r3, [sp]
 3505 1442 0123     		movs	r3, #1
 3506 1444 FFF7FEFF 		bl	opentimers_scheduleAbsolute
1424:build\openmote-cc2538_armgcc\openstack\02a-MAClow/IEEE802154E.c ****         ieee154e_vars.startOfSlotReference,               // reference
1425:build\openmote-cc2538_armgcc\openstack\02a-MAClow/IEEE802154E.c ****         TIME_TICS,                                        // timetype
1426:build\openmote-cc2538_armgcc\openstack\02a-MAClow/IEEE802154E.c ****         isr_ieee154e_newSlot                              // callback
1427:build\openmote-cc2538_armgcc\openstack\02a-MAClow/IEEE802154E.c ****     );
1428:build\openmote-cc2538_armgcc\openstack\02a-MAClow/IEEE802154E.c ****     // radiotimer_cancel();
1429:build\openmote-cc2538_armgcc\openstack\02a-MAClow/IEEE802154E.c **** #endif
1430:build\openmote-cc2538_armgcc\openstack\02a-MAClow/IEEE802154E.c ****     // record the captured time
1431:build\openmote-cc2538_armgcc\openstack\02a-MAClow/IEEE802154E.c ****     ieee154e_vars.lastCapturedTime = capturedTime;
 3507              		.loc 1 1431 0
 3508 1448 0B4A     		ldr	r2, .L223
 3509 144a 7B68     		ldr	r3, [r7, #4]
 3510 144c C2F87831 		str	r3, [r2, #376]
1432:build\openmote-cc2538_armgcc\openstack\02a-MAClow/IEEE802154E.c **** #ifdef SLOT_FSM_IMPLEMENTATION_MULTIPLE_TIMER_INTERRUPT
1433:build\openmote-cc2538_armgcc\openstack\02a-MAClow/IEEE802154E.c ****     // arm tt8
1434:build\openmote-cc2538_armgcc\openstack\02a-MAClow/IEEE802154E.c ****     sctimer_scheduleActionIn(ACTION_SET_TIMEOUT,ieee154e_vars.startOfSlotReference+DURATION_tt8);
1435:build\openmote-cc2538_armgcc\openstack\02a-MAClow/IEEE802154E.c **** #else
1436:build\openmote-cc2538_armgcc\openstack\02a-MAClow/IEEE802154E.c ****     // arm tt8
1437:build\openmote-cc2538_armgcc\openstack\02a-MAClow/IEEE802154E.c ****     opentimers_scheduleAbsolute(
 3511              		.loc 1 1437 0
 3512 1450 094B     		ldr	r3, .L223
 3513 1452 93F8A801 		ldrb	r0, [r3, #424]	@ zero_extendqisi2
1438:build\openmote-cc2538_armgcc\openstack\02a-MAClow/IEEE802154E.c ****         ieee154e_vars.timerId,                            // timerId
1439:build\openmote-cc2538_armgcc\openstack\02a-MAClow/IEEE802154E.c ****         DURATION_tt8,                                     // duration
 3514              		.loc 1 1439 0
 3515 1456 084B     		ldr	r3, .L223
 3516 1458 D3F87831 		ldr	r3, [r3, #376]
1437:build\openmote-cc2538_armgcc\openstack\02a-MAClow/IEEE802154E.c ****         ieee154e_vars.timerId,                            // timerId
 3517              		.loc 1 1437 0
 3518 145c 03F16201 		add	r1, r3, #98
 3519 1460 054B     		ldr	r3, .L223
 3520 1462 D3F8AC21 		ldr	r2, [r3, #428]
 3521 1466 064B     		ldr	r3, .L223+8
 3522 1468 0093     		str	r3, [sp]
 3523 146a 0123     		movs	r3, #1
 3524 146c FFF7FEFF 		bl	opentimers_scheduleAbsolute
1440:build\openmote-cc2538_armgcc\openstack\02a-MAClow/IEEE802154E.c ****         ieee154e_vars.startOfSlotReference,               // reference
1441:build\openmote-cc2538_armgcc\openstack\02a-MAClow/IEEE802154E.c ****         TIME_TICS,                                        // timetype
1442:build\openmote-cc2538_armgcc\openstack\02a-MAClow/IEEE802154E.c ****         isr_ieee154e_timer                                // callback
1443:build\openmote-cc2538_armgcc\openstack\02a-MAClow/IEEE802154E.c ****     );
1444:build\openmote-cc2538_armgcc\openstack\02a-MAClow/IEEE802154E.c ****     // radiotimer_schedule(DURATION_tt8);
1445:build\openmote-cc2538_armgcc\openstack\02a-MAClow/IEEE802154E.c **** #endif
1446:build\openmote-cc2538_armgcc\openstack\02a-MAClow/IEEE802154E.c **** }
 3525              		.loc 1 1446 0
 3526 1470 00BF     		nop
 3527 1472 0837     		adds	r7, r7, #8
 3528              		.cfi_def_cfa_offset 8
 3529 1474 BD46     		mov	sp, r7
 3530              		.cfi_def_cfa_register 13
 3531              		@ sp needed
 3532 1476 80BD     		pop	{r7, pc}
 3533              	.L224:
 3534              		.align	2
 3535              	.L223:
 3536 1478 00000000 		.word	ieee154e_vars
 3537 147c 00000000 		.word	isr_ieee154e_newSlot
 3538 1480 00000000 		.word	isr_ieee154e_timer
 3539              		.cfi_endproc
 3540              	.LFE32:
 3542              		.align	1
 3543              		.global	activity_tie6
 3544              		.syntax unified
 3545              		.thumb
 3546              		.thumb_func
 3547              		.fpu softvfp
 3549              	activity_tie6:
 3550              	.LFB33:
1447:build\openmote-cc2538_armgcc\openstack\02a-MAClow/IEEE802154E.c **** 
1448:build\openmote-cc2538_armgcc\openstack\02a-MAClow/IEEE802154E.c **** port_INLINE void activity_tie6(void) {
 3551              		.loc 1 1448 0
 3552              		.cfi_startproc
 3553              		@ args = 0, pretend = 0, frame = 0
 3554              		@ frame_needed = 1, uses_anonymous_args = 0
 3555 1484 80B5     		push	{r7, lr}
 3556              		.cfi_def_cfa_offset 8
 3557              		.cfi_offset 7, -8
 3558              		.cfi_offset 14, -4
 3559 1486 00AF     		add	r7, sp, #0
 3560              		.cfi_def_cfa_register 7
1449:build\openmote-cc2538_armgcc\openstack\02a-MAClow/IEEE802154E.c ****     // log the error
1450:build\openmote-cc2538_armgcc\openstack\02a-MAClow/IEEE802154E.c ****     openserial_printError(COMPONENT_IEEE802154E,ERR_WDACKDURATION_OVERFLOWS,
1451:build\openmote-cc2538_armgcc\openstack\02a-MAClow/IEEE802154E.c ****                          (errorparameter_t)ieee154e_vars.state,
 3561              		.loc 1 1451 0
 3562 1488 064B     		ldr	r3, .L226
 3563 148a 93F86431 		ldrb	r3, [r3, #356]	@ zero_extendqisi2
1450:build\openmote-cc2538_armgcc\openstack\02a-MAClow/IEEE802154E.c ****                          (errorparameter_t)ieee154e_vars.state,
 3564              		.loc 1 1450 0
 3565 148e 9AB2     		uxth	r2, r3
1452:build\openmote-cc2538_armgcc\openstack\02a-MAClow/IEEE802154E.c ****                          (errorparameter_t)ieee154e_vars.slotOffset);
 3566              		.loc 1 1452 0
 3567 1490 044B     		ldr	r3, .L226
 3568 1492 DB88     		ldrh	r3, [r3, #6]
1450:build\openmote-cc2538_armgcc\openstack\02a-MAClow/IEEE802154E.c ****                          (errorparameter_t)ieee154e_vars.state,
 3569              		.loc 1 1450 0
 3570 1494 2A21     		movs	r1, #42
 3571 1496 0920     		movs	r0, #9
 3572 1498 FFF7FEFF 		bl	openserial_printError
1453:build\openmote-cc2538_armgcc\openstack\02a-MAClow/IEEE802154E.c ****     // abort
1454:build\openmote-cc2538_armgcc\openstack\02a-MAClow/IEEE802154E.c ****     endSlot();
 3573              		.loc 1 1454 0
 3574 149c FFF7FEFF 		bl	endSlot
1455:build\openmote-cc2538_armgcc\openstack\02a-MAClow/IEEE802154E.c **** }
 3575              		.loc 1 1455 0
 3576 14a0 00BF     		nop
 3577 14a2 80BD     		pop	{r7, pc}
 3578              	.L227:
 3579              		.align	2
 3580              	.L226:
 3581 14a4 00000000 		.word	ieee154e_vars
 3582              		.cfi_endproc
 3583              	.LFE33:
 3585              		.align	1
 3586              		.global	activity_ti9
 3587              		.syntax unified
 3588              		.thumb
 3589              		.thumb_func
 3590              		.fpu softvfp
 3592              	activity_ti9:
 3593              	.LFB34:
1456:build\openmote-cc2538_armgcc\openstack\02a-MAClow/IEEE802154E.c **** 
1457:build\openmote-cc2538_armgcc\openstack\02a-MAClow/IEEE802154E.c **** port_INLINE void activity_ti9(PORT_TIMER_WIDTH capturedTime) {
 3594              		.loc 1 1457 0
 3595              		.cfi_startproc
 3596              		@ args = 0, pretend = 0, frame = 72
 3597              		@ frame_needed = 1, uses_anonymous_args = 0
 3598 14a8 B0B5     		push	{r4, r5, r7, lr}
 3599              		.cfi_def_cfa_offset 16
 3600              		.cfi_offset 4, -16
 3601              		.cfi_offset 5, -12
 3602              		.cfi_offset 7, -8
 3603              		.cfi_offset 14, -4
 3604 14aa 94B0     		sub	sp, sp, #80
 3605              		.cfi_def_cfa_offset 96
 3606 14ac 02AF     		add	r7, sp, #8
 3607              		.cfi_def_cfa 7, 88
 3608 14ae 7860     		str	r0, [r7, #4]
1458:build\openmote-cc2538_armgcc\openstack\02a-MAClow/IEEE802154E.c ****     ieee802154_header_iht     ieee802514_header;
1459:build\openmote-cc2538_armgcc\openstack\02a-MAClow/IEEE802154E.c **** 
1460:build\openmote-cc2538_armgcc\openstack\02a-MAClow/IEEE802154E.c ****     // change state
1461:build\openmote-cc2538_armgcc\openstack\02a-MAClow/IEEE802154E.c ****     changeState(S_TXPROC);
 3609              		.loc 1 1461 0
 3610 14b0 0E20     		movs	r0, #14
 3611 14b2 FFF7FEFF 		bl	changeState
1462:build\openmote-cc2538_armgcc\openstack\02a-MAClow/IEEE802154E.c **** #ifdef SLOT_FSM_IMPLEMENTATION_MULTIPLE_TIMER_INTERRUPT
1463:build\openmote-cc2538_armgcc\openstack\02a-MAClow/IEEE802154E.c ****     // cancel tt8
1464:build\openmote-cc2538_armgcc\openstack\02a-MAClow/IEEE802154E.c ****     sctimer_actionCancel(ACTION_SET_TIMEOUT);
1465:build\openmote-cc2538_armgcc\openstack\02a-MAClow/IEEE802154E.c **** #else
1466:build\openmote-cc2538_armgcc\openstack\02a-MAClow/IEEE802154E.c ****     // cancel tt8
1467:build\openmote-cc2538_armgcc\openstack\02a-MAClow/IEEE802154E.c ****     opentimers_scheduleAbsolute(
 3612              		.loc 1 1467 0
 3613 14b6 984B     		ldr	r3, .L245
 3614 14b8 93F8A801 		ldrb	r0, [r3, #424]	@ zero_extendqisi2
1468:build\openmote-cc2538_armgcc\openstack\02a-MAClow/IEEE802154E.c ****         ieee154e_vars.timerId,                            // timerId
1469:build\openmote-cc2538_armgcc\openstack\02a-MAClow/IEEE802154E.c ****         ieee154e_vars.slotDuration,                       // duration
 3615              		.loc 1 1469 0
 3616 14bc 964B     		ldr	r3, .L245
 3617 14be B3F8A631 		ldrh	r3, [r3, #422]
1467:build\openmote-cc2538_armgcc\openstack\02a-MAClow/IEEE802154E.c ****         ieee154e_vars.timerId,                            // timerId
 3618              		.loc 1 1467 0
 3619 14c2 1946     		mov	r1, r3
 3620 14c4 944B     		ldr	r3, .L245
 3621 14c6 D3F8AC21 		ldr	r2, [r3, #428]
 3622 14ca 944B     		ldr	r3, .L245+4
 3623 14cc 0093     		str	r3, [sp]
 3624 14ce 0123     		movs	r3, #1
 3625 14d0 FFF7FEFF 		bl	opentimers_scheduleAbsolute
1470:build\openmote-cc2538_armgcc\openstack\02a-MAClow/IEEE802154E.c ****         ieee154e_vars.startOfSlotReference,               // reference
1471:build\openmote-cc2538_armgcc\openstack\02a-MAClow/IEEE802154E.c ****         TIME_TICS,                                        // timetype
1472:build\openmote-cc2538_armgcc\openstack\02a-MAClow/IEEE802154E.c ****         isr_ieee154e_newSlot                              // callback
1473:build\openmote-cc2538_armgcc\openstack\02a-MAClow/IEEE802154E.c ****     );
1474:build\openmote-cc2538_armgcc\openstack\02a-MAClow/IEEE802154E.c ****     // radiotimer_cancel();
1475:build\openmote-cc2538_armgcc\openstack\02a-MAClow/IEEE802154E.c **** #endif
1476:build\openmote-cc2538_armgcc\openstack\02a-MAClow/IEEE802154E.c ****     // turn off the radio
1477:build\openmote-cc2538_armgcc\openstack\02a-MAClow/IEEE802154E.c ****     radio_rfOff();
 3626              		.loc 1 1477 0
 3627 14d4 FFF7FEFF 		bl	radio_rfOff
1478:build\openmote-cc2538_armgcc\openstack\02a-MAClow/IEEE802154E.c ****     //compute tics radio on.
1479:build\openmote-cc2538_armgcc\openstack\02a-MAClow/IEEE802154E.c ****     ieee154e_vars.radioOnTics+=(sctimer_readCounter()-ieee154e_vars.radioOnInit);
 3628              		.loc 1 1479 0
 3629 14d8 FFF7FEFF 		bl	sctimer_readCounter
 3630 14dc 0246     		mov	r2, r0
 3631 14de 8E4B     		ldr	r3, .L245
 3632 14e0 D3F89831 		ldr	r3, [r3, #408]
 3633 14e4 D21A     		subs	r2, r2, r3
 3634 14e6 8C4B     		ldr	r3, .L245
 3635 14e8 D3F89C31 		ldr	r3, [r3, #412]
 3636 14ec 1344     		add	r3, r3, r2
 3637 14ee 8A4A     		ldr	r2, .L245
 3638 14f0 C2F89C31 		str	r3, [r2, #412]
1480:build\openmote-cc2538_armgcc\openstack\02a-MAClow/IEEE802154E.c **** 
1481:build\openmote-cc2538_armgcc\openstack\02a-MAClow/IEEE802154E.c ****     // record the captured time
1482:build\openmote-cc2538_armgcc\openstack\02a-MAClow/IEEE802154E.c ****     ieee154e_vars.lastCapturedTime = capturedTime;
 3639              		.loc 1 1482 0
 3640 14f4 884A     		ldr	r2, .L245
 3641 14f6 7B68     		ldr	r3, [r7, #4]
 3642 14f8 C2F87831 		str	r3, [r2, #376]
1483:build\openmote-cc2538_armgcc\openstack\02a-MAClow/IEEE802154E.c **** 
1484:build\openmote-cc2538_armgcc\openstack\02a-MAClow/IEEE802154E.c ****     // get a buffer to put the (received) ACK in
1485:build\openmote-cc2538_armgcc\openstack\02a-MAClow/IEEE802154E.c ****     ieee154e_vars.ackReceived = openqueue_getFreePacketBuffer(COMPONENT_IEEE802154E);
 3643              		.loc 1 1485 0
 3644 14fc 0920     		movs	r0, #9
 3645 14fe FFF7FEFF 		bl	openqueue_getFreePacketBuffer
 3646 1502 0246     		mov	r2, r0
 3647 1504 844B     		ldr	r3, .L245
 3648 1506 C3F87421 		str	r2, [r3, #372]
1486:build\openmote-cc2538_armgcc\openstack\02a-MAClow/IEEE802154E.c ****     if (ieee154e_vars.ackReceived==NULL) {
 3649              		.loc 1 1486 0
 3650 150a 834B     		ldr	r3, .L245
 3651 150c D3F87431 		ldr	r3, [r3, #372]
 3652 1510 002B     		cmp	r3, #0
 3653 1512 08D1     		bne	.L229
1487:build\openmote-cc2538_armgcc\openstack\02a-MAClow/IEEE802154E.c ****         // log the error
1488:build\openmote-cc2538_armgcc\openstack\02a-MAClow/IEEE802154E.c ****         openserial_printError(COMPONENT_IEEE802154E,ERR_NO_FREE_PACKET_BUFFER,
 3654              		.loc 1 1488 0
 3655 1514 0023     		movs	r3, #0
 3656 1516 0022     		movs	r2, #0
 3657 1518 2D21     		movs	r1, #45
 3658 151a 0920     		movs	r0, #9
 3659 151c FFF7FEFF 		bl	openserial_printError
1489:build\openmote-cc2538_armgcc\openstack\02a-MAClow/IEEE802154E.c ****                             (errorparameter_t)0,
1490:build\openmote-cc2538_armgcc\openstack\02a-MAClow/IEEE802154E.c ****                             (errorparameter_t)0);
1491:build\openmote-cc2538_armgcc\openstack\02a-MAClow/IEEE802154E.c ****         // abort
1492:build\openmote-cc2538_armgcc\openstack\02a-MAClow/IEEE802154E.c ****         endSlot();
 3660              		.loc 1 1492 0
 3661 1520 FFF7FEFF 		bl	endSlot
 3662 1524 F4E0     		b	.L228
 3663              	.L229:
1493:build\openmote-cc2538_armgcc\openstack\02a-MAClow/IEEE802154E.c ****         return;
1494:build\openmote-cc2538_armgcc\openstack\02a-MAClow/IEEE802154E.c ****     }
1495:build\openmote-cc2538_armgcc\openstack\02a-MAClow/IEEE802154E.c **** 
1496:build\openmote-cc2538_armgcc\openstack\02a-MAClow/IEEE802154E.c ****     // declare ownership over that packet
1497:build\openmote-cc2538_armgcc\openstack\02a-MAClow/IEEE802154E.c ****     ieee154e_vars.ackReceived->creator = COMPONENT_IEEE802154E;
 3664              		.loc 1 1497 0
 3665 1526 7C4B     		ldr	r3, .L245
 3666 1528 D3F87431 		ldr	r3, [r3, #372]
 3667 152c 0922     		movs	r2, #9
 3668 152e 1A70     		strb	r2, [r3]
1498:build\openmote-cc2538_armgcc\openstack\02a-MAClow/IEEE802154E.c ****     ieee154e_vars.ackReceived->owner   = COMPONENT_IEEE802154E;
 3669              		.loc 1 1498 0
 3670 1530 794B     		ldr	r3, .L245
 3671 1532 D3F87431 		ldr	r3, [r3, #372]
 3672 1536 0922     		movs	r2, #9
 3673 1538 5A70     		strb	r2, [r3, #1]
1499:build\openmote-cc2538_armgcc\openstack\02a-MAClow/IEEE802154E.c **** 
1500:build\openmote-cc2538_armgcc\openstack\02a-MAClow/IEEE802154E.c ****     /*
1501:build\openmote-cc2538_armgcc\openstack\02a-MAClow/IEEE802154E.c ****     The do-while loop that follows is a little parsing trick.
1502:build\openmote-cc2538_armgcc\openstack\02a-MAClow/IEEE802154E.c ****     Because it contains a while(0) condition, it gets executed only once.
1503:build\openmote-cc2538_armgcc\openstack\02a-MAClow/IEEE802154E.c ****     Below the do-while loop is some code to cleans up the ack variable.
1504:build\openmote-cc2538_armgcc\openstack\02a-MAClow/IEEE802154E.c ****     Anywhere in the do-while loop, a break statement can be called to jump to
1505:build\openmote-cc2538_armgcc\openstack\02a-MAClow/IEEE802154E.c ****     the clean up code early. If the loop ends without a break, the received
1506:build\openmote-cc2538_armgcc\openstack\02a-MAClow/IEEE802154E.c ****     packet was correct. If it got aborted early (through a break), the packet
1507:build\openmote-cc2538_armgcc\openstack\02a-MAClow/IEEE802154E.c ****     was faulty.
1508:build\openmote-cc2538_armgcc\openstack\02a-MAClow/IEEE802154E.c ****     */
1509:build\openmote-cc2538_armgcc\openstack\02a-MAClow/IEEE802154E.c ****     do { // this "loop" is only executed once
1510:build\openmote-cc2538_armgcc\openstack\02a-MAClow/IEEE802154E.c **** 
1511:build\openmote-cc2538_armgcc\openstack\02a-MAClow/IEEE802154E.c ****         // retrieve the received ack frame from the radio's Rx buffer
1512:build\openmote-cc2538_armgcc\openstack\02a-MAClow/IEEE802154E.c ****         ieee154e_vars.ackReceived->payload = &(ieee154e_vars.ackReceived->packet[FIRST_FRAME_BYTE])
 3674              		.loc 1 1512 0
 3675 153a 774B     		ldr	r3, .L245
 3676 153c D3F87421 		ldr	r2, [r3, #372]
 3677 1540 754B     		ldr	r3, .L245
 3678 1542 D3F87431 		ldr	r3, [r3, #372]
 3679 1546 C932     		adds	r2, r2, #201
 3680 1548 5A60     		str	r2, [r3, #4]
1513:build\openmote-cc2538_armgcc\openstack\02a-MAClow/IEEE802154E.c ****         radio_getReceivedFrame(
1514:build\openmote-cc2538_armgcc\openstack\02a-MAClow/IEEE802154E.c ****             ieee154e_vars.ackReceived->payload,
 3681              		.loc 1 1514 0
 3682 154a 734B     		ldr	r3, .L245
 3683 154c D3F87431 		ldr	r3, [r3, #372]
1513:build\openmote-cc2538_armgcc\openstack\02a-MAClow/IEEE802154E.c ****         radio_getReceivedFrame(
 3684              		.loc 1 1513 0
 3685 1550 5868     		ldr	r0, [r3, #4]
1515:build\openmote-cc2538_armgcc\openstack\02a-MAClow/IEEE802154E.c ****             &ieee154e_vars.ackReceived->length,
 3686              		.loc 1 1515 0
 3687 1552 714B     		ldr	r3, .L245
 3688 1554 D3F87431 		ldr	r3, [r3, #372]
1513:build\openmote-cc2538_armgcc\openstack\02a-MAClow/IEEE802154E.c ****         radio_getReceivedFrame(
 3689              		.loc 1 1513 0
 3690 1558 03F10801 		add	r1, r3, #8
1516:build\openmote-cc2538_armgcc\openstack\02a-MAClow/IEEE802154E.c ****             sizeof(ieee154e_vars.ackReceived->packet),
1517:build\openmote-cc2538_armgcc\openstack\02a-MAClow/IEEE802154E.c ****             &ieee154e_vars.ackReceived->l1_rssi,
 3691              		.loc 1 1517 0
 3692 155c 6E4B     		ldr	r3, .L245
 3693 155e D3F87431 		ldr	r3, [r3, #372]
1513:build\openmote-cc2538_armgcc\openstack\02a-MAClow/IEEE802154E.c ****             ieee154e_vars.ackReceived->payload,
 3694              		.loc 1 1513 0
 3695 1562 03F1C504 		add	r4, r3, #197
1518:build\openmote-cc2538_armgcc\openstack\02a-MAClow/IEEE802154E.c ****             &ieee154e_vars.ackReceived->l1_lqi,
 3696              		.loc 1 1518 0
 3697 1566 6C4B     		ldr	r3, .L245
 3698 1568 D3F87431 		ldr	r3, [r3, #372]
1513:build\openmote-cc2538_armgcc\openstack\02a-MAClow/IEEE802154E.c ****             ieee154e_vars.ackReceived->payload,
 3699              		.loc 1 1513 0
 3700 156c C633     		adds	r3, r3, #198
1519:build\openmote-cc2538_armgcc\openstack\02a-MAClow/IEEE802154E.c ****             &ieee154e_vars.ackReceived->l1_crc
 3701              		.loc 1 1519 0
 3702 156e 6A4A     		ldr	r2, .L245
 3703 1570 D2F87421 		ldr	r2, [r2, #372]
1513:build\openmote-cc2538_armgcc\openstack\02a-MAClow/IEEE802154E.c ****             ieee154e_vars.ackReceived->payload,
 3704              		.loc 1 1513 0
 3705 1574 C732     		adds	r2, r2, #199
 3706 1576 0192     		str	r2, [sp, #4]
 3707 1578 0093     		str	r3, [sp]
 3708 157a 2346     		mov	r3, r4
 3709 157c 8222     		movs	r2, #130
 3710 157e FFF7FEFF 		bl	radio_getReceivedFrame
1520:build\openmote-cc2538_armgcc\openstack\02a-MAClow/IEEE802154E.c ****         );
1521:build\openmote-cc2538_armgcc\openstack\02a-MAClow/IEEE802154E.c **** 
1522:build\openmote-cc2538_armgcc\openstack\02a-MAClow/IEEE802154E.c ****         // break if wrong length
1523:build\openmote-cc2538_armgcc\openstack\02a-MAClow/IEEE802154E.c ****         if (ieee154e_vars.ackReceived->length<LENGTH_CRC || ieee154e_vars.ackReceived->length>LENGT
 3711              		.loc 1 1523 0
 3712 1582 654B     		ldr	r3, .L245
 3713 1584 D3F87431 		ldr	r3, [r3, #372]
 3714 1588 1B7A     		ldrb	r3, [r3, #8]	@ zero_extendqisi2
 3715 158a 012B     		cmp	r3, #1
 3716 158c 05D9     		bls	.L231
 3717              		.loc 1 1523 0 is_stmt 0 discriminator 1
 3718 158e 624B     		ldr	r3, .L245
 3719 1590 D3F87431 		ldr	r3, [r3, #372]
 3720 1594 1B7A     		ldrb	r3, [r3, #8]	@ zero_extendqisi2
 3721 1596 802B     		cmp	r3, #128
 3722 1598 0AD9     		bls	.L232
 3723              	.L231:
1524:build\openmote-cc2538_armgcc\openstack\02a-MAClow/IEEE802154E.c ****             // break from the do-while loop and execute the clean-up code below
1525:build\openmote-cc2538_armgcc\openstack\02a-MAClow/IEEE802154E.c ****             openserial_printError(COMPONENT_IEEE802154E,ERR_INVALIDPACKETFROMRADIO,
1526:build\openmote-cc2538_armgcc\openstack\02a-MAClow/IEEE802154E.c ****                             (errorparameter_t)1,
1527:build\openmote-cc2538_armgcc\openstack\02a-MAClow/IEEE802154E.c ****                             ieee154e_vars.ackReceived->length);
 3724              		.loc 1 1527 0 is_stmt 1
 3725 159a 5F4B     		ldr	r3, .L245
 3726 159c D3F87431 		ldr	r3, [r3, #372]
 3727 15a0 1B7A     		ldrb	r3, [r3, #8]	@ zero_extendqisi2
1525:build\openmote-cc2538_armgcc\openstack\02a-MAClow/IEEE802154E.c ****                             (errorparameter_t)1,
 3728              		.loc 1 1525 0
 3729 15a2 9BB2     		uxth	r3, r3
 3730 15a4 0122     		movs	r2, #1
 3731 15a6 3821     		movs	r1, #56
 3732 15a8 0920     		movs	r0, #9
 3733 15aa FFF7FEFF 		bl	openserial_printError
1528:build\openmote-cc2538_armgcc\openstack\02a-MAClow/IEEE802154E.c **** 
1529:build\openmote-cc2538_armgcc\openstack\02a-MAClow/IEEE802154E.c ****             break;
 3734              		.loc 1 1529 0
 3735 15ae A3E0     		b	.L233
 3736              	.L232:
1530:build\openmote-cc2538_armgcc\openstack\02a-MAClow/IEEE802154E.c ****         }
1531:build\openmote-cc2538_armgcc\openstack\02a-MAClow/IEEE802154E.c **** 
1532:build\openmote-cc2538_armgcc\openstack\02a-MAClow/IEEE802154E.c ****         // toss CRC (2 last bytes)
1533:build\openmote-cc2538_armgcc\openstack\02a-MAClow/IEEE802154E.c ****         packetfunctions_tossFooter(   ieee154e_vars.ackReceived, LENGTH_CRC);
 3737              		.loc 1 1533 0
 3738 15b0 594B     		ldr	r3, .L245
 3739 15b2 D3F87431 		ldr	r3, [r3, #372]
 3740 15b6 0221     		movs	r1, #2
 3741 15b8 1846     		mov	r0, r3
 3742 15ba FFF7FEFF 		bl	packetfunctions_tossFooter
1534:build\openmote-cc2538_armgcc\openstack\02a-MAClow/IEEE802154E.c **** 
1535:build\openmote-cc2538_armgcc\openstack\02a-MAClow/IEEE802154E.c ****         // break if invalid CRC
1536:build\openmote-cc2538_armgcc\openstack\02a-MAClow/IEEE802154E.c ****         if (ieee154e_vars.ackReceived->l1_crc==FALSE) {
 3743              		.loc 1 1536 0
 3744 15be 564B     		ldr	r3, .L245
 3745 15c0 D3F87431 		ldr	r3, [r3, #372]
 3746 15c4 93F8C730 		ldrb	r3, [r3, #199]	@ zero_extendqisi2
 3747 15c8 83F00103 		eor	r3, r3, #1
 3748 15cc DBB2     		uxtb	r3, r3
 3749 15ce 002B     		cmp	r3, #0
 3750 15d0 40F08980 		bne	.L240
1537:build\openmote-cc2538_armgcc\openstack\02a-MAClow/IEEE802154E.c ****             // break from the do-while loop and execute the clean-up code below
1538:build\openmote-cc2538_armgcc\openstack\02a-MAClow/IEEE802154E.c ****             break;
1539:build\openmote-cc2538_armgcc\openstack\02a-MAClow/IEEE802154E.c ****         }
1540:build\openmote-cc2538_armgcc\openstack\02a-MAClow/IEEE802154E.c **** 
1541:build\openmote-cc2538_armgcc\openstack\02a-MAClow/IEEE802154E.c ****         // parse the IEEE802.15.4 header (RX ACK)
1542:build\openmote-cc2538_armgcc\openstack\02a-MAClow/IEEE802154E.c ****         ieee802154_retrieveHeader(ieee154e_vars.ackReceived,&ieee802514_header);
 3751              		.loc 1 1542 0
 3752 15d4 504B     		ldr	r3, .L245
 3753 15d6 D3F87431 		ldr	r3, [r3, #372]
 3754 15da 07F10802 		add	r2, r7, #8
 3755 15de 1146     		mov	r1, r2
 3756 15e0 1846     		mov	r0, r3
 3757 15e2 FFF7FEFF 		bl	ieee802154_retrieveHeader
1543:build\openmote-cc2538_armgcc\openstack\02a-MAClow/IEEE802154E.c **** 
1544:build\openmote-cc2538_armgcc\openstack\02a-MAClow/IEEE802154E.c ****         // break if invalid IEEE802.15.4 header
1545:build\openmote-cc2538_armgcc\openstack\02a-MAClow/IEEE802154E.c ****         if (ieee802514_header.valid==FALSE) {
 3758              		.loc 1 1545 0
 3759 15e6 3B7A     		ldrb	r3, [r7, #8]	@ zero_extendqisi2
 3760 15e8 83F00103 		eor	r3, r3, #1
 3761 15ec DBB2     		uxtb	r3, r3
 3762 15ee 002B     		cmp	r3, #0
 3763 15f0 7BD1     		bne	.L241
1546:build\openmote-cc2538_armgcc\openstack\02a-MAClow/IEEE802154E.c ****             // break from the do-while loop and execute the clean-up code below
1547:build\openmote-cc2538_armgcc\openstack\02a-MAClow/IEEE802154E.c ****             break;
1548:build\openmote-cc2538_armgcc\openstack\02a-MAClow/IEEE802154E.c ****         }
1549:build\openmote-cc2538_armgcc\openstack\02a-MAClow/IEEE802154E.c **** 
1550:build\openmote-cc2538_armgcc\openstack\02a-MAClow/IEEE802154E.c ****         // store header details in packet buffer
1551:build\openmote-cc2538_armgcc\openstack\02a-MAClow/IEEE802154E.c ****         ieee154e_vars.ackReceived->l2_frameType  = ieee802514_header.frameType;
 3764              		.loc 1 1551 0
 3765 15f2 494B     		ldr	r3, .L245
 3766 15f4 D3F87431 		ldr	r3, [r3, #372]
 3767 15f8 BA7A     		ldrb	r2, [r7, #10]	@ zero_extendqisi2
 3768 15fa 83F85220 		strb	r2, [r3, #82]
1552:build\openmote-cc2538_armgcc\openstack\02a-MAClow/IEEE802154E.c ****         ieee154e_vars.ackReceived->l2_dsn        = ieee802514_header.dsn;
 3769              		.loc 1 1552 0
 3770 15fe 464B     		ldr	r3, .L245
 3771 1600 D3F87431 		ldr	r3, [r3, #372]
 3772 1604 7A7C     		ldrb	r2, [r7, #17]	@ zero_extendqisi2
 3773 1606 83F85320 		strb	r2, [r3, #83]
1553:build\openmote-cc2538_armgcc\openstack\02a-MAClow/IEEE802154E.c ****         memcpy(&(ieee154e_vars.ackReceived->l2_nextORpreviousHop),&(ieee802514_header.src),sizeof(o
 3774              		.loc 1 1553 0
 3775 160a 434B     		ldr	r3, .L245
 3776 160c D3F87431 		ldr	r3, [r3, #372]
 3777 1610 4133     		adds	r3, r3, #65
 3778 1612 1A46     		mov	r2, r3
 3779 1614 07F13503 		add	r3, r7, #53
 3780 1618 1D68     		ldr	r5, [r3]	@ unaligned
 3781 161a 5C68     		ldr	r4, [r3, #4]	@ unaligned
 3782 161c 9868     		ldr	r0, [r3, #8]	@ unaligned
 3783 161e D968     		ldr	r1, [r3, #12]	@ unaligned
 3784 1620 1560     		str	r5, [r2]	@ unaligned
 3785 1622 5460     		str	r4, [r2, #4]	@ unaligned
 3786 1624 9060     		str	r0, [r2, #8]	@ unaligned
 3787 1626 D160     		str	r1, [r2, #12]	@ unaligned
 3788 1628 1B7C     		ldrb	r3, [r3, #16]
 3789 162a 1374     		strb	r3, [r2, #16]
1554:build\openmote-cc2538_armgcc\openstack\02a-MAClow/IEEE802154E.c **** 
1555:build\openmote-cc2538_armgcc\openstack\02a-MAClow/IEEE802154E.c ****         // verify that incoming security level is acceptable
1556:build\openmote-cc2538_armgcc\openstack\02a-MAClow/IEEE802154E.c ****         if (IEEE802154_security_acceptableLevel(ieee154e_vars.ackReceived, &ieee802514_header) == F
 3790              		.loc 1 1556 0
 3791 162c 3A4B     		ldr	r3, .L245
 3792 162e D3F87431 		ldr	r3, [r3, #372]
 3793 1632 07F10802 		add	r2, r7, #8
 3794 1636 1146     		mov	r1, r2
 3795 1638 1846     		mov	r0, r3
 3796 163a FFF7FEFF 		bl	IEEE802154_security_acceptableLevel
 3797 163e 0346     		mov	r3, r0
 3798 1640 83F00103 		eor	r3, r3, #1
 3799 1644 DBB2     		uxtb	r3, r3
 3800 1646 002B     		cmp	r3, #0
 3801 1648 51D1     		bne	.L242
1557:build\openmote-cc2538_armgcc\openstack\02a-MAClow/IEEE802154E.c ****             break;
1558:build\openmote-cc2538_armgcc\openstack\02a-MAClow/IEEE802154E.c ****         }
1559:build\openmote-cc2538_armgcc\openstack\02a-MAClow/IEEE802154E.c **** 
1560:build\openmote-cc2538_armgcc\openstack\02a-MAClow/IEEE802154E.c ****         // check the security level of the ACK frame and decrypt/authenticate
1561:build\openmote-cc2538_armgcc\openstack\02a-MAClow/IEEE802154E.c ****         if (ieee154e_vars.ackReceived->l2_securityLevel != IEEE154_ASH_SLF_TYPE_NOSEC) {
 3802              		.loc 1 1561 0
 3803 164a 334B     		ldr	r3, .L245
 3804 164c D3F87431 		ldr	r3, [r3, #372]
 3805 1650 93F8A930 		ldrb	r3, [r3, #169]	@ zero_extendqisi2
 3806 1654 002B     		cmp	r3, #0
 3807 1656 08D0     		beq	.L237
1562:build\openmote-cc2538_armgcc\openstack\02a-MAClow/IEEE802154E.c ****             if (IEEE802154_security_incomingFrame(ieee154e_vars.ackReceived) != E_SUCCESS) {
 3808              		.loc 1 1562 0
 3809 1658 2F4B     		ldr	r3, .L245
 3810 165a D3F87431 		ldr	r3, [r3, #372]
 3811 165e 1846     		mov	r0, r3
 3812 1660 FFF7FEFF 		bl	IEEE802154_security_incomingFrame
 3813 1664 0346     		mov	r3, r0
 3814 1666 002B     		cmp	r3, #0
 3815 1668 43D1     		bne	.L243
 3816              	.L237:
1563:build\openmote-cc2538_armgcc\openstack\02a-MAClow/IEEE802154E.c ****                 break;
1564:build\openmote-cc2538_armgcc\openstack\02a-MAClow/IEEE802154E.c ****             }
1565:build\openmote-cc2538_armgcc\openstack\02a-MAClow/IEEE802154E.c ****         }
1566:build\openmote-cc2538_armgcc\openstack\02a-MAClow/IEEE802154E.c **** 
1567:build\openmote-cc2538_armgcc\openstack\02a-MAClow/IEEE802154E.c ****         // toss the IEEE802.15.4 header
1568:build\openmote-cc2538_armgcc\openstack\02a-MAClow/IEEE802154E.c ****         packetfunctions_tossHeader(ieee154e_vars.ackReceived,ieee802514_header.headerLength);
 3817              		.loc 1 1568 0
 3818 166a 2B4B     		ldr	r3, .L245
 3819 166c D3F87431 		ldr	r3, [r3, #372]
 3820 1670 7A7A     		ldrb	r2, [r7, #9]	@ zero_extendqisi2
 3821 1672 1146     		mov	r1, r2
 3822 1674 1846     		mov	r0, r3
 3823 1676 FFF7FEFF 		bl	packetfunctions_tossHeader
1569:build\openmote-cc2538_armgcc\openstack\02a-MAClow/IEEE802154E.c **** 
1570:build\openmote-cc2538_armgcc\openstack\02a-MAClow/IEEE802154E.c ****         // break if invalid ACK
1571:build\openmote-cc2538_armgcc\openstack\02a-MAClow/IEEE802154E.c ****         if (isValidAck(&ieee802514_header,ieee154e_vars.dataToSend)==FALSE) {
 3824              		.loc 1 1571 0
 3825 167a 274B     		ldr	r3, .L245
 3826 167c D3F86821 		ldr	r2, [r3, #360]
 3827 1680 07F10803 		add	r3, r7, #8
 3828 1684 1146     		mov	r1, r2
 3829 1686 1846     		mov	r0, r3
 3830 1688 FFF7FEFF 		bl	isValidAck
 3831 168c 0346     		mov	r3, r0
 3832 168e 83F00103 		eor	r3, r3, #1
 3833 1692 DBB2     		uxtb	r3, r3
 3834 1694 002B     		cmp	r3, #0
 3835 1696 2ED1     		bne	.L244
1572:build\openmote-cc2538_armgcc\openstack\02a-MAClow/IEEE802154E.c ****             // break from the do-while loop and execute the clean-up code below
1573:build\openmote-cc2538_armgcc\openstack\02a-MAClow/IEEE802154E.c ****             break;
1574:build\openmote-cc2538_armgcc\openstack\02a-MAClow/IEEE802154E.c ****         }
1575:build\openmote-cc2538_armgcc\openstack\02a-MAClow/IEEE802154E.c **** 
1576:build\openmote-cc2538_armgcc\openstack\02a-MAClow/IEEE802154E.c ****         if (
1577:build\openmote-cc2538_armgcc\openstack\02a-MAClow/IEEE802154E.c ****             idmanager_getIsDAGroot()==FALSE &&
 3836              		.loc 1 1577 0
 3837 1698 FFF7FEFF 		bl	idmanager_getIsDAGroot
 3838 169c 0346     		mov	r3, r0
 3839 169e 83F00103 		eor	r3, r3, #1
 3840 16a2 DBB2     		uxtb	r3, r3
1576:build\openmote-cc2538_armgcc\openstack\02a-MAClow/IEEE802154E.c ****             idmanager_getIsDAGroot()==FALSE &&
 3841              		.loc 1 1576 0
 3842 16a4 002B     		cmp	r3, #0
 3843 16a6 0ED0     		beq	.L239
1578:build\openmote-cc2538_armgcc\openstack\02a-MAClow/IEEE802154E.c ****             icmpv6rpl_isPreferredParent(&(ieee154e_vars.ackReceived->l2_nextORpreviousHop))
 3844              		.loc 1 1578 0
 3845 16a8 1B4B     		ldr	r3, .L245
 3846 16aa D3F87431 		ldr	r3, [r3, #372]
 3847 16ae 4133     		adds	r3, r3, #65
 3848 16b0 1846     		mov	r0, r3
 3849 16b2 FFF7FEFF 		bl	icmpv6rpl_isPreferredParent
 3850 16b6 0346     		mov	r3, r0
1577:build\openmote-cc2538_armgcc\openstack\02a-MAClow/IEEE802154E.c ****             icmpv6rpl_isPreferredParent(&(ieee154e_vars.ackReceived->l2_nextORpreviousHop))
 3851              		.loc 1 1577 0
 3852 16b8 002B     		cmp	r3, #0
 3853 16ba 04D0     		beq	.L239
1579:build\openmote-cc2538_armgcc\openstack\02a-MAClow/IEEE802154E.c ****         ) {
1580:build\openmote-cc2538_armgcc\openstack\02a-MAClow/IEEE802154E.c ****             synchronizeAck(ieee802514_header.timeCorrection);
 3854              		.loc 1 1580 0
 3855 16bc B7F94630 		ldrsh	r3, [r7, #70]
 3856 16c0 1846     		mov	r0, r3
 3857 16c2 FFF7FEFF 		bl	synchronizeAck
 3858              	.L239:
1581:build\openmote-cc2538_armgcc\openstack\02a-MAClow/IEEE802154E.c ****         }
1582:build\openmote-cc2538_armgcc\openstack\02a-MAClow/IEEE802154E.c **** 
1583:build\openmote-cc2538_armgcc\openstack\02a-MAClow/IEEE802154E.c ****         // inform schedule of successful transmission
1584:build\openmote-cc2538_armgcc\openstack\02a-MAClow/IEEE802154E.c ****         schedule_indicateTx(&ieee154e_vars.asn,TRUE);
 3859              		.loc 1 1584 0
 3860 16c6 0121     		movs	r1, #1
 3861 16c8 1348     		ldr	r0, .L245
 3862 16ca FFF7FEFF 		bl	schedule_indicateTx
1585:build\openmote-cc2538_armgcc\openstack\02a-MAClow/IEEE802154E.c **** 
1586:build\openmote-cc2538_armgcc\openstack\02a-MAClow/IEEE802154E.c ****         // inform upper layer
1587:build\openmote-cc2538_armgcc\openstack\02a-MAClow/IEEE802154E.c ****         notif_sendDone(ieee154e_vars.dataToSend,E_SUCCESS);
 3863              		.loc 1 1587 0
 3864 16ce 124B     		ldr	r3, .L245
 3865 16d0 D3F86831 		ldr	r3, [r3, #360]
 3866 16d4 0021     		movs	r1, #0
 3867 16d6 1846     		mov	r0, r3
 3868 16d8 FFF7FEFF 		bl	notif_sendDone
1588:build\openmote-cc2538_armgcc\openstack\02a-MAClow/IEEE802154E.c ****         ieee154e_vars.dataToSend = NULL;
 3869              		.loc 1 1588 0
 3870 16dc 0E4B     		ldr	r3, .L245
 3871 16de 0022     		movs	r2, #0
 3872 16e0 C3F86821 		str	r2, [r3, #360]
 3873 16e4 08E0     		b	.L233
 3874              	.L240:
1538:build\openmote-cc2538_armgcc\openstack\02a-MAClow/IEEE802154E.c ****         }
 3875              		.loc 1 1538 0
 3876 16e6 00BF     		nop
 3877 16e8 06E0     		b	.L233
 3878              	.L241:
1547:build\openmote-cc2538_armgcc\openstack\02a-MAClow/IEEE802154E.c ****         }
 3879              		.loc 1 1547 0
 3880 16ea 00BF     		nop
 3881 16ec 04E0     		b	.L233
 3882              	.L242:
1557:build\openmote-cc2538_armgcc\openstack\02a-MAClow/IEEE802154E.c ****         }
 3883              		.loc 1 1557 0
 3884 16ee 00BF     		nop
 3885 16f0 02E0     		b	.L233
 3886              	.L243:
1563:build\openmote-cc2538_armgcc\openstack\02a-MAClow/IEEE802154E.c ****             }
 3887              		.loc 1 1563 0
 3888 16f2 00BF     		nop
 3889 16f4 00E0     		b	.L233
 3890              	.L244:
1573:build\openmote-cc2538_armgcc\openstack\02a-MAClow/IEEE802154E.c ****         }
 3891              		.loc 1 1573 0
 3892 16f6 00BF     		nop
 3893              	.L233:
1589:build\openmote-cc2538_armgcc\openstack\02a-MAClow/IEEE802154E.c **** 
1590:build\openmote-cc2538_armgcc\openstack\02a-MAClow/IEEE802154E.c ****         // in any case, execute the clean-up code below (processing of ACK done)
1591:build\openmote-cc2538_armgcc\openstack\02a-MAClow/IEEE802154E.c ****     } while (0);
1592:build\openmote-cc2538_armgcc\openstack\02a-MAClow/IEEE802154E.c **** 
1593:build\openmote-cc2538_armgcc\openstack\02a-MAClow/IEEE802154E.c ****     // free the received ack so corresponding RAM memory can be recycled
1594:build\openmote-cc2538_armgcc\openstack\02a-MAClow/IEEE802154E.c ****     openqueue_freePacketBuffer(ieee154e_vars.ackReceived);
 3894              		.loc 1 1594 0 discriminator 1
 3895 16f8 074B     		ldr	r3, .L245
 3896 16fa D3F87431 		ldr	r3, [r3, #372]
 3897 16fe 1846     		mov	r0, r3
 3898 1700 FFF7FEFF 		bl	openqueue_freePacketBuffer
1595:build\openmote-cc2538_armgcc\openstack\02a-MAClow/IEEE802154E.c **** 
1596:build\openmote-cc2538_armgcc\openstack\02a-MAClow/IEEE802154E.c ****     // clear local variable
1597:build\openmote-cc2538_armgcc\openstack\02a-MAClow/IEEE802154E.c ****     ieee154e_vars.ackReceived = NULL;
 3899              		.loc 1 1597 0 discriminator 1
 3900 1704 044B     		ldr	r3, .L245
 3901 1706 0022     		movs	r2, #0
 3902 1708 C3F87421 		str	r2, [r3, #372]
1598:build\openmote-cc2538_armgcc\openstack\02a-MAClow/IEEE802154E.c **** 
1599:build\openmote-cc2538_armgcc\openstack\02a-MAClow/IEEE802154E.c ****     // official end of Tx slot
1600:build\openmote-cc2538_armgcc\openstack\02a-MAClow/IEEE802154E.c ****     endSlot();
 3903              		.loc 1 1600 0 discriminator 1
 3904 170c FFF7FEFF 		bl	endSlot
 3905              	.L228:
1601:build\openmote-cc2538_armgcc\openstack\02a-MAClow/IEEE802154E.c **** }
 3906              		.loc 1 1601 0
 3907 1710 4837     		adds	r7, r7, #72
 3908              		.cfi_def_cfa_offset 16
 3909 1712 BD46     		mov	sp, r7
 3910              		.cfi_def_cfa_register 13
 3911              		@ sp needed
 3912 1714 B0BD     		pop	{r4, r5, r7, pc}
 3913              	.L246:
 3914 1716 00BF     		.align	2
 3915              	.L245:
 3916 1718 00000000 		.word	ieee154e_vars
 3917 171c 00000000 		.word	isr_ieee154e_newSlot
 3918              		.cfi_endproc
 3919              	.LFE34:
 3921              		.align	1
 3922              		.global	activity_ri2
 3923              		.syntax unified
 3924              		.thumb
 3925              		.thumb_func
 3926              		.fpu softvfp
 3928              	activity_ri2:
 3929              	.LFB35:
1602:build\openmote-cc2538_armgcc\openstack\02a-MAClow/IEEE802154E.c **** 
1603:build\openmote-cc2538_armgcc\openstack\02a-MAClow/IEEE802154E.c **** //======= RX
1604:build\openmote-cc2538_armgcc\openstack\02a-MAClow/IEEE802154E.c **** 
1605:build\openmote-cc2538_armgcc\openstack\02a-MAClow/IEEE802154E.c **** port_INLINE void activity_ri2(void) {
 3930              		.loc 1 1605 0
 3931              		.cfi_startproc
 3932              		@ args = 0, pretend = 0, frame = 0
 3933              		@ frame_needed = 1, uses_anonymous_args = 0
 3934 1720 80B5     		push	{r7, lr}
 3935              		.cfi_def_cfa_offset 8
 3936              		.cfi_offset 7, -8
 3937              		.cfi_offset 14, -4
 3938 1722 82B0     		sub	sp, sp, #8
 3939              		.cfi_def_cfa_offset 16
 3940 1724 02AF     		add	r7, sp, #8
 3941              		.cfi_def_cfa 7, 8
1606:build\openmote-cc2538_armgcc\openstack\02a-MAClow/IEEE802154E.c ****     // change state
1607:build\openmote-cc2538_armgcc\openstack\02a-MAClow/IEEE802154E.c ****     changeState(S_RXDATAPREPARE);
 3942              		.loc 1 1607 0
 3943 1726 1020     		movs	r0, #16
 3944 1728 FFF7FEFF 		bl	changeState
1608:build\openmote-cc2538_armgcc\openstack\02a-MAClow/IEEE802154E.c **** 
1609:build\openmote-cc2538_armgcc\openstack\02a-MAClow/IEEE802154E.c **** #ifdef SLOT_FSM_IMPLEMENTATION_MULTIPLE_TIMER_INTERRUPT
1610:build\openmote-cc2538_armgcc\openstack\02a-MAClow/IEEE802154E.c ****     radio_rxEnable_scum();
1611:build\openmote-cc2538_armgcc\openstack\02a-MAClow/IEEE802154E.c **** #else
1612:build\openmote-cc2538_armgcc\openstack\02a-MAClow/IEEE802154E.c ****     // arm rt2
1613:build\openmote-cc2538_armgcc\openstack\02a-MAClow/IEEE802154E.c ****     opentimers_scheduleAbsolute(
 3945              		.loc 1 1613 0
 3946 172c 134B     		ldr	r3, .L248
 3947 172e 93F8A801 		ldrb	r0, [r3, #424]	@ zero_extendqisi2
1614:build\openmote-cc2538_armgcc\openstack\02a-MAClow/IEEE802154E.c ****         ieee154e_vars.timerId,                            // timerId
1615:build\openmote-cc2538_armgcc\openstack\02a-MAClow/IEEE802154E.c ****         DURATION_rt2,                                     // duration
 3948              		.loc 1 1615 0
 3949 1732 124B     		ldr	r3, .L248
 3950 1734 D3F87831 		ldr	r3, [r3, #376]
1613:build\openmote-cc2538_armgcc\openstack\02a-MAClow/IEEE802154E.c ****         ieee154e_vars.timerId,                            // timerId
 3951              		.loc 1 1613 0
 3952 1738 03F12201 		add	r1, r3, #34
 3953 173c 0F4B     		ldr	r3, .L248
 3954 173e D3F8AC21 		ldr	r2, [r3, #428]
 3955 1742 0F4B     		ldr	r3, .L248+4
 3956 1744 0093     		str	r3, [sp]
 3957 1746 0123     		movs	r3, #1
 3958 1748 FFF7FEFF 		bl	opentimers_scheduleAbsolute
1616:build\openmote-cc2538_armgcc\openstack\02a-MAClow/IEEE802154E.c ****         ieee154e_vars.startOfSlotReference,               // reference
1617:build\openmote-cc2538_armgcc\openstack\02a-MAClow/IEEE802154E.c ****         TIME_TICS,                                        // timetype
1618:build\openmote-cc2538_armgcc\openstack\02a-MAClow/IEEE802154E.c ****         isr_ieee154e_timer                                // callback
1619:build\openmote-cc2538_armgcc\openstack\02a-MAClow/IEEE802154E.c ****     );
1620:build\openmote-cc2538_armgcc\openstack\02a-MAClow/IEEE802154E.c ****     // radiotimer_schedule(DURATION_rt2);
1621:build\openmote-cc2538_armgcc\openstack\02a-MAClow/IEEE802154E.c **** 
1622:build\openmote-cc2538_armgcc\openstack\02a-MAClow/IEEE802154E.c ****     // configure the radio for that frequency
1623:build\openmote-cc2538_armgcc\openstack\02a-MAClow/IEEE802154E.c ****     radio_setFrequency(ieee154e_vars.freq);
 3959              		.loc 1 1623 0
 3960 174c 0B4B     		ldr	r3, .L248
 3961 174e 93F88031 		ldrb	r3, [r3, #384]	@ zero_extendqisi2
 3962 1752 1846     		mov	r0, r3
 3963 1754 FFF7FEFF 		bl	radio_setFrequency
1624:build\openmote-cc2538_armgcc\openstack\02a-MAClow/IEEE802154E.c **** 
1625:build\openmote-cc2538_armgcc\openstack\02a-MAClow/IEEE802154E.c ****     radio_rxEnable();
 3964              		.loc 1 1625 0
 3965 1758 FFF7FEFF 		bl	radio_rxEnable
1626:build\openmote-cc2538_armgcc\openstack\02a-MAClow/IEEE802154E.c **** #endif
1627:build\openmote-cc2538_armgcc\openstack\02a-MAClow/IEEE802154E.c ****     ieee154e_vars.radioOnInit=sctimer_readCounter();
 3966              		.loc 1 1627 0
 3967 175c FFF7FEFF 		bl	sctimer_readCounter
 3968 1760 0246     		mov	r2, r0
 3969 1762 064B     		ldr	r3, .L248
 3970 1764 C3F89821 		str	r2, [r3, #408]
1628:build\openmote-cc2538_armgcc\openstack\02a-MAClow/IEEE802154E.c ****     ieee154e_vars.radioOnThisSlot=TRUE;
 3971              		.loc 1 1628 0
 3972 1768 044B     		ldr	r3, .L248
 3973 176a 0122     		movs	r2, #1
 3974 176c 83F8A021 		strb	r2, [r3, #416]
1629:build\openmote-cc2538_armgcc\openstack\02a-MAClow/IEEE802154E.c **** 
1630:build\openmote-cc2538_armgcc\openstack\02a-MAClow/IEEE802154E.c ****     // change state
1631:build\openmote-cc2538_armgcc\openstack\02a-MAClow/IEEE802154E.c ****     changeState(S_RXDATAREADY);
 3975              		.loc 1 1631 0
 3976 1770 1120     		movs	r0, #17
 3977 1772 FFF7FEFF 		bl	changeState
1632:build\openmote-cc2538_armgcc\openstack\02a-MAClow/IEEE802154E.c **** }
 3978              		.loc 1 1632 0
 3979 1776 00BF     		nop
 3980 1778 BD46     		mov	sp, r7
 3981              		.cfi_def_cfa_register 13
 3982              		@ sp needed
 3983 177a 80BD     		pop	{r7, pc}
 3984              	.L249:
 3985              		.align	2
 3986              	.L248:
 3987 177c 00000000 		.word	ieee154e_vars
 3988 1780 00000000 		.word	isr_ieee154e_timer
 3989              		.cfi_endproc
 3990              	.LFE35:
 3992              		.align	1
 3993              		.global	activity_rie1
 3994              		.syntax unified
 3995              		.thumb
 3996              		.thumb_func
 3997              		.fpu softvfp
 3999              	activity_rie1:
 4000              	.LFB36:
1633:build\openmote-cc2538_armgcc\openstack\02a-MAClow/IEEE802154E.c **** 
1634:build\openmote-cc2538_armgcc\openstack\02a-MAClow/IEEE802154E.c **** port_INLINE void activity_rie1(void) {
 4001              		.loc 1 1634 0
 4002              		.cfi_startproc
 4003              		@ args = 0, pretend = 0, frame = 0
 4004              		@ frame_needed = 1, uses_anonymous_args = 0
 4005 1784 80B5     		push	{r7, lr}
 4006              		.cfi_def_cfa_offset 8
 4007              		.cfi_offset 7, -8
 4008              		.cfi_offset 14, -4
 4009 1786 00AF     		add	r7, sp, #0
 4010              		.cfi_def_cfa_register 7
1635:build\openmote-cc2538_armgcc\openstack\02a-MAClow/IEEE802154E.c ****     // log the error
1636:build\openmote-cc2538_armgcc\openstack\02a-MAClow/IEEE802154E.c ****     openserial_printError(COMPONENT_IEEE802154E,ERR_MAXRXDATAPREPARE_OVERFLOWS,
1637:build\openmote-cc2538_armgcc\openstack\02a-MAClow/IEEE802154E.c ****                          (errorparameter_t)ieee154e_vars.state,
 4011              		.loc 1 1637 0
 4012 1788 064B     		ldr	r3, .L251
 4013 178a 93F86431 		ldrb	r3, [r3, #356]	@ zero_extendqisi2
1636:build\openmote-cc2538_armgcc\openstack\02a-MAClow/IEEE802154E.c ****                          (errorparameter_t)ieee154e_vars.state,
 4014              		.loc 1 1636 0
 4015 178e 9AB2     		uxth	r2, r3
1638:build\openmote-cc2538_armgcc\openstack\02a-MAClow/IEEE802154E.c ****                          (errorparameter_t)ieee154e_vars.slotOffset);
 4016              		.loc 1 1638 0
 4017 1790 044B     		ldr	r3, .L251
 4018 1792 DB88     		ldrh	r3, [r3, #6]
1636:build\openmote-cc2538_armgcc\openstack\02a-MAClow/IEEE802154E.c ****                          (errorparameter_t)ieee154e_vars.state,
 4019              		.loc 1 1636 0
 4020 1794 2521     		movs	r1, #37
 4021 1796 0920     		movs	r0, #9
 4022 1798 FFF7FEFF 		bl	openserial_printError
1639:build\openmote-cc2538_armgcc\openstack\02a-MAClow/IEEE802154E.c **** 
1640:build\openmote-cc2538_armgcc\openstack\02a-MAClow/IEEE802154E.c ****     // abort
1641:build\openmote-cc2538_armgcc\openstack\02a-MAClow/IEEE802154E.c ****     endSlot();
 4023              		.loc 1 1641 0
 4024 179c FFF7FEFF 		bl	endSlot
1642:build\openmote-cc2538_armgcc\openstack\02a-MAClow/IEEE802154E.c **** }
 4025              		.loc 1 1642 0
 4026 17a0 00BF     		nop
 4027 17a2 80BD     		pop	{r7, pc}
 4028              	.L252:
 4029              		.align	2
 4030              	.L251:
 4031 17a4 00000000 		.word	ieee154e_vars
 4032              		.cfi_endproc
 4033              	.LFE36:
 4035              		.align	1
 4036              		.global	activity_ri3
 4037              		.syntax unified
 4038              		.thumb
 4039              		.thumb_func
 4040              		.fpu softvfp
 4042              	activity_ri3:
 4043              	.LFB37:
1643:build\openmote-cc2538_armgcc\openstack\02a-MAClow/IEEE802154E.c **** 
1644:build\openmote-cc2538_armgcc\openstack\02a-MAClow/IEEE802154E.c **** port_INLINE void activity_ri3(void) {
 4044              		.loc 1 1644 0
 4045              		.cfi_startproc
 4046              		@ args = 0, pretend = 0, frame = 0
 4047              		@ frame_needed = 1, uses_anonymous_args = 0
 4048 17a8 80B5     		push	{r7, lr}
 4049              		.cfi_def_cfa_offset 8
 4050              		.cfi_offset 7, -8
 4051              		.cfi_offset 14, -4
 4052 17aa 82B0     		sub	sp, sp, #8
 4053              		.cfi_def_cfa_offset 16
 4054 17ac 02AF     		add	r7, sp, #8
 4055              		.cfi_def_cfa 7, 8
1645:build\openmote-cc2538_armgcc\openstack\02a-MAClow/IEEE802154E.c ****     // change state
1646:build\openmote-cc2538_armgcc\openstack\02a-MAClow/IEEE802154E.c ****     changeState(S_RXDATALISTEN);
 4056              		.loc 1 1646 0
 4057 17ae 1220     		movs	r0, #18
 4058 17b0 FFF7FEFF 		bl	changeState
1647:build\openmote-cc2538_armgcc\openstack\02a-MAClow/IEEE802154E.c **** 
1648:build\openmote-cc2538_armgcc\openstack\02a-MAClow/IEEE802154E.c ****     // give the 'go' to receive
1649:build\openmote-cc2538_armgcc\openstack\02a-MAClow/IEEE802154E.c ****     radio_rxNow();
 4059              		.loc 1 1649 0
 4060 17b4 FFF7FEFF 		bl	radio_rxNow
1650:build\openmote-cc2538_armgcc\openstack\02a-MAClow/IEEE802154E.c **** #ifdef SLOT_FSM_IMPLEMENTATION_MULTIPLE_TIMER_INTERRUPT
1651:build\openmote-cc2538_armgcc\openstack\02a-MAClow/IEEE802154E.c ****     // arm rt3
1652:build\openmote-cc2538_armgcc\openstack\02a-MAClow/IEEE802154E.c ****     sctimer_scheduleActionIn(ACTION_SET_TIMEOUT,ieee154e_vars.startOfSlotReference+DURATION_rt3);
1653:build\openmote-cc2538_armgcc\openstack\02a-MAClow/IEEE802154E.c **** #else
1654:build\openmote-cc2538_armgcc\openstack\02a-MAClow/IEEE802154E.c ****     // arm rt3
1655:build\openmote-cc2538_armgcc\openstack\02a-MAClow/IEEE802154E.c ****     opentimers_scheduleAbsolute(
 4061              		.loc 1 1655 0
 4062 17b8 094B     		ldr	r3, .L254
 4063 17ba 93F8A801 		ldrb	r0, [r3, #424]	@ zero_extendqisi2
1656:build\openmote-cc2538_armgcc\openstack\02a-MAClow/IEEE802154E.c ****         ieee154e_vars.timerId,                            // timerId
1657:build\openmote-cc2538_armgcc\openstack\02a-MAClow/IEEE802154E.c ****         DURATION_rt3,                                     // duration
 4064              		.loc 1 1657 0
 4065 17be 084B     		ldr	r3, .L254
 4066 17c0 D3F87831 		ldr	r3, [r3, #376]
1655:build\openmote-cc2538_armgcc\openstack\02a-MAClow/IEEE802154E.c ****         ieee154e_vars.timerId,                            // timerId
 4067              		.loc 1 1655 0
 4068 17c4 03F16A01 		add	r1, r3, #106
 4069 17c8 054B     		ldr	r3, .L254
 4070 17ca D3F8AC21 		ldr	r2, [r3, #428]
 4071 17ce 054B     		ldr	r3, .L254+4
 4072 17d0 0093     		str	r3, [sp]
 4073 17d2 0123     		movs	r3, #1
 4074 17d4 FFF7FEFF 		bl	opentimers_scheduleAbsolute
1658:build\openmote-cc2538_armgcc\openstack\02a-MAClow/IEEE802154E.c ****         ieee154e_vars.startOfSlotReference,               // reference
1659:build\openmote-cc2538_armgcc\openstack\02a-MAClow/IEEE802154E.c ****         TIME_TICS,                                        // timetype
1660:build\openmote-cc2538_armgcc\openstack\02a-MAClow/IEEE802154E.c ****         isr_ieee154e_timer                                // callback
1661:build\openmote-cc2538_armgcc\openstack\02a-MAClow/IEEE802154E.c ****     );
1662:build\openmote-cc2538_armgcc\openstack\02a-MAClow/IEEE802154E.c ****     // radiotimer_schedule(DURATION_rt3);
1663:build\openmote-cc2538_armgcc\openstack\02a-MAClow/IEEE802154E.c **** #endif
1664:build\openmote-cc2538_armgcc\openstack\02a-MAClow/IEEE802154E.c **** }
 4075              		.loc 1 1664 0
 4076 17d8 00BF     		nop
 4077 17da BD46     		mov	sp, r7
 4078              		.cfi_def_cfa_register 13
 4079              		@ sp needed
 4080 17dc 80BD     		pop	{r7, pc}
 4081              	.L255:
 4082 17de 00BF     		.align	2
 4083              	.L254:
 4084 17e0 00000000 		.word	ieee154e_vars
 4085 17e4 00000000 		.word	isr_ieee154e_timer
 4086              		.cfi_endproc
 4087              	.LFE37:
 4089              		.align	1
 4090              		.global	activity_rie2
 4091              		.syntax unified
 4092              		.thumb
 4093              		.thumb_func
 4094              		.fpu softvfp
 4096              	activity_rie2:
 4097              	.LFB38:
1665:build\openmote-cc2538_armgcc\openstack\02a-MAClow/IEEE802154E.c **** 
1666:build\openmote-cc2538_armgcc\openstack\02a-MAClow/IEEE802154E.c **** port_INLINE void activity_rie2(void) {
 4098              		.loc 1 1666 0
 4099              		.cfi_startproc
 4100              		@ args = 0, pretend = 0, frame = 0
 4101              		@ frame_needed = 1, uses_anonymous_args = 0
 4102 17e8 80B5     		push	{r7, lr}
 4103              		.cfi_def_cfa_offset 8
 4104              		.cfi_offset 7, -8
 4105              		.cfi_offset 14, -4
 4106 17ea 00AF     		add	r7, sp, #0
 4107              		.cfi_def_cfa_register 7
1667:build\openmote-cc2538_armgcc\openstack\02a-MAClow/IEEE802154E.c ****     // abort
1668:build\openmote-cc2538_armgcc\openstack\02a-MAClow/IEEE802154E.c ****     endSlot();
 4108              		.loc 1 1668 0
 4109 17ec FFF7FEFF 		bl	endSlot
1669:build\openmote-cc2538_armgcc\openstack\02a-MAClow/IEEE802154E.c **** }
 4110              		.loc 1 1669 0
 4111 17f0 00BF     		nop
 4112 17f2 80BD     		pop	{r7, pc}
 4113              		.cfi_endproc
 4114              	.LFE38:
 4116              		.align	1
 4117              		.global	activity_ri4
 4118              		.syntax unified
 4119              		.thumb
 4120              		.thumb_func
 4121              		.fpu softvfp
 4123              	activity_ri4:
 4124              	.LFB39:
1670:build\openmote-cc2538_armgcc\openstack\02a-MAClow/IEEE802154E.c **** 
1671:build\openmote-cc2538_armgcc\openstack\02a-MAClow/IEEE802154E.c **** port_INLINE void activity_ri4(PORT_TIMER_WIDTH capturedTime) {
 4125              		.loc 1 1671 0
 4126              		.cfi_startproc
 4127              		@ args = 0, pretend = 0, frame = 8
 4128              		@ frame_needed = 1, uses_anonymous_args = 0
 4129 17f4 80B5     		push	{r7, lr}
 4130              		.cfi_def_cfa_offset 8
 4131              		.cfi_offset 7, -8
 4132              		.cfi_offset 14, -4
 4133 17f6 84B0     		sub	sp, sp, #16
 4134              		.cfi_def_cfa_offset 24
 4135 17f8 02AF     		add	r7, sp, #8
 4136              		.cfi_def_cfa 7, 16
 4137 17fa 7860     		str	r0, [r7, #4]
1672:build\openmote-cc2538_armgcc\openstack\02a-MAClow/IEEE802154E.c **** 
1673:build\openmote-cc2538_armgcc\openstack\02a-MAClow/IEEE802154E.c ****     // change state
1674:build\openmote-cc2538_armgcc\openstack\02a-MAClow/IEEE802154E.c ****     changeState(S_RXDATA);
 4138              		.loc 1 1674 0
 4139 17fc 1320     		movs	r0, #19
 4140 17fe FFF7FEFF 		bl	changeState
1675:build\openmote-cc2538_armgcc\openstack\02a-MAClow/IEEE802154E.c **** 
1676:build\openmote-cc2538_armgcc\openstack\02a-MAClow/IEEE802154E.c **** #ifdef SLOT_FSM_IMPLEMENTATION_MULTIPLE_TIMER_INTERRUPT
1677:build\openmote-cc2538_armgcc\openstack\02a-MAClow/IEEE802154E.c ****     // cancel rt3
1678:build\openmote-cc2538_armgcc\openstack\02a-MAClow/IEEE802154E.c ****     sctimer_actionCancel(ACTION_SET_TIMEOUT);
1679:build\openmote-cc2538_armgcc\openstack\02a-MAClow/IEEE802154E.c **** #else
1680:build\openmote-cc2538_armgcc\openstack\02a-MAClow/IEEE802154E.c ****     // cancel rt3
1681:build\openmote-cc2538_armgcc\openstack\02a-MAClow/IEEE802154E.c ****     opentimers_scheduleAbsolute(
 4141              		.loc 1 1681 0
 4142 1802 154B     		ldr	r3, .L258
 4143 1804 93F8A801 		ldrb	r0, [r3, #424]	@ zero_extendqisi2
1682:build\openmote-cc2538_armgcc\openstack\02a-MAClow/IEEE802154E.c ****         ieee154e_vars.timerId,                            // timerId
1683:build\openmote-cc2538_armgcc\openstack\02a-MAClow/IEEE802154E.c ****         ieee154e_vars.slotDuration,                       // duration
 4144              		.loc 1 1683 0
 4145 1808 134B     		ldr	r3, .L258
 4146 180a B3F8A631 		ldrh	r3, [r3, #422]
1681:build\openmote-cc2538_armgcc\openstack\02a-MAClow/IEEE802154E.c ****         ieee154e_vars.timerId,                            // timerId
 4147              		.loc 1 1681 0
 4148 180e 1946     		mov	r1, r3
 4149 1810 114B     		ldr	r3, .L258
 4150 1812 D3F8AC21 		ldr	r2, [r3, #428]
 4151 1816 114B     		ldr	r3, .L258+4
 4152 1818 0093     		str	r3, [sp]
 4153 181a 0123     		movs	r3, #1
 4154 181c FFF7FEFF 		bl	opentimers_scheduleAbsolute
1684:build\openmote-cc2538_armgcc\openstack\02a-MAClow/IEEE802154E.c ****         ieee154e_vars.startOfSlotReference,               // reference
1685:build\openmote-cc2538_armgcc\openstack\02a-MAClow/IEEE802154E.c ****         TIME_TICS,                                        // timetype
1686:build\openmote-cc2538_armgcc\openstack\02a-MAClow/IEEE802154E.c ****         isr_ieee154e_newSlot                              // callback
1687:build\openmote-cc2538_armgcc\openstack\02a-MAClow/IEEE802154E.c ****     );
1688:build\openmote-cc2538_armgcc\openstack\02a-MAClow/IEEE802154E.c ****     // radiotimer_cancel();
1689:build\openmote-cc2538_armgcc\openstack\02a-MAClow/IEEE802154E.c **** #endif
1690:build\openmote-cc2538_armgcc\openstack\02a-MAClow/IEEE802154E.c ****     // record the captured time
1691:build\openmote-cc2538_armgcc\openstack\02a-MAClow/IEEE802154E.c ****     ieee154e_vars.lastCapturedTime = capturedTime;
 4155              		.loc 1 1691 0
 4156 1820 0D4A     		ldr	r2, .L258
 4157 1822 7B68     		ldr	r3, [r7, #4]
 4158 1824 C2F87831 		str	r3, [r2, #376]
1692:build\openmote-cc2538_armgcc\openstack\02a-MAClow/IEEE802154E.c **** 
1693:build\openmote-cc2538_armgcc\openstack\02a-MAClow/IEEE802154E.c ****     // record the captured time to sync
1694:build\openmote-cc2538_armgcc\openstack\02a-MAClow/IEEE802154E.c ****     ieee154e_vars.syncCapturedTime = capturedTime;
 4159              		.loc 1 1694 0
 4160 1828 0B4A     		ldr	r2, .L258
 4161 182a 7B68     		ldr	r3, [r7, #4]
 4162 182c C2F87C31 		str	r3, [r2, #380]
1695:build\openmote-cc2538_armgcc\openstack\02a-MAClow/IEEE802154E.c **** #ifdef SLOT_FSM_IMPLEMENTATION_MULTIPLE_TIMER_INTERRUPT
1696:build\openmote-cc2538_armgcc\openstack\02a-MAClow/IEEE802154E.c ****     sctimer_scheduleActionIn(ACTION_SET_TIMEOUT,ieee154e_vars.startOfSlotReference+DURATION_rt4);
1697:build\openmote-cc2538_armgcc\openstack\02a-MAClow/IEEE802154E.c **** #else
1698:build\openmote-cc2538_armgcc\openstack\02a-MAClow/IEEE802154E.c ****     opentimers_scheduleAbsolute(
 4163              		.loc 1 1698 0
 4164 1830 094B     		ldr	r3, .L258
 4165 1832 93F8A801 		ldrb	r0, [r3, #424]	@ zero_extendqisi2
1699:build\openmote-cc2538_armgcc\openstack\02a-MAClow/IEEE802154E.c ****         ieee154e_vars.timerId,                            // timerId
1700:build\openmote-cc2538_armgcc\openstack\02a-MAClow/IEEE802154E.c ****         DURATION_rt4,                                     // duration
 4166              		.loc 1 1700 0
 4167 1836 084B     		ldr	r3, .L258
 4168 1838 D3F87831 		ldr	r3, [r3, #376]
1698:build\openmote-cc2538_armgcc\openstack\02a-MAClow/IEEE802154E.c ****         ieee154e_vars.timerId,                            // timerId
 4169              		.loc 1 1698 0
 4170 183c 03F1A401 		add	r1, r3, #164
 4171 1840 054B     		ldr	r3, .L258
 4172 1842 D3F8AC21 		ldr	r2, [r3, #428]
 4173 1846 064B     		ldr	r3, .L258+8
 4174 1848 0093     		str	r3, [sp]
 4175 184a 0123     		movs	r3, #1
 4176 184c FFF7FEFF 		bl	opentimers_scheduleAbsolute
1701:build\openmote-cc2538_armgcc\openstack\02a-MAClow/IEEE802154E.c ****         ieee154e_vars.startOfSlotReference,               // reference
1702:build\openmote-cc2538_armgcc\openstack\02a-MAClow/IEEE802154E.c ****         TIME_TICS,                                        // timetype
1703:build\openmote-cc2538_armgcc\openstack\02a-MAClow/IEEE802154E.c ****         isr_ieee154e_timer                                // callback
1704:build\openmote-cc2538_armgcc\openstack\02a-MAClow/IEEE802154E.c ****     );
1705:build\openmote-cc2538_armgcc\openstack\02a-MAClow/IEEE802154E.c ****     // radiotimer_schedule(DURATION_rt4);
1706:build\openmote-cc2538_armgcc\openstack\02a-MAClow/IEEE802154E.c **** #endif
1707:build\openmote-cc2538_armgcc\openstack\02a-MAClow/IEEE802154E.c **** }
 4177              		.loc 1 1707 0
 4178 1850 00BF     		nop
 4179 1852 0837     		adds	r7, r7, #8
 4180              		.cfi_def_cfa_offset 8
 4181 1854 BD46     		mov	sp, r7
 4182              		.cfi_def_cfa_register 13
 4183              		@ sp needed
 4184 1856 80BD     		pop	{r7, pc}
 4185              	.L259:
 4186              		.align	2
 4187              	.L258:
 4188 1858 00000000 		.word	ieee154e_vars
 4189 185c 00000000 		.word	isr_ieee154e_newSlot
 4190 1860 00000000 		.word	isr_ieee154e_timer
 4191              		.cfi_endproc
 4192              	.LFE39:
 4194              		.align	1
 4195              		.global	activity_rie3
 4196              		.syntax unified
 4197              		.thumb
 4198              		.thumb_func
 4199              		.fpu softvfp
 4201              	activity_rie3:
 4202              	.LFB40:
1708:build\openmote-cc2538_armgcc\openstack\02a-MAClow/IEEE802154E.c **** 
1709:build\openmote-cc2538_armgcc\openstack\02a-MAClow/IEEE802154E.c **** port_INLINE void activity_rie3(void) {
 4203              		.loc 1 1709 0
 4204              		.cfi_startproc
 4205              		@ args = 0, pretend = 0, frame = 0
 4206              		@ frame_needed = 1, uses_anonymous_args = 0
 4207 1864 80B5     		push	{r7, lr}
 4208              		.cfi_def_cfa_offset 8
 4209              		.cfi_offset 7, -8
 4210              		.cfi_offset 14, -4
 4211 1866 00AF     		add	r7, sp, #0
 4212              		.cfi_def_cfa_register 7
1710:build\openmote-cc2538_armgcc\openstack\02a-MAClow/IEEE802154E.c **** 
1711:build\openmote-cc2538_armgcc\openstack\02a-MAClow/IEEE802154E.c ****     // log the error
1712:build\openmote-cc2538_armgcc\openstack\02a-MAClow/IEEE802154E.c ****     openserial_printError(COMPONENT_IEEE802154E,ERR_WDDATADURATION_OVERFLOWS,
1713:build\openmote-cc2538_armgcc\openstack\02a-MAClow/IEEE802154E.c ****                          (errorparameter_t)ieee154e_vars.state,
 4213              		.loc 1 1713 0
 4214 1868 064B     		ldr	r3, .L261
 4215 186a 93F86431 		ldrb	r3, [r3, #356]	@ zero_extendqisi2
1712:build\openmote-cc2538_armgcc\openstack\02a-MAClow/IEEE802154E.c ****                          (errorparameter_t)ieee154e_vars.state,
 4216              		.loc 1 1712 0
 4217 186e 9AB2     		uxth	r2, r3
1714:build\openmote-cc2538_armgcc\openstack\02a-MAClow/IEEE802154E.c ****                          (errorparameter_t)ieee154e_vars.slotOffset);
 4218              		.loc 1 1714 0
 4219 1870 044B     		ldr	r3, .L261
 4220 1872 DB88     		ldrh	r3, [r3, #6]
1712:build\openmote-cc2538_armgcc\openstack\02a-MAClow/IEEE802154E.c ****                          (errorparameter_t)ieee154e_vars.state,
 4221              		.loc 1 1712 0
 4222 1874 2721     		movs	r1, #39
 4223 1876 0920     		movs	r0, #9
 4224 1878 FFF7FEFF 		bl	openserial_printError
1715:build\openmote-cc2538_armgcc\openstack\02a-MAClow/IEEE802154E.c **** 
1716:build\openmote-cc2538_armgcc\openstack\02a-MAClow/IEEE802154E.c ****     // abort
1717:build\openmote-cc2538_armgcc\openstack\02a-MAClow/IEEE802154E.c ****     endSlot();
 4225              		.loc 1 1717 0
 4226 187c FFF7FEFF 		bl	endSlot
1718:build\openmote-cc2538_armgcc\openstack\02a-MAClow/IEEE802154E.c **** }
 4227              		.loc 1 1718 0
 4228 1880 00BF     		nop
 4229 1882 80BD     		pop	{r7, pc}
 4230              	.L262:
 4231              		.align	2
 4232              	.L261:
 4233 1884 00000000 		.word	ieee154e_vars
 4234              		.cfi_endproc
 4235              	.LFE40:
 4237              		.align	1
 4238              		.global	activity_ri5
 4239              		.syntax unified
 4240              		.thumb
 4241              		.thumb_func
 4242              		.fpu softvfp
 4244              	activity_ri5:
 4245              	.LFB41:
1719:build\openmote-cc2538_armgcc\openstack\02a-MAClow/IEEE802154E.c **** 
1720:build\openmote-cc2538_armgcc\openstack\02a-MAClow/IEEE802154E.c **** port_INLINE void activity_ri5(PORT_TIMER_WIDTH capturedTime) {
 4246              		.loc 1 1720 0
 4247              		.cfi_startproc
 4248              		@ args = 0, pretend = 0, frame = 96
 4249              		@ frame_needed = 1, uses_anonymous_args = 0
 4250 1888 B0B5     		push	{r4, r5, r7, lr}
 4251              		.cfi_def_cfa_offset 16
 4252              		.cfi_offset 4, -16
 4253              		.cfi_offset 5, -12
 4254              		.cfi_offset 7, -8
 4255              		.cfi_offset 14, -4
 4256 188a 9AB0     		sub	sp, sp, #104
 4257              		.cfi_def_cfa_offset 120
 4258 188c 02AF     		add	r7, sp, #8
 4259              		.cfi_def_cfa 7, 112
 4260 188e 7860     		str	r0, [r7, #4]
1721:build\openmote-cc2538_armgcc\openstack\02a-MAClow/IEEE802154E.c ****     ieee802154_header_iht ieee802514_header;
1722:build\openmote-cc2538_armgcc\openstack\02a-MAClow/IEEE802154E.c ****     uint16_t lenIE=0;
 4261              		.loc 1 1722 0
 4262 1890 0023     		movs	r3, #0
 4263 1892 FB83     		strh	r3, [r7, #30]	@ movhi
1723:build\openmote-cc2538_armgcc\openstack\02a-MAClow/IEEE802154E.c ****     open_addr_t                 addressToWrite;
1724:build\openmote-cc2538_armgcc\openstack\02a-MAClow/IEEE802154E.c **** 
1725:build\openmote-cc2538_armgcc\openstack\02a-MAClow/IEEE802154E.c ****     // change state
1726:build\openmote-cc2538_armgcc\openstack\02a-MAClow/IEEE802154E.c ****     changeState(S_TXACKOFFSET);
 4264              		.loc 1 1726 0
 4265 1894 1420     		movs	r0, #20
 4266 1896 FFF7FEFF 		bl	changeState
1727:build\openmote-cc2538_armgcc\openstack\02a-MAClow/IEEE802154E.c **** #ifdef SLOT_FSM_IMPLEMENTATION_MULTIPLE_TIMER_INTERRUPT
1728:build\openmote-cc2538_armgcc\openstack\02a-MAClow/IEEE802154E.c ****     // cancel rt4
1729:build\openmote-cc2538_armgcc\openstack\02a-MAClow/IEEE802154E.c ****     sctimer_actionCancel(ACTION_SET_TIMEOUT);
1730:build\openmote-cc2538_armgcc\openstack\02a-MAClow/IEEE802154E.c **** #else
1731:build\openmote-cc2538_armgcc\openstack\02a-MAClow/IEEE802154E.c ****     // cancel rt4
1732:build\openmote-cc2538_armgcc\openstack\02a-MAClow/IEEE802154E.c ****     opentimers_scheduleAbsolute(
 4267              		.loc 1 1732 0
 4268 189a B54B     		ldr	r3, .L288
 4269 189c 93F8A801 		ldrb	r0, [r3, #424]	@ zero_extendqisi2
1733:build\openmote-cc2538_armgcc\openstack\02a-MAClow/IEEE802154E.c ****         ieee154e_vars.timerId,                            // timerId
1734:build\openmote-cc2538_armgcc\openstack\02a-MAClow/IEEE802154E.c ****         ieee154e_vars.slotDuration,                       // duration
 4270              		.loc 1 1734 0
 4271 18a0 B34B     		ldr	r3, .L288
 4272 18a2 B3F8A631 		ldrh	r3, [r3, #422]
1732:build\openmote-cc2538_armgcc\openstack\02a-MAClow/IEEE802154E.c ****         ieee154e_vars.timerId,                            // timerId
 4273              		.loc 1 1732 0
 4274 18a6 1946     		mov	r1, r3
 4275 18a8 B14B     		ldr	r3, .L288
 4276 18aa D3F8AC21 		ldr	r2, [r3, #428]
 4277 18ae B14B     		ldr	r3, .L288+4
 4278 18b0 0093     		str	r3, [sp]
 4279 18b2 0123     		movs	r3, #1
 4280 18b4 FFF7FEFF 		bl	opentimers_scheduleAbsolute
1735:build\openmote-cc2538_armgcc\openstack\02a-MAClow/IEEE802154E.c ****         ieee154e_vars.startOfSlotReference,               // reference
1736:build\openmote-cc2538_armgcc\openstack\02a-MAClow/IEEE802154E.c ****         TIME_TICS,                                        // timetype
1737:build\openmote-cc2538_armgcc\openstack\02a-MAClow/IEEE802154E.c ****         isr_ieee154e_newSlot                              // callback
1738:build\openmote-cc2538_armgcc\openstack\02a-MAClow/IEEE802154E.c ****     );
1739:build\openmote-cc2538_armgcc\openstack\02a-MAClow/IEEE802154E.c ****     // radiotimer_cancel();
1740:build\openmote-cc2538_armgcc\openstack\02a-MAClow/IEEE802154E.c **** #endif
1741:build\openmote-cc2538_armgcc\openstack\02a-MAClow/IEEE802154E.c ****     // turn off the radio
1742:build\openmote-cc2538_armgcc\openstack\02a-MAClow/IEEE802154E.c ****     radio_rfOff();
 4281              		.loc 1 1742 0
 4282 18b8 FFF7FEFF 		bl	radio_rfOff
1743:build\openmote-cc2538_armgcc\openstack\02a-MAClow/IEEE802154E.c ****     ieee154e_vars.radioOnTics+=sctimer_readCounter()-ieee154e_vars.radioOnInit;
 4283              		.loc 1 1743 0
 4284 18bc FFF7FEFF 		bl	sctimer_readCounter
 4285 18c0 0246     		mov	r2, r0
 4286 18c2 AB4B     		ldr	r3, .L288
 4287 18c4 D3F89831 		ldr	r3, [r3, #408]
 4288 18c8 D21A     		subs	r2, r2, r3
 4289 18ca A94B     		ldr	r3, .L288
 4290 18cc D3F89C31 		ldr	r3, [r3, #412]
 4291 18d0 1344     		add	r3, r3, r2
 4292 18d2 A74A     		ldr	r2, .L288
 4293 18d4 C2F89C31 		str	r3, [r2, #412]
1744:build\openmote-cc2538_armgcc\openstack\02a-MAClow/IEEE802154E.c ****     // get a buffer to put the (received) data in
1745:build\openmote-cc2538_armgcc\openstack\02a-MAClow/IEEE802154E.c ****     ieee154e_vars.dataReceived = openqueue_getFreePacketBuffer(COMPONENT_IEEE802154E);
 4294              		.loc 1 1745 0
 4295 18d8 0920     		movs	r0, #9
 4296 18da FFF7FEFF 		bl	openqueue_getFreePacketBuffer
 4297 18de 0246     		mov	r2, r0
 4298 18e0 A34B     		ldr	r3, .L288
 4299 18e2 C3F86C21 		str	r2, [r3, #364]
1746:build\openmote-cc2538_armgcc\openstack\02a-MAClow/IEEE802154E.c ****     if (ieee154e_vars.dataReceived==NULL) {
 4300              		.loc 1 1746 0
 4301 18e6 A24B     		ldr	r3, .L288
 4302 18e8 D3F86C31 		ldr	r3, [r3, #364]
 4303 18ec 002B     		cmp	r3, #0
 4304 18ee 08D1     		bne	.L264
1747:build\openmote-cc2538_armgcc\openstack\02a-MAClow/IEEE802154E.c ****         // log the error
1748:build\openmote-cc2538_armgcc\openstack\02a-MAClow/IEEE802154E.c ****         openserial_printError(COMPONENT_IEEE802154E,ERR_NO_FREE_PACKET_BUFFER,
 4305              		.loc 1 1748 0
 4306 18f0 0023     		movs	r3, #0
 4307 18f2 0022     		movs	r2, #0
 4308 18f4 2D21     		movs	r1, #45
 4309 18f6 0920     		movs	r0, #9
 4310 18f8 FFF7FEFF 		bl	openserial_printError
1749:build\openmote-cc2538_armgcc\openstack\02a-MAClow/IEEE802154E.c ****                             (errorparameter_t)0,
1750:build\openmote-cc2538_armgcc\openstack\02a-MAClow/IEEE802154E.c ****                             (errorparameter_t)0);
1751:build\openmote-cc2538_armgcc\openstack\02a-MAClow/IEEE802154E.c ****         // abort
1752:build\openmote-cc2538_armgcc\openstack\02a-MAClow/IEEE802154E.c ****         endSlot();
 4311              		.loc 1 1752 0
 4312 18fc FFF7FEFF 		bl	endSlot
1753:build\openmote-cc2538_armgcc\openstack\02a-MAClow/IEEE802154E.c ****         return;
 4313              		.loc 1 1753 0
 4314 1900 9EE1     		b	.L263
 4315              	.L264:
1754:build\openmote-cc2538_armgcc\openstack\02a-MAClow/IEEE802154E.c ****     }
1755:build\openmote-cc2538_armgcc\openstack\02a-MAClow/IEEE802154E.c **** 
1756:build\openmote-cc2538_armgcc\openstack\02a-MAClow/IEEE802154E.c ****     // declare ownership over that packet
1757:build\openmote-cc2538_armgcc\openstack\02a-MAClow/IEEE802154E.c ****     ieee154e_vars.dataReceived->creator = COMPONENT_IEEE802154E;
 4316              		.loc 1 1757 0
 4317 1902 9B4B     		ldr	r3, .L288
 4318 1904 D3F86C31 		ldr	r3, [r3, #364]
 4319 1908 0922     		movs	r2, #9
 4320 190a 1A70     		strb	r2, [r3]
1758:build\openmote-cc2538_armgcc\openstack\02a-MAClow/IEEE802154E.c ****     ieee154e_vars.dataReceived->owner   = COMPONENT_IEEE802154E;
 4321              		.loc 1 1758 0
 4322 190c 984B     		ldr	r3, .L288
 4323 190e D3F86C31 		ldr	r3, [r3, #364]
 4324 1912 0922     		movs	r2, #9
 4325 1914 5A70     		strb	r2, [r3, #1]
1759:build\openmote-cc2538_armgcc\openstack\02a-MAClow/IEEE802154E.c **** 
1760:build\openmote-cc2538_armgcc\openstack\02a-MAClow/IEEE802154E.c ****     /*
1761:build\openmote-cc2538_armgcc\openstack\02a-MAClow/IEEE802154E.c ****     The do-while loop that follows is a little parsing trick.
1762:build\openmote-cc2538_armgcc\openstack\02a-MAClow/IEEE802154E.c ****     Because it contains a while(0) condition, it gets executed only once.
1763:build\openmote-cc2538_armgcc\openstack\02a-MAClow/IEEE802154E.c ****     The behavior is:
1764:build\openmote-cc2538_armgcc\openstack\02a-MAClow/IEEE802154E.c ****     - if a break occurs inside the do{} body, the error code below the loop
1765:build\openmote-cc2538_armgcc\openstack\02a-MAClow/IEEE802154E.c ****         gets executed. This indicates something is wrong with the packet being
1766:build\openmote-cc2538_armgcc\openstack\02a-MAClow/IEEE802154E.c ****         parsed.
1767:build\openmote-cc2538_armgcc\openstack\02a-MAClow/IEEE802154E.c ****     - if a return occurs inside the do{} body, the error code below the loop
1768:build\openmote-cc2538_armgcc\openstack\02a-MAClow/IEEE802154E.c ****         does not get executed. This indicates the received packet is correct.
1769:build\openmote-cc2538_armgcc\openstack\02a-MAClow/IEEE802154E.c ****     */
1770:build\openmote-cc2538_armgcc\openstack\02a-MAClow/IEEE802154E.c ****     do { // this "loop" is only executed once
1771:build\openmote-cc2538_armgcc\openstack\02a-MAClow/IEEE802154E.c **** 
1772:build\openmote-cc2538_armgcc\openstack\02a-MAClow/IEEE802154E.c ****         // retrieve the received data frame from the radio's Rx buffer
1773:build\openmote-cc2538_armgcc\openstack\02a-MAClow/IEEE802154E.c ****         ieee154e_vars.dataReceived->payload = &(ieee154e_vars.dataReceived->packet[FIRST_FRAME_BYTE
 4326              		.loc 1 1773 0
 4327 1916 964B     		ldr	r3, .L288
 4328 1918 D3F86C21 		ldr	r2, [r3, #364]
 4329 191c 944B     		ldr	r3, .L288
 4330 191e D3F86C31 		ldr	r3, [r3, #364]
 4331 1922 C932     		adds	r2, r2, #201
 4332 1924 5A60     		str	r2, [r3, #4]
1774:build\openmote-cc2538_armgcc\openstack\02a-MAClow/IEEE802154E.c ****         radio_getReceivedFrame(
1775:build\openmote-cc2538_armgcc\openstack\02a-MAClow/IEEE802154E.c ****             ieee154e_vars.dataReceived->payload,
 4333              		.loc 1 1775 0
 4334 1926 924B     		ldr	r3, .L288
 4335 1928 D3F86C31 		ldr	r3, [r3, #364]
1774:build\openmote-cc2538_armgcc\openstack\02a-MAClow/IEEE802154E.c ****         radio_getReceivedFrame(
 4336              		.loc 1 1774 0
 4337 192c 5868     		ldr	r0, [r3, #4]
1776:build\openmote-cc2538_armgcc\openstack\02a-MAClow/IEEE802154E.c ****             &ieee154e_vars.dataReceived->length,
 4338              		.loc 1 1776 0
 4339 192e 904B     		ldr	r3, .L288
 4340 1930 D3F86C31 		ldr	r3, [r3, #364]
1774:build\openmote-cc2538_armgcc\openstack\02a-MAClow/IEEE802154E.c ****         radio_getReceivedFrame(
 4341              		.loc 1 1774 0
 4342 1934 03F10801 		add	r1, r3, #8
1777:build\openmote-cc2538_armgcc\openstack\02a-MAClow/IEEE802154E.c ****             sizeof(ieee154e_vars.dataReceived->packet),
1778:build\openmote-cc2538_armgcc\openstack\02a-MAClow/IEEE802154E.c ****             &ieee154e_vars.dataReceived->l1_rssi,
 4343              		.loc 1 1778 0
 4344 1938 8D4B     		ldr	r3, .L288
 4345 193a D3F86C31 		ldr	r3, [r3, #364]
1774:build\openmote-cc2538_armgcc\openstack\02a-MAClow/IEEE802154E.c ****             ieee154e_vars.dataReceived->payload,
 4346              		.loc 1 1774 0
 4347 193e 03F1C504 		add	r4, r3, #197
1779:build\openmote-cc2538_armgcc\openstack\02a-MAClow/IEEE802154E.c ****             &ieee154e_vars.dataReceived->l1_lqi,
 4348              		.loc 1 1779 0
 4349 1942 8B4B     		ldr	r3, .L288
 4350 1944 D3F86C31 		ldr	r3, [r3, #364]
1774:build\openmote-cc2538_armgcc\openstack\02a-MAClow/IEEE802154E.c ****             ieee154e_vars.dataReceived->payload,
 4351              		.loc 1 1774 0
 4352 1948 C633     		adds	r3, r3, #198
1780:build\openmote-cc2538_armgcc\openstack\02a-MAClow/IEEE802154E.c ****             &ieee154e_vars.dataReceived->l1_crc
 4353              		.loc 1 1780 0
 4354 194a 894A     		ldr	r2, .L288
 4355 194c D2F86C21 		ldr	r2, [r2, #364]
1774:build\openmote-cc2538_armgcc\openstack\02a-MAClow/IEEE802154E.c ****             ieee154e_vars.dataReceived->payload,
 4356              		.loc 1 1774 0
 4357 1950 C732     		adds	r2, r2, #199
 4358 1952 0192     		str	r2, [sp, #4]
 4359 1954 0093     		str	r3, [sp]
 4360 1956 2346     		mov	r3, r4
 4361 1958 8222     		movs	r2, #130
 4362 195a FFF7FEFF 		bl	radio_getReceivedFrame
1781:build\openmote-cc2538_armgcc\openstack\02a-MAClow/IEEE802154E.c ****         );
1782:build\openmote-cc2538_armgcc\openstack\02a-MAClow/IEEE802154E.c **** 
1783:build\openmote-cc2538_armgcc\openstack\02a-MAClow/IEEE802154E.c ****         // break if wrong length
1784:build\openmote-cc2538_armgcc\openstack\02a-MAClow/IEEE802154E.c ****         if (ieee154e_vars.dataReceived->length<LENGTH_CRC || ieee154e_vars.dataReceived->length>LEN
 4363              		.loc 1 1784 0
 4364 195e 844B     		ldr	r3, .L288
 4365 1960 D3F86C31 		ldr	r3, [r3, #364]
 4366 1964 1B7A     		ldrb	r3, [r3, #8]	@ zero_extendqisi2
 4367 1966 012B     		cmp	r3, #1
 4368 1968 05D9     		bls	.L266
 4369              		.loc 1 1784 0 is_stmt 0 discriminator 1
 4370 196a 814B     		ldr	r3, .L288
 4371 196c D3F86C31 		ldr	r3, [r3, #364]
 4372 1970 1B7A     		ldrb	r3, [r3, #8]	@ zero_extendqisi2
 4373 1972 802B     		cmp	r3, #128
 4374 1974 0AD9     		bls	.L267
 4375              	.L266:
1785:build\openmote-cc2538_armgcc\openstack\02a-MAClow/IEEE802154E.c ****             // jump to the error code below this do-while loop
1786:build\openmote-cc2538_armgcc\openstack\02a-MAClow/IEEE802154E.c ****             openserial_printError(COMPONENT_IEEE802154E,ERR_INVALIDPACKETFROMRADIO,
1787:build\openmote-cc2538_armgcc\openstack\02a-MAClow/IEEE802154E.c ****                             (errorparameter_t)2,
1788:build\openmote-cc2538_armgcc\openstack\02a-MAClow/IEEE802154E.c ****                             ieee154e_vars.dataReceived->length);
 4376              		.loc 1 1788 0 is_stmt 1
 4377 1976 7E4B     		ldr	r3, .L288
 4378 1978 D3F86C31 		ldr	r3, [r3, #364]
 4379 197c 1B7A     		ldrb	r3, [r3, #8]	@ zero_extendqisi2
1786:build\openmote-cc2538_armgcc\openstack\02a-MAClow/IEEE802154E.c ****                             (errorparameter_t)2,
 4380              		.loc 1 1786 0
 4381 197e 9BB2     		uxth	r3, r3
 4382 1980 0222     		movs	r2, #2
 4383 1982 3821     		movs	r1, #56
 4384 1984 0920     		movs	r0, #9
 4385 1986 FFF7FEFF 		bl	openserial_printError
1789:build\openmote-cc2538_armgcc\openstack\02a-MAClow/IEEE802154E.c ****             break;
 4386              		.loc 1 1789 0
 4387 198a 4DE1     		b	.L268
 4388              	.L267:
1790:build\openmote-cc2538_armgcc\openstack\02a-MAClow/IEEE802154E.c ****         }
1791:build\openmote-cc2538_armgcc\openstack\02a-MAClow/IEEE802154E.c **** 
1792:build\openmote-cc2538_armgcc\openstack\02a-MAClow/IEEE802154E.c ****         // toss CRC (2 last bytes)
1793:build\openmote-cc2538_armgcc\openstack\02a-MAClow/IEEE802154E.c ****         packetfunctions_tossFooter(   ieee154e_vars.dataReceived, LENGTH_CRC);
 4389              		.loc 1 1793 0
 4390 198c 784B     		ldr	r3, .L288
 4391 198e D3F86C31 		ldr	r3, [r3, #364]
 4392 1992 0221     		movs	r1, #2
 4393 1994 1846     		mov	r0, r3
 4394 1996 FFF7FEFF 		bl	packetfunctions_tossFooter
1794:build\openmote-cc2538_armgcc\openstack\02a-MAClow/IEEE802154E.c **** 
1795:build\openmote-cc2538_armgcc\openstack\02a-MAClow/IEEE802154E.c ****         // if CRC doesn't check, stop
1796:build\openmote-cc2538_armgcc\openstack\02a-MAClow/IEEE802154E.c ****         if (ieee154e_vars.dataReceived->l1_crc==FALSE) {
 4395              		.loc 1 1796 0
 4396 199a 754B     		ldr	r3, .L288
 4397 199c D3F86C31 		ldr	r3, [r3, #364]
 4398 19a0 93F8C730 		ldrb	r3, [r3, #199]	@ zero_extendqisi2
 4399 19a4 83F00103 		eor	r3, r3, #1
 4400 19a8 DBB2     		uxtb	r3, r3
 4401 19aa 002B     		cmp	r3, #0
 4402 19ac 40F03181 		bne	.L282
1797:build\openmote-cc2538_armgcc\openstack\02a-MAClow/IEEE802154E.c ****             // jump to the error code below this do-while loop
1798:build\openmote-cc2538_armgcc\openstack\02a-MAClow/IEEE802154E.c ****             break;
1799:build\openmote-cc2538_armgcc\openstack\02a-MAClow/IEEE802154E.c ****         }
1800:build\openmote-cc2538_armgcc\openstack\02a-MAClow/IEEE802154E.c **** 
1801:build\openmote-cc2538_armgcc\openstack\02a-MAClow/IEEE802154E.c ****         // parse the IEEE802.15.4 header (RX DATA)
1802:build\openmote-cc2538_armgcc\openstack\02a-MAClow/IEEE802154E.c ****         ieee802154_retrieveHeader(ieee154e_vars.dataReceived,&ieee802514_header);
 4403              		.loc 1 1802 0
 4404 19b0 6F4B     		ldr	r3, .L288
 4405 19b2 D3F86C31 		ldr	r3, [r3, #364]
 4406 19b6 07F12002 		add	r2, r7, #32
 4407 19ba 1146     		mov	r1, r2
 4408 19bc 1846     		mov	r0, r3
 4409 19be FFF7FEFF 		bl	ieee802154_retrieveHeader
1803:build\openmote-cc2538_armgcc\openstack\02a-MAClow/IEEE802154E.c **** 
1804:build\openmote-cc2538_armgcc\openstack\02a-MAClow/IEEE802154E.c ****         // break if invalid IEEE802.15.4 header
1805:build\openmote-cc2538_armgcc\openstack\02a-MAClow/IEEE802154E.c ****         if (ieee802514_header.valid==FALSE) {
 4410              		.loc 1 1805 0
 4411 19c2 97F82030 		ldrb	r3, [r7, #32]	@ zero_extendqisi2
 4412 19c6 83F00103 		eor	r3, r3, #1
 4413 19ca DBB2     		uxtb	r3, r3
 4414 19cc 002B     		cmp	r3, #0
 4415 19ce 40F02281 		bne	.L283
1806:build\openmote-cc2538_armgcc\openstack\02a-MAClow/IEEE802154E.c ****             // break from the do-while loop and execute the clean-up code below
1807:build\openmote-cc2538_armgcc\openstack\02a-MAClow/IEEE802154E.c ****             break;
1808:build\openmote-cc2538_armgcc\openstack\02a-MAClow/IEEE802154E.c ****         }
1809:build\openmote-cc2538_armgcc\openstack\02a-MAClow/IEEE802154E.c **** 
1810:build\openmote-cc2538_armgcc\openstack\02a-MAClow/IEEE802154E.c ****         // store header details in packet buffer
1811:build\openmote-cc2538_armgcc\openstack\02a-MAClow/IEEE802154E.c ****         ieee154e_vars.dataReceived->l2_frameType      = ieee802514_header.frameType;
 4416              		.loc 1 1811 0
 4417 19d2 674B     		ldr	r3, .L288
 4418 19d4 D3F86C31 		ldr	r3, [r3, #364]
 4419 19d8 97F82220 		ldrb	r2, [r7, #34]	@ zero_extendqisi2
 4420 19dc 83F85220 		strb	r2, [r3, #82]
1812:build\openmote-cc2538_armgcc\openstack\02a-MAClow/IEEE802154E.c ****         ieee154e_vars.dataReceived->l2_dsn            = ieee802514_header.dsn;
 4421              		.loc 1 1812 0
 4422 19e0 634B     		ldr	r3, .L288
 4423 19e2 D3F86C31 		ldr	r3, [r3, #364]
 4424 19e6 97F82920 		ldrb	r2, [r7, #41]	@ zero_extendqisi2
 4425 19ea 83F85320 		strb	r2, [r3, #83]
1813:build\openmote-cc2538_armgcc\openstack\02a-MAClow/IEEE802154E.c ****         ieee154e_vars.dataReceived->l2_IEListPresent  = ieee802514_header.ieListPresent;
 4426              		.loc 1 1813 0
 4427 19ee 604B     		ldr	r3, .L288
 4428 19f0 D3F86C31 		ldr	r3, [r3, #364]
 4429 19f4 97F82720 		ldrb	r2, [r7, #39]	@ zero_extendqisi2
 4430 19f8 83F8A120 		strb	r2, [r3, #161]
1814:build\openmote-cc2538_armgcc\openstack\02a-MAClow/IEEE802154E.c ****         memcpy(&(ieee154e_vars.dataReceived->l2_nextORpreviousHop),&(ieee802514_header.src),sizeof(
 4431              		.loc 1 1814 0
 4432 19fc 5C4B     		ldr	r3, .L288
 4433 19fe D3F86C31 		ldr	r3, [r3, #364]
 4434 1a02 4133     		adds	r3, r3, #65
 4435 1a04 1A46     		mov	r2, r3
 4436 1a06 07F14D03 		add	r3, r7, #77
 4437 1a0a 1D68     		ldr	r5, [r3]	@ unaligned
 4438 1a0c 5C68     		ldr	r4, [r3, #4]	@ unaligned
 4439 1a0e 9868     		ldr	r0, [r3, #8]	@ unaligned
 4440 1a10 D968     		ldr	r1, [r3, #12]	@ unaligned
 4441 1a12 1560     		str	r5, [r2]	@ unaligned
 4442 1a14 5460     		str	r4, [r2, #4]	@ unaligned
 4443 1a16 9060     		str	r0, [r2, #8]	@ unaligned
 4444 1a18 D160     		str	r1, [r2, #12]	@ unaligned
 4445 1a1a 1B7C     		ldrb	r3, [r3, #16]
 4446 1a1c 1374     		strb	r3, [r2, #16]
1815:build\openmote-cc2538_armgcc\openstack\02a-MAClow/IEEE802154E.c **** 
1816:build\openmote-cc2538_armgcc\openstack\02a-MAClow/IEEE802154E.c ****         // verify that incoming security level is acceptable
1817:build\openmote-cc2538_armgcc\openstack\02a-MAClow/IEEE802154E.c ****         if (IEEE802154_security_acceptableLevel(ieee154e_vars.dataReceived, &ieee802514_header) == 
 4447              		.loc 1 1817 0
 4448 1a1e 544B     		ldr	r3, .L288
 4449 1a20 D3F86C31 		ldr	r3, [r3, #364]
 4450 1a24 07F12002 		add	r2, r7, #32
 4451 1a28 1146     		mov	r1, r2
 4452 1a2a 1846     		mov	r0, r3
 4453 1a2c FFF7FEFF 		bl	IEEE802154_security_acceptableLevel
 4454 1a30 0346     		mov	r3, r0
 4455 1a32 83F00103 		eor	r3, r3, #1
 4456 1a36 DBB2     		uxtb	r3, r3
 4457 1a38 002B     		cmp	r3, #0
 4458 1a3a 40F0EE80 		bne	.L284
1818:build\openmote-cc2538_armgcc\openstack\02a-MAClow/IEEE802154E.c ****             break;
1819:build\openmote-cc2538_armgcc\openstack\02a-MAClow/IEEE802154E.c ****         }
1820:build\openmote-cc2538_armgcc\openstack\02a-MAClow/IEEE802154E.c **** 
1821:build\openmote-cc2538_armgcc\openstack\02a-MAClow/IEEE802154E.c ****         // if security is active and configured need to decrypt the frame
1822:build\openmote-cc2538_armgcc\openstack\02a-MAClow/IEEE802154E.c ****         if (ieee154e_vars.dataReceived->l2_securityLevel != IEEE154_ASH_SLF_TYPE_NOSEC) {
 4459              		.loc 1 1822 0
 4460 1a3e 4C4B     		ldr	r3, .L288
 4461 1a40 D3F86C31 		ldr	r3, [r3, #364]
 4462 1a44 93F8A930 		ldrb	r3, [r3, #169]	@ zero_extendqisi2
 4463 1a48 002B     		cmp	r3, #0
 4464 1a4a 22D0     		beq	.L272
1823:build\openmote-cc2538_armgcc\openstack\02a-MAClow/IEEE802154E.c ****             if (IEEE802154_security_isConfigured()) {
 4465              		.loc 1 1823 0
 4466 1a4c FFF7FEFF 		bl	IEEE802154_security_isConfigured
 4467 1a50 0346     		mov	r3, r0
 4468 1a52 002B     		cmp	r3, #0
 4469 1a54 09D0     		beq	.L273
1824:build\openmote-cc2538_armgcc\openstack\02a-MAClow/IEEE802154E.c ****                 if (IEEE802154_security_incomingFrame(ieee154e_vars.dataReceived) != E_SUCCESS) {
 4470              		.loc 1 1824 0
 4471 1a56 464B     		ldr	r3, .L288
 4472 1a58 D3F86C31 		ldr	r3, [r3, #364]
 4473 1a5c 1846     		mov	r0, r3
 4474 1a5e FFF7FEFF 		bl	IEEE802154_security_incomingFrame
 4475 1a62 0346     		mov	r3, r0
 4476 1a64 002B     		cmp	r3, #0
 4477 1a66 14D0     		beq	.L272
1825:build\openmote-cc2538_armgcc\openstack\02a-MAClow/IEEE802154E.c ****                     break;
 4478              		.loc 1 1825 0
 4479 1a68 DEE0     		b	.L268
 4480              	.L273:
1826:build\openmote-cc2538_armgcc\openstack\02a-MAClow/IEEE802154E.c ****                 }
1827:build\openmote-cc2538_armgcc\openstack\02a-MAClow/IEEE802154E.c ****             }
1828:build\openmote-cc2538_armgcc\openstack\02a-MAClow/IEEE802154E.c ****             // bypass authentication of beacons during join process
1829:build\openmote-cc2538_armgcc\openstack\02a-MAClow/IEEE802154E.c ****             else if(ieee154e_vars.dataReceived->l2_frameType == IEEE154_TYPE_BEACON) { // not joine
 4481              		.loc 1 1829 0
 4482 1a6a 414B     		ldr	r3, .L288
 4483 1a6c D3F86C31 		ldr	r3, [r3, #364]
 4484 1a70 93F85230 		ldrb	r3, [r3, #82]	@ zero_extendqisi2
 4485 1a74 002B     		cmp	r3, #0
 4486 1a76 40F0D280 		bne	.L285
1830:build\openmote-cc2538_armgcc\openstack\02a-MAClow/IEEE802154E.c ****                 packetfunctions_tossFooter(ieee154e_vars.dataReceived, ieee154e_vars.dataReceived->
 4487              		.loc 1 1830 0
 4488 1a7a 3D4B     		ldr	r3, .L288
 4489 1a7c D3F86C21 		ldr	r2, [r3, #364]
 4490 1a80 3B4B     		ldr	r3, .L288
 4491 1a82 D3F86C31 		ldr	r3, [r3, #364]
 4492 1a86 93F8BD30 		ldrb	r3, [r3, #189]	@ zero_extendqisi2
 4493 1a8a 1946     		mov	r1, r3
 4494 1a8c 1046     		mov	r0, r2
 4495 1a8e FFF7FEFF 		bl	packetfunctions_tossFooter
 4496              	.L272:
1831:build\openmote-cc2538_armgcc\openstack\02a-MAClow/IEEE802154E.c ****             } else {
1832:build\openmote-cc2538_armgcc\openstack\02a-MAClow/IEEE802154E.c ****                 break;
1833:build\openmote-cc2538_armgcc\openstack\02a-MAClow/IEEE802154E.c ****             }
1834:build\openmote-cc2538_armgcc\openstack\02a-MAClow/IEEE802154E.c ****         }
1835:build\openmote-cc2538_armgcc\openstack\02a-MAClow/IEEE802154E.c **** 
1836:build\openmote-cc2538_armgcc\openstack\02a-MAClow/IEEE802154E.c ****         // toss the IEEE802.15.4 header
1837:build\openmote-cc2538_armgcc\openstack\02a-MAClow/IEEE802154E.c ****         packetfunctions_tossHeader(ieee154e_vars.dataReceived,ieee802514_header.headerLength);
 4497              		.loc 1 1837 0
 4498 1a92 374B     		ldr	r3, .L288
 4499 1a94 D3F86C31 		ldr	r3, [r3, #364]
 4500 1a98 97F82120 		ldrb	r2, [r7, #33]	@ zero_extendqisi2
 4501 1a9c 1146     		mov	r1, r2
 4502 1a9e 1846     		mov	r0, r3
 4503 1aa0 FFF7FEFF 		bl	packetfunctions_tossHeader
1838:build\openmote-cc2538_armgcc\openstack\02a-MAClow/IEEE802154E.c **** 
1839:build\openmote-cc2538_armgcc\openstack\02a-MAClow/IEEE802154E.c ****         if (
1840:build\openmote-cc2538_armgcc\openstack\02a-MAClow/IEEE802154E.c ****             ieee802514_header.frameType       == IEEE154_TYPE_BEACON                             &&
 4504              		.loc 1 1840 0
 4505 1aa4 97F82230 		ldrb	r3, [r7, #34]	@ zero_extendqisi2
1839:build\openmote-cc2538_armgcc\openstack\02a-MAClow/IEEE802154E.c ****             ieee802514_header.frameType       == IEEE154_TYPE_BEACON                             &&
 4506              		.loc 1 1839 0
 4507 1aa8 002B     		cmp	r3, #0
 4508 1aaa 21D1     		bne	.L275
1841:build\openmote-cc2538_armgcc\openstack\02a-MAClow/IEEE802154E.c ****             ieee802514_header.ieListPresent==TRUE &&
 4509              		.loc 1 1841 0
 4510 1aac 97F82730 		ldrb	r3, [r7, #39]	@ zero_extendqisi2
1840:build\openmote-cc2538_armgcc\openstack\02a-MAClow/IEEE802154E.c ****             ieee802514_header.ieListPresent==TRUE &&
 4511              		.loc 1 1840 0
 4512 1ab0 002B     		cmp	r3, #0
 4513 1ab2 1DD0     		beq	.L275
1842:build\openmote-cc2538_armgcc\openstack\02a-MAClow/IEEE802154E.c ****             packetfunctions_sameAddress(&ieee802514_header.panid,idmanager_getMyID(ADDR_PANID))
 4514              		.loc 1 1842 0
 4515 1ab4 0420     		movs	r0, #4
 4516 1ab6 FFF7FEFF 		bl	idmanager_getMyID
 4517 1aba 0246     		mov	r2, r0
 4518 1abc 07F12003 		add	r3, r7, #32
 4519 1ac0 0B33     		adds	r3, r3, #11
 4520 1ac2 1146     		mov	r1, r2
 4521 1ac4 1846     		mov	r0, r3
 4522 1ac6 FFF7FEFF 		bl	packetfunctions_sameAddress
 4523 1aca 0346     		mov	r3, r0
1841:build\openmote-cc2538_armgcc\openstack\02a-MAClow/IEEE802154E.c ****             ieee802514_header.ieListPresent==TRUE &&
 4524              		.loc 1 1841 0
 4525 1acc 002B     		cmp	r3, #0
 4526 1ace 0FD0     		beq	.L275
1843:build\openmote-cc2538_armgcc\openstack\02a-MAClow/IEEE802154E.c ****         ) {
1844:build\openmote-cc2538_armgcc\openstack\02a-MAClow/IEEE802154E.c ****             if (ieee154e_processIEs(ieee154e_vars.dataReceived,&lenIE)==FALSE){
 4527              		.loc 1 1844 0
 4528 1ad0 274B     		ldr	r3, .L288
 4529 1ad2 D3F86C31 		ldr	r3, [r3, #364]
 4530 1ad6 07F11E02 		add	r2, r7, #30
 4531 1ada 1146     		mov	r1, r2
 4532 1adc 1846     		mov	r0, r3
 4533 1ade FFF7FEFF 		bl	ieee154e_processIEs
 4534 1ae2 0346     		mov	r3, r0
 4535 1ae4 83F00103 		eor	r3, r3, #1
 4536 1ae8 DBB2     		uxtb	r3, r3
 4537 1aea 002B     		cmp	r3, #0
 4538 1aec 40F09980 		bne	.L286
 4539              	.L275:
1845:build\openmote-cc2538_armgcc\openstack\02a-MAClow/IEEE802154E.c ****                 // retrieve EB IE failed, break the do-while loop and execute the clean up code bel
1846:build\openmote-cc2538_armgcc\openstack\02a-MAClow/IEEE802154E.c ****                 break;
1847:build\openmote-cc2538_armgcc\openstack\02a-MAClow/IEEE802154E.c ****             }
1848:build\openmote-cc2538_armgcc\openstack\02a-MAClow/IEEE802154E.c ****         }
1849:build\openmote-cc2538_armgcc\openstack\02a-MAClow/IEEE802154E.c **** 
1850:build\openmote-cc2538_armgcc\openstack\02a-MAClow/IEEE802154E.c ****         // toss the IEs including Synch
1851:build\openmote-cc2538_armgcc\openstack\02a-MAClow/IEEE802154E.c ****         packetfunctions_tossHeader(ieee154e_vars.dataReceived,lenIE);
 4540              		.loc 1 1851 0
 4541 1af0 1F4B     		ldr	r3, .L288
 4542 1af2 D3F86C31 		ldr	r3, [r3, #364]
 4543 1af6 FA8B     		ldrh	r2, [r7, #30]
 4544 1af8 D2B2     		uxtb	r2, r2
 4545 1afa 1146     		mov	r1, r2
 4546 1afc 1846     		mov	r0, r3
 4547 1afe FFF7FEFF 		bl	packetfunctions_tossHeader
1852:build\openmote-cc2538_armgcc\openstack\02a-MAClow/IEEE802154E.c **** 
1853:build\openmote-cc2538_armgcc\openstack\02a-MAClow/IEEE802154E.c ****         // record the captured time
1854:build\openmote-cc2538_armgcc\openstack\02a-MAClow/IEEE802154E.c ****         ieee154e_vars.lastCapturedTime = capturedTime;
 4548              		.loc 1 1854 0
 4549 1b02 1B4A     		ldr	r2, .L288
 4550 1b04 7B68     		ldr	r3, [r7, #4]
 4551 1b06 C2F87831 		str	r3, [r2, #376]
1855:build\openmote-cc2538_armgcc\openstack\02a-MAClow/IEEE802154E.c **** 
1856:build\openmote-cc2538_armgcc\openstack\02a-MAClow/IEEE802154E.c ****         // if I just received an invalid frame, stop
1857:build\openmote-cc2538_armgcc\openstack\02a-MAClow/IEEE802154E.c ****         if (isValidRxFrame(&ieee802514_header)==FALSE) {
 4552              		.loc 1 1857 0
 4553 1b0a 07F12003 		add	r3, r7, #32
 4554 1b0e 1846     		mov	r0, r3
 4555 1b10 FFF7FEFF 		bl	isValidRxFrame
 4556 1b14 0346     		mov	r3, r0
 4557 1b16 83F00103 		eor	r3, r3, #1
 4558 1b1a DBB2     		uxtb	r3, r3
 4559 1b1c 002B     		cmp	r3, #0
 4560 1b1e 40F08280 		bne	.L287
1858:build\openmote-cc2538_armgcc\openstack\02a-MAClow/IEEE802154E.c ****             // jump to the error code below this do-while loop
1859:build\openmote-cc2538_armgcc\openstack\02a-MAClow/IEEE802154E.c ****             break;
1860:build\openmote-cc2538_armgcc\openstack\02a-MAClow/IEEE802154E.c ****         }
1861:build\openmote-cc2538_armgcc\openstack\02a-MAClow/IEEE802154E.c **** 
1862:build\openmote-cc2538_armgcc\openstack\02a-MAClow/IEEE802154E.c ****         // record the timeCorrection and print out at end of slot
1863:build\openmote-cc2538_armgcc\openstack\02a-MAClow/IEEE802154E.c ****         ieee154e_vars.dataReceived->l2_timeCorrection = (PORT_SIGNED_INT_WIDTH)((PORT_SIGNED_INT_WI
 4561              		.loc 1 1863 0
 4562 1b22 134B     		ldr	r3, .L288
 4563 1b24 D3F87C31 		ldr	r3, [r3, #380]
 4564 1b28 9BB2     		uxth	r3, r3
 4565 1b2a C3F14603 		rsb	r3, r3, #70
 4566 1b2e 9AB2     		uxth	r2, r3
 4567 1b30 0F4B     		ldr	r3, .L288
 4568 1b32 D3F86C31 		ldr	r3, [r3, #364]
 4569 1b36 12B2     		sxth	r2, r2
 4570 1b38 A3F8A620 		strh	r2, [r3, #166]	@ movhi
1864:build\openmote-cc2538_armgcc\openstack\02a-MAClow/IEEE802154E.c **** 
1865:build\openmote-cc2538_armgcc\openstack\02a-MAClow/IEEE802154E.c ****         // check if ack requested
1866:build\openmote-cc2538_armgcc\openstack\02a-MAClow/IEEE802154E.c ****         if (ieee802514_header.ackRequested==1 && ieee154e_vars.isAckEnabled == TRUE) {
 4571              		.loc 1 1866 0
 4572 1b3c 97F82530 		ldrb	r3, [r7, #37]	@ zero_extendqisi2
 4573 1b40 002B     		cmp	r3, #0
 4574 1b42 1BD0     		beq	.L277
 4575              		.loc 1 1866 0 is_stmt 0 discriminator 1
 4576 1b44 0A4B     		ldr	r3, .L288
 4577 1b46 93F8A131 		ldrb	r3, [r3, #417]	@ zero_extendqisi2
 4578 1b4a 002B     		cmp	r3, #0
 4579 1b4c 16D0     		beq	.L277
1867:build\openmote-cc2538_armgcc\openstack\02a-MAClow/IEEE802154E.c **** #ifdef SLOT_FSM_IMPLEMENTATION_MULTIPLE_TIMER_INTERRUPT
1868:build\openmote-cc2538_armgcc\openstack\02a-MAClow/IEEE802154E.c ****             // get a buffer to put the ack to send in
1869:build\openmote-cc2538_armgcc\openstack\02a-MAClow/IEEE802154E.c ****             ieee154e_vars.ackToSend = openqueue_getFreePacketBuffer(COMPONENT_IEEE802154E);
1870:build\openmote-cc2538_armgcc\openstack\02a-MAClow/IEEE802154E.c ****             if (ieee154e_vars.ackToSend==NULL) {
1871:build\openmote-cc2538_armgcc\openstack\02a-MAClow/IEEE802154E.c ****                 // log the error
1872:build\openmote-cc2538_armgcc\openstack\02a-MAClow/IEEE802154E.c ****                 openserial_printError(
1873:build\openmote-cc2538_armgcc\openstack\02a-MAClow/IEEE802154E.c ****                     COMPONENT_IEEE802154E,ERR_NO_FREE_PACKET_BUFFER,
1874:build\openmote-cc2538_armgcc\openstack\02a-MAClow/IEEE802154E.c ****                     (errorparameter_t)0,
1875:build\openmote-cc2538_armgcc\openstack\02a-MAClow/IEEE802154E.c ****                     (errorparameter_t)0
1876:build\openmote-cc2538_armgcc\openstack\02a-MAClow/IEEE802154E.c ****                 );
1877:build\openmote-cc2538_armgcc\openstack\02a-MAClow/IEEE802154E.c ****                 // indicate we received a packet anyway (we don't want to loose any)
1878:build\openmote-cc2538_armgcc\openstack\02a-MAClow/IEEE802154E.c ****                 notif_receive(ieee154e_vars.dataReceived);
1879:build\openmote-cc2538_armgcc\openstack\02a-MAClow/IEEE802154E.c ****                 // free local variable
1880:build\openmote-cc2538_armgcc\openstack\02a-MAClow/IEEE802154E.c ****                 ieee154e_vars.dataReceived = NULL;
1881:build\openmote-cc2538_armgcc\openstack\02a-MAClow/IEEE802154E.c ****                 // abort
1882:build\openmote-cc2538_armgcc\openstack\02a-MAClow/IEEE802154E.c ****                 endSlot();
1883:build\openmote-cc2538_armgcc\openstack\02a-MAClow/IEEE802154E.c ****                 return;
1884:build\openmote-cc2538_armgcc\openstack\02a-MAClow/IEEE802154E.c ****             }
1885:build\openmote-cc2538_armgcc\openstack\02a-MAClow/IEEE802154E.c ****             // declare ownership over that packet
1886:build\openmote-cc2538_armgcc\openstack\02a-MAClow/IEEE802154E.c ****             ieee154e_vars.ackToSend->creator = COMPONENT_IEEE802154E;
1887:build\openmote-cc2538_armgcc\openstack\02a-MAClow/IEEE802154E.c ****             ieee154e_vars.ackToSend->owner   = COMPONENT_IEEE802154E;
1888:build\openmote-cc2538_armgcc\openstack\02a-MAClow/IEEE802154E.c **** 
1889:build\openmote-cc2538_armgcc\openstack\02a-MAClow/IEEE802154E.c ****             // calculate the time timeCorrection (this is the time the sender is off w.r.t to this 
1890:build\openmote-cc2538_armgcc\openstack\02a-MAClow/IEEE802154E.c ****             // the sender is too late.
1891:build\openmote-cc2538_armgcc\openstack\02a-MAClow/IEEE802154E.c ****             ieee154e_vars.timeCorrection = (PORT_SIGNED_INT_WIDTH)((PORT_SIGNED_INT_WIDTH)TsTxOffse
1892:build\openmote-cc2538_armgcc\openstack\02a-MAClow/IEEE802154E.c **** 
1893:build\openmote-cc2538_armgcc\openstack\02a-MAClow/IEEE802154E.c ****             // prepend the IEEE802.15.4 header to the ACK
1894:build\openmote-cc2538_armgcc\openstack\02a-MAClow/IEEE802154E.c ****             ieee154e_vars.ackToSend->l2_frameType = IEEE154_TYPE_ACK;
1895:build\openmote-cc2538_armgcc\openstack\02a-MAClow/IEEE802154E.c ****             ieee154e_vars.ackToSend->l2_dsn       = ieee154e_vars.dataReceived->l2_dsn;
1896:build\openmote-cc2538_armgcc\openstack\02a-MAClow/IEEE802154E.c **** 
1897:build\openmote-cc2538_armgcc\openstack\02a-MAClow/IEEE802154E.c ****             // To send ACK, we use the same security level (including NOSEC) and keys
1898:build\openmote-cc2538_armgcc\openstack\02a-MAClow/IEEE802154E.c ****             // that were present in the DATA packet.
1899:build\openmote-cc2538_armgcc\openstack\02a-MAClow/IEEE802154E.c ****             ieee154e_vars.ackToSend->l2_securityLevel = ieee154e_vars.dataReceived->l2_securityLeve
1900:build\openmote-cc2538_armgcc\openstack\02a-MAClow/IEEE802154E.c ****             ieee154e_vars.ackToSend->l2_keyIdMode     = ieee154e_vars.dataReceived->l2_keyIdMode;
1901:build\openmote-cc2538_armgcc\openstack\02a-MAClow/IEEE802154E.c ****             ieee154e_vars.ackToSend->l2_keyIndex      = ieee154e_vars.dataReceived->l2_keyIndex;
1902:build\openmote-cc2538_armgcc\openstack\02a-MAClow/IEEE802154E.c **** 
1903:build\openmote-cc2538_armgcc\openstack\02a-MAClow/IEEE802154E.c ****             ieee802154_prependHeader(
1904:build\openmote-cc2538_armgcc\openstack\02a-MAClow/IEEE802154E.c ****                 ieee154e_vars.ackToSend,
1905:build\openmote-cc2538_armgcc\openstack\02a-MAClow/IEEE802154E.c ****                 ieee154e_vars.ackToSend->l2_frameType,
1906:build\openmote-cc2538_armgcc\openstack\02a-MAClow/IEEE802154E.c ****                 FALSE,//no payloadIE in ack
1907:build\openmote-cc2538_armgcc\openstack\02a-MAClow/IEEE802154E.c ****                 ieee154e_vars.dataReceived->l2_dsn,
1908:build\openmote-cc2538_armgcc\openstack\02a-MAClow/IEEE802154E.c ****                 &(ieee154e_vars.dataReceived->l2_nextORpreviousHop)
1909:build\openmote-cc2538_armgcc\openstack\02a-MAClow/IEEE802154E.c ****             );
1910:build\openmote-cc2538_armgcc\openstack\02a-MAClow/IEEE802154E.c **** 
1911:build\openmote-cc2538_armgcc\openstack\02a-MAClow/IEEE802154E.c ****             // if security is enabled, encrypt directly in OpenQueue as there are no retransmission
1912:build\openmote-cc2538_armgcc\openstack\02a-MAClow/IEEE802154E.c ****             if (ieee154e_vars.ackToSend->l2_securityLevel != IEEE154_ASH_SLF_TYPE_NOSEC) {
1913:build\openmote-cc2538_armgcc\openstack\02a-MAClow/IEEE802154E.c ****                 if (IEEE802154_security_outgoingFrameSecurity(ieee154e_vars.ackToSend) != E_SUCCESS
1914:build\openmote-cc2538_armgcc\openstack\02a-MAClow/IEEE802154E.c ****                     openqueue_freePacketBuffer(ieee154e_vars.ackToSend);
1915:build\openmote-cc2538_armgcc\openstack\02a-MAClow/IEEE802154E.c ****                     endSlot();
1916:build\openmote-cc2538_armgcc\openstack\02a-MAClow/IEEE802154E.c ****                     return;
1917:build\openmote-cc2538_armgcc\openstack\02a-MAClow/IEEE802154E.c ****                 }
1918:build\openmote-cc2538_armgcc\openstack\02a-MAClow/IEEE802154E.c ****             }
1919:build\openmote-cc2538_armgcc\openstack\02a-MAClow/IEEE802154E.c ****             // space for 2-byte CRC
1920:build\openmote-cc2538_armgcc\openstack\02a-MAClow/IEEE802154E.c ****             packetfunctions_reserveFooterSize(ieee154e_vars.ackToSend,2);
1921:build\openmote-cc2538_armgcc\openstack\02a-MAClow/IEEE802154E.c ****             // 1. schedule timer for loading packet
1922:build\openmote-cc2538_armgcc\openstack\02a-MAClow/IEEE802154E.c ****             sctimer_scheduleActionIn(ACTION_LOAD_PACKET,ieee154e_vars.startOfSlotReference+DURATION
1923:build\openmote-cc2538_armgcc\openstack\02a-MAClow/IEEE802154E.c ****             // set tx buffer address and length to prepare loading packet (packet is NOT loaded at 
1924:build\openmote-cc2538_armgcc\openstack\02a-MAClow/IEEE802154E.c ****             radio_loadPacket_prepare(ieee154e_vars.ackToSend->payload,
1925:build\openmote-cc2538_armgcc\openstack\02a-MAClow/IEEE802154E.c ****                                     ieee154e_vars.ackToSend->length);
1926:build\openmote-cc2538_armgcc\openstack\02a-MAClow/IEEE802154E.c ****             sctimer_scheduleActionIn(ACTION_SEND_PACKET,ieee154e_vars.startOfSlotReference+DURATION
1927:build\openmote-cc2538_armgcc\openstack\02a-MAClow/IEEE802154E.c ****             // 2. schedule timer for radio tx watchdog
1928:build\openmote-cc2538_armgcc\openstack\02a-MAClow/IEEE802154E.c ****             sctimer_scheduleActionIn(ACTION_SET_TIMEOUT,ieee154e_vars.startOfSlotReference+DURATION
1929:build\openmote-cc2538_armgcc\openstack\02a-MAClow/IEEE802154E.c ****             // 3. set capture for SFD senddone and Tx send done
1930:build\openmote-cc2538_armgcc\openstack\02a-MAClow/IEEE802154E.c ****             sctimer_setCapture(ACTION_TX_SFD_DONE);
1931:build\openmote-cc2538_armgcc\openstack\02a-MAClow/IEEE802154E.c ****             sctimer_setCapture(ACTION_TX_SEND_DONE);
1932:build\openmote-cc2538_armgcc\openstack\02a-MAClow/IEEE802154E.c **** 
1933:build\openmote-cc2538_armgcc\openstack\02a-MAClow/IEEE802154E.c ****             // configure the radio for that frequency
1934:build\openmote-cc2538_armgcc\openstack\02a-MAClow/IEEE802154E.c ****             radio_setFrequency(ieee154e_vars.freq);
1935:build\openmote-cc2538_armgcc\openstack\02a-MAClow/IEEE802154E.c **** #else
1936:build\openmote-cc2538_armgcc\openstack\02a-MAClow/IEEE802154E.c ****             // arm rt5
1937:build\openmote-cc2538_armgcc\openstack\02a-MAClow/IEEE802154E.c ****             opentimers_scheduleAbsolute(
 4580              		.loc 1 1937 0 is_stmt 1
 4581 1b4e 084B     		ldr	r3, .L288
 4582 1b50 93F8A801 		ldrb	r0, [r3, #424]	@ zero_extendqisi2
1938:build\openmote-cc2538_armgcc\openstack\02a-MAClow/IEEE802154E.c ****                 ieee154e_vars.timerId,                            // timerId
1939:build\openmote-cc2538_armgcc\openstack\02a-MAClow/IEEE802154E.c ****                 DURATION_rt5,                                     // duration
 4583              		.loc 1 1939 0
 4584 1b54 064B     		ldr	r3, .L288
 4585 1b56 D3F87831 		ldr	r3, [r3, #376]
1937:build\openmote-cc2538_armgcc\openstack\02a-MAClow/IEEE802154E.c ****                 ieee154e_vars.timerId,                            // timerId
 4586              		.loc 1 1937 0
 4587 1b5a 03F10A01 		add	r1, r3, #10
 4588 1b5e 044B     		ldr	r3, .L288
 4589 1b60 D3F8AC21 		ldr	r2, [r3, #428]
 4590 1b64 044B     		ldr	r3, .L288+8
 4591 1b66 0093     		str	r3, [sp]
 4592 1b68 0123     		movs	r3, #1
 4593 1b6a FFF7FEFF 		bl	opentimers_scheduleAbsolute
1940:build\openmote-cc2538_armgcc\openstack\02a-MAClow/IEEE802154E.c ****                 ieee154e_vars.startOfSlotReference,               // reference
1941:build\openmote-cc2538_armgcc\openstack\02a-MAClow/IEEE802154E.c ****                 TIME_TICS,                                        // timetype
1942:build\openmote-cc2538_armgcc\openstack\02a-MAClow/IEEE802154E.c ****                 isr_ieee154e_timer                                // callback
1943:build\openmote-cc2538_armgcc\openstack\02a-MAClow/IEEE802154E.c ****             );
1944:build\openmote-cc2538_armgcc\openstack\02a-MAClow/IEEE802154E.c ****             // radiotimer_schedule(DURATION_rt5);
1945:build\openmote-cc2538_armgcc\openstack\02a-MAClow/IEEE802154E.c **** #endif
1946:build\openmote-cc2538_armgcc\openstack\02a-MAClow/IEEE802154E.c ****         } else {
1947:build\openmote-cc2538_armgcc\openstack\02a-MAClow/IEEE802154E.c ****             // synchronize to the received packet if I'm not a DAGroot and this is my preferred par
1948:build\openmote-cc2538_armgcc\openstack\02a-MAClow/IEEE802154E.c ****             // or in case I'm in the middle of the join process when parent is not yet selected
1949:build\openmote-cc2538_armgcc\openstack\02a-MAClow/IEEE802154E.c ****             // or in case I don't have an autonomous Tx cell cell to my parent yet
1950:build\openmote-cc2538_armgcc\openstack\02a-MAClow/IEEE802154E.c ****             if (
1951:build\openmote-cc2538_armgcc\openstack\02a-MAClow/IEEE802154E.c ****                 idmanager_getIsDAGroot()                                    == FALSE &&
1952:build\openmote-cc2538_armgcc\openstack\02a-MAClow/IEEE802154E.c ****                 (
1953:build\openmote-cc2538_armgcc\openstack\02a-MAClow/IEEE802154E.c ****                     icmpv6rpl_isPreferredParent(&(ieee154e_vars.dataReceived->l2_nextORpreviousHop)
1954:build\openmote-cc2538_armgcc\openstack\02a-MAClow/IEEE802154E.c ****                     IEEE802154_security_isConfigured()                      == FALSE ||
1955:build\openmote-cc2538_armgcc\openstack\02a-MAClow/IEEE802154E.c ****                     icmpv6rpl_getPreferredParentEui64(&addressToWrite)      == FALSE ||
1956:build\openmote-cc2538_armgcc\openstack\02a-MAClow/IEEE802154E.c ****                     (
1957:build\openmote-cc2538_armgcc\openstack\02a-MAClow/IEEE802154E.c ****                         icmpv6rpl_getPreferredParentEui64(&addressToWrite)           &&
1958:build\openmote-cc2538_armgcc\openstack\02a-MAClow/IEEE802154E.c ****                         schedule_hasManagedTxCellToNeighbor(&addressToWrite)== FALSE
1959:build\openmote-cc2538_armgcc\openstack\02a-MAClow/IEEE802154E.c ****                     )
1960:build\openmote-cc2538_armgcc\openstack\02a-MAClow/IEEE802154E.c ****                 )
1961:build\openmote-cc2538_armgcc\openstack\02a-MAClow/IEEE802154E.c ****             ) {
1962:build\openmote-cc2538_armgcc\openstack\02a-MAClow/IEEE802154E.c ****                 synchronizePacket(ieee154e_vars.syncCapturedTime);
1963:build\openmote-cc2538_armgcc\openstack\02a-MAClow/IEEE802154E.c ****             }
1964:build\openmote-cc2538_armgcc\openstack\02a-MAClow/IEEE802154E.c ****             // indicate reception to upper layer (no ACK asked)
1965:build\openmote-cc2538_armgcc\openstack\02a-MAClow/IEEE802154E.c ****             notif_receive(ieee154e_vars.dataReceived);
1966:build\openmote-cc2538_armgcc\openstack\02a-MAClow/IEEE802154E.c ****             // reset local variable
1967:build\openmote-cc2538_armgcc\openstack\02a-MAClow/IEEE802154E.c ****             ieee154e_vars.dataReceived = NULL;
1968:build\openmote-cc2538_armgcc\openstack\02a-MAClow/IEEE802154E.c ****             // abort
1969:build\openmote-cc2538_armgcc\openstack\02a-MAClow/IEEE802154E.c ****             endSlot();
1970:build\openmote-cc2538_armgcc\openstack\02a-MAClow/IEEE802154E.c ****         }
1971:build\openmote-cc2538_armgcc\openstack\02a-MAClow/IEEE802154E.c **** 
1972:build\openmote-cc2538_armgcc\openstack\02a-MAClow/IEEE802154E.c ****         // everything went well, return here not to execute the error code below
1973:build\openmote-cc2538_armgcc\openstack\02a-MAClow/IEEE802154E.c ****         return;
 4594              		.loc 1 1973 0
 4595 1b6e 67E0     		b	.L263
 4596              	.L289:
 4597              		.align	2
 4598              	.L288:
 4599 1b70 00000000 		.word	ieee154e_vars
 4600 1b74 00000000 		.word	isr_ieee154e_newSlot
 4601 1b78 00000000 		.word	isr_ieee154e_timer
 4602              	.L277:
1951:build\openmote-cc2538_armgcc\openstack\02a-MAClow/IEEE802154E.c ****                 (
 4603              		.loc 1 1951 0
 4604 1b7c FFF7FEFF 		bl	idmanager_getIsDAGroot
 4605 1b80 0346     		mov	r3, r0
 4606 1b82 83F00103 		eor	r3, r3, #1
 4607 1b86 DBB2     		uxtb	r3, r3
1950:build\openmote-cc2538_armgcc\openstack\02a-MAClow/IEEE802154E.c ****                 idmanager_getIsDAGroot()                                    == FALSE &&
 4608              		.loc 1 1950 0
 4609 1b88 002B     		cmp	r3, #0
 4610 1b8a 35D0     		beq	.L279
1953:build\openmote-cc2538_armgcc\openstack\02a-MAClow/IEEE802154E.c ****                     IEEE802154_security_isConfigured()                      == FALSE ||
 4611              		.loc 1 1953 0
 4612 1b8c 2E4B     		ldr	r3, .L290
 4613 1b8e D3F86C31 		ldr	r3, [r3, #364]
 4614 1b92 4133     		adds	r3, r3, #65
 4615 1b94 1846     		mov	r0, r3
 4616 1b96 FFF7FEFF 		bl	icmpv6rpl_isPreferredParent
 4617 1b9a 0346     		mov	r3, r0
1951:build\openmote-cc2538_armgcc\openstack\02a-MAClow/IEEE802154E.c ****                 (
 4618              		.loc 1 1951 0
 4619 1b9c 002B     		cmp	r3, #0
 4620 1b9e 25D1     		bne	.L280
1954:build\openmote-cc2538_armgcc\openstack\02a-MAClow/IEEE802154E.c ****                     icmpv6rpl_getPreferredParentEui64(&addressToWrite)      == FALSE ||
 4621              		.loc 1 1954 0
 4622 1ba0 FFF7FEFF 		bl	IEEE802154_security_isConfigured
 4623 1ba4 0346     		mov	r3, r0
 4624 1ba6 83F00103 		eor	r3, r3, #1
 4625 1baa DBB2     		uxtb	r3, r3
1953:build\openmote-cc2538_armgcc\openstack\02a-MAClow/IEEE802154E.c ****                     IEEE802154_security_isConfigured()                      == FALSE ||
 4626              		.loc 1 1953 0
 4627 1bac 002B     		cmp	r3, #0
 4628 1bae 1DD1     		bne	.L280
1955:build\openmote-cc2538_armgcc\openstack\02a-MAClow/IEEE802154E.c ****                     (
 4629              		.loc 1 1955 0
 4630 1bb0 07F10C03 		add	r3, r7, #12
 4631 1bb4 1846     		mov	r0, r3
 4632 1bb6 FFF7FEFF 		bl	icmpv6rpl_getPreferredParentEui64
 4633 1bba 0346     		mov	r3, r0
 4634 1bbc 83F00103 		eor	r3, r3, #1
 4635 1bc0 DBB2     		uxtb	r3, r3
1954:build\openmote-cc2538_armgcc\openstack\02a-MAClow/IEEE802154E.c ****                     icmpv6rpl_getPreferredParentEui64(&addressToWrite)      == FALSE ||
 4636              		.loc 1 1954 0
 4637 1bc2 002B     		cmp	r3, #0
 4638 1bc4 12D1     		bne	.L280
1957:build\openmote-cc2538_armgcc\openstack\02a-MAClow/IEEE802154E.c ****                         schedule_hasManagedTxCellToNeighbor(&addressToWrite)== FALSE
 4639              		.loc 1 1957 0
 4640 1bc6 07F10C03 		add	r3, r7, #12
 4641 1bca 1846     		mov	r0, r3
 4642 1bcc FFF7FEFF 		bl	icmpv6rpl_getPreferredParentEui64
 4643 1bd0 0346     		mov	r3, r0
1955:build\openmote-cc2538_armgcc\openstack\02a-MAClow/IEEE802154E.c ****                     (
 4644              		.loc 1 1955 0
 4645 1bd2 002B     		cmp	r3, #0
 4646 1bd4 10D0     		beq	.L279
1958:build\openmote-cc2538_armgcc\openstack\02a-MAClow/IEEE802154E.c ****                     )
 4647              		.loc 1 1958 0
 4648 1bd6 07F10C03 		add	r3, r7, #12
 4649 1bda 1846     		mov	r0, r3
 4650 1bdc FFF7FEFF 		bl	schedule_hasManagedTxCellToNeighbor
 4651 1be0 0346     		mov	r3, r0
 4652 1be2 83F00103 		eor	r3, r3, #1
 4653 1be6 DBB2     		uxtb	r3, r3
1957:build\openmote-cc2538_armgcc\openstack\02a-MAClow/IEEE802154E.c ****                         schedule_hasManagedTxCellToNeighbor(&addressToWrite)== FALSE
 4654              		.loc 1 1957 0
 4655 1be8 002B     		cmp	r3, #0
 4656 1bea 05D0     		beq	.L279
 4657              	.L280:
1962:build\openmote-cc2538_armgcc\openstack\02a-MAClow/IEEE802154E.c ****             }
 4658              		.loc 1 1962 0
 4659 1bec 164B     		ldr	r3, .L290
 4660 1bee D3F87C31 		ldr	r3, [r3, #380]
 4661 1bf2 1846     		mov	r0, r3
 4662 1bf4 FFF7FEFF 		bl	synchronizePacket
 4663              	.L279:
1965:build\openmote-cc2538_armgcc\openstack\02a-MAClow/IEEE802154E.c ****             // reset local variable
 4664              		.loc 1 1965 0
 4665 1bf8 134B     		ldr	r3, .L290
 4666 1bfa D3F86C31 		ldr	r3, [r3, #364]
 4667 1bfe 1846     		mov	r0, r3
 4668 1c00 FFF7FEFF 		bl	notif_receive
1967:build\openmote-cc2538_armgcc\openstack\02a-MAClow/IEEE802154E.c ****             // abort
 4669              		.loc 1 1967 0
 4670 1c04 104B     		ldr	r3, .L290
 4671 1c06 0022     		movs	r2, #0
 4672 1c08 C3F86C21 		str	r2, [r3, #364]
1969:build\openmote-cc2538_armgcc\openstack\02a-MAClow/IEEE802154E.c ****         }
 4673              		.loc 1 1969 0
 4674 1c0c FFF7FEFF 		bl	endSlot
 4675              		.loc 1 1973 0
 4676 1c10 16E0     		b	.L263
 4677              	.L282:
1798:build\openmote-cc2538_armgcc\openstack\02a-MAClow/IEEE802154E.c ****         }
 4678              		.loc 1 1798 0
 4679 1c12 00BF     		nop
 4680 1c14 08E0     		b	.L268
 4681              	.L283:
1807:build\openmote-cc2538_armgcc\openstack\02a-MAClow/IEEE802154E.c ****         }
 4682              		.loc 1 1807 0
 4683 1c16 00BF     		nop
 4684 1c18 06E0     		b	.L268
 4685              	.L284:
1818:build\openmote-cc2538_armgcc\openstack\02a-MAClow/IEEE802154E.c ****         }
 4686              		.loc 1 1818 0
 4687 1c1a 00BF     		nop
 4688 1c1c 04E0     		b	.L268
 4689              	.L285:
1832:build\openmote-cc2538_armgcc\openstack\02a-MAClow/IEEE802154E.c ****             }
 4690              		.loc 1 1832 0
 4691 1c1e 00BF     		nop
 4692 1c20 02E0     		b	.L268
 4693              	.L286:
1846:build\openmote-cc2538_armgcc\openstack\02a-MAClow/IEEE802154E.c ****             }
 4694              		.loc 1 1846 0
 4695 1c22 00BF     		nop
 4696 1c24 00E0     		b	.L268
 4697              	.L287:
1859:build\openmote-cc2538_armgcc\openstack\02a-MAClow/IEEE802154E.c ****         }
 4698              		.loc 1 1859 0
 4699 1c26 00BF     		nop
 4700              	.L268:
1974:build\openmote-cc2538_armgcc\openstack\02a-MAClow/IEEE802154E.c **** 
1975:build\openmote-cc2538_armgcc\openstack\02a-MAClow/IEEE802154E.c ****     } while(0);
1976:build\openmote-cc2538_armgcc\openstack\02a-MAClow/IEEE802154E.c **** 
1977:build\openmote-cc2538_armgcc\openstack\02a-MAClow/IEEE802154E.c ****     // free the (invalid) received data so RAM memory can be recycled
1978:build\openmote-cc2538_armgcc\openstack\02a-MAClow/IEEE802154E.c ****     openqueue_freePacketBuffer(ieee154e_vars.dataReceived);
 4701              		.loc 1 1978 0 discriminator 1
 4702 1c28 074B     		ldr	r3, .L290
 4703 1c2a D3F86C31 		ldr	r3, [r3, #364]
 4704 1c2e 1846     		mov	r0, r3
 4705 1c30 FFF7FEFF 		bl	openqueue_freePacketBuffer
1979:build\openmote-cc2538_armgcc\openstack\02a-MAClow/IEEE802154E.c **** 
1980:build\openmote-cc2538_armgcc\openstack\02a-MAClow/IEEE802154E.c ****     // clear local variable
1981:build\openmote-cc2538_armgcc\openstack\02a-MAClow/IEEE802154E.c ****     ieee154e_vars.dataReceived = NULL;
 4706              		.loc 1 1981 0 discriminator 1
 4707 1c34 044B     		ldr	r3, .L290
 4708 1c36 0022     		movs	r2, #0
 4709 1c38 C3F86C21 		str	r2, [r3, #364]
1982:build\openmote-cc2538_armgcc\openstack\02a-MAClow/IEEE802154E.c **** 
1983:build\openmote-cc2538_armgcc\openstack\02a-MAClow/IEEE802154E.c ****     // abort
1984:build\openmote-cc2538_armgcc\openstack\02a-MAClow/IEEE802154E.c ****     endSlot();
 4710              		.loc 1 1984 0 discriminator 1
 4711 1c3c FFF7FEFF 		bl	endSlot
 4712              	.L263:
1985:build\openmote-cc2538_armgcc\openstack\02a-MAClow/IEEE802154E.c **** }
 4713              		.loc 1 1985 0
 4714 1c40 6037     		adds	r7, r7, #96
 4715              		.cfi_def_cfa_offset 16
 4716 1c42 BD46     		mov	sp, r7
 4717              		.cfi_def_cfa_register 13
 4718              		@ sp needed
 4719 1c44 B0BD     		pop	{r4, r5, r7, pc}
 4720              	.L291:
 4721 1c46 00BF     		.align	2
 4722              	.L290:
 4723 1c48 00000000 		.word	ieee154e_vars
 4724              		.cfi_endproc
 4725              	.LFE41:
 4727              		.align	1
 4728              		.global	activity_ri6
 4729              		.syntax unified
 4730              		.thumb
 4731              		.thumb_func
 4732              		.fpu softvfp
 4734              	activity_ri6:
 4735              	.LFB42:
1986:build\openmote-cc2538_armgcc\openstack\02a-MAClow/IEEE802154E.c **** 
1987:build\openmote-cc2538_armgcc\openstack\02a-MAClow/IEEE802154E.c **** port_INLINE void activity_ri6(void) {
 4736              		.loc 1 1987 0
 4737              		.cfi_startproc
 4738              		@ args = 0, pretend = 0, frame = 0
 4739              		@ frame_needed = 1, uses_anonymous_args = 0
 4740 1c4c 80B5     		push	{r7, lr}
 4741              		.cfi_def_cfa_offset 8
 4742              		.cfi_offset 7, -8
 4743              		.cfi_offset 14, -4
 4744 1c4e 82B0     		sub	sp, sp, #8
 4745              		.cfi_def_cfa_offset 16
 4746 1c50 02AF     		add	r7, sp, #8
 4747              		.cfi_def_cfa 7, 8
1988:build\openmote-cc2538_armgcc\openstack\02a-MAClow/IEEE802154E.c **** 
1989:build\openmote-cc2538_armgcc\openstack\02a-MAClow/IEEE802154E.c ****    // change state
1990:build\openmote-cc2538_armgcc\openstack\02a-MAClow/IEEE802154E.c ****    changeState(S_TXACKPREPARE);
 4748              		.loc 1 1990 0
 4749 1c52 1520     		movs	r0, #21
 4750 1c54 FFF7FEFF 		bl	changeState
1991:build\openmote-cc2538_armgcc\openstack\02a-MAClow/IEEE802154E.c **** #ifdef SLOT_FSM_IMPLEMENTATION_MULTIPLE_TIMER_INTERRUPT
1992:build\openmote-cc2538_armgcc\openstack\02a-MAClow/IEEE802154E.c **** #else
1993:build\openmote-cc2538_armgcc\openstack\02a-MAClow/IEEE802154E.c ****     // arm rt6
1994:build\openmote-cc2538_armgcc\openstack\02a-MAClow/IEEE802154E.c ****     opentimers_scheduleAbsolute(
 4751              		.loc 1 1994 0
 4752 1c58 654B     		ldr	r3, .L296
 4753 1c5a 93F8A801 		ldrb	r0, [r3, #424]	@ zero_extendqisi2
1995:build\openmote-cc2538_armgcc\openstack\02a-MAClow/IEEE802154E.c ****         ieee154e_vars.timerId,                            // timerId
1996:build\openmote-cc2538_armgcc\openstack\02a-MAClow/IEEE802154E.c ****         DURATION_rt6,                                     // duration
 4754              		.loc 1 1996 0
 4755 1c5e 644B     		ldr	r3, .L296
 4756 1c60 D3F87831 		ldr	r3, [r3, #376]
1994:build\openmote-cc2538_armgcc\openstack\02a-MAClow/IEEE802154E.c ****         ieee154e_vars.timerId,                            // timerId
 4757              		.loc 1 1994 0
 4758 1c64 03F11901 		add	r1, r3, #25
 4759 1c68 614B     		ldr	r3, .L296
 4760 1c6a D3F8AC21 		ldr	r2, [r3, #428]
 4761 1c6e 614B     		ldr	r3, .L296+4
 4762 1c70 0093     		str	r3, [sp]
 4763 1c72 0123     		movs	r3, #1
 4764 1c74 FFF7FEFF 		bl	opentimers_scheduleAbsolute
1997:build\openmote-cc2538_armgcc\openstack\02a-MAClow/IEEE802154E.c ****         ieee154e_vars.startOfSlotReference,               // reference
1998:build\openmote-cc2538_armgcc\openstack\02a-MAClow/IEEE802154E.c ****         TIME_TICS,                                        // timetype
1999:build\openmote-cc2538_armgcc\openstack\02a-MAClow/IEEE802154E.c ****         isr_ieee154e_timer                                // callback
2000:build\openmote-cc2538_armgcc\openstack\02a-MAClow/IEEE802154E.c ****     );
2001:build\openmote-cc2538_armgcc\openstack\02a-MAClow/IEEE802154E.c ****     // radiotimer_schedule(DURATION_rt6);
2002:build\openmote-cc2538_armgcc\openstack\02a-MAClow/IEEE802154E.c **** 
2003:build\openmote-cc2538_armgcc\openstack\02a-MAClow/IEEE802154E.c ****     // get a buffer to put the ack to send in
2004:build\openmote-cc2538_armgcc\openstack\02a-MAClow/IEEE802154E.c ****     ieee154e_vars.ackToSend = openqueue_getFreePacketBuffer(COMPONENT_IEEE802154E);
 4765              		.loc 1 2004 0
 4766 1c78 0920     		movs	r0, #9
 4767 1c7a FFF7FEFF 		bl	openqueue_getFreePacketBuffer
 4768 1c7e 0246     		mov	r2, r0
 4769 1c80 5B4B     		ldr	r3, .L296
 4770 1c82 C3F87021 		str	r2, [r3, #368]
2005:build\openmote-cc2538_armgcc\openstack\02a-MAClow/IEEE802154E.c ****     if (ieee154e_vars.ackToSend==NULL) {
 4771              		.loc 1 2005 0
 4772 1c86 5A4B     		ldr	r3, .L296
 4773 1c88 D3F87031 		ldr	r3, [r3, #368]
 4774 1c8c 002B     		cmp	r3, #0
 4775 1c8e 12D1     		bne	.L293
2006:build\openmote-cc2538_armgcc\openstack\02a-MAClow/IEEE802154E.c ****         // log the error
2007:build\openmote-cc2538_armgcc\openstack\02a-MAClow/IEEE802154E.c ****         openserial_printError(COMPONENT_IEEE802154E,ERR_NO_FREE_PACKET_BUFFER,
 4776              		.loc 1 2007 0
 4777 1c90 0023     		movs	r3, #0
 4778 1c92 0022     		movs	r2, #0
 4779 1c94 2D21     		movs	r1, #45
 4780 1c96 0920     		movs	r0, #9
 4781 1c98 FFF7FEFF 		bl	openserial_printError
2008:build\openmote-cc2538_armgcc\openstack\02a-MAClow/IEEE802154E.c ****                             (errorparameter_t)0,
2009:build\openmote-cc2538_armgcc\openstack\02a-MAClow/IEEE802154E.c ****                             (errorparameter_t)0);
2010:build\openmote-cc2538_armgcc\openstack\02a-MAClow/IEEE802154E.c ****         // indicate we received a packet anyway (we don't want to loose any)
2011:build\openmote-cc2538_armgcc\openstack\02a-MAClow/IEEE802154E.c ****         notif_receive(ieee154e_vars.dataReceived);
 4782              		.loc 1 2011 0
 4783 1c9c 544B     		ldr	r3, .L296
 4784 1c9e D3F86C31 		ldr	r3, [r3, #364]
 4785 1ca2 1846     		mov	r0, r3
 4786 1ca4 FFF7FEFF 		bl	notif_receive
2012:build\openmote-cc2538_armgcc\openstack\02a-MAClow/IEEE802154E.c ****         // free local variable
2013:build\openmote-cc2538_armgcc\openstack\02a-MAClow/IEEE802154E.c ****         ieee154e_vars.dataReceived = NULL;
 4787              		.loc 1 2013 0
 4788 1ca8 514B     		ldr	r3, .L296
 4789 1caa 0022     		movs	r2, #0
 4790 1cac C3F86C21 		str	r2, [r3, #364]
2014:build\openmote-cc2538_armgcc\openstack\02a-MAClow/IEEE802154E.c ****         // abort
2015:build\openmote-cc2538_armgcc\openstack\02a-MAClow/IEEE802154E.c ****         endSlot();
 4791              		.loc 1 2015 0
 4792 1cb0 FFF7FEFF 		bl	endSlot
2016:build\openmote-cc2538_armgcc\openstack\02a-MAClow/IEEE802154E.c ****         return;
 4793              		.loc 1 2016 0
 4794 1cb4 9AE0     		b	.L292
 4795              	.L293:
2017:build\openmote-cc2538_armgcc\openstack\02a-MAClow/IEEE802154E.c ****     }
2018:build\openmote-cc2538_armgcc\openstack\02a-MAClow/IEEE802154E.c **** 
2019:build\openmote-cc2538_armgcc\openstack\02a-MAClow/IEEE802154E.c ****     // declare ownership over that packet
2020:build\openmote-cc2538_armgcc\openstack\02a-MAClow/IEEE802154E.c ****     ieee154e_vars.ackToSend->creator = COMPONENT_IEEE802154E;
 4796              		.loc 1 2020 0
 4797 1cb6 4E4B     		ldr	r3, .L296
 4798 1cb8 D3F87031 		ldr	r3, [r3, #368]
 4799 1cbc 0922     		movs	r2, #9
 4800 1cbe 1A70     		strb	r2, [r3]
2021:build\openmote-cc2538_armgcc\openstack\02a-MAClow/IEEE802154E.c ****     ieee154e_vars.ackToSend->owner   = COMPONENT_IEEE802154E;
 4801              		.loc 1 2021 0
 4802 1cc0 4B4B     		ldr	r3, .L296
 4803 1cc2 D3F87031 		ldr	r3, [r3, #368]
 4804 1cc6 0922     		movs	r2, #9
 4805 1cc8 5A70     		strb	r2, [r3, #1]
2022:build\openmote-cc2538_armgcc\openstack\02a-MAClow/IEEE802154E.c **** 
2023:build\openmote-cc2538_armgcc\openstack\02a-MAClow/IEEE802154E.c ****     // calculate the time timeCorrection (this is the time the sender is off w.r.t to this node. A 
2024:build\openmote-cc2538_armgcc\openstack\02a-MAClow/IEEE802154E.c ****     // the sender is too late.
2025:build\openmote-cc2538_armgcc\openstack\02a-MAClow/IEEE802154E.c ****     ieee154e_vars.timeCorrection = (PORT_SIGNED_INT_WIDTH)((PORT_SIGNED_INT_WIDTH)TsTxOffset-(PORT_
 4806              		.loc 1 2025 0
 4807 1cca 494B     		ldr	r3, .L296
 4808 1ccc D3F87C31 		ldr	r3, [r3, #380]
 4809 1cd0 9BB2     		uxth	r3, r3
 4810 1cd2 C3F14603 		rsb	r3, r3, #70
 4811 1cd6 9BB2     		uxth	r3, r3
 4812 1cd8 1AB2     		sxth	r2, r3
 4813 1cda 454B     		ldr	r3, .L296
 4814 1cdc A3F8A421 		strh	r2, [r3, #420]	@ movhi
2026:build\openmote-cc2538_armgcc\openstack\02a-MAClow/IEEE802154E.c **** 
2027:build\openmote-cc2538_armgcc\openstack\02a-MAClow/IEEE802154E.c ****     // prepend the IEEE802.15.4 header to the ACK
2028:build\openmote-cc2538_armgcc\openstack\02a-MAClow/IEEE802154E.c ****     ieee154e_vars.ackToSend->l2_frameType = IEEE154_TYPE_ACK;
 4815              		.loc 1 2028 0
 4816 1ce0 434B     		ldr	r3, .L296
 4817 1ce2 D3F87031 		ldr	r3, [r3, #368]
 4818 1ce6 0222     		movs	r2, #2
 4819 1ce8 83F85220 		strb	r2, [r3, #82]
2029:build\openmote-cc2538_armgcc\openstack\02a-MAClow/IEEE802154E.c ****     ieee154e_vars.ackToSend->l2_dsn       = ieee154e_vars.dataReceived->l2_dsn;
 4820              		.loc 1 2029 0
 4821 1cec 404B     		ldr	r3, .L296
 4822 1cee D3F86C21 		ldr	r2, [r3, #364]
 4823 1cf2 3F4B     		ldr	r3, .L296
 4824 1cf4 D3F87031 		ldr	r3, [r3, #368]
 4825 1cf8 92F85320 		ldrb	r2, [r2, #83]	@ zero_extendqisi2
 4826 1cfc 83F85320 		strb	r2, [r3, #83]
2030:build\openmote-cc2538_armgcc\openstack\02a-MAClow/IEEE802154E.c **** 
2031:build\openmote-cc2538_armgcc\openstack\02a-MAClow/IEEE802154E.c ****     // To send ACK, we use the same security level (including NOSEC) and keys
2032:build\openmote-cc2538_armgcc\openstack\02a-MAClow/IEEE802154E.c ****     // that were present in the DATA packet.
2033:build\openmote-cc2538_armgcc\openstack\02a-MAClow/IEEE802154E.c ****     ieee154e_vars.ackToSend->l2_securityLevel = ieee154e_vars.dataReceived->l2_securityLevel;
 4827              		.loc 1 2033 0
 4828 1d00 3B4B     		ldr	r3, .L296
 4829 1d02 D3F86C21 		ldr	r2, [r3, #364]
 4830 1d06 3A4B     		ldr	r3, .L296
 4831 1d08 D3F87031 		ldr	r3, [r3, #368]
 4832 1d0c 92F8A920 		ldrb	r2, [r2, #169]	@ zero_extendqisi2
 4833 1d10 83F8A920 		strb	r2, [r3, #169]
2034:build\openmote-cc2538_armgcc\openstack\02a-MAClow/IEEE802154E.c ****     ieee154e_vars.ackToSend->l2_keyIdMode     = ieee154e_vars.dataReceived->l2_keyIdMode;
 4834              		.loc 1 2034 0
 4835 1d14 364B     		ldr	r3, .L296
 4836 1d16 D3F86C21 		ldr	r2, [r3, #364]
 4837 1d1a 354B     		ldr	r3, .L296
 4838 1d1c D3F87031 		ldr	r3, [r3, #368]
 4839 1d20 92F8AA20 		ldrb	r2, [r2, #170]	@ zero_extendqisi2
 4840 1d24 83F8AA20 		strb	r2, [r3, #170]
2035:build\openmote-cc2538_armgcc\openstack\02a-MAClow/IEEE802154E.c ****     ieee154e_vars.ackToSend->l2_keyIndex      = ieee154e_vars.dataReceived->l2_keyIndex;
 4841              		.loc 1 2035 0
 4842 1d28 314B     		ldr	r3, .L296
 4843 1d2a D3F86C21 		ldr	r2, [r3, #364]
 4844 1d2e 304B     		ldr	r3, .L296
 4845 1d30 D3F87031 		ldr	r3, [r3, #368]
 4846 1d34 92F8AB20 		ldrb	r2, [r2, #171]	@ zero_extendqisi2
 4847 1d38 83F8AB20 		strb	r2, [r3, #171]
2036:build\openmote-cc2538_armgcc\openstack\02a-MAClow/IEEE802154E.c **** 
2037:build\openmote-cc2538_armgcc\openstack\02a-MAClow/IEEE802154E.c ****     ieee802154_prependHeader(ieee154e_vars.ackToSend,
 4848              		.loc 1 2037 0
 4849 1d3c 2C4B     		ldr	r3, .L296
 4850 1d3e D3F87001 		ldr	r0, [r3, #368]
2038:build\openmote-cc2538_armgcc\openstack\02a-MAClow/IEEE802154E.c ****                             ieee154e_vars.ackToSend->l2_frameType,
 4851              		.loc 1 2038 0
 4852 1d42 2B4B     		ldr	r3, .L296
 4853 1d44 D3F87031 		ldr	r3, [r3, #368]
2037:build\openmote-cc2538_armgcc\openstack\02a-MAClow/IEEE802154E.c ****                             ieee154e_vars.ackToSend->l2_frameType,
 4854              		.loc 1 2037 0
 4855 1d48 93F85210 		ldrb	r1, [r3, #82]	@ zero_extendqisi2
2039:build\openmote-cc2538_armgcc\openstack\02a-MAClow/IEEE802154E.c ****                             FALSE,//no payloadIE in ack
2040:build\openmote-cc2538_armgcc\openstack\02a-MAClow/IEEE802154E.c ****                             ieee154e_vars.dataReceived->l2_dsn,
 4856              		.loc 1 2040 0
 4857 1d4c 284B     		ldr	r3, .L296
 4858 1d4e D3F86C31 		ldr	r3, [r3, #364]
2037:build\openmote-cc2538_armgcc\openstack\02a-MAClow/IEEE802154E.c ****                             ieee154e_vars.ackToSend->l2_frameType,
 4859              		.loc 1 2037 0
 4860 1d52 93F85320 		ldrb	r2, [r3, #83]	@ zero_extendqisi2
2041:build\openmote-cc2538_armgcc\openstack\02a-MAClow/IEEE802154E.c ****                             &(ieee154e_vars.dataReceived->l2_nextORpreviousHop)
 4861              		.loc 1 2041 0
 4862 1d56 264B     		ldr	r3, .L296
 4863 1d58 D3F86C31 		ldr	r3, [r3, #364]
2037:build\openmote-cc2538_armgcc\openstack\02a-MAClow/IEEE802154E.c ****                             ieee154e_vars.ackToSend->l2_frameType,
 4864              		.loc 1 2037 0
 4865 1d5c 4133     		adds	r3, r3, #65
 4866 1d5e 0093     		str	r3, [sp]
 4867 1d60 1346     		mov	r3, r2
 4868 1d62 0022     		movs	r2, #0
 4869 1d64 FFF7FEFF 		bl	ieee802154_prependHeader
2042:build\openmote-cc2538_armgcc\openstack\02a-MAClow/IEEE802154E.c ****                             );
2043:build\openmote-cc2538_armgcc\openstack\02a-MAClow/IEEE802154E.c **** 
2044:build\openmote-cc2538_armgcc\openstack\02a-MAClow/IEEE802154E.c ****     // if security is enabled, encrypt directly in OpenQueue as there are no retransmissions for AC
2045:build\openmote-cc2538_armgcc\openstack\02a-MAClow/IEEE802154E.c ****     if (ieee154e_vars.ackToSend->l2_securityLevel != IEEE154_ASH_SLF_TYPE_NOSEC) {
 4870              		.loc 1 2045 0
 4871 1d68 214B     		ldr	r3, .L296
 4872 1d6a D3F87031 		ldr	r3, [r3, #368]
 4873 1d6e 93F8A930 		ldrb	r3, [r3, #169]	@ zero_extendqisi2
 4874 1d72 002B     		cmp	r3, #0
 4875 1d74 11D0     		beq	.L295
2046:build\openmote-cc2538_armgcc\openstack\02a-MAClow/IEEE802154E.c ****         if (IEEE802154_security_outgoingFrameSecurity(ieee154e_vars.ackToSend) != E_SUCCESS) {
 4876              		.loc 1 2046 0
 4877 1d76 1E4B     		ldr	r3, .L296
 4878 1d78 D3F87031 		ldr	r3, [r3, #368]
 4879 1d7c 1846     		mov	r0, r3
 4880 1d7e FFF7FEFF 		bl	IEEE802154_security_outgoingFrameSecurity
 4881 1d82 0346     		mov	r3, r0
 4882 1d84 002B     		cmp	r3, #0
 4883 1d86 08D0     		beq	.L295
2047:build\openmote-cc2538_armgcc\openstack\02a-MAClow/IEEE802154E.c ****             openqueue_freePacketBuffer(ieee154e_vars.ackToSend);
 4884              		.loc 1 2047 0
 4885 1d88 194B     		ldr	r3, .L296
 4886 1d8a D3F87031 		ldr	r3, [r3, #368]
 4887 1d8e 1846     		mov	r0, r3
 4888 1d90 FFF7FEFF 		bl	openqueue_freePacketBuffer
2048:build\openmote-cc2538_armgcc\openstack\02a-MAClow/IEEE802154E.c ****             endSlot();
 4889              		.loc 1 2048 0
 4890 1d94 FFF7FEFF 		bl	endSlot
2049:build\openmote-cc2538_armgcc\openstack\02a-MAClow/IEEE802154E.c ****             return;
 4891              		.loc 1 2049 0
 4892 1d98 28E0     		b	.L292
 4893              	.L295:
2050:build\openmote-cc2538_armgcc\openstack\02a-MAClow/IEEE802154E.c ****         }
2051:build\openmote-cc2538_armgcc\openstack\02a-MAClow/IEEE802154E.c ****     }
2052:build\openmote-cc2538_armgcc\openstack\02a-MAClow/IEEE802154E.c ****     // space for 2-byte CRC
2053:build\openmote-cc2538_armgcc\openstack\02a-MAClow/IEEE802154E.c ****     packetfunctions_reserveFooterSize(ieee154e_vars.ackToSend,2);
 4894              		.loc 1 2053 0
 4895 1d9a 154B     		ldr	r3, .L296
 4896 1d9c D3F87031 		ldr	r3, [r3, #368]
 4897 1da0 0221     		movs	r1, #2
 4898 1da2 1846     		mov	r0, r3
 4899 1da4 FFF7FEFF 		bl	packetfunctions_reserveFooterSize
2054:build\openmote-cc2538_armgcc\openstack\02a-MAClow/IEEE802154E.c ****     // configure the radio for that frequency
2055:build\openmote-cc2538_armgcc\openstack\02a-MAClow/IEEE802154E.c ****     radio_setFrequency(ieee154e_vars.freq);
 4900              		.loc 1 2055 0
 4901 1da8 114B     		ldr	r3, .L296
 4902 1daa 93F88031 		ldrb	r3, [r3, #384]	@ zero_extendqisi2
 4903 1dae 1846     		mov	r0, r3
 4904 1db0 FFF7FEFF 		bl	radio_setFrequency
2056:build\openmote-cc2538_armgcc\openstack\02a-MAClow/IEEE802154E.c **** 
2057:build\openmote-cc2538_armgcc\openstack\02a-MAClow/IEEE802154E.c ****     // load the packet in the radio's Tx buffer
2058:build\openmote-cc2538_armgcc\openstack\02a-MAClow/IEEE802154E.c ****     radio_loadPacket(ieee154e_vars.ackToSend->payload,
 4905              		.loc 1 2058 0
 4906 1db4 0E4B     		ldr	r3, .L296
 4907 1db6 D3F87031 		ldr	r3, [r3, #368]
 4908 1dba 5A68     		ldr	r2, [r3, #4]
2059:build\openmote-cc2538_armgcc\openstack\02a-MAClow/IEEE802154E.c ****                     ieee154e_vars.ackToSend->length);
 4909              		.loc 1 2059 0
 4910 1dbc 0C4B     		ldr	r3, .L296
 4911 1dbe D3F87031 		ldr	r3, [r3, #368]
 4912 1dc2 1B7A     		ldrb	r3, [r3, #8]	@ zero_extendqisi2
2058:build\openmote-cc2538_armgcc\openstack\02a-MAClow/IEEE802154E.c ****                     ieee154e_vars.ackToSend->length);
 4913              		.loc 1 2058 0
 4914 1dc4 9BB2     		uxth	r3, r3
 4915 1dc6 1946     		mov	r1, r3
 4916 1dc8 1046     		mov	r0, r2
 4917 1dca FFF7FEFF 		bl	radio_loadPacket
2060:build\openmote-cc2538_armgcc\openstack\02a-MAClow/IEEE802154E.c **** #endif
2061:build\openmote-cc2538_armgcc\openstack\02a-MAClow/IEEE802154E.c ****     // enable the radio in Tx mode. This does not send that packet.
2062:build\openmote-cc2538_armgcc\openstack\02a-MAClow/IEEE802154E.c ****     radio_txEnable();
 4918              		.loc 1 2062 0
 4919 1dce FFF7FEFF 		bl	radio_txEnable
2063:build\openmote-cc2538_armgcc\openstack\02a-MAClow/IEEE802154E.c ****     ieee154e_vars.radioOnInit=sctimer_readCounter();
 4920              		.loc 1 2063 0
 4921 1dd2 FFF7FEFF 		bl	sctimer_readCounter
 4922 1dd6 0246     		mov	r2, r0
 4923 1dd8 054B     		ldr	r3, .L296
 4924 1dda C3F89821 		str	r2, [r3, #408]
2064:build\openmote-cc2538_armgcc\openstack\02a-MAClow/IEEE802154E.c ****     ieee154e_vars.radioOnThisSlot=TRUE;
 4925              		.loc 1 2064 0
 4926 1dde 044B     		ldr	r3, .L296
 4927 1de0 0122     		movs	r2, #1
 4928 1de2 83F8A021 		strb	r2, [r3, #416]
2065:build\openmote-cc2538_armgcc\openstack\02a-MAClow/IEEE802154E.c ****     // change state
2066:build\openmote-cc2538_armgcc\openstack\02a-MAClow/IEEE802154E.c ****     changeState(S_TXACKREADY);
 4929              		.loc 1 2066 0
 4930 1de6 1620     		movs	r0, #22
 4931 1de8 FFF7FEFF 		bl	changeState
 4932              	.L292:
2067:build\openmote-cc2538_armgcc\openstack\02a-MAClow/IEEE802154E.c **** #ifdef SLOT_FSM_IMPLEMENTATION_MULTIPLE_TIMER_INTERRUPT
2068:build\openmote-cc2538_armgcc\openstack\02a-MAClow/IEEE802154E.c ****     changeState(S_TXACKDELAY);
2069:build\openmote-cc2538_armgcc\openstack\02a-MAClow/IEEE802154E.c **** #endif
2070:build\openmote-cc2538_armgcc\openstack\02a-MAClow/IEEE802154E.c **** }
 4933              		.loc 1 2070 0
 4934 1dec BD46     		mov	sp, r7
 4935              		.cfi_def_cfa_register 13
 4936              		@ sp needed
 4937 1dee 80BD     		pop	{r7, pc}
 4938              	.L297:
 4939              		.align	2
 4940              	.L296:
 4941 1df0 00000000 		.word	ieee154e_vars
 4942 1df4 00000000 		.word	isr_ieee154e_timer
 4943              		.cfi_endproc
 4944              	.LFE42:
 4946              		.align	1
 4947              		.global	activity_rie4
 4948              		.syntax unified
 4949              		.thumb
 4950              		.thumb_func
 4951              		.fpu softvfp
 4953              	activity_rie4:
 4954              	.LFB43:
2071:build\openmote-cc2538_armgcc\openstack\02a-MAClow/IEEE802154E.c **** 
2072:build\openmote-cc2538_armgcc\openstack\02a-MAClow/IEEE802154E.c **** port_INLINE void activity_rie4(void) {
 4955              		.loc 1 2072 0
 4956              		.cfi_startproc
 4957              		@ args = 0, pretend = 0, frame = 0
 4958              		@ frame_needed = 1, uses_anonymous_args = 0
 4959 1df8 80B5     		push	{r7, lr}
 4960              		.cfi_def_cfa_offset 8
 4961              		.cfi_offset 7, -8
 4962              		.cfi_offset 14, -4
 4963 1dfa 00AF     		add	r7, sp, #0
 4964              		.cfi_def_cfa_register 7
2073:build\openmote-cc2538_armgcc\openstack\02a-MAClow/IEEE802154E.c ****     // log the error
2074:build\openmote-cc2538_armgcc\openstack\02a-MAClow/IEEE802154E.c ****     openserial_printError(COMPONENT_IEEE802154E,ERR_MAXTXACKPREPARE_OVERFLOWS,
2075:build\openmote-cc2538_armgcc\openstack\02a-MAClow/IEEE802154E.c ****                          (errorparameter_t)ieee154e_vars.state,
 4965              		.loc 1 2075 0
 4966 1dfc 064B     		ldr	r3, .L299
 4967 1dfe 93F86431 		ldrb	r3, [r3, #356]	@ zero_extendqisi2
2074:build\openmote-cc2538_armgcc\openstack\02a-MAClow/IEEE802154E.c ****                          (errorparameter_t)ieee154e_vars.state,
 4968              		.loc 1 2074 0
 4969 1e02 9AB2     		uxth	r2, r3
2076:build\openmote-cc2538_armgcc\openstack\02a-MAClow/IEEE802154E.c ****                          (errorparameter_t)ieee154e_vars.slotOffset);
 4970              		.loc 1 2076 0
 4971 1e04 044B     		ldr	r3, .L299
 4972 1e06 DB88     		ldrh	r3, [r3, #6]
2074:build\openmote-cc2538_armgcc\openstack\02a-MAClow/IEEE802154E.c ****                          (errorparameter_t)ieee154e_vars.state,
 4973              		.loc 1 2074 0
 4974 1e08 2621     		movs	r1, #38
 4975 1e0a 0920     		movs	r0, #9
 4976 1e0c FFF7FEFF 		bl	openserial_printError
2077:build\openmote-cc2538_armgcc\openstack\02a-MAClow/IEEE802154E.c **** 
2078:build\openmote-cc2538_armgcc\openstack\02a-MAClow/IEEE802154E.c ****     // abort
2079:build\openmote-cc2538_armgcc\openstack\02a-MAClow/IEEE802154E.c ****     endSlot();
 4977              		.loc 1 2079 0
 4978 1e10 FFF7FEFF 		bl	endSlot
2080:build\openmote-cc2538_armgcc\openstack\02a-MAClow/IEEE802154E.c **** }
 4979              		.loc 1 2080 0
 4980 1e14 00BF     		nop
 4981 1e16 80BD     		pop	{r7, pc}
 4982              	.L300:
 4983              		.align	2
 4984              	.L299:
 4985 1e18 00000000 		.word	ieee154e_vars
 4986              		.cfi_endproc
 4987              	.LFE43:
 4989              		.align	1
 4990              		.global	activity_ri7
 4991              		.syntax unified
 4992              		.thumb
 4993              		.thumb_func
 4994              		.fpu softvfp
 4996              	activity_ri7:
 4997              	.LFB44:
2081:build\openmote-cc2538_armgcc\openstack\02a-MAClow/IEEE802154E.c **** 
2082:build\openmote-cc2538_armgcc\openstack\02a-MAClow/IEEE802154E.c **** port_INLINE void activity_ri7(void) {
 4998              		.loc 1 2082 0
 4999              		.cfi_startproc
 5000              		@ args = 0, pretend = 0, frame = 0
 5001              		@ frame_needed = 1, uses_anonymous_args = 0
 5002 1e1c 80B5     		push	{r7, lr}
 5003              		.cfi_def_cfa_offset 8
 5004              		.cfi_offset 7, -8
 5005              		.cfi_offset 14, -4
 5006 1e1e 82B0     		sub	sp, sp, #8
 5007              		.cfi_def_cfa_offset 16
 5008 1e20 02AF     		add	r7, sp, #8
 5009              		.cfi_def_cfa 7, 8
2083:build\openmote-cc2538_armgcc\openstack\02a-MAClow/IEEE802154E.c ****     // change state
2084:build\openmote-cc2538_armgcc\openstack\02a-MAClow/IEEE802154E.c ****     changeState(S_TXACKDELAY);
 5010              		.loc 1 2084 0
 5011 1e22 1720     		movs	r0, #23
 5012 1e24 FFF7FEFF 		bl	changeState
2085:build\openmote-cc2538_armgcc\openstack\02a-MAClow/IEEE802154E.c **** #ifdef SLOT_FSM_IMPLEMENTATION_MULTIPLE_TIMER_INTERRUPT
2086:build\openmote-cc2538_armgcc\openstack\02a-MAClow/IEEE802154E.c **** #else
2087:build\openmote-cc2538_armgcc\openstack\02a-MAClow/IEEE802154E.c ****     // arm rt7
2088:build\openmote-cc2538_armgcc\openstack\02a-MAClow/IEEE802154E.c ****     opentimers_scheduleAbsolute(
 5013              		.loc 1 2088 0
 5014 1e28 0A4B     		ldr	r3, .L302
 5015 1e2a 93F8A801 		ldrb	r0, [r3, #424]	@ zero_extendqisi2
2089:build\openmote-cc2538_armgcc\openstack\02a-MAClow/IEEE802154E.c ****         ieee154e_vars.timerId,                            // timerId
2090:build\openmote-cc2538_armgcc\openstack\02a-MAClow/IEEE802154E.c ****         DURATION_rt7,                                     // duration
 5016              		.loc 1 2090 0
 5017 1e2e 094B     		ldr	r3, .L302
 5018 1e30 D3F87831 		ldr	r3, [r3, #376]
2088:build\openmote-cc2538_armgcc\openstack\02a-MAClow/IEEE802154E.c ****         ieee154e_vars.timerId,                            // timerId
 5019              		.loc 1 2088 0
 5020 1e34 03F14601 		add	r1, r3, #70
 5021 1e38 064B     		ldr	r3, .L302
 5022 1e3a D3F8AC21 		ldr	r2, [r3, #428]
 5023 1e3e 064B     		ldr	r3, .L302+4
 5024 1e40 0093     		str	r3, [sp]
 5025 1e42 0123     		movs	r3, #1
 5026 1e44 FFF7FEFF 		bl	opentimers_scheduleAbsolute
2091:build\openmote-cc2538_armgcc\openstack\02a-MAClow/IEEE802154E.c ****         ieee154e_vars.startOfSlotReference,               // reference
2092:build\openmote-cc2538_armgcc\openstack\02a-MAClow/IEEE802154E.c ****         TIME_TICS,                                        // timetype
2093:build\openmote-cc2538_armgcc\openstack\02a-MAClow/IEEE802154E.c ****         isr_ieee154e_timer                                // callback
2094:build\openmote-cc2538_armgcc\openstack\02a-MAClow/IEEE802154E.c ****     );
2095:build\openmote-cc2538_armgcc\openstack\02a-MAClow/IEEE802154E.c ****     // radiotimer_schedule(DURATION_rt7);
2096:build\openmote-cc2538_armgcc\openstack\02a-MAClow/IEEE802154E.c **** 
2097:build\openmote-cc2538_armgcc\openstack\02a-MAClow/IEEE802154E.c ****     // give the 'go' to transmit
2098:build\openmote-cc2538_armgcc\openstack\02a-MAClow/IEEE802154E.c ****     radio_txNow();
 5027              		.loc 1 2098 0
 5028 1e48 FFF7FEFF 		bl	radio_txNow
2099:build\openmote-cc2538_armgcc\openstack\02a-MAClow/IEEE802154E.c **** #endif
2100:build\openmote-cc2538_armgcc\openstack\02a-MAClow/IEEE802154E.c **** }
 5029              		.loc 1 2100 0
 5030 1e4c 00BF     		nop
 5031 1e4e BD46     		mov	sp, r7
 5032              		.cfi_def_cfa_register 13
 5033              		@ sp needed
 5034 1e50 80BD     		pop	{r7, pc}
 5035              	.L303:
 5036 1e52 00BF     		.align	2
 5037              	.L302:
 5038 1e54 00000000 		.word	ieee154e_vars
 5039 1e58 00000000 		.word	isr_ieee154e_timer
 5040              		.cfi_endproc
 5041              	.LFE44:
 5043              		.align	1
 5044              		.global	activity_rie5
 5045              		.syntax unified
 5046              		.thumb
 5047              		.thumb_func
 5048              		.fpu softvfp
 5050              	activity_rie5:
 5051              	.LFB45:
2101:build\openmote-cc2538_armgcc\openstack\02a-MAClow/IEEE802154E.c **** 
2102:build\openmote-cc2538_armgcc\openstack\02a-MAClow/IEEE802154E.c **** port_INLINE void activity_rie5(void) {
 5052              		.loc 1 2102 0
 5053              		.cfi_startproc
 5054              		@ args = 0, pretend = 0, frame = 0
 5055              		@ frame_needed = 1, uses_anonymous_args = 0
 5056 1e5c 80B5     		push	{r7, lr}
 5057              		.cfi_def_cfa_offset 8
 5058              		.cfi_offset 7, -8
 5059              		.cfi_offset 14, -4
 5060 1e5e 00AF     		add	r7, sp, #0
 5061              		.cfi_def_cfa_register 7
2103:build\openmote-cc2538_armgcc\openstack\02a-MAClow/IEEE802154E.c ****     // log the error
2104:build\openmote-cc2538_armgcc\openstack\02a-MAClow/IEEE802154E.c ****     openserial_printError(COMPONENT_IEEE802154E,ERR_WDRADIOTX_OVERFLOWS,
2105:build\openmote-cc2538_armgcc\openstack\02a-MAClow/IEEE802154E.c ****                          (errorparameter_t)ieee154e_vars.state,
 5062              		.loc 1 2105 0
 5063 1e60 064B     		ldr	r3, .L305
 5064 1e62 93F86431 		ldrb	r3, [r3, #356]	@ zero_extendqisi2
2104:build\openmote-cc2538_armgcc\openstack\02a-MAClow/IEEE802154E.c ****                          (errorparameter_t)ieee154e_vars.state,
 5065              		.loc 1 2104 0
 5066 1e66 9AB2     		uxth	r2, r3
2106:build\openmote-cc2538_armgcc\openstack\02a-MAClow/IEEE802154E.c ****                          (errorparameter_t)ieee154e_vars.slotOffset);
 5067              		.loc 1 2106 0
 5068 1e68 044B     		ldr	r3, .L305
 5069 1e6a DB88     		ldrh	r3, [r3, #6]
2104:build\openmote-cc2538_armgcc\openstack\02a-MAClow/IEEE802154E.c ****                          (errorparameter_t)ieee154e_vars.state,
 5070              		.loc 1 2104 0
 5071 1e6c 2921     		movs	r1, #41
 5072 1e6e 0920     		movs	r0, #9
 5073 1e70 FFF7FEFF 		bl	openserial_printError
2107:build\openmote-cc2538_armgcc\openstack\02a-MAClow/IEEE802154E.c **** 
2108:build\openmote-cc2538_armgcc\openstack\02a-MAClow/IEEE802154E.c ****     // abort
2109:build\openmote-cc2538_armgcc\openstack\02a-MAClow/IEEE802154E.c ****     endSlot();
 5074              		.loc 1 2109 0
 5075 1e74 FFF7FEFF 		bl	endSlot
2110:build\openmote-cc2538_armgcc\openstack\02a-MAClow/IEEE802154E.c **** }
 5076              		.loc 1 2110 0
 5077 1e78 00BF     		nop
 5078 1e7a 80BD     		pop	{r7, pc}
 5079              	.L306:
 5080              		.align	2
 5081              	.L305:
 5082 1e7c 00000000 		.word	ieee154e_vars
 5083              		.cfi_endproc
 5084              	.LFE45:
 5086              		.align	1
 5087              		.global	activity_ri8
 5088              		.syntax unified
 5089              		.thumb
 5090              		.thumb_func
 5091              		.fpu softvfp
 5093              	activity_ri8:
 5094              	.LFB46:
2111:build\openmote-cc2538_armgcc\openstack\02a-MAClow/IEEE802154E.c **** 
2112:build\openmote-cc2538_armgcc\openstack\02a-MAClow/IEEE802154E.c **** port_INLINE void activity_ri8(PORT_TIMER_WIDTH capturedTime) {
 5095              		.loc 1 2112 0
 5096              		.cfi_startproc
 5097              		@ args = 0, pretend = 0, frame = 8
 5098              		@ frame_needed = 1, uses_anonymous_args = 0
 5099 1e80 80B5     		push	{r7, lr}
 5100              		.cfi_def_cfa_offset 8
 5101              		.cfi_offset 7, -8
 5102              		.cfi_offset 14, -4
 5103 1e82 84B0     		sub	sp, sp, #16
 5104              		.cfi_def_cfa_offset 24
 5105 1e84 02AF     		add	r7, sp, #8
 5106              		.cfi_def_cfa 7, 16
 5107 1e86 7860     		str	r0, [r7, #4]
2113:build\openmote-cc2538_armgcc\openstack\02a-MAClow/IEEE802154E.c ****     // change state
2114:build\openmote-cc2538_armgcc\openstack\02a-MAClow/IEEE802154E.c ****     changeState(S_TXACK);
 5108              		.loc 1 2114 0
 5109 1e88 1820     		movs	r0, #24
 5110 1e8a FFF7FEFF 		bl	changeState
2115:build\openmote-cc2538_armgcc\openstack\02a-MAClow/IEEE802154E.c **** #ifdef SLOT_FSM_IMPLEMENTATION_MULTIPLE_TIMER_INTERRUPT
2116:build\openmote-cc2538_armgcc\openstack\02a-MAClow/IEEE802154E.c ****     // cancel rt7
2117:build\openmote-cc2538_armgcc\openstack\02a-MAClow/IEEE802154E.c ****     sctimer_actionCancel(ACTION_SET_TIMEOUT);
2118:build\openmote-cc2538_armgcc\openstack\02a-MAClow/IEEE802154E.c **** #else
2119:build\openmote-cc2538_armgcc\openstack\02a-MAClow/IEEE802154E.c ****     // cancel rt7
2120:build\openmote-cc2538_armgcc\openstack\02a-MAClow/IEEE802154E.c ****     opentimers_scheduleAbsolute(
 5111              		.loc 1 2120 0
 5112 1e8e 134B     		ldr	r3, .L308
 5113 1e90 93F8A801 		ldrb	r0, [r3, #424]	@ zero_extendqisi2
2121:build\openmote-cc2538_armgcc\openstack\02a-MAClow/IEEE802154E.c ****         ieee154e_vars.timerId,                            // timerId
2122:build\openmote-cc2538_armgcc\openstack\02a-MAClow/IEEE802154E.c ****         ieee154e_vars.slotDuration,                       // duration
 5114              		.loc 1 2122 0
 5115 1e94 114B     		ldr	r3, .L308
 5116 1e96 B3F8A631 		ldrh	r3, [r3, #422]
2120:build\openmote-cc2538_armgcc\openstack\02a-MAClow/IEEE802154E.c ****         ieee154e_vars.timerId,                            // timerId
 5117              		.loc 1 2120 0
 5118 1e9a 1946     		mov	r1, r3
 5119 1e9c 0F4B     		ldr	r3, .L308
 5120 1e9e D3F8AC21 		ldr	r2, [r3, #428]
 5121 1ea2 0F4B     		ldr	r3, .L308+4
 5122 1ea4 0093     		str	r3, [sp]
 5123 1ea6 0123     		movs	r3, #1
 5124 1ea8 FFF7FEFF 		bl	opentimers_scheduleAbsolute
2123:build\openmote-cc2538_armgcc\openstack\02a-MAClow/IEEE802154E.c ****         ieee154e_vars.startOfSlotReference,               // reference
2124:build\openmote-cc2538_armgcc\openstack\02a-MAClow/IEEE802154E.c ****         TIME_TICS,                                        // timetype
2125:build\openmote-cc2538_armgcc\openstack\02a-MAClow/IEEE802154E.c ****         isr_ieee154e_newSlot                              // callback
2126:build\openmote-cc2538_armgcc\openstack\02a-MAClow/IEEE802154E.c ****     );
2127:build\openmote-cc2538_armgcc\openstack\02a-MAClow/IEEE802154E.c ****     // radiotimer_cancel();
2128:build\openmote-cc2538_armgcc\openstack\02a-MAClow/IEEE802154E.c **** #endif
2129:build\openmote-cc2538_armgcc\openstack\02a-MAClow/IEEE802154E.c ****     // record the captured time
2130:build\openmote-cc2538_armgcc\openstack\02a-MAClow/IEEE802154E.c ****     ieee154e_vars.lastCapturedTime = capturedTime;
 5125              		.loc 1 2130 0
 5126 1eac 0B4A     		ldr	r2, .L308
 5127 1eae 7B68     		ldr	r3, [r7, #4]
 5128 1eb0 C2F87831 		str	r3, [r2, #376]
2131:build\openmote-cc2538_armgcc\openstack\02a-MAClow/IEEE802154E.c **** #ifdef SLOT_FSM_IMPLEMENTATION_MULTIPLE_TIMER_INTERRUPT
2132:build\openmote-cc2538_armgcc\openstack\02a-MAClow/IEEE802154E.c ****     // arm rt8
2133:build\openmote-cc2538_armgcc\openstack\02a-MAClow/IEEE802154E.c ****     sctimer_scheduleActionIn(ACTION_SET_TIMEOUT,ieee154e_vars.startOfSlotReference+DURATION_rt8);
2134:build\openmote-cc2538_armgcc\openstack\02a-MAClow/IEEE802154E.c **** #else
2135:build\openmote-cc2538_armgcc\openstack\02a-MAClow/IEEE802154E.c ****     // arm rt8
2136:build\openmote-cc2538_armgcc\openstack\02a-MAClow/IEEE802154E.c ****     opentimers_scheduleAbsolute(
 5129              		.loc 1 2136 0
 5130 1eb4 094B     		ldr	r3, .L308
 5131 1eb6 93F8A801 		ldrb	r0, [r3, #424]	@ zero_extendqisi2
2137:build\openmote-cc2538_armgcc\openstack\02a-MAClow/IEEE802154E.c ****         ieee154e_vars.timerId,                            // timerId
2138:build\openmote-cc2538_armgcc\openstack\02a-MAClow/IEEE802154E.c ****         DURATION_rt8,                                     // duration
 5132              		.loc 1 2138 0
 5133 1eba 084B     		ldr	r3, .L308
 5134 1ebc D3F87831 		ldr	r3, [r3, #376]
2136:build\openmote-cc2538_armgcc\openstack\02a-MAClow/IEEE802154E.c ****         ieee154e_vars.timerId,                            // timerId
 5135              		.loc 1 2136 0
 5136 1ec0 03F16201 		add	r1, r3, #98
 5137 1ec4 054B     		ldr	r3, .L308
 5138 1ec6 D3F8AC21 		ldr	r2, [r3, #428]
 5139 1eca 064B     		ldr	r3, .L308+8
 5140 1ecc 0093     		str	r3, [sp]
 5141 1ece 0123     		movs	r3, #1
 5142 1ed0 FFF7FEFF 		bl	opentimers_scheduleAbsolute
2139:build\openmote-cc2538_armgcc\openstack\02a-MAClow/IEEE802154E.c ****         ieee154e_vars.startOfSlotReference,               // reference
2140:build\openmote-cc2538_armgcc\openstack\02a-MAClow/IEEE802154E.c ****         TIME_TICS,                                        // timetype
2141:build\openmote-cc2538_armgcc\openstack\02a-MAClow/IEEE802154E.c ****         isr_ieee154e_timer                                // callback
2142:build\openmote-cc2538_armgcc\openstack\02a-MAClow/IEEE802154E.c ****     );
2143:build\openmote-cc2538_armgcc\openstack\02a-MAClow/IEEE802154E.c ****     // radiotimer_schedule(DURATION_rt8);
2144:build\openmote-cc2538_armgcc\openstack\02a-MAClow/IEEE802154E.c **** #endif
2145:build\openmote-cc2538_armgcc\openstack\02a-MAClow/IEEE802154E.c **** }
 5143              		.loc 1 2145 0
 5144 1ed4 00BF     		nop
 5145 1ed6 0837     		adds	r7, r7, #8
 5146              		.cfi_def_cfa_offset 8
 5147 1ed8 BD46     		mov	sp, r7
 5148              		.cfi_def_cfa_register 13
 5149              		@ sp needed
 5150 1eda 80BD     		pop	{r7, pc}
 5151              	.L309:
 5152              		.align	2
 5153              	.L308:
 5154 1edc 00000000 		.word	ieee154e_vars
 5155 1ee0 00000000 		.word	isr_ieee154e_newSlot
 5156 1ee4 00000000 		.word	isr_ieee154e_timer
 5157              		.cfi_endproc
 5158              	.LFE46:
 5160              		.align	1
 5161              		.global	activity_rie6
 5162              		.syntax unified
 5163              		.thumb
 5164              		.thumb_func
 5165              		.fpu softvfp
 5167              	activity_rie6:
 5168              	.LFB47:
2146:build\openmote-cc2538_armgcc\openstack\02a-MAClow/IEEE802154E.c **** 
2147:build\openmote-cc2538_armgcc\openstack\02a-MAClow/IEEE802154E.c **** port_INLINE void activity_rie6(void) {
 5169              		.loc 1 2147 0
 5170              		.cfi_startproc
 5171              		@ args = 0, pretend = 0, frame = 0
 5172              		@ frame_needed = 1, uses_anonymous_args = 0
 5173 1ee8 80B5     		push	{r7, lr}
 5174              		.cfi_def_cfa_offset 8
 5175              		.cfi_offset 7, -8
 5176              		.cfi_offset 14, -4
 5177 1eea 00AF     		add	r7, sp, #0
 5178              		.cfi_def_cfa_register 7
2148:build\openmote-cc2538_armgcc\openstack\02a-MAClow/IEEE802154E.c ****     // log the error
2149:build\openmote-cc2538_armgcc\openstack\02a-MAClow/IEEE802154E.c ****     openserial_printError(COMPONENT_IEEE802154E,ERR_WDACKDURATION_OVERFLOWS,
2150:build\openmote-cc2538_armgcc\openstack\02a-MAClow/IEEE802154E.c ****                          (errorparameter_t)ieee154e_vars.state,
 5179              		.loc 1 2150 0
 5180 1eec 064B     		ldr	r3, .L311
 5181 1eee 93F86431 		ldrb	r3, [r3, #356]	@ zero_extendqisi2
2149:build\openmote-cc2538_armgcc\openstack\02a-MAClow/IEEE802154E.c ****                          (errorparameter_t)ieee154e_vars.state,
 5182              		.loc 1 2149 0
 5183 1ef2 9AB2     		uxth	r2, r3
2151:build\openmote-cc2538_armgcc\openstack\02a-MAClow/IEEE802154E.c ****                          (errorparameter_t)ieee154e_vars.slotOffset);
 5184              		.loc 1 2151 0
 5185 1ef4 044B     		ldr	r3, .L311
 5186 1ef6 DB88     		ldrh	r3, [r3, #6]
2149:build\openmote-cc2538_armgcc\openstack\02a-MAClow/IEEE802154E.c ****                          (errorparameter_t)ieee154e_vars.state,
 5187              		.loc 1 2149 0
 5188 1ef8 2A21     		movs	r1, #42
 5189 1efa 0920     		movs	r0, #9
 5190 1efc FFF7FEFF 		bl	openserial_printError
2152:build\openmote-cc2538_armgcc\openstack\02a-MAClow/IEEE802154E.c **** 
2153:build\openmote-cc2538_armgcc\openstack\02a-MAClow/IEEE802154E.c ****     // abort
2154:build\openmote-cc2538_armgcc\openstack\02a-MAClow/IEEE802154E.c ****     endSlot();
 5191              		.loc 1 2154 0
 5192 1f00 FFF7FEFF 		bl	endSlot
2155:build\openmote-cc2538_armgcc\openstack\02a-MAClow/IEEE802154E.c **** }
 5193              		.loc 1 2155 0
 5194 1f04 00BF     		nop
 5195 1f06 80BD     		pop	{r7, pc}
 5196              	.L312:
 5197              		.align	2
 5198              	.L311:
 5199 1f08 00000000 		.word	ieee154e_vars
 5200              		.cfi_endproc
 5201              	.LFE47:
 5203              		.align	1
 5204              		.global	activity_ri9
 5205              		.syntax unified
 5206              		.thumb
 5207              		.thumb_func
 5208              		.fpu softvfp
 5210              	activity_ri9:
 5211              	.LFB48:
2156:build\openmote-cc2538_armgcc\openstack\02a-MAClow/IEEE802154E.c **** 
2157:build\openmote-cc2538_armgcc\openstack\02a-MAClow/IEEE802154E.c **** port_INLINE void activity_ri9(PORT_TIMER_WIDTH capturedTime) {
 5212              		.loc 1 2157 0
 5213              		.cfi_startproc
 5214              		@ args = 0, pretend = 0, frame = 8
 5215              		@ frame_needed = 1, uses_anonymous_args = 0
 5216 1f0c 80B5     		push	{r7, lr}
 5217              		.cfi_def_cfa_offset 8
 5218              		.cfi_offset 7, -8
 5219              		.cfi_offset 14, -4
 5220 1f0e 84B0     		sub	sp, sp, #16
 5221              		.cfi_def_cfa_offset 24
 5222 1f10 02AF     		add	r7, sp, #8
 5223              		.cfi_def_cfa 7, 16
 5224 1f12 7860     		str	r0, [r7, #4]
2158:build\openmote-cc2538_armgcc\openstack\02a-MAClow/IEEE802154E.c ****     // change state
2159:build\openmote-cc2538_armgcc\openstack\02a-MAClow/IEEE802154E.c ****     changeState(S_RXPROC);
 5225              		.loc 1 2159 0
 5226 1f14 1920     		movs	r0, #25
 5227 1f16 FFF7FEFF 		bl	changeState
2160:build\openmote-cc2538_armgcc\openstack\02a-MAClow/IEEE802154E.c **** #ifdef SLOT_FSM_IMPLEMENTATION_MULTIPLE_TIMER_INTERRUPT
2161:build\openmote-cc2538_armgcc\openstack\02a-MAClow/IEEE802154E.c ****     // cancel rt8
2162:build\openmote-cc2538_armgcc\openstack\02a-MAClow/IEEE802154E.c ****     sctimer_actionCancel(ACTION_SET_TIMEOUT);
2163:build\openmote-cc2538_armgcc\openstack\02a-MAClow/IEEE802154E.c **** #else
2164:build\openmote-cc2538_armgcc\openstack\02a-MAClow/IEEE802154E.c ****     // cancel rt8
2165:build\openmote-cc2538_armgcc\openstack\02a-MAClow/IEEE802154E.c ****     opentimers_scheduleAbsolute(
 5228              		.loc 1 2165 0
 5229 1f1a 264B     		ldr	r3, .L317
 5230 1f1c 93F8A801 		ldrb	r0, [r3, #424]	@ zero_extendqisi2
2166:build\openmote-cc2538_armgcc\openstack\02a-MAClow/IEEE802154E.c ****         ieee154e_vars.timerId,                            // timerId
2167:build\openmote-cc2538_armgcc\openstack\02a-MAClow/IEEE802154E.c ****         ieee154e_vars.slotDuration,                       // duration
 5231              		.loc 1 2167 0
 5232 1f20 244B     		ldr	r3, .L317
 5233 1f22 B3F8A631 		ldrh	r3, [r3, #422]
2165:build\openmote-cc2538_armgcc\openstack\02a-MAClow/IEEE802154E.c ****         ieee154e_vars.timerId,                            // timerId
 5234              		.loc 1 2165 0
 5235 1f26 1946     		mov	r1, r3
 5236 1f28 224B     		ldr	r3, .L317
 5237 1f2a D3F8AC21 		ldr	r2, [r3, #428]
 5238 1f2e 224B     		ldr	r3, .L317+4
 5239 1f30 0093     		str	r3, [sp]
 5240 1f32 0123     		movs	r3, #1
 5241 1f34 FFF7FEFF 		bl	opentimers_scheduleAbsolute
2168:build\openmote-cc2538_armgcc\openstack\02a-MAClow/IEEE802154E.c ****         ieee154e_vars.startOfSlotReference,               // reference
2169:build\openmote-cc2538_armgcc\openstack\02a-MAClow/IEEE802154E.c ****         TIME_TICS,                                        // timetype
2170:build\openmote-cc2538_armgcc\openstack\02a-MAClow/IEEE802154E.c ****         isr_ieee154e_newSlot                              // callback
2171:build\openmote-cc2538_armgcc\openstack\02a-MAClow/IEEE802154E.c ****     );
2172:build\openmote-cc2538_armgcc\openstack\02a-MAClow/IEEE802154E.c ****     // radiotimer_cancel();
2173:build\openmote-cc2538_armgcc\openstack\02a-MAClow/IEEE802154E.c **** #endif
2174:build\openmote-cc2538_armgcc\openstack\02a-MAClow/IEEE802154E.c ****     // record the captured time
2175:build\openmote-cc2538_armgcc\openstack\02a-MAClow/IEEE802154E.c ****     ieee154e_vars.lastCapturedTime = capturedTime;
 5242              		.loc 1 2175 0
 5243 1f38 1E4A     		ldr	r2, .L317
 5244 1f3a 7B68     		ldr	r3, [r7, #4]
 5245 1f3c C2F87831 		str	r3, [r2, #376]
2176:build\openmote-cc2538_armgcc\openstack\02a-MAClow/IEEE802154E.c **** 
2177:build\openmote-cc2538_armgcc\openstack\02a-MAClow/IEEE802154E.c ****     // free the ack we just sent so corresponding RAM memory can be recycled
2178:build\openmote-cc2538_armgcc\openstack\02a-MAClow/IEEE802154E.c ****     openqueue_freePacketBuffer(ieee154e_vars.ackToSend);
 5246              		.loc 1 2178 0
 5247 1f40 1C4B     		ldr	r3, .L317
 5248 1f42 D3F87031 		ldr	r3, [r3, #368]
 5249 1f46 1846     		mov	r0, r3
 5250 1f48 FFF7FEFF 		bl	openqueue_freePacketBuffer
2179:build\openmote-cc2538_armgcc\openstack\02a-MAClow/IEEE802154E.c **** 
2180:build\openmote-cc2538_armgcc\openstack\02a-MAClow/IEEE802154E.c ****     // clear local variable
2181:build\openmote-cc2538_armgcc\openstack\02a-MAClow/IEEE802154E.c ****     ieee154e_vars.ackToSend = NULL;
 5251              		.loc 1 2181 0
 5252 1f4c 194B     		ldr	r3, .L317
 5253 1f4e 0022     		movs	r2, #0
 5254 1f50 C3F87021 		str	r2, [r3, #368]
2182:build\openmote-cc2538_armgcc\openstack\02a-MAClow/IEEE802154E.c **** 
2183:build\openmote-cc2538_armgcc\openstack\02a-MAClow/IEEE802154E.c ****     if ((idmanager_getIsDAGroot()==FALSE &&
 5255              		.loc 1 2183 0
 5256 1f54 FFF7FEFF 		bl	idmanager_getIsDAGroot
 5257 1f58 0346     		mov	r3, r0
 5258 1f5a 83F00103 		eor	r3, r3, #1
 5259 1f5e DBB2     		uxtb	r3, r3
 5260 1f60 002B     		cmp	r3, #0
 5261 1f62 09D0     		beq	.L314
2184:build\openmote-cc2538_armgcc\openstack\02a-MAClow/IEEE802154E.c ****         icmpv6rpl_isPreferredParent(&(ieee154e_vars.dataReceived->l2_nextORpreviousHop))) ||
 5262              		.loc 1 2184 0 discriminator 1
 5263 1f64 134B     		ldr	r3, .L317
 5264 1f66 D3F86C31 		ldr	r3, [r3, #364]
 5265 1f6a 4133     		adds	r3, r3, #65
 5266 1f6c 1846     		mov	r0, r3
 5267 1f6e FFF7FEFF 		bl	icmpv6rpl_isPreferredParent
 5268 1f72 0346     		mov	r3, r0
2183:build\openmote-cc2538_armgcc\openstack\02a-MAClow/IEEE802154E.c ****         icmpv6rpl_isPreferredParent(&(ieee154e_vars.dataReceived->l2_nextORpreviousHop))) ||
 5269              		.loc 1 2183 0 discriminator 1
 5270 1f74 002B     		cmp	r3, #0
 5271 1f76 07D1     		bne	.L315
 5272              	.L314:
2185:build\openmote-cc2538_armgcc\openstack\02a-MAClow/IEEE802154E.c ****         IEEE802154_security_isConfigured() == FALSE) {
 5273              		.loc 1 2185 0
 5274 1f78 FFF7FEFF 		bl	IEEE802154_security_isConfigured
 5275 1f7c 0346     		mov	r3, r0
 5276 1f7e 83F00103 		eor	r3, r3, #1
 5277 1f82 DBB2     		uxtb	r3, r3
2184:build\openmote-cc2538_armgcc\openstack\02a-MAClow/IEEE802154E.c ****         icmpv6rpl_isPreferredParent(&(ieee154e_vars.dataReceived->l2_nextORpreviousHop))) ||
 5278              		.loc 1 2184 0
 5279 1f84 002B     		cmp	r3, #0
 5280 1f86 05D0     		beq	.L316
 5281              	.L315:
2186:build\openmote-cc2538_armgcc\openstack\02a-MAClow/IEEE802154E.c ****         synchronizePacket(ieee154e_vars.syncCapturedTime);
 5282              		.loc 1 2186 0
 5283 1f88 0A4B     		ldr	r3, .L317
 5284 1f8a D3F87C31 		ldr	r3, [r3, #380]
 5285 1f8e 1846     		mov	r0, r3
 5286 1f90 FFF7FEFF 		bl	synchronizePacket
 5287              	.L316:
2187:build\openmote-cc2538_armgcc\openstack\02a-MAClow/IEEE802154E.c ****     }
2188:build\openmote-cc2538_armgcc\openstack\02a-MAClow/IEEE802154E.c **** 
2189:build\openmote-cc2538_armgcc\openstack\02a-MAClow/IEEE802154E.c ****     // inform upper layer of reception (after ACK sent)
2190:build\openmote-cc2538_armgcc\openstack\02a-MAClow/IEEE802154E.c ****     notif_receive(ieee154e_vars.dataReceived);
 5288              		.loc 1 2190 0
 5289 1f94 074B     		ldr	r3, .L317
 5290 1f96 D3F86C31 		ldr	r3, [r3, #364]
 5291 1f9a 1846     		mov	r0, r3
 5292 1f9c FFF7FEFF 		bl	notif_receive
2191:build\openmote-cc2538_armgcc\openstack\02a-MAClow/IEEE802154E.c **** 
2192:build\openmote-cc2538_armgcc\openstack\02a-MAClow/IEEE802154E.c ****     // clear local variable
2193:build\openmote-cc2538_armgcc\openstack\02a-MAClow/IEEE802154E.c ****     ieee154e_vars.dataReceived = NULL;
 5293              		.loc 1 2193 0
 5294 1fa0 044B     		ldr	r3, .L317
 5295 1fa2 0022     		movs	r2, #0
 5296 1fa4 C3F86C21 		str	r2, [r3, #364]
2194:build\openmote-cc2538_armgcc\openstack\02a-MAClow/IEEE802154E.c **** 
2195:build\openmote-cc2538_armgcc\openstack\02a-MAClow/IEEE802154E.c ****     // official end of Rx slot
2196:build\openmote-cc2538_armgcc\openstack\02a-MAClow/IEEE802154E.c ****     endSlot();
 5297              		.loc 1 2196 0
 5298 1fa8 FFF7FEFF 		bl	endSlot
2197:build\openmote-cc2538_armgcc\openstack\02a-MAClow/IEEE802154E.c **** }
 5299              		.loc 1 2197 0
 5300 1fac 00BF     		nop
 5301 1fae 0837     		adds	r7, r7, #8
 5302              		.cfi_def_cfa_offset 8
 5303 1fb0 BD46     		mov	sp, r7
 5304              		.cfi_def_cfa_register 13
 5305              		@ sp needed
 5306 1fb2 80BD     		pop	{r7, pc}
 5307              	.L318:
 5308              		.align	2
 5309              	.L317:
 5310 1fb4 00000000 		.word	ieee154e_vars
 5311 1fb8 00000000 		.word	isr_ieee154e_newSlot
 5312              		.cfi_endproc
 5313              	.LFE48:
 5315              		.align	1
 5316              		.global	isValidRxFrame
 5317              		.syntax unified
 5318              		.thumb
 5319              		.thumb_func
 5320              		.fpu softvfp
 5322              	isValidRxFrame:
 5323              	.LFB49:
2198:build\openmote-cc2538_armgcc\openstack\02a-MAClow/IEEE802154E.c **** 
2199:build\openmote-cc2538_armgcc\openstack\02a-MAClow/IEEE802154E.c **** //======= frame validity check
2200:build\openmote-cc2538_armgcc\openstack\02a-MAClow/IEEE802154E.c **** 
2201:build\openmote-cc2538_armgcc\openstack\02a-MAClow/IEEE802154E.c **** /**
2202:build\openmote-cc2538_armgcc\openstack\02a-MAClow/IEEE802154E.c **** \brief Decides whether the packet I just received is valid received frame.
2203:build\openmote-cc2538_armgcc\openstack\02a-MAClow/IEEE802154E.c **** 
2204:build\openmote-cc2538_armgcc\openstack\02a-MAClow/IEEE802154E.c **** A valid Rx frame satisfies the following constraints:
2205:build\openmote-cc2538_armgcc\openstack\02a-MAClow/IEEE802154E.c **** - its IEEE802.15.4 header is well formatted
2206:build\openmote-cc2538_armgcc\openstack\02a-MAClow/IEEE802154E.c **** - it's a DATA of BEACON frame (i.e. not ACK and not COMMAND)
2207:build\openmote-cc2538_armgcc\openstack\02a-MAClow/IEEE802154E.c **** - it's sent on the same PANid as mine
2208:build\openmote-cc2538_armgcc\openstack\02a-MAClow/IEEE802154E.c **** - it's for me (unicast or broadcast)
2209:build\openmote-cc2538_armgcc\openstack\02a-MAClow/IEEE802154E.c **** 
2210:build\openmote-cc2538_armgcc\openstack\02a-MAClow/IEEE802154E.c **** \param[in] ieee802514_header IEEE802.15.4 header of the packet I just received
2211:build\openmote-cc2538_armgcc\openstack\02a-MAClow/IEEE802154E.c **** 
2212:build\openmote-cc2538_armgcc\openstack\02a-MAClow/IEEE802154E.c **** \returns TRUE if packet is valid received frame, FALSE otherwise
2213:build\openmote-cc2538_armgcc\openstack\02a-MAClow/IEEE802154E.c **** */
2214:build\openmote-cc2538_armgcc\openstack\02a-MAClow/IEEE802154E.c **** port_INLINE bool isValidRxFrame(ieee802154_header_iht* ieee802514_header) {
 5324              		.loc 1 2214 0
 5325              		.cfi_startproc
 5326              		@ args = 0, pretend = 0, frame = 8
 5327              		@ frame_needed = 1, uses_anonymous_args = 0
 5328 1fbc 90B5     		push	{r4, r7, lr}
 5329              		.cfi_def_cfa_offset 12
 5330              		.cfi_offset 4, -12
 5331              		.cfi_offset 7, -8
 5332              		.cfi_offset 14, -4
 5333 1fbe 83B0     		sub	sp, sp, #12
 5334              		.cfi_def_cfa_offset 24
 5335 1fc0 00AF     		add	r7, sp, #0
 5336              		.cfi_def_cfa_register 7
 5337 1fc2 7860     		str	r0, [r7, #4]
2215:build\openmote-cc2538_armgcc\openstack\02a-MAClow/IEEE802154E.c ****     return ieee802514_header->valid==TRUE                                                        &&
 5338              		.loc 1 2215 0
 5339 1fc4 7B68     		ldr	r3, [r7, #4]
 5340 1fc6 1B78     		ldrb	r3, [r3]	@ zero_extendqisi2
2216:build\openmote-cc2538_armgcc\openstack\02a-MAClow/IEEE802154E.c ****         (
2217:build\openmote-cc2538_armgcc\openstack\02a-MAClow/IEEE802154E.c ****             ieee802514_header->frameType==IEEE154_TYPE_DATA                   ||
2218:build\openmote-cc2538_armgcc\openstack\02a-MAClow/IEEE802154E.c ****             ieee802514_header->frameType==IEEE154_TYPE_BEACON
2219:build\openmote-cc2538_armgcc\openstack\02a-MAClow/IEEE802154E.c ****         )                                                                                        &&
2220:build\openmote-cc2538_armgcc\openstack\02a-MAClow/IEEE802154E.c ****         packetfunctions_sameAddress(&ieee802514_header->panid,idmanager_getMyID(ADDR_PANID))     &&
 5341              		.loc 1 2220 0
 5342 1fc8 002B     		cmp	r3, #0
 5343 1fca 27D0     		beq	.L320
2217:build\openmote-cc2538_armgcc\openstack\02a-MAClow/IEEE802154E.c ****             ieee802514_header->frameType==IEEE154_TYPE_BEACON
 5344              		.loc 1 2217 0
 5345 1fcc 7B68     		ldr	r3, [r7, #4]
 5346 1fce 9B78     		ldrb	r3, [r3, #2]	@ zero_extendqisi2
2215:build\openmote-cc2538_armgcc\openstack\02a-MAClow/IEEE802154E.c ****     return ieee802514_header->valid==TRUE                                                        &&
 5347              		.loc 1 2215 0
 5348 1fd0 012B     		cmp	r3, #1
 5349 1fd2 03D0     		beq	.L321
2218:build\openmote-cc2538_armgcc\openstack\02a-MAClow/IEEE802154E.c ****         )                                                                                        &&
 5350              		.loc 1 2218 0
 5351 1fd4 7B68     		ldr	r3, [r7, #4]
 5352 1fd6 9B78     		ldrb	r3, [r3, #2]	@ zero_extendqisi2
2217:build\openmote-cc2538_armgcc\openstack\02a-MAClow/IEEE802154E.c ****             ieee802514_header->frameType==IEEE154_TYPE_BEACON
 5353              		.loc 1 2217 0
 5354 1fd8 002B     		cmp	r3, #0
 5355 1fda 1FD1     		bne	.L320
 5356              	.L321:
 5357              		.loc 1 2220 0
 5358 1fdc 7B68     		ldr	r3, [r7, #4]
 5359 1fde 03F10B04 		add	r4, r3, #11
 5360 1fe2 0420     		movs	r0, #4
 5361 1fe4 FFF7FEFF 		bl	idmanager_getMyID
 5362 1fe8 0346     		mov	r3, r0
 5363 1fea 1946     		mov	r1, r3
 5364 1fec 2046     		mov	r0, r4
 5365 1fee FFF7FEFF 		bl	packetfunctions_sameAddress
 5366 1ff2 0346     		mov	r3, r0
2219:build\openmote-cc2538_armgcc\openstack\02a-MAClow/IEEE802154E.c ****         packetfunctions_sameAddress(&ieee802514_header->panid,idmanager_getMyID(ADDR_PANID))     &&
 5367              		.loc 1 2219 0
 5368 1ff4 002B     		cmp	r3, #0
 5369 1ff6 11D0     		beq	.L320
2221:build\openmote-cc2538_armgcc\openstack\02a-MAClow/IEEE802154E.c ****         (
2222:build\openmote-cc2538_armgcc\openstack\02a-MAClow/IEEE802154E.c ****             idmanager_isMyAddress(&ieee802514_header->dest)                   ||
 5370              		.loc 1 2222 0
 5371 1ff8 7B68     		ldr	r3, [r7, #4]
 5372 1ffa 1C33     		adds	r3, r3, #28
 5373 1ffc 1846     		mov	r0, r3
 5374 1ffe FFF7FEFF 		bl	idmanager_isMyAddress
 5375 2002 0346     		mov	r3, r0
2220:build\openmote-cc2538_armgcc\openstack\02a-MAClow/IEEE802154E.c ****         (
 5376              		.loc 1 2220 0
 5377 2004 002B     		cmp	r3, #0
 5378 2006 07D1     		bne	.L322
2223:build\openmote-cc2538_armgcc\openstack\02a-MAClow/IEEE802154E.c ****             packetfunctions_isBroadcastMulticast(&ieee802514_header->dest)
 5379              		.loc 1 2223 0
 5380 2008 7B68     		ldr	r3, [r7, #4]
 5381 200a 1C33     		adds	r3, r3, #28
 5382 200c 1846     		mov	r0, r3
 5383 200e FFF7FEFF 		bl	packetfunctions_isBroadcastMulticast
 5384 2012 0346     		mov	r3, r0
2222:build\openmote-cc2538_armgcc\openstack\02a-MAClow/IEEE802154E.c ****             packetfunctions_isBroadcastMulticast(&ieee802514_header->dest)
 5385              		.loc 1 2222 0
 5386 2014 002B     		cmp	r3, #0
 5387 2016 01D0     		beq	.L320
 5388              	.L322:
2220:build\openmote-cc2538_armgcc\openstack\02a-MAClow/IEEE802154E.c ****         (
 5389              		.loc 1 2220 0 discriminator 2
 5390 2018 0123     		movs	r3, #1
 5391 201a 00E0     		b	.L323
 5392              	.L320:
2220:build\openmote-cc2538_armgcc\openstack\02a-MAClow/IEEE802154E.c ****         (
 5393              		.loc 1 2220 0 is_stmt 0 discriminator 1
 5394 201c 0023     		movs	r3, #0
 5395              	.L323:
2220:build\openmote-cc2538_armgcc\openstack\02a-MAClow/IEEE802154E.c ****         (
 5396              		.loc 1 2220 0 discriminator 4
 5397 201e 03F00103 		and	r3, r3, #1
 5398 2022 DBB2     		uxtb	r3, r3
2224:build\openmote-cc2538_armgcc\openstack\02a-MAClow/IEEE802154E.c ****         );
2225:build\openmote-cc2538_armgcc\openstack\02a-MAClow/IEEE802154E.c **** }
 5399              		.loc 1 2225 0 is_stmt 1 discriminator 4
 5400 2024 1846     		mov	r0, r3
 5401 2026 0C37     		adds	r7, r7, #12
 5402              		.cfi_def_cfa_offset 12
 5403 2028 BD46     		mov	sp, r7
 5404              		.cfi_def_cfa_register 13
 5405              		@ sp needed
 5406 202a 90BD     		pop	{r4, r7, pc}
 5407              		.cfi_endproc
 5408              	.LFE49:
 5410              		.align	1
 5411              		.global	isValidAck
 5412              		.syntax unified
 5413              		.thumb
 5414              		.thumb_func
 5415              		.fpu softvfp
 5417              	isValidAck:
 5418              	.LFB50:
2226:build\openmote-cc2538_armgcc\openstack\02a-MAClow/IEEE802154E.c **** 
2227:build\openmote-cc2538_armgcc\openstack\02a-MAClow/IEEE802154E.c **** /**
2228:build\openmote-cc2538_armgcc\openstack\02a-MAClow/IEEE802154E.c **** \brief Decides whether the packet I just received is a valid ACK.
2229:build\openmote-cc2538_armgcc\openstack\02a-MAClow/IEEE802154E.c **** 
2230:build\openmote-cc2538_armgcc\openstack\02a-MAClow/IEEE802154E.c **** A packet is a valid ACK if it satisfies the following conditions:
2231:build\openmote-cc2538_armgcc\openstack\02a-MAClow/IEEE802154E.c **** - the IEEE802.15.4 header is valid
2232:build\openmote-cc2538_armgcc\openstack\02a-MAClow/IEEE802154E.c **** - the frame type is 'ACK'
2233:build\openmote-cc2538_armgcc\openstack\02a-MAClow/IEEE802154E.c **** - the sequence number in the ACK matches the sequence number of the packet sent
2234:build\openmote-cc2538_armgcc\openstack\02a-MAClow/IEEE802154E.c **** - the ACK contains my PANid
2235:build\openmote-cc2538_armgcc\openstack\02a-MAClow/IEEE802154E.c **** - the packet is unicast to me
2236:build\openmote-cc2538_armgcc\openstack\02a-MAClow/IEEE802154E.c **** - the packet comes from the neighbor I sent the data to
2237:build\openmote-cc2538_armgcc\openstack\02a-MAClow/IEEE802154E.c **** 
2238:build\openmote-cc2538_armgcc\openstack\02a-MAClow/IEEE802154E.c **** \param[in] ieee802514_header IEEE802.15.4 header of the packet I just received
2239:build\openmote-cc2538_armgcc\openstack\02a-MAClow/IEEE802154E.c **** \param[in] packetSent points to the packet I just sent
2240:build\openmote-cc2538_armgcc\openstack\02a-MAClow/IEEE802154E.c **** 
2241:build\openmote-cc2538_armgcc\openstack\02a-MAClow/IEEE802154E.c **** \returns TRUE if packet is a valid ACK, FALSE otherwise.
2242:build\openmote-cc2538_armgcc\openstack\02a-MAClow/IEEE802154E.c **** */
2243:build\openmote-cc2538_armgcc\openstack\02a-MAClow/IEEE802154E.c **** port_INLINE bool isValidAck(ieee802154_header_iht* ieee802514_header, OpenQueueEntry_t* packetSent)
 5419              		.loc 1 2243 0
 5420              		.cfi_startproc
 5421              		@ args = 0, pretend = 0, frame = 8
 5422              		@ frame_needed = 1, uses_anonymous_args = 0
 5423 202c 90B5     		push	{r4, r7, lr}
 5424              		.cfi_def_cfa_offset 12
 5425              		.cfi_offset 4, -12
 5426              		.cfi_offset 7, -8
 5427              		.cfi_offset 14, -4
 5428 202e 83B0     		sub	sp, sp, #12
 5429              		.cfi_def_cfa_offset 24
 5430 2030 00AF     		add	r7, sp, #0
 5431              		.cfi_def_cfa_register 7
 5432 2032 7860     		str	r0, [r7, #4]
 5433 2034 3960     		str	r1, [r7]
2244:build\openmote-cc2538_armgcc\openstack\02a-MAClow/IEEE802154E.c ****     /*
2245:build\openmote-cc2538_armgcc\openstack\02a-MAClow/IEEE802154E.c ****     return ieee802514_header->valid==TRUE                                                          
2246:build\openmote-cc2538_armgcc\openstack\02a-MAClow/IEEE802154E.c ****           ieee802514_header->frameType==IEEE154_TYPE_ACK                                           
2247:build\openmote-cc2538_armgcc\openstack\02a-MAClow/IEEE802154E.c ****           ieee802514_header->dsn==packetSent->l2_dsn                                               
2248:build\openmote-cc2538_armgcc\openstack\02a-MAClow/IEEE802154E.c ****           packetfunctions_sameAddress(&ieee802514_header->panid,idmanager_getMyID(ADDR_PANID))     
2249:build\openmote-cc2538_armgcc\openstack\02a-MAClow/IEEE802154E.c ****           idmanager_isMyAddress(&ieee802514_header->dest)                                          
2250:build\openmote-cc2538_armgcc\openstack\02a-MAClow/IEEE802154E.c ****           packetfunctions_sameAddress(&ieee802514_header->src,&packetSent->l2_nextORpreviousHop);
2251:build\openmote-cc2538_armgcc\openstack\02a-MAClow/IEEE802154E.c ****     */
2252:build\openmote-cc2538_armgcc\openstack\02a-MAClow/IEEE802154E.c ****     // poipoi don't check for seq num
2253:build\openmote-cc2538_armgcc\openstack\02a-MAClow/IEEE802154E.c ****     return ieee802514_header->valid==TRUE                                                        &&
 5434              		.loc 1 2253 0
 5435 2036 7B68     		ldr	r3, [r7, #4]
 5436 2038 1B78     		ldrb	r3, [r3]	@ zero_extendqisi2
2254:build\openmote-cc2538_armgcc\openstack\02a-MAClow/IEEE802154E.c ****         ieee802514_header->frameType==IEEE154_TYPE_ACK                                           &&
2255:build\openmote-cc2538_armgcc\openstack\02a-MAClow/IEEE802154E.c ****         packetfunctions_sameAddress(&ieee802514_header->panid,idmanager_getMyID(ADDR_PANID))     &&
2256:build\openmote-cc2538_armgcc\openstack\02a-MAClow/IEEE802154E.c ****         idmanager_isMyAddress(&ieee802514_header->dest)                                          &&
 5437              		.loc 1 2256 0
 5438 203a 002B     		cmp	r3, #0
 5439 203c 27D0     		beq	.L326
2254:build\openmote-cc2538_armgcc\openstack\02a-MAClow/IEEE802154E.c ****         ieee802514_header->frameType==IEEE154_TYPE_ACK                                           &&
 5440              		.loc 1 2254 0
 5441 203e 7B68     		ldr	r3, [r7, #4]
 5442 2040 9B78     		ldrb	r3, [r3, #2]	@ zero_extendqisi2
2253:build\openmote-cc2538_armgcc\openstack\02a-MAClow/IEEE802154E.c ****         ieee802514_header->frameType==IEEE154_TYPE_ACK                                           &&
 5443              		.loc 1 2253 0
 5444 2042 022B     		cmp	r3, #2
 5445 2044 23D1     		bne	.L326
2255:build\openmote-cc2538_armgcc\openstack\02a-MAClow/IEEE802154E.c ****         idmanager_isMyAddress(&ieee802514_header->dest)                                          &&
 5446              		.loc 1 2255 0
 5447 2046 7B68     		ldr	r3, [r7, #4]
 5448 2048 03F10B04 		add	r4, r3, #11
 5449 204c 0420     		movs	r0, #4
 5450 204e FFF7FEFF 		bl	idmanager_getMyID
 5451 2052 0346     		mov	r3, r0
 5452 2054 1946     		mov	r1, r3
 5453 2056 2046     		mov	r0, r4
 5454 2058 FFF7FEFF 		bl	packetfunctions_sameAddress
 5455 205c 0346     		mov	r3, r0
2254:build\openmote-cc2538_armgcc\openstack\02a-MAClow/IEEE802154E.c ****         ieee802514_header->frameType==IEEE154_TYPE_ACK                                           &&
 5456              		.loc 1 2254 0
 5457 205e 002B     		cmp	r3, #0
 5458 2060 15D0     		beq	.L326
 5459              		.loc 1 2256 0
 5460 2062 7B68     		ldr	r3, [r7, #4]
 5461 2064 1C33     		adds	r3, r3, #28
 5462 2066 1846     		mov	r0, r3
 5463 2068 FFF7FEFF 		bl	idmanager_isMyAddress
 5464 206c 0346     		mov	r3, r0
2255:build\openmote-cc2538_armgcc\openstack\02a-MAClow/IEEE802154E.c ****         idmanager_isMyAddress(&ieee802514_header->dest)                                          &&
 5465              		.loc 1 2255 0
 5466 206e 002B     		cmp	r3, #0
 5467 2070 0DD0     		beq	.L326
2257:build\openmote-cc2538_armgcc\openstack\02a-MAClow/IEEE802154E.c ****         packetfunctions_sameAddress(&ieee802514_header->src,&packetSent->l2_nextORpreviousHop);
 5468              		.loc 1 2257 0 discriminator 3
 5469 2072 7B68     		ldr	r3, [r7, #4]
 5470 2074 03F12D02 		add	r2, r3, #45
 5471 2078 3B68     		ldr	r3, [r7]
 5472 207a 4133     		adds	r3, r3, #65
 5473 207c 1946     		mov	r1, r3
 5474 207e 1046     		mov	r0, r2
 5475 2080 FFF7FEFF 		bl	packetfunctions_sameAddress
 5476 2084 0346     		mov	r3, r0
2256:build\openmote-cc2538_armgcc\openstack\02a-MAClow/IEEE802154E.c ****         packetfunctions_sameAddress(&ieee802514_header->src,&packetSent->l2_nextORpreviousHop);
 5477              		.loc 1 2256 0 discriminator 3
 5478 2086 002B     		cmp	r3, #0
 5479 2088 01D0     		beq	.L326
2256:build\openmote-cc2538_armgcc\openstack\02a-MAClow/IEEE802154E.c ****         packetfunctions_sameAddress(&ieee802514_header->src,&packetSent->l2_nextORpreviousHop);
 5480              		.loc 1 2256 0 is_stmt 0 discriminator 2
 5481 208a 0123     		movs	r3, #1
 5482 208c 00E0     		b	.L327
 5483              	.L326:
2256:build\openmote-cc2538_armgcc\openstack\02a-MAClow/IEEE802154E.c ****         packetfunctions_sameAddress(&ieee802514_header->src,&packetSent->l2_nextORpreviousHop);
 5484              		.loc 1 2256 0 discriminator 1
 5485 208e 0023     		movs	r3, #0
 5486              	.L327:
2256:build\openmote-cc2538_armgcc\openstack\02a-MAClow/IEEE802154E.c ****         packetfunctions_sameAddress(&ieee802514_header->src,&packetSent->l2_nextORpreviousHop);
 5487              		.loc 1 2256 0 discriminator 5
 5488 2090 03F00103 		and	r3, r3, #1
 5489 2094 DBB2     		uxtb	r3, r3
2258:build\openmote-cc2538_armgcc\openstack\02a-MAClow/IEEE802154E.c **** }
 5490              		.loc 1 2258 0 is_stmt 1 discriminator 5
 5491 2096 1846     		mov	r0, r3
 5492 2098 0C37     		adds	r7, r7, #12
 5493              		.cfi_def_cfa_offset 12
 5494 209a BD46     		mov	sp, r7
 5495              		.cfi_def_cfa_register 13
 5496              		@ sp needed
 5497 209c 90BD     		pop	{r4, r7, pc}
 5498              		.cfi_endproc
 5499              	.LFE50:
 5501              		.align	1
 5502              		.global	incrementAsnOffset
 5503              		.syntax unified
 5504              		.thumb
 5505              		.thumb_func
 5506              		.fpu softvfp
 5508              	incrementAsnOffset:
 5509              	.LFB51:
2259:build\openmote-cc2538_armgcc\openstack\02a-MAClow/IEEE802154E.c **** 
2260:build\openmote-cc2538_armgcc\openstack\02a-MAClow/IEEE802154E.c **** //======= ASN handling
2261:build\openmote-cc2538_armgcc\openstack\02a-MAClow/IEEE802154E.c **** 
2262:build\openmote-cc2538_armgcc\openstack\02a-MAClow/IEEE802154E.c **** port_INLINE void incrementAsnOffset(void) {
 5510              		.loc 1 2262 0
 5511              		.cfi_startproc
 5512              		@ args = 0, pretend = 0, frame = 8
 5513              		@ frame_needed = 1, uses_anonymous_args = 0
 5514 209e 80B5     		push	{r7, lr}
 5515              		.cfi_def_cfa_offset 8
 5516              		.cfi_offset 7, -8
 5517              		.cfi_offset 14, -4
 5518 20a0 82B0     		sub	sp, sp, #8
 5519              		.cfi_def_cfa_offset 16
 5520 20a2 00AF     		add	r7, sp, #0
 5521              		.cfi_def_cfa_register 7
2263:build\openmote-cc2538_armgcc\openstack\02a-MAClow/IEEE802154E.c ****     frameLength_t frameLength;
2264:build\openmote-cc2538_armgcc\openstack\02a-MAClow/IEEE802154E.c **** 
2265:build\openmote-cc2538_armgcc\openstack\02a-MAClow/IEEE802154E.c ****     // increment the asn
2266:build\openmote-cc2538_armgcc\openstack\02a-MAClow/IEEE802154E.c ****     ieee154e_vars.asn.bytes0and1++;
 5522              		.loc 1 2266 0
 5523 20a4 284B     		ldr	r3, .L333
 5524 20a6 B3F80330 		ldrh	r3, [r3, #3]	@ unaligned
 5525 20aa 9BB2     		uxth	r3, r3
 5526 20ac 0133     		adds	r3, r3, #1
 5527 20ae 9AB2     		uxth	r2, r3
 5528 20b0 254B     		ldr	r3, .L333
 5529 20b2 A3F80320 		strh	r2, [r3, #3]	@ unaligned
2267:build\openmote-cc2538_armgcc\openstack\02a-MAClow/IEEE802154E.c ****     if (ieee154e_vars.asn.bytes0and1==0) {
 5530              		.loc 1 2267 0
 5531 20b6 244B     		ldr	r3, .L333
 5532 20b8 B3F80330 		ldrh	r3, [r3, #3]	@ unaligned
 5533 20bc 9BB2     		uxth	r3, r3
 5534 20be 002B     		cmp	r3, #0
 5535 20c0 14D1     		bne	.L330
2268:build\openmote-cc2538_armgcc\openstack\02a-MAClow/IEEE802154E.c ****         ieee154e_vars.asn.bytes2and3++;
 5536              		.loc 1 2268 0
 5537 20c2 214B     		ldr	r3, .L333
 5538 20c4 B3F80130 		ldrh	r3, [r3, #1]	@ unaligned
 5539 20c8 9BB2     		uxth	r3, r3
 5540 20ca 0133     		adds	r3, r3, #1
 5541 20cc 9AB2     		uxth	r2, r3
 5542 20ce 1E4B     		ldr	r3, .L333
 5543 20d0 A3F80120 		strh	r2, [r3, #1]	@ unaligned
2269:build\openmote-cc2538_armgcc\openstack\02a-MAClow/IEEE802154E.c ****         if (ieee154e_vars.asn.bytes2and3==0) {
 5544              		.loc 1 2269 0
 5545 20d4 1C4B     		ldr	r3, .L333
 5546 20d6 B3F80130 		ldrh	r3, [r3, #1]	@ unaligned
 5547 20da 9BB2     		uxth	r3, r3
 5548 20dc 002B     		cmp	r3, #0
 5549 20de 05D1     		bne	.L330
2270:build\openmote-cc2538_armgcc\openstack\02a-MAClow/IEEE802154E.c ****             ieee154e_vars.asn.byte4++;
 5550              		.loc 1 2270 0
 5551 20e0 194B     		ldr	r3, .L333
 5552 20e2 1B78     		ldrb	r3, [r3]	@ zero_extendqisi2
 5553 20e4 0133     		adds	r3, r3, #1
 5554 20e6 DAB2     		uxtb	r2, r3
 5555 20e8 174B     		ldr	r3, .L333
 5556 20ea 1A70     		strb	r2, [r3]
 5557              	.L330:
2271:build\openmote-cc2538_armgcc\openstack\02a-MAClow/IEEE802154E.c ****         }
2272:build\openmote-cc2538_armgcc\openstack\02a-MAClow/IEEE802154E.c ****     }
2273:build\openmote-cc2538_armgcc\openstack\02a-MAClow/IEEE802154E.c **** 
2274:build\openmote-cc2538_armgcc\openstack\02a-MAClow/IEEE802154E.c ****     // increment the offsets
2275:build\openmote-cc2538_armgcc\openstack\02a-MAClow/IEEE802154E.c ****     frameLength = schedule_getFrameLength();
 5558              		.loc 1 2275 0
 5559 20ec FFF7FEFF 		bl	schedule_getFrameLength
 5560 20f0 0346     		mov	r3, r0
 5561 20f2 FB80     		strh	r3, [r7, #6]	@ movhi
2276:build\openmote-cc2538_armgcc\openstack\02a-MAClow/IEEE802154E.c ****     if (frameLength == 0) {
 5562              		.loc 1 2276 0
 5563 20f4 FB88     		ldrh	r3, [r7, #6]
 5564 20f6 002B     		cmp	r3, #0
 5565 20f8 06D1     		bne	.L331
2277:build\openmote-cc2538_armgcc\openstack\02a-MAClow/IEEE802154E.c ****         ieee154e_vars.slotOffset++;
 5566              		.loc 1 2277 0
 5567 20fa 134B     		ldr	r3, .L333
 5568 20fc DB88     		ldrh	r3, [r3, #6]
 5569 20fe 0133     		adds	r3, r3, #1
 5570 2100 9AB2     		uxth	r2, r3
 5571 2102 114B     		ldr	r3, .L333
 5572 2104 DA80     		strh	r2, [r3, #6]	@ movhi
 5573 2106 0BE0     		b	.L332
 5574              	.L331:
2278:build\openmote-cc2538_armgcc\openstack\02a-MAClow/IEEE802154E.c ****     } else {
2279:build\openmote-cc2538_armgcc\openstack\02a-MAClow/IEEE802154E.c ****         ieee154e_vars.slotOffset  = (ieee154e_vars.slotOffset+1)%frameLength;
 5575              		.loc 1 2279 0
 5576 2108 0F4B     		ldr	r3, .L333
 5577 210a DB88     		ldrh	r3, [r3, #6]
 5578 210c 0133     		adds	r3, r3, #1
 5579 210e FA88     		ldrh	r2, [r7, #6]
 5580 2110 93FBF2F1 		sdiv	r1, r3, r2
 5581 2114 02FB01F2 		mul	r2, r2, r1
 5582 2118 9B1A     		subs	r3, r3, r2
 5583 211a 9AB2     		uxth	r2, r3
 5584 211c 0A4B     		ldr	r3, .L333
 5585 211e DA80     		strh	r2, [r3, #6]	@ movhi
 5586              	.L332:
2280:build\openmote-cc2538_armgcc\openstack\02a-MAClow/IEEE802154E.c ****     }
2281:build\openmote-cc2538_armgcc\openstack\02a-MAClow/IEEE802154E.c ****    ieee154e_vars.asnOffset   = (ieee154e_vars.asnOffset+1)% NUM_CHANNELS;
 5587              		.loc 1 2281 0
 5588 2120 094B     		ldr	r3, .L333
 5589 2122 93F88131 		ldrb	r3, [r3, #385]	@ zero_extendqisi2
 5590 2126 0133     		adds	r3, r3, #1
 5591 2128 5A42     		rsbs	r2, r3, #0
 5592 212a 03F00F03 		and	r3, r3, #15
 5593 212e 02F00F02 		and	r2, r2, #15
 5594 2132 58BF     		it	pl
 5595 2134 5342     		rsbpl	r3, r2, #0
 5596 2136 DAB2     		uxtb	r2, r3
 5597 2138 034B     		ldr	r3, .L333
 5598 213a 83F88121 		strb	r2, [r3, #385]
2282:build\openmote-cc2538_armgcc\openstack\02a-MAClow/IEEE802154E.c **** }
 5599              		.loc 1 2282 0
 5600 213e 00BF     		nop
 5601 2140 0837     		adds	r7, r7, #8
 5602              		.cfi_def_cfa_offset 8
 5603 2142 BD46     		mov	sp, r7
 5604              		.cfi_def_cfa_register 13
 5605              		@ sp needed
 5606 2144 80BD     		pop	{r7, pc}
 5607              	.L334:
 5608 2146 00BF     		.align	2
 5609              	.L333:
 5610 2148 00000000 		.word	ieee154e_vars
 5611              		.cfi_endproc
 5612              	.LFE51:
 5614              		.align	1
 5615              		.global	ieee154e_resetAsn
 5616              		.syntax unified
 5617              		.thumb
 5618              		.thumb_func
 5619              		.fpu softvfp
 5621              	ieee154e_resetAsn:
 5622              	.LFB52:
2283:build\openmote-cc2538_armgcc\openstack\02a-MAClow/IEEE802154E.c **** 
2284:build\openmote-cc2538_armgcc\openstack\02a-MAClow/IEEE802154E.c **** port_INLINE void ieee154e_resetAsn(void) {
 5623              		.loc 1 2284 0
 5624              		.cfi_startproc
 5625              		@ args = 0, pretend = 0, frame = 0
 5626              		@ frame_needed = 1, uses_anonymous_args = 0
 5627              		@ link register save eliminated.
 5628 214c 80B4     		push	{r7}
 5629              		.cfi_def_cfa_offset 4
 5630              		.cfi_offset 7, -4
 5631 214e 00AF     		add	r7, sp, #0
 5632              		.cfi_def_cfa_register 7
2285:build\openmote-cc2538_armgcc\openstack\02a-MAClow/IEEE802154E.c ****     // reset slotoffset
2286:build\openmote-cc2538_armgcc\openstack\02a-MAClow/IEEE802154E.c ****     ieee154e_vars.slotOffset     = 0;
 5633              		.loc 1 2286 0
 5634 2150 0B4B     		ldr	r3, .L336
 5635 2152 0022     		movs	r2, #0
 5636 2154 DA80     		strh	r2, [r3, #6]	@ movhi
2287:build\openmote-cc2538_armgcc\openstack\02a-MAClow/IEEE802154E.c ****     ieee154e_vars.asnOffset      = 0;
 5637              		.loc 1 2287 0
 5638 2156 0A4B     		ldr	r3, .L336
 5639 2158 0022     		movs	r2, #0
 5640 215a 83F88121 		strb	r2, [r3, #385]
2288:build\openmote-cc2538_armgcc\openstack\02a-MAClow/IEEE802154E.c ****     // reset asn
2289:build\openmote-cc2538_armgcc\openstack\02a-MAClow/IEEE802154E.c ****     ieee154e_vars.asn.byte4      = 0;
 5641              		.loc 1 2289 0
 5642 215e 084B     		ldr	r3, .L336
 5643 2160 0022     		movs	r2, #0
 5644 2162 1A70     		strb	r2, [r3]
2290:build\openmote-cc2538_armgcc\openstack\02a-MAClow/IEEE802154E.c ****     ieee154e_vars.asn.bytes2and3 = 0;
 5645              		.loc 1 2290 0
 5646 2164 064B     		ldr	r3, .L336
 5647 2166 0022     		movs	r2, #0
 5648 2168 5A70     		strb	r2, [r3, #1]
 5649 216a 0022     		movs	r2, #0
 5650 216c 9A70     		strb	r2, [r3, #2]
2291:build\openmote-cc2538_armgcc\openstack\02a-MAClow/IEEE802154E.c ****     ieee154e_vars.asn.bytes0and1 = 0;
 5651              		.loc 1 2291 0
 5652 216e 044B     		ldr	r3, .L336
 5653 2170 0022     		movs	r2, #0
 5654 2172 DA70     		strb	r2, [r3, #3]
 5655 2174 0022     		movs	r2, #0
 5656 2176 1A71     		strb	r2, [r3, #4]
2292:build\openmote-cc2538_armgcc\openstack\02a-MAClow/IEEE802154E.c **** }
 5657              		.loc 1 2292 0
 5658 2178 00BF     		nop
 5659 217a BD46     		mov	sp, r7
 5660              		.cfi_def_cfa_register 13
 5661              		@ sp needed
 5662 217c 80BC     		pop	{r7}
 5663              		.cfi_restore 7
 5664              		.cfi_def_cfa_offset 0
 5665 217e 7047     		bx	lr
 5666              	.L337:
 5667              		.align	2
 5668              	.L336:
 5669 2180 00000000 		.word	ieee154e_vars
 5670              		.cfi_endproc
 5671              	.LFE52:
 5673              		.align	1
 5674              		.global	ieee154e_getAsn
 5675              		.syntax unified
 5676              		.thumb
 5677              		.thumb_func
 5678              		.fpu softvfp
 5680              	ieee154e_getAsn:
 5681              	.LFB53:
2293:build\openmote-cc2538_armgcc\openstack\02a-MAClow/IEEE802154E.c **** 
2294:build\openmote-cc2538_armgcc\openstack\02a-MAClow/IEEE802154E.c **** //from upper layer that want to send the ASN to compute timing or latency
2295:build\openmote-cc2538_armgcc\openstack\02a-MAClow/IEEE802154E.c **** port_INLINE void ieee154e_getAsn(uint8_t* array) {
 5682              		.loc 1 2295 0
 5683              		.cfi_startproc
 5684              		@ args = 0, pretend = 0, frame = 8
 5685              		@ frame_needed = 1, uses_anonymous_args = 0
 5686              		@ link register save eliminated.
 5687 2184 80B4     		push	{r7}
 5688              		.cfi_def_cfa_offset 4
 5689              		.cfi_offset 7, -4
 5690 2186 83B0     		sub	sp, sp, #12
 5691              		.cfi_def_cfa_offset 16
 5692 2188 00AF     		add	r7, sp, #0
 5693              		.cfi_def_cfa_register 7
 5694 218a 7860     		str	r0, [r7, #4]
2296:build\openmote-cc2538_armgcc\openstack\02a-MAClow/IEEE802154E.c ****     array[0]         = (ieee154e_vars.asn.bytes0and1     & 0xff);
 5695              		.loc 1 2296 0
 5696 218c 164B     		ldr	r3, .L339
 5697 218e B3F80330 		ldrh	r3, [r3, #3]	@ unaligned
 5698 2192 9BB2     		uxth	r3, r3
 5699 2194 DAB2     		uxtb	r2, r3
 5700 2196 7B68     		ldr	r3, [r7, #4]
 5701 2198 1A70     		strb	r2, [r3]
2297:build\openmote-cc2538_armgcc\openstack\02a-MAClow/IEEE802154E.c ****     array[1]         = (ieee154e_vars.asn.bytes0and1/256 & 0xff);
 5702              		.loc 1 2297 0
 5703 219a 134B     		ldr	r3, .L339
 5704 219c B3F80330 		ldrh	r3, [r3, #3]	@ unaligned
 5705 21a0 9BB2     		uxth	r3, r3
 5706 21a2 1B0A     		lsrs	r3, r3, #8
 5707 21a4 9AB2     		uxth	r2, r3
 5708 21a6 7B68     		ldr	r3, [r7, #4]
 5709 21a8 0133     		adds	r3, r3, #1
 5710 21aa D2B2     		uxtb	r2, r2
 5711 21ac 1A70     		strb	r2, [r3]
2298:build\openmote-cc2538_armgcc\openstack\02a-MAClow/IEEE802154E.c ****     array[2]         = (ieee154e_vars.asn.bytes2and3     & 0xff);
 5712              		.loc 1 2298 0
 5713 21ae 0E4B     		ldr	r3, .L339
 5714 21b0 B3F80130 		ldrh	r3, [r3, #1]	@ unaligned
 5715 21b4 9AB2     		uxth	r2, r3
 5716 21b6 7B68     		ldr	r3, [r7, #4]
 5717 21b8 0233     		adds	r3, r3, #2
 5718 21ba D2B2     		uxtb	r2, r2
 5719 21bc 1A70     		strb	r2, [r3]
2299:build\openmote-cc2538_armgcc\openstack\02a-MAClow/IEEE802154E.c ****     array[3]         = (ieee154e_vars.asn.bytes2and3/256 & 0xff);
 5720              		.loc 1 2299 0
 5721 21be 0A4B     		ldr	r3, .L339
 5722 21c0 B3F80130 		ldrh	r3, [r3, #1]	@ unaligned
 5723 21c4 9BB2     		uxth	r3, r3
 5724 21c6 1B0A     		lsrs	r3, r3, #8
 5725 21c8 9AB2     		uxth	r2, r3
 5726 21ca 7B68     		ldr	r3, [r7, #4]
 5727 21cc 0333     		adds	r3, r3, #3
 5728 21ce D2B2     		uxtb	r2, r2
 5729 21d0 1A70     		strb	r2, [r3]
2300:build\openmote-cc2538_armgcc\openstack\02a-MAClow/IEEE802154E.c ****     array[4]         =  ieee154e_vars.asn.byte4;
 5730              		.loc 1 2300 0
 5731 21d2 7B68     		ldr	r3, [r7, #4]
 5732 21d4 0433     		adds	r3, r3, #4
 5733 21d6 044A     		ldr	r2, .L339
 5734 21d8 1278     		ldrb	r2, [r2]	@ zero_extendqisi2
 5735 21da 1A70     		strb	r2, [r3]
2301:build\openmote-cc2538_armgcc\openstack\02a-MAClow/IEEE802154E.c **** }
 5736              		.loc 1 2301 0
 5737 21dc 00BF     		nop
 5738 21de 0C37     		adds	r7, r7, #12
 5739              		.cfi_def_cfa_offset 4
 5740 21e0 BD46     		mov	sp, r7
 5741              		.cfi_def_cfa_register 13
 5742              		@ sp needed
 5743 21e2 80BC     		pop	{r7}
 5744              		.cfi_restore 7
 5745              		.cfi_def_cfa_offset 0
 5746 21e4 7047     		bx	lr
 5747              	.L340:
 5748 21e6 00BF     		.align	2
 5749              	.L339:
 5750 21e8 00000000 		.word	ieee154e_vars
 5751              		.cfi_endproc
 5752              	.LFE53:
 5754              		.align	1
 5755              		.global	ieee154e_getTimeCorrection
 5756              		.syntax unified
 5757              		.thumb
 5758              		.thumb_func
 5759              		.fpu softvfp
 5761              	ieee154e_getTimeCorrection:
 5762              	.LFB54:
2302:build\openmote-cc2538_armgcc\openstack\02a-MAClow/IEEE802154E.c **** 
2303:build\openmote-cc2538_armgcc\openstack\02a-MAClow/IEEE802154E.c **** port_INLINE uint16_t ieee154e_getTimeCorrection(void) {
 5763              		.loc 1 2303 0
 5764              		.cfi_startproc
 5765              		@ args = 0, pretend = 0, frame = 8
 5766              		@ frame_needed = 1, uses_anonymous_args = 0
 5767              		@ link register save eliminated.
 5768 21ec 80B4     		push	{r7}
 5769              		.cfi_def_cfa_offset 4
 5770              		.cfi_offset 7, -4
 5771 21ee 83B0     		sub	sp, sp, #12
 5772              		.cfi_def_cfa_offset 16
 5773 21f0 00AF     		add	r7, sp, #0
 5774              		.cfi_def_cfa_register 7
2304:build\openmote-cc2538_armgcc\openstack\02a-MAClow/IEEE802154E.c ****     int16_t returnVal;
2305:build\openmote-cc2538_armgcc\openstack\02a-MAClow/IEEE802154E.c **** 
2306:build\openmote-cc2538_armgcc\openstack\02a-MAClow/IEEE802154E.c ****     returnVal = (uint16_t)(ieee154e_vars.timeCorrection);
 5775              		.loc 1 2306 0
 5776 21f2 054B     		ldr	r3, .L343
 5777 21f4 B3F8A431 		ldrh	r3, [r3, #420]	@ movhi
 5778 21f8 FB80     		strh	r3, [r7, #6]	@ movhi
2307:build\openmote-cc2538_armgcc\openstack\02a-MAClow/IEEE802154E.c **** 
2308:build\openmote-cc2538_armgcc\openstack\02a-MAClow/IEEE802154E.c ****     return returnVal;
 5779              		.loc 1 2308 0
 5780 21fa FB88     		ldrh	r3, [r7, #6]
2309:build\openmote-cc2538_armgcc\openstack\02a-MAClow/IEEE802154E.c **** }
 5781              		.loc 1 2309 0
 5782 21fc 1846     		mov	r0, r3
 5783 21fe 0C37     		adds	r7, r7, #12
 5784              		.cfi_def_cfa_offset 4
 5785 2200 BD46     		mov	sp, r7
 5786              		.cfi_def_cfa_register 13
 5787              		@ sp needed
 5788 2202 80BC     		pop	{r7}
 5789              		.cfi_restore 7
 5790              		.cfi_def_cfa_offset 0
 5791 2204 7047     		bx	lr
 5792              	.L344:
 5793 2206 00BF     		.align	2
 5794              	.L343:
 5795 2208 00000000 		.word	ieee154e_vars
 5796              		.cfi_endproc
 5797              	.LFE54:
 5799              		.align	1
 5800              		.global	joinPriorityStoreFromEB
 5801              		.syntax unified
 5802              		.thumb
 5803              		.thumb_func
 5804              		.fpu softvfp
 5806              	joinPriorityStoreFromEB:
 5807              	.LFB55:
2310:build\openmote-cc2538_armgcc\openstack\02a-MAClow/IEEE802154E.c **** 
2311:build\openmote-cc2538_armgcc\openstack\02a-MAClow/IEEE802154E.c **** port_INLINE void joinPriorityStoreFromEB(uint8_t jp){
 5808              		.loc 1 2311 0
 5809              		.cfi_startproc
 5810              		@ args = 0, pretend = 0, frame = 8
 5811              		@ frame_needed = 1, uses_anonymous_args = 0
 5812              		@ link register save eliminated.
 5813 220c 80B4     		push	{r7}
 5814              		.cfi_def_cfa_offset 4
 5815              		.cfi_offset 7, -4
 5816 220e 83B0     		sub	sp, sp, #12
 5817              		.cfi_def_cfa_offset 16
 5818 2210 00AF     		add	r7, sp, #0
 5819              		.cfi_def_cfa_register 7
 5820 2212 0346     		mov	r3, r0
 5821 2214 FB71     		strb	r3, [r7, #7]
2312:build\openmote-cc2538_armgcc\openstack\02a-MAClow/IEEE802154E.c ****     ieee154e_vars.dataReceived->l2_joinPriority = jp;
 5822              		.loc 1 2312 0
 5823 2216 084B     		ldr	r3, .L346
 5824 2218 D3F86C31 		ldr	r3, [r3, #364]
 5825 221c FA79     		ldrb	r2, [r7, #7]
 5826 221e 83F8A020 		strb	r2, [r3, #160]
2313:build\openmote-cc2538_armgcc\openstack\02a-MAClow/IEEE802154E.c ****     ieee154e_vars.dataReceived->l2_joinPriorityPresent = TRUE;
 5827              		.loc 1 2313 0
 5828 2222 054B     		ldr	r3, .L346
 5829 2224 D3F86C31 		ldr	r3, [r3, #364]
 5830 2228 0122     		movs	r2, #1
 5831 222a 83F8A320 		strb	r2, [r3, #163]
2314:build\openmote-cc2538_armgcc\openstack\02a-MAClow/IEEE802154E.c **** }
 5832              		.loc 1 2314 0
 5833 222e 00BF     		nop
 5834 2230 0C37     		adds	r7, r7, #12
 5835              		.cfi_def_cfa_offset 4
 5836 2232 BD46     		mov	sp, r7
 5837              		.cfi_def_cfa_register 13
 5838              		@ sp needed
 5839 2234 80BC     		pop	{r7}
 5840              		.cfi_restore 7
 5841              		.cfi_def_cfa_offset 0
 5842 2236 7047     		bx	lr
 5843              	.L347:
 5844              		.align	2
 5845              	.L346:
 5846 2238 00000000 		.word	ieee154e_vars
 5847              		.cfi_endproc
 5848              	.LFE55:
 5850              		.align	1
 5851              		.global	isValidJoin
 5852              		.syntax unified
 5853              		.thumb
 5854              		.thumb_func
 5855              		.fpu softvfp
 5857              	isValidJoin:
 5858              	.LFB56:
2315:build\openmote-cc2538_armgcc\openstack\02a-MAClow/IEEE802154E.c **** 
2316:build\openmote-cc2538_armgcc\openstack\02a-MAClow/IEEE802154E.c **** // This function parses IEs from an EB to get to the ASN before security
2317:build\openmote-cc2538_armgcc\openstack\02a-MAClow/IEEE802154E.c **** // processing is invoked. It should be called *only* when a node has no/lost sync.
2318:build\openmote-cc2538_armgcc\openstack\02a-MAClow/IEEE802154E.c **** // This way, we can authenticate EBs and reject unwanted ones.
2319:build\openmote-cc2538_armgcc\openstack\02a-MAClow/IEEE802154E.c **** bool isValidJoin(OpenQueueEntry_t* eb, ieee802154_header_iht *parsedHeader) {
 5859              		.loc 1 2319 0
 5860              		.cfi_startproc
 5861              		@ args = 0, pretend = 0, frame = 16
 5862              		@ frame_needed = 1, uses_anonymous_args = 0
 5863 223c 90B5     		push	{r4, r7, lr}
 5864              		.cfi_def_cfa_offset 12
 5865              		.cfi_offset 4, -12
 5866              		.cfi_offset 7, -8
 5867              		.cfi_offset 14, -4
 5868 223e 85B0     		sub	sp, sp, #20
 5869              		.cfi_def_cfa_offset 32
 5870 2240 00AF     		add	r7, sp, #0
 5871              		.cfi_def_cfa_register 7
 5872 2242 7860     		str	r0, [r7, #4]
 5873 2244 3960     		str	r1, [r7]
2320:build\openmote-cc2538_armgcc\openstack\02a-MAClow/IEEE802154E.c ****     uint16_t              lenIE;
2321:build\openmote-cc2538_armgcc\openstack\02a-MAClow/IEEE802154E.c **** 
2322:build\openmote-cc2538_armgcc\openstack\02a-MAClow/IEEE802154E.c ****     // toss the header in order to get to IEs
2323:build\openmote-cc2538_armgcc\openstack\02a-MAClow/IEEE802154E.c ****     packetfunctions_tossHeader(eb, parsedHeader->headerLength);
 5874              		.loc 1 2323 0
 5875 2246 3B68     		ldr	r3, [r7]
 5876 2248 5B78     		ldrb	r3, [r3, #1]	@ zero_extendqisi2
 5877 224a 1946     		mov	r1, r3
 5878 224c 7868     		ldr	r0, [r7, #4]
 5879 224e FFF7FEFF 		bl	packetfunctions_tossHeader
2324:build\openmote-cc2538_armgcc\openstack\02a-MAClow/IEEE802154E.c **** 
2325:build\openmote-cc2538_armgcc\openstack\02a-MAClow/IEEE802154E.c ****     // process IEs
2326:build\openmote-cc2538_armgcc\openstack\02a-MAClow/IEEE802154E.c ****     // at this stage, this can work only if EB is authenticated but not encrypted
2327:build\openmote-cc2538_armgcc\openstack\02a-MAClow/IEEE802154E.c ****     lenIE = 0;
 5880              		.loc 1 2327 0
 5881 2252 0023     		movs	r3, #0
 5882 2254 FB81     		strh	r3, [r7, #14]	@ movhi
2328:build\openmote-cc2538_armgcc\openstack\02a-MAClow/IEEE802154E.c ****     if (
2329:build\openmote-cc2538_armgcc\openstack\02a-MAClow/IEEE802154E.c ****         (
2330:build\openmote-cc2538_armgcc\openstack\02a-MAClow/IEEE802154E.c ****             parsedHeader->valid==TRUE                                                       &&
 5883              		.loc 1 2330 0
 5884 2256 3B68     		ldr	r3, [r7]
 5885 2258 1B78     		ldrb	r3, [r3]	@ zero_extendqisi2
2331:build\openmote-cc2538_armgcc\openstack\02a-MAClow/IEEE802154E.c ****             parsedHeader->ieListPresent==TRUE                                               &&
2332:build\openmote-cc2538_armgcc\openstack\02a-MAClow/IEEE802154E.c ****             parsedHeader->frameType==IEEE154_TYPE_BEACON                                    &&
2333:build\openmote-cc2538_armgcc\openstack\02a-MAClow/IEEE802154E.c ****             packetfunctions_sameAddress(&parsedHeader->panid,idmanager_getMyID(ADDR_PANID)) &&
 5886              		.loc 1 2333 0
 5887 225a 002B     		cmp	r3, #0
 5888 225c 20D0     		beq	.L349
2331:build\openmote-cc2538_armgcc\openstack\02a-MAClow/IEEE802154E.c ****             parsedHeader->ieListPresent==TRUE                                               &&
 5889              		.loc 1 2331 0
 5890 225e 3B68     		ldr	r3, [r7]
 5891 2260 DB79     		ldrb	r3, [r3, #7]	@ zero_extendqisi2
2330:build\openmote-cc2538_armgcc\openstack\02a-MAClow/IEEE802154E.c ****             parsedHeader->ieListPresent==TRUE                                               &&
 5892              		.loc 1 2330 0
 5893 2262 002B     		cmp	r3, #0
 5894 2264 1CD0     		beq	.L349
2332:build\openmote-cc2538_armgcc\openstack\02a-MAClow/IEEE802154E.c ****             packetfunctions_sameAddress(&parsedHeader->panid,idmanager_getMyID(ADDR_PANID)) &&
 5895              		.loc 1 2332 0
 5896 2266 3B68     		ldr	r3, [r7]
 5897 2268 9B78     		ldrb	r3, [r3, #2]	@ zero_extendqisi2
2331:build\openmote-cc2538_armgcc\openstack\02a-MAClow/IEEE802154E.c ****             parsedHeader->ieListPresent==TRUE                                               &&
 5898              		.loc 1 2331 0
 5899 226a 002B     		cmp	r3, #0
 5900 226c 18D1     		bne	.L349
 5901              		.loc 1 2333 0
 5902 226e 3B68     		ldr	r3, [r7]
 5903 2270 03F10B04 		add	r4, r3, #11
 5904 2274 0420     		movs	r0, #4
 5905 2276 FFF7FEFF 		bl	idmanager_getMyID
 5906 227a 0346     		mov	r3, r0
 5907 227c 1946     		mov	r1, r3
 5908 227e 2046     		mov	r0, r4
 5909 2280 FFF7FEFF 		bl	packetfunctions_sameAddress
 5910 2284 0346     		mov	r3, r0
2332:build\openmote-cc2538_armgcc\openstack\02a-MAClow/IEEE802154E.c ****             packetfunctions_sameAddress(&parsedHeader->panid,idmanager_getMyID(ADDR_PANID)) &&
 5911              		.loc 1 2332 0
 5912 2286 002B     		cmp	r3, #0
 5913 2288 0AD0     		beq	.L349
2334:build\openmote-cc2538_armgcc\openstack\02a-MAClow/IEEE802154E.c ****             ieee154e_processIEs(eb,&lenIE)
 5914              		.loc 1 2334 0 discriminator 3
 5915 228a 07F10E03 		add	r3, r7, #14
 5916 228e 1946     		mov	r1, r3
 5917 2290 7868     		ldr	r0, [r7, #4]
 5918 2292 FFF7FEFF 		bl	ieee154e_processIEs
 5919 2296 0346     		mov	r3, r0
2333:build\openmote-cc2538_armgcc\openstack\02a-MAClow/IEEE802154E.c ****             ieee154e_processIEs(eb,&lenIE)
 5920              		.loc 1 2333 0 discriminator 3
 5921 2298 002B     		cmp	r3, #0
 5922 229a 01D0     		beq	.L349
2333:build\openmote-cc2538_armgcc\openstack\02a-MAClow/IEEE802154E.c ****             ieee154e_processIEs(eb,&lenIE)
 5923              		.loc 1 2333 0 is_stmt 0 discriminator 2
 5924 229c 0123     		movs	r3, #1
 5925 229e 00E0     		b	.L350
 5926              	.L349:
2333:build\openmote-cc2538_armgcc\openstack\02a-MAClow/IEEE802154E.c ****             ieee154e_processIEs(eb,&lenIE)
 5927              		.loc 1 2333 0 discriminator 1
 5928 22a0 0023     		movs	r3, #0
 5929              	.L350:
2328:build\openmote-cc2538_armgcc\openstack\02a-MAClow/IEEE802154E.c ****         (
 5930              		.loc 1 2328 0 is_stmt 1
 5931 22a2 002B     		cmp	r3, #0
 5932 22a4 01D1     		bne	.L351
2335:build\openmote-cc2538_armgcc\openstack\02a-MAClow/IEEE802154E.c ****         )==FALSE
2336:build\openmote-cc2538_armgcc\openstack\02a-MAClow/IEEE802154E.c ****     ) {
2337:build\openmote-cc2538_armgcc\openstack\02a-MAClow/IEEE802154E.c ****         return FALSE;
 5933              		.loc 1 2337 0
 5934 22a6 0023     		movs	r3, #0
 5935 22a8 1CE0     		b	.L355
 5936              	.L351:
2338:build\openmote-cc2538_armgcc\openstack\02a-MAClow/IEEE802154E.c ****     }
2339:build\openmote-cc2538_armgcc\openstack\02a-MAClow/IEEE802154E.c **** 
2340:build\openmote-cc2538_armgcc\openstack\02a-MAClow/IEEE802154E.c ****     // put everything back in place in order to invoke security-incoming on the
2341:build\openmote-cc2538_armgcc\openstack\02a-MAClow/IEEE802154E.c ****     // correct frame length and correct pointers (first byte of the frame)
2342:build\openmote-cc2538_armgcc\openstack\02a-MAClow/IEEE802154E.c ****     packetfunctions_reserveHeaderSize(eb, parsedHeader->headerLength);
 5937              		.loc 1 2342 0
 5938 22aa 3B68     		ldr	r3, [r7]
 5939 22ac 5B78     		ldrb	r3, [r3, #1]	@ zero_extendqisi2
 5940 22ae 1946     		mov	r1, r3
 5941 22b0 7868     		ldr	r0, [r7, #4]
 5942 22b2 FFF7FEFF 		bl	packetfunctions_reserveHeaderSize
2343:build\openmote-cc2538_armgcc\openstack\02a-MAClow/IEEE802154E.c **** 
2344:build\openmote-cc2538_armgcc\openstack\02a-MAClow/IEEE802154E.c ****     // verify EB's authentication tag if keys are configured
2345:build\openmote-cc2538_armgcc\openstack\02a-MAClow/IEEE802154E.c ****     if (IEEE802154_security_isConfigured()) {
 5943              		.loc 1 2345 0
 5944 22b6 FFF7FEFF 		bl	IEEE802154_security_isConfigured
 5945 22ba 0346     		mov	r3, r0
 5946 22bc 002B     		cmp	r3, #0
 5947 22be 07D0     		beq	.L353
2346:build\openmote-cc2538_armgcc\openstack\02a-MAClow/IEEE802154E.c ****         if (IEEE802154_security_incomingFrame(eb) == E_SUCCESS) {
 5948              		.loc 1 2346 0
 5949 22c0 7868     		ldr	r0, [r7, #4]
 5950 22c2 FFF7FEFF 		bl	IEEE802154_security_incomingFrame
 5951 22c6 0346     		mov	r3, r0
 5952 22c8 002B     		cmp	r3, #0
 5953 22ca 0AD1     		bne	.L354
2347:build\openmote-cc2538_armgcc\openstack\02a-MAClow/IEEE802154E.c ****             return TRUE;
 5954              		.loc 1 2347 0
 5955 22cc 0123     		movs	r3, #1
 5956 22ce 09E0     		b	.L355
 5957              	.L353:
2348:build\openmote-cc2538_armgcc\openstack\02a-MAClow/IEEE802154E.c ****         }
2349:build\openmote-cc2538_armgcc\openstack\02a-MAClow/IEEE802154E.c ****     } else {
2350:build\openmote-cc2538_armgcc\openstack\02a-MAClow/IEEE802154E.c ****         // bypass authentication check for beacons if security is not configured
2351:build\openmote-cc2538_armgcc\openstack\02a-MAClow/IEEE802154E.c ****         packetfunctions_tossFooter(eb,eb->l2_authenticationLength);
 5958              		.loc 1 2351 0
 5959 22d0 7B68     		ldr	r3, [r7, #4]
 5960 22d2 93F8BD30 		ldrb	r3, [r3, #189]	@ zero_extendqisi2
 5961 22d6 1946     		mov	r1, r3
 5962 22d8 7868     		ldr	r0, [r7, #4]
 5963 22da FFF7FEFF 		bl	packetfunctions_tossFooter
2352:build\openmote-cc2538_armgcc\openstack\02a-MAClow/IEEE802154E.c ****         return TRUE;
 5964              		.loc 1 2352 0
 5965 22de 0123     		movs	r3, #1
 5966 22e0 00E0     		b	.L355
 5967              	.L354:
2353:build\openmote-cc2538_armgcc\openstack\02a-MAClow/IEEE802154E.c ****     }
2354:build\openmote-cc2538_armgcc\openstack\02a-MAClow/IEEE802154E.c **** 
2355:build\openmote-cc2538_armgcc\openstack\02a-MAClow/IEEE802154E.c ****     return FALSE;
 5968              		.loc 1 2355 0
 5969 22e2 0023     		movs	r3, #0
 5970              	.L355:
2356:build\openmote-cc2538_armgcc\openstack\02a-MAClow/IEEE802154E.c **** }
 5971              		.loc 1 2356 0 discriminator 1
 5972 22e4 1846     		mov	r0, r3
 5973 22e6 1437     		adds	r7, r7, #20
 5974              		.cfi_def_cfa_offset 12
 5975 22e8 BD46     		mov	sp, r7
 5976              		.cfi_def_cfa_register 13
 5977              		@ sp needed
 5978 22ea 90BD     		pop	{r4, r7, pc}
 5979              		.cfi_endproc
 5980              	.LFE56:
 5982              		.align	1
 5983              		.global	isValidEbFormat
 5984              		.syntax unified
 5985              		.thumb
 5986              		.thumb_func
 5987              		.fpu softvfp
 5989              	isValidEbFormat:
 5990              	.LFB57:
2357:build\openmote-cc2538_armgcc\openstack\02a-MAClow/IEEE802154E.c **** 
2358:build\openmote-cc2538_armgcc\openstack\02a-MAClow/IEEE802154E.c **** bool isValidEbFormat(OpenQueueEntry_t* pkt, uint16_t* lenIE){
 5991              		.loc 1 2358 0
 5992              		.cfi_startproc
 5993              		@ args = 0, pretend = 0, frame = 48
 5994              		@ frame_needed = 1, uses_anonymous_args = 0
 5995 22ec 80B5     		push	{r7, lr}
 5996              		.cfi_def_cfa_offset 8
 5997              		.cfi_offset 7, -8
 5998              		.cfi_offset 14, -4
 5999 22ee 8EB0     		sub	sp, sp, #56
 6000              		.cfi_def_cfa_offset 64
 6001 22f0 02AF     		add	r7, sp, #8
 6002              		.cfi_def_cfa 7, 56
 6003 22f2 7860     		str	r0, [r7, #4]
 6004 22f4 3960     		str	r1, [r7]
2359:build\openmote-cc2538_armgcc\openstack\02a-MAClow/IEEE802154E.c **** 
2360:build\openmote-cc2538_armgcc\openstack\02a-MAClow/IEEE802154E.c ****     bool    chTemplate_checkPass;
2361:build\openmote-cc2538_armgcc\openstack\02a-MAClow/IEEE802154E.c ****     bool    tsTemplate_checkpass;
2362:build\openmote-cc2538_armgcc\openstack\02a-MAClow/IEEE802154E.c ****     bool    sync_ie_checkPass;
2363:build\openmote-cc2538_armgcc\openstack\02a-MAClow/IEEE802154E.c ****     bool    slotframelink_ie_checkPass;
2364:build\openmote-cc2538_armgcc\openstack\02a-MAClow/IEEE802154E.c **** 
2365:build\openmote-cc2538_armgcc\openstack\02a-MAClow/IEEE802154E.c ****     uint8_t ptr;
2366:build\openmote-cc2538_armgcc\openstack\02a-MAClow/IEEE802154E.c ****     uint16_t temp16b;
2367:build\openmote-cc2538_armgcc\openstack\02a-MAClow/IEEE802154E.c ****     bool    mlme_ie_found;
2368:build\openmote-cc2538_armgcc\openstack\02a-MAClow/IEEE802154E.c ****     uint8_t mlme_ie_content_offset;
2369:build\openmote-cc2538_armgcc\openstack\02a-MAClow/IEEE802154E.c ****     uint8_t ielen;
2370:build\openmote-cc2538_armgcc\openstack\02a-MAClow/IEEE802154E.c **** 
2371:build\openmote-cc2538_armgcc\openstack\02a-MAClow/IEEE802154E.c ****     uint8_t subtype;
2372:build\openmote-cc2538_armgcc\openstack\02a-MAClow/IEEE802154E.c ****     uint8_t sublen;
2373:build\openmote-cc2538_armgcc\openstack\02a-MAClow/IEEE802154E.c ****     uint8_t subid;
2374:build\openmote-cc2538_armgcc\openstack\02a-MAClow/IEEE802154E.c **** 
2375:build\openmote-cc2538_armgcc\openstack\02a-MAClow/IEEE802154E.c ****     uint8_t i;
2376:build\openmote-cc2538_armgcc\openstack\02a-MAClow/IEEE802154E.c ****     uint8_t  oldFrameLength;
2377:build\openmote-cc2538_armgcc\openstack\02a-MAClow/IEEE802154E.c ****     uint8_t  numlinks;
2378:build\openmote-cc2538_armgcc\openstack\02a-MAClow/IEEE802154E.c ****     open_addr_t temp_neighbor;
2379:build\openmote-cc2538_armgcc\openstack\02a-MAClow/IEEE802154E.c ****     uint16_t slotoffset;
2380:build\openmote-cc2538_armgcc\openstack\02a-MAClow/IEEE802154E.c ****     uint16_t channeloffset;
2381:build\openmote-cc2538_armgcc\openstack\02a-MAClow/IEEE802154E.c **** 
2382:build\openmote-cc2538_armgcc\openstack\02a-MAClow/IEEE802154E.c ****     chTemplate_checkPass        = FALSE;
 6005              		.loc 1 2382 0
 6006 22f6 0023     		movs	r3, #0
 6007 22f8 87F82F30 		strb	r3, [r7, #47]
2383:build\openmote-cc2538_armgcc\openstack\02a-MAClow/IEEE802154E.c ****     tsTemplate_checkpass        = FALSE;
 6008              		.loc 1 2383 0
 6009 22fc 0023     		movs	r3, #0
 6010 22fe 87F82E30 		strb	r3, [r7, #46]
2384:build\openmote-cc2538_armgcc\openstack\02a-MAClow/IEEE802154E.c ****     sync_ie_checkPass           = FALSE;
 6011              		.loc 1 2384 0
 6012 2302 0023     		movs	r3, #0
 6013 2304 87F82D30 		strb	r3, [r7, #45]
2385:build\openmote-cc2538_armgcc\openstack\02a-MAClow/IEEE802154E.c ****     slotframelink_ie_checkPass  = FALSE;
 6014              		.loc 1 2385 0
 6015 2308 0023     		movs	r3, #0
 6016 230a 87F82C30 		strb	r3, [r7, #44]
2386:build\openmote-cc2538_armgcc\openstack\02a-MAClow/IEEE802154E.c **** 
2387:build\openmote-cc2538_armgcc\openstack\02a-MAClow/IEEE802154E.c ****     ptr = 0;
 6017              		.loc 1 2387 0
 6018 230e 0023     		movs	r3, #0
 6019 2310 87F82B30 		strb	r3, [r7, #43]
2388:build\openmote-cc2538_armgcc\openstack\02a-MAClow/IEEE802154E.c ****     mlme_ie_found = FALSE;
 6020              		.loc 1 2388 0
 6021 2314 0023     		movs	r3, #0
 6022 2316 87F82A30 		strb	r3, [r7, #42]
2389:build\openmote-cc2538_armgcc\openstack\02a-MAClow/IEEE802154E.c **** 
2390:build\openmote-cc2538_armgcc\openstack\02a-MAClow/IEEE802154E.c ****     while (ptr<pkt->length){
 6023              		.loc 1 2390 0
 6024 231a 36E0     		b	.L357
 6025              	.L361:
2391:build\openmote-cc2538_armgcc\openstack\02a-MAClow/IEEE802154E.c **** 
2392:build\openmote-cc2538_armgcc\openstack\02a-MAClow/IEEE802154E.c ****         temp16b  = *((uint8_t*)(pkt->payload)+ptr);
 6026              		.loc 1 2392 0
 6027 231c 7B68     		ldr	r3, [r7, #4]
 6028 231e 5A68     		ldr	r2, [r3, #4]
 6029 2320 97F82B30 		ldrb	r3, [r7, #43]	@ zero_extendqisi2
 6030 2324 1344     		add	r3, r3, r2
 6031 2326 1B78     		ldrb	r3, [r3]	@ zero_extendqisi2
 6032 2328 BB84     		strh	r3, [r7, #36]	@ movhi
2393:build\openmote-cc2538_armgcc\openstack\02a-MAClow/IEEE802154E.c ****         temp16b |= (*((uint8_t*)(pkt->payload)+ptr+1))<<8;
 6033              		.loc 1 2393 0
 6034 232a 7B68     		ldr	r3, [r7, #4]
 6035 232c 5A68     		ldr	r2, [r3, #4]
 6036 232e 97F82B30 		ldrb	r3, [r7, #43]	@ zero_extendqisi2
 6037 2332 0133     		adds	r3, r3, #1
 6038 2334 1344     		add	r3, r3, r2
 6039 2336 1B78     		ldrb	r3, [r3]	@ zero_extendqisi2
 6040 2338 1B02     		lsls	r3, r3, #8
 6041 233a 1AB2     		sxth	r2, r3
 6042 233c B7F92430 		ldrsh	r3, [r7, #36]
 6043 2340 1343     		orrs	r3, r3, r2
 6044 2342 1BB2     		sxth	r3, r3
 6045 2344 BB84     		strh	r3, [r7, #36]	@ movhi
2394:build\openmote-cc2538_armgcc\openstack\02a-MAClow/IEEE802154E.c ****         ptr += 2;
 6046              		.loc 1 2394 0
 6047 2346 97F82B30 		ldrb	r3, [r7, #43]
 6048 234a 0233     		adds	r3, r3, #2
 6049 234c 87F82B30 		strb	r3, [r7, #43]
2395:build\openmote-cc2538_armgcc\openstack\02a-MAClow/IEEE802154E.c **** 
2396:build\openmote-cc2538_armgcc\openstack\02a-MAClow/IEEE802154E.c ****         ielen = temp16b & IEEE802154E_DESC_LEN_PAYLOAD_IE_MASK;
 6050              		.loc 1 2396 0
 6051 2350 BB8C     		ldrh	r3, [r7, #36]	@ movhi
 6052 2352 87F82830 		strb	r3, [r7, #40]
2397:build\openmote-cc2538_armgcc\openstack\02a-MAClow/IEEE802154E.c **** 
2398:build\openmote-cc2538_armgcc\openstack\02a-MAClow/IEEE802154E.c ****         if (
2399:build\openmote-cc2538_armgcc\openstack\02a-MAClow/IEEE802154E.c ****             (temp16b & IEEE802154E_DESC_GROUPID_PAYLOAD_IE_MASK)>>IEEE802154E_DESC_GROUPID_PAYLOAD_
 6053              		.loc 1 2399 0
 6054 2356 BB8C     		ldrh	r3, [r7, #36]
 6055 2358 DB12     		asrs	r3, r3, #11
 6056 235a 03F00F03 		and	r3, r3, #15
2398:build\openmote-cc2538_armgcc\openstack\02a-MAClow/IEEE802154E.c ****             (temp16b & IEEE802154E_DESC_GROUPID_PAYLOAD_IE_MASK)>>IEEE802154E_DESC_GROUPID_PAYLOAD_
 6057              		.loc 1 2398 0
 6058 235e 012B     		cmp	r3, #1
 6059 2360 03D1     		bne	.L358
2400:build\openmote-cc2538_armgcc\openstack\02a-MAClow/IEEE802154E.c ****             (temp16b & IEEE802154E_DESC_TYPE_LONG) == 0
 6060              		.loc 1 2400 0
 6061 2362 B7F92430 		ldrsh	r3, [r7, #36]
2399:build\openmote-cc2538_armgcc\openstack\02a-MAClow/IEEE802154E.c ****             (temp16b & IEEE802154E_DESC_TYPE_LONG) == 0
 6062              		.loc 1 2399 0
 6063 2366 002B     		cmp	r3, #0
 6064 2368 07DB     		blt	.L359
 6065              	.L358:
2401:build\openmote-cc2538_armgcc\openstack\02a-MAClow/IEEE802154E.c ****         ){
2402:build\openmote-cc2538_armgcc\openstack\02a-MAClow/IEEE802154E.c ****             // this is not MLME IE
2403:build\openmote-cc2538_armgcc\openstack\02a-MAClow/IEEE802154E.c ****             ptr += ielen;
 6066              		.loc 1 2403 0
 6067 236a 97F82B20 		ldrb	r2, [r7, #43]
 6068 236e 97F82830 		ldrb	r3, [r7, #40]
 6069 2372 1344     		add	r3, r3, r2
 6070 2374 87F82B30 		strb	r3, [r7, #43]
 6071 2378 07E0     		b	.L357
 6072              	.L359:
2404:build\openmote-cc2538_armgcc\openstack\02a-MAClow/IEEE802154E.c ****         } else {
2405:build\openmote-cc2538_armgcc\openstack\02a-MAClow/IEEE802154E.c ****             // found the MLME payload IE
2406:build\openmote-cc2538_armgcc\openstack\02a-MAClow/IEEE802154E.c ****             mlme_ie_found = TRUE;
 6073              		.loc 1 2406 0
 6074 237a 0123     		movs	r3, #1
 6075 237c 87F82A30 		strb	r3, [r7, #42]
2407:build\openmote-cc2538_armgcc\openstack\02a-MAClow/IEEE802154E.c ****             mlme_ie_content_offset = ptr;
 6076              		.loc 1 2407 0
 6077 2380 97F82B30 		ldrb	r3, [r7, #43]
 6078 2384 87F82930 		strb	r3, [r7, #41]
2408:build\openmote-cc2538_armgcc\openstack\02a-MAClow/IEEE802154E.c ****             break;
 6079              		.loc 1 2408 0
 6080 2388 05E0     		b	.L360
 6081              	.L357:
2390:build\openmote-cc2538_armgcc\openstack\02a-MAClow/IEEE802154E.c **** 
 6082              		.loc 1 2390 0
 6083 238a 7B68     		ldr	r3, [r7, #4]
 6084 238c 1B7A     		ldrb	r3, [r3, #8]	@ zero_extendqisi2
 6085 238e 97F82B20 		ldrb	r2, [r7, #43]	@ zero_extendqisi2
 6086 2392 9A42     		cmp	r2, r3
 6087 2394 C2D3     		bcc	.L361
 6088              	.L360:
2409:build\openmote-cc2538_armgcc\openstack\02a-MAClow/IEEE802154E.c ****         }
2410:build\openmote-cc2538_armgcc\openstack\02a-MAClow/IEEE802154E.c ****     }
2411:build\openmote-cc2538_armgcc\openstack\02a-MAClow/IEEE802154E.c **** 
2412:build\openmote-cc2538_armgcc\openstack\02a-MAClow/IEEE802154E.c ****     if (mlme_ie_found==FALSE){
 6089              		.loc 1 2412 0
 6090 2396 97F82A30 		ldrb	r3, [r7, #42]
 6091 239a 83F00103 		eor	r3, r3, #1
 6092 239e DBB2     		uxtb	r3, r3
 6093 23a0 002B     		cmp	r3, #0
 6094 23a2 00F02981 		beq	.L364
2413:build\openmote-cc2538_armgcc\openstack\02a-MAClow/IEEE802154E.c ****         // didn't find the MLME payload IE
2414:build\openmote-cc2538_armgcc\openstack\02a-MAClow/IEEE802154E.c ****         return FALSE;
 6095              		.loc 1 2414 0
 6096 23a6 0023     		movs	r3, #0
 6097 23a8 67E1     		b	.L380
 6098              	.L378:
2415:build\openmote-cc2538_armgcc\openstack\02a-MAClow/IEEE802154E.c ****     }
2416:build\openmote-cc2538_armgcc\openstack\02a-MAClow/IEEE802154E.c **** 
2417:build\openmote-cc2538_armgcc\openstack\02a-MAClow/IEEE802154E.c ****     while(
2418:build\openmote-cc2538_armgcc\openstack\02a-MAClow/IEEE802154E.c ****         ptr<mlme_ie_content_offset+ielen &&
2419:build\openmote-cc2538_armgcc\openstack\02a-MAClow/IEEE802154E.c ****         (
2420:build\openmote-cc2538_armgcc\openstack\02a-MAClow/IEEE802154E.c ****             chTemplate_checkPass        == FALSE ||
2421:build\openmote-cc2538_armgcc\openstack\02a-MAClow/IEEE802154E.c ****             tsTemplate_checkpass        == FALSE ||
2422:build\openmote-cc2538_armgcc\openstack\02a-MAClow/IEEE802154E.c ****             sync_ie_checkPass           == FALSE ||
2423:build\openmote-cc2538_armgcc\openstack\02a-MAClow/IEEE802154E.c ****             slotframelink_ie_checkPass  == FALSE
2424:build\openmote-cc2538_armgcc\openstack\02a-MAClow/IEEE802154E.c ****         )
2425:build\openmote-cc2538_armgcc\openstack\02a-MAClow/IEEE802154E.c ****     ){
2426:build\openmote-cc2538_armgcc\openstack\02a-MAClow/IEEE802154E.c ****         // subID
2427:build\openmote-cc2538_armgcc\openstack\02a-MAClow/IEEE802154E.c ****         temp16b  = *((uint8_t*)(pkt->payload)+ptr);
 6099              		.loc 1 2427 0
 6100 23aa 7B68     		ldr	r3, [r7, #4]
 6101 23ac 5A68     		ldr	r2, [r3, #4]
 6102 23ae 97F82B30 		ldrb	r3, [r7, #43]	@ zero_extendqisi2
 6103 23b2 1344     		add	r3, r3, r2
 6104 23b4 1B78     		ldrb	r3, [r3]	@ zero_extendqisi2
 6105 23b6 BB84     		strh	r3, [r7, #36]	@ movhi
2428:build\openmote-cc2538_armgcc\openstack\02a-MAClow/IEEE802154E.c ****         temp16b |= (*((uint8_t*)(pkt->payload)+ptr+1))<<8;
 6106              		.loc 1 2428 0
 6107 23b8 7B68     		ldr	r3, [r7, #4]
 6108 23ba 5A68     		ldr	r2, [r3, #4]
 6109 23bc 97F82B30 		ldrb	r3, [r7, #43]	@ zero_extendqisi2
 6110 23c0 0133     		adds	r3, r3, #1
 6111 23c2 1344     		add	r3, r3, r2
 6112 23c4 1B78     		ldrb	r3, [r3]	@ zero_extendqisi2
 6113 23c6 1B02     		lsls	r3, r3, #8
 6114 23c8 1AB2     		sxth	r2, r3
 6115 23ca B7F92430 		ldrsh	r3, [r7, #36]
 6116 23ce 1343     		orrs	r3, r3, r2
 6117 23d0 1BB2     		sxth	r3, r3
 6118 23d2 BB84     		strh	r3, [r7, #36]	@ movhi
2429:build\openmote-cc2538_armgcc\openstack\02a-MAClow/IEEE802154E.c ****         ptr += 2;
 6119              		.loc 1 2429 0
 6120 23d4 97F82B30 		ldrb	r3, [r7, #43]
 6121 23d8 0233     		adds	r3, r3, #2
 6122 23da 87F82B30 		strb	r3, [r7, #43]
2430:build\openmote-cc2538_armgcc\openstack\02a-MAClow/IEEE802154E.c **** 
2431:build\openmote-cc2538_armgcc\openstack\02a-MAClow/IEEE802154E.c ****         subtype = (temp16b & IEEE802154E_DESC_TYPE_IE_MASK)>>IEEE802154E_DESC_TYPE_IE_SHIFT;
 6123              		.loc 1 2431 0
 6124 23de BB8C     		ldrh	r3, [r7, #36]
 6125 23e0 DB0B     		lsrs	r3, r3, #15
 6126 23e2 9BB2     		uxth	r3, r3
 6127 23e4 87F82330 		strb	r3, [r7, #35]
2432:build\openmote-cc2538_armgcc\openstack\02a-MAClow/IEEE802154E.c ****         if (subtype == 1) {
 6128              		.loc 1 2432 0
 6129 23e8 97F82330 		ldrb	r3, [r7, #35]	@ zero_extendqisi2
 6130 23ec 012B     		cmp	r3, #1
 6131 23ee 1BD1     		bne	.L365
2433:build\openmote-cc2538_armgcc\openstack\02a-MAClow/IEEE802154E.c ****             // this is long type subID
2434:build\openmote-cc2538_armgcc\openstack\02a-MAClow/IEEE802154E.c ****             subid  = (temp16b & IEEE802154E_DESC_SUBID_LONG_MLME_IE_MASK)>>IEEE802154E_DESC_SUBID_L
 6132              		.loc 1 2434 0
 6133 23f0 BB8C     		ldrh	r3, [r7, #36]
 6134 23f2 DB12     		asrs	r3, r3, #11
 6135 23f4 DBB2     		uxtb	r3, r3
 6136 23f6 03F00F03 		and	r3, r3, #15
 6137 23fa 87F82230 		strb	r3, [r7, #34]
2435:build\openmote-cc2538_armgcc\openstack\02a-MAClow/IEEE802154E.c ****             sublen = (temp16b & IEEE802154E_DESC_LEN_LONG_MLME_IE_MASK);
 6138              		.loc 1 2435 0
 6139 23fe BB8C     		ldrh	r3, [r7, #36]	@ movhi
 6140 2400 87F82730 		strb	r3, [r7, #39]
2436:build\openmote-cc2538_armgcc\openstack\02a-MAClow/IEEE802154E.c ****             switch(subid){
 6141              		.loc 1 2436 0
 6142 2404 97F82230 		ldrb	r3, [r7, #34]	@ zero_extendqisi2
 6143 2408 092B     		cmp	r3, #9
 6144 240a 00D0     		beq	.L367
2437:build\openmote-cc2538_armgcc\openstack\02a-MAClow/IEEE802154E.c ****             case IEEE802154E_MLME_CHANNELHOPPING_IE_SUBID:
2438:build\openmote-cc2538_armgcc\openstack\02a-MAClow/IEEE802154E.c ****                 channelhoppingTemplateIDStoreFromEB(*((uint8_t*)(pkt->payload+ptr)));
2439:build\openmote-cc2538_armgcc\openstack\02a-MAClow/IEEE802154E.c ****                 chTemplate_checkPass = TRUE;
2440:build\openmote-cc2538_armgcc\openstack\02a-MAClow/IEEE802154E.c ****                 break;
2441:build\openmote-cc2538_armgcc\openstack\02a-MAClow/IEEE802154E.c ****             default:
2442:build\openmote-cc2538_armgcc\openstack\02a-MAClow/IEEE802154E.c ****                 // unsupported IE type, skip the ie
2443:build\openmote-cc2538_armgcc\openstack\02a-MAClow/IEEE802154E.c ****                 break;
 6145              		.loc 1 2443 0
 6146 240c EDE0     		b	.L369
 6147              	.L367:
2438:build\openmote-cc2538_armgcc\openstack\02a-MAClow/IEEE802154E.c ****                 chTemplate_checkPass = TRUE;
 6148              		.loc 1 2438 0
 6149 240e 7B68     		ldr	r3, [r7, #4]
 6150 2410 5A68     		ldr	r2, [r3, #4]
 6151 2412 97F82B30 		ldrb	r3, [r7, #43]	@ zero_extendqisi2
 6152 2416 1344     		add	r3, r3, r2
 6153 2418 1B78     		ldrb	r3, [r3]	@ zero_extendqisi2
 6154 241a 1846     		mov	r0, r3
 6155 241c FFF7FEFF 		bl	channelhoppingTemplateIDStoreFromEB
2439:build\openmote-cc2538_armgcc\openstack\02a-MAClow/IEEE802154E.c ****                 break;
 6156              		.loc 1 2439 0
 6157 2420 0123     		movs	r3, #1
 6158 2422 87F82F30 		strb	r3, [r7, #47]
2440:build\openmote-cc2538_armgcc\openstack\02a-MAClow/IEEE802154E.c ****             default:
 6159              		.loc 1 2440 0
 6160 2426 E0E0     		b	.L369
 6161              	.L365:
2444:build\openmote-cc2538_armgcc\openstack\02a-MAClow/IEEE802154E.c ****             }
2445:build\openmote-cc2538_armgcc\openstack\02a-MAClow/IEEE802154E.c ****         } else {
2446:build\openmote-cc2538_armgcc\openstack\02a-MAClow/IEEE802154E.c ****             // this is short type subID
2447:build\openmote-cc2538_armgcc\openstack\02a-MAClow/IEEE802154E.c ****             subid  = (temp16b & IEEE802154E_DESC_SUBID_SHORT_MLME_IE_MASK)>>IEEE802154E_DESC_SUBID_
 6162              		.loc 1 2447 0
 6163 2428 BB8C     		ldrh	r3, [r7, #36]
 6164 242a 1B12     		asrs	r3, r3, #8
 6165 242c DBB2     		uxtb	r3, r3
 6166 242e 03F07F03 		and	r3, r3, #127
 6167 2432 87F82230 		strb	r3, [r7, #34]
2448:build\openmote-cc2538_armgcc\openstack\02a-MAClow/IEEE802154E.c ****             sublen = (temp16b & IEEE802154E_DESC_LEN_SHORT_MLME_IE_MASK);
 6168              		.loc 1 2448 0
 6169 2436 BB8C     		ldrh	r3, [r7, #36]	@ movhi
 6170 2438 87F82730 		strb	r3, [r7, #39]
2449:build\openmote-cc2538_armgcc\openstack\02a-MAClow/IEEE802154E.c ****             switch(subid){
 6171              		.loc 1 2449 0
 6172 243c 97F82230 		ldrb	r3, [r7, #34]	@ zero_extendqisi2
 6173 2440 1B2B     		cmp	r3, #27
 6174 2442 27D0     		beq	.L371
 6175 2444 1C2B     		cmp	r3, #28
 6176 2446 18D0     		beq	.L372
 6177 2448 1A2B     		cmp	r3, #26
 6178 244a 00D0     		beq	.L373
2450:build\openmote-cc2538_armgcc\openstack\02a-MAClow/IEEE802154E.c ****             case IEEE802154E_MLME_SYNC_IE_SUBID:
2451:build\openmote-cc2538_armgcc\openstack\02a-MAClow/IEEE802154E.c ****                 asnStoreFromEB((uint8_t*)(pkt->payload+ptr));
2452:build\openmote-cc2538_armgcc\openstack\02a-MAClow/IEEE802154E.c ****                 joinPriorityStoreFromEB(*((uint8_t*)(pkt->payload)+ptr+5));
2453:build\openmote-cc2538_armgcc\openstack\02a-MAClow/IEEE802154E.c ****                 sync_ie_checkPass    = TRUE;
2454:build\openmote-cc2538_armgcc\openstack\02a-MAClow/IEEE802154E.c ****                 break;
2455:build\openmote-cc2538_armgcc\openstack\02a-MAClow/IEEE802154E.c ****             case IEEE802154E_MLME_TIMESLOT_IE_SUBID:
2456:build\openmote-cc2538_armgcc\openstack\02a-MAClow/IEEE802154E.c ****                 timeslotTemplateIDStoreFromEB(*((uint8_t*)(pkt->payload)+ptr));
2457:build\openmote-cc2538_armgcc\openstack\02a-MAClow/IEEE802154E.c ****                 tsTemplate_checkpass = TRUE;
2458:build\openmote-cc2538_armgcc\openstack\02a-MAClow/IEEE802154E.c ****                 break;
2459:build\openmote-cc2538_armgcc\openstack\02a-MAClow/IEEE802154E.c ****             case IEEE802154E_MLME_SLOTFRAME_LINK_IE_SUBID:
2460:build\openmote-cc2538_armgcc\openstack\02a-MAClow/IEEE802154E.c ****                 schedule_setFrameNumber(*((uint8_t*)(pkt->payload)+ptr));       // number of slotfr
2461:build\openmote-cc2538_armgcc\openstack\02a-MAClow/IEEE802154E.c ****                 schedule_setFrameHandle(*((uint8_t*)(pkt->payload)+ptr+1));     // slotframe id
2462:build\openmote-cc2538_armgcc\openstack\02a-MAClow/IEEE802154E.c ****                 oldFrameLength = schedule_getFrameLength();
2463:build\openmote-cc2538_armgcc\openstack\02a-MAClow/IEEE802154E.c ****                 if (oldFrameLength==0){
2464:build\openmote-cc2538_armgcc\openstack\02a-MAClow/IEEE802154E.c ****                     temp16b  = *((uint8_t*)(pkt->payload+ptr+2));               // slotframes lengt
2465:build\openmote-cc2538_armgcc\openstack\02a-MAClow/IEEE802154E.c ****                     temp16b |= *((uint8_t*)(pkt->payload+ptr+3))<<8;
2466:build\openmote-cc2538_armgcc\openstack\02a-MAClow/IEEE802154E.c ****                     schedule_setFrameLength(temp16b);
2467:build\openmote-cc2538_armgcc\openstack\02a-MAClow/IEEE802154E.c ****                     numlinks = *((uint8_t*)(pkt->payload+ptr+4));               // number of links
2468:build\openmote-cc2538_armgcc\openstack\02a-MAClow/IEEE802154E.c **** 
2469:build\openmote-cc2538_armgcc\openstack\02a-MAClow/IEEE802154E.c ****                     // shared TXRX anycast slot(s)
2470:build\openmote-cc2538_armgcc\openstack\02a-MAClow/IEEE802154E.c ****                     memset(&temp_neighbor,0,sizeof(temp_neighbor));
2471:build\openmote-cc2538_armgcc\openstack\02a-MAClow/IEEE802154E.c ****                     temp_neighbor.type             = ADDR_ANYCAST;
2472:build\openmote-cc2538_armgcc\openstack\02a-MAClow/IEEE802154E.c **** 
2473:build\openmote-cc2538_armgcc\openstack\02a-MAClow/IEEE802154E.c ****                     for (i=0;i<numlinks;i++){
2474:build\openmote-cc2538_armgcc\openstack\02a-MAClow/IEEE802154E.c ****                         slotoffset     = *((uint8_t*)(pkt->payload+ptr+5+5*i));   // slotframes len
2475:build\openmote-cc2538_armgcc\openstack\02a-MAClow/IEEE802154E.c ****                         slotoffset    |= *((uint8_t*)(pkt->payload+ptr+5+5*i+1))<<8;
2476:build\openmote-cc2538_armgcc\openstack\02a-MAClow/IEEE802154E.c **** 
2477:build\openmote-cc2538_armgcc\openstack\02a-MAClow/IEEE802154E.c ****                         channeloffset  = *((uint8_t*)(pkt->payload+ptr+5+5*i+2));   // slotframes l
2478:build\openmote-cc2538_armgcc\openstack\02a-MAClow/IEEE802154E.c ****                         channeloffset |= *((uint8_t*)(pkt->payload+ptr+5+5*i+3))<<8;
2479:build\openmote-cc2538_armgcc\openstack\02a-MAClow/IEEE802154E.c **** 
2480:build\openmote-cc2538_armgcc\openstack\02a-MAClow/IEEE802154E.c ****                         schedule_addActiveSlot(
2481:build\openmote-cc2538_armgcc\openstack\02a-MAClow/IEEE802154E.c ****                             slotoffset,    // slot offset
2482:build\openmote-cc2538_armgcc\openstack\02a-MAClow/IEEE802154E.c ****                             CELLTYPE_TXRX, // type of slot
2483:build\openmote-cc2538_armgcc\openstack\02a-MAClow/IEEE802154E.c ****                             TRUE,          // shared?
2484:build\openmote-cc2538_armgcc\openstack\02a-MAClow/IEEE802154E.c ****                             channeloffset, // channel offset
2485:build\openmote-cc2538_armgcc\openstack\02a-MAClow/IEEE802154E.c ****                             &temp_neighbor // neighbor
2486:build\openmote-cc2538_armgcc\openstack\02a-MAClow/IEEE802154E.c ****                         );
2487:build\openmote-cc2538_armgcc\openstack\02a-MAClow/IEEE802154E.c ****                     }
2488:build\openmote-cc2538_armgcc\openstack\02a-MAClow/IEEE802154E.c ****                 }
2489:build\openmote-cc2538_armgcc\openstack\02a-MAClow/IEEE802154E.c ****                 slotframelink_ie_checkPass = TRUE;
2490:build\openmote-cc2538_armgcc\openstack\02a-MAClow/IEEE802154E.c ****                 break;
2491:build\openmote-cc2538_armgcc\openstack\02a-MAClow/IEEE802154E.c ****             default:
2492:build\openmote-cc2538_armgcc\openstack\02a-MAClow/IEEE802154E.c ****                 // unsupported IE type, skip the ie
2493:build\openmote-cc2538_armgcc\openstack\02a-MAClow/IEEE802154E.c ****                 break;
 6179              		.loc 1 2493 0
 6180 244c CDE0     		b	.L369
 6181              	.L373:
2451:build\openmote-cc2538_armgcc\openstack\02a-MAClow/IEEE802154E.c ****                 joinPriorityStoreFromEB(*((uint8_t*)(pkt->payload)+ptr+5));
 6182              		.loc 1 2451 0
 6183 244e 7B68     		ldr	r3, [r7, #4]
 6184 2450 5A68     		ldr	r2, [r3, #4]
 6185 2452 97F82B30 		ldrb	r3, [r7, #43]	@ zero_extendqisi2
 6186 2456 1344     		add	r3, r3, r2
 6187 2458 1846     		mov	r0, r3
 6188 245a FFF7FEFF 		bl	asnStoreFromEB
2452:build\openmote-cc2538_armgcc\openstack\02a-MAClow/IEEE802154E.c ****                 sync_ie_checkPass    = TRUE;
 6189              		.loc 1 2452 0
 6190 245e 7B68     		ldr	r3, [r7, #4]
 6191 2460 5A68     		ldr	r2, [r3, #4]
 6192 2462 97F82B30 		ldrb	r3, [r7, #43]	@ zero_extendqisi2
 6193 2466 0533     		adds	r3, r3, #5
 6194 2468 1344     		add	r3, r3, r2
 6195 246a 1B78     		ldrb	r3, [r3]	@ zero_extendqisi2
 6196 246c 1846     		mov	r0, r3
 6197 246e FFF7FEFF 		bl	joinPriorityStoreFromEB
2453:build\openmote-cc2538_armgcc\openstack\02a-MAClow/IEEE802154E.c ****                 break;
 6198              		.loc 1 2453 0
 6199 2472 0123     		movs	r3, #1
 6200 2474 87F82D30 		strb	r3, [r7, #45]
2454:build\openmote-cc2538_armgcc\openstack\02a-MAClow/IEEE802154E.c ****             case IEEE802154E_MLME_TIMESLOT_IE_SUBID:
 6201              		.loc 1 2454 0
 6202 2478 B7E0     		b	.L369
 6203              	.L372:
2456:build\openmote-cc2538_armgcc\openstack\02a-MAClow/IEEE802154E.c ****                 tsTemplate_checkpass = TRUE;
 6204              		.loc 1 2456 0
 6205 247a 7B68     		ldr	r3, [r7, #4]
 6206 247c 5A68     		ldr	r2, [r3, #4]
 6207 247e 97F82B30 		ldrb	r3, [r7, #43]	@ zero_extendqisi2
 6208 2482 1344     		add	r3, r3, r2
 6209 2484 1B78     		ldrb	r3, [r3]	@ zero_extendqisi2
 6210 2486 1846     		mov	r0, r3
 6211 2488 FFF7FEFF 		bl	timeslotTemplateIDStoreFromEB
2457:build\openmote-cc2538_armgcc\openstack\02a-MAClow/IEEE802154E.c ****                 break;
 6212              		.loc 1 2457 0
 6213 248c 0123     		movs	r3, #1
 6214 248e 87F82E30 		strb	r3, [r7, #46]
2458:build\openmote-cc2538_armgcc\openstack\02a-MAClow/IEEE802154E.c ****             case IEEE802154E_MLME_SLOTFRAME_LINK_IE_SUBID:
 6215              		.loc 1 2458 0
 6216 2492 AAE0     		b	.L369
 6217              	.L371:
2460:build\openmote-cc2538_armgcc\openstack\02a-MAClow/IEEE802154E.c ****                 schedule_setFrameHandle(*((uint8_t*)(pkt->payload)+ptr+1));     // slotframe id
 6218              		.loc 1 2460 0
 6219 2494 7B68     		ldr	r3, [r7, #4]
 6220 2496 5A68     		ldr	r2, [r3, #4]
 6221 2498 97F82B30 		ldrb	r3, [r7, #43]	@ zero_extendqisi2
 6222 249c 1344     		add	r3, r3, r2
 6223 249e 1B78     		ldrb	r3, [r3]	@ zero_extendqisi2
 6224 24a0 1846     		mov	r0, r3
 6225 24a2 FFF7FEFF 		bl	schedule_setFrameNumber
2461:build\openmote-cc2538_armgcc\openstack\02a-MAClow/IEEE802154E.c ****                 oldFrameLength = schedule_getFrameLength();
 6226              		.loc 1 2461 0
 6227 24a6 7B68     		ldr	r3, [r7, #4]
 6228 24a8 5A68     		ldr	r2, [r3, #4]
 6229 24aa 97F82B30 		ldrb	r3, [r7, #43]	@ zero_extendqisi2
 6230 24ae 0133     		adds	r3, r3, #1
 6231 24b0 1344     		add	r3, r3, r2
 6232 24b2 1B78     		ldrb	r3, [r3]	@ zero_extendqisi2
 6233 24b4 1846     		mov	r0, r3
 6234 24b6 FFF7FEFF 		bl	schedule_setFrameHandle
2462:build\openmote-cc2538_armgcc\openstack\02a-MAClow/IEEE802154E.c ****                 if (oldFrameLength==0){
 6235              		.loc 1 2462 0
 6236 24ba FFF7FEFF 		bl	schedule_getFrameLength
 6237 24be 0346     		mov	r3, r0
 6238 24c0 87F82130 		strb	r3, [r7, #33]
2463:build\openmote-cc2538_armgcc\openstack\02a-MAClow/IEEE802154E.c ****                     temp16b  = *((uint8_t*)(pkt->payload+ptr+2));               // slotframes lengt
 6239              		.loc 1 2463 0
 6240 24c4 97F82130 		ldrb	r3, [r7, #33]	@ zero_extendqisi2
 6241 24c8 002B     		cmp	r3, #0
 6242 24ca 40F08A80 		bne	.L374
2464:build\openmote-cc2538_armgcc\openstack\02a-MAClow/IEEE802154E.c ****                     temp16b |= *((uint8_t*)(pkt->payload+ptr+3))<<8;
 6243              		.loc 1 2464 0
 6244 24ce 7B68     		ldr	r3, [r7, #4]
 6245 24d0 5A68     		ldr	r2, [r3, #4]
 6246 24d2 97F82B30 		ldrb	r3, [r7, #43]	@ zero_extendqisi2
 6247 24d6 0233     		adds	r3, r3, #2
 6248 24d8 1344     		add	r3, r3, r2
 6249 24da 1B78     		ldrb	r3, [r3]	@ zero_extendqisi2
 6250 24dc BB84     		strh	r3, [r7, #36]	@ movhi
2465:build\openmote-cc2538_armgcc\openstack\02a-MAClow/IEEE802154E.c ****                     schedule_setFrameLength(temp16b);
 6251              		.loc 1 2465 0
 6252 24de 7B68     		ldr	r3, [r7, #4]
 6253 24e0 5A68     		ldr	r2, [r3, #4]
 6254 24e2 97F82B30 		ldrb	r3, [r7, #43]	@ zero_extendqisi2
 6255 24e6 0333     		adds	r3, r3, #3
 6256 24e8 1344     		add	r3, r3, r2
 6257 24ea 1B78     		ldrb	r3, [r3]	@ zero_extendqisi2
 6258 24ec 1B02     		lsls	r3, r3, #8
 6259 24ee 1AB2     		sxth	r2, r3
 6260 24f0 B7F92430 		ldrsh	r3, [r7, #36]
 6261 24f4 1343     		orrs	r3, r3, r2
 6262 24f6 1BB2     		sxth	r3, r3
 6263 24f8 BB84     		strh	r3, [r7, #36]	@ movhi
2466:build\openmote-cc2538_armgcc\openstack\02a-MAClow/IEEE802154E.c ****                     numlinks = *((uint8_t*)(pkt->payload+ptr+4));               // number of links
 6264              		.loc 1 2466 0
 6265 24fa BB8C     		ldrh	r3, [r7, #36]
 6266 24fc 1846     		mov	r0, r3
 6267 24fe FFF7FEFF 		bl	schedule_setFrameLength
2467:build\openmote-cc2538_armgcc\openstack\02a-MAClow/IEEE802154E.c **** 
 6268              		.loc 1 2467 0
 6269 2502 7B68     		ldr	r3, [r7, #4]
 6270 2504 5A68     		ldr	r2, [r3, #4]
 6271 2506 97F82B30 		ldrb	r3, [r7, #43]	@ zero_extendqisi2
 6272 250a 0433     		adds	r3, r3, #4
 6273 250c 1344     		add	r3, r3, r2
 6274 250e 1B78     		ldrb	r3, [r3]
 6275 2510 87F82030 		strb	r3, [r7, #32]
2470:build\openmote-cc2538_armgcc\openstack\02a-MAClow/IEEE802154E.c ****                     temp_neighbor.type             = ADDR_ANYCAST;
 6276              		.loc 1 2470 0
 6277 2514 07F10803 		add	r3, r7, #8
 6278 2518 1122     		movs	r2, #17
 6279 251a 0021     		movs	r1, #0
 6280 251c 1846     		mov	r0, r3
 6281 251e FFF7FEFF 		bl	memset
2471:build\openmote-cc2538_armgcc\openstack\02a-MAClow/IEEE802154E.c **** 
 6282              		.loc 1 2471 0
 6283 2522 0623     		movs	r3, #6
 6284 2524 3B72     		strb	r3, [r7, #8]
2473:build\openmote-cc2538_armgcc\openstack\02a-MAClow/IEEE802154E.c ****                         slotoffset     = *((uint8_t*)(pkt->payload+ptr+5+5*i));   // slotframes len
 6285              		.loc 1 2473 0
 6286 2526 0023     		movs	r3, #0
 6287 2528 87F82630 		strb	r3, [r7, #38]
 6288 252c 53E0     		b	.L375
 6289              	.L376:
2474:build\openmote-cc2538_armgcc\openstack\02a-MAClow/IEEE802154E.c ****                         slotoffset    |= *((uint8_t*)(pkt->payload+ptr+5+5*i+1))<<8;
 6290              		.loc 1 2474 0 discriminator 3
 6291 252e 7B68     		ldr	r3, [r7, #4]
 6292 2530 5968     		ldr	r1, [r3, #4]
 6293 2532 97F82B00 		ldrb	r0, [r7, #43]	@ zero_extendqisi2
 6294 2536 97F82620 		ldrb	r2, [r7, #38]	@ zero_extendqisi2
 6295 253a 1346     		mov	r3, r2
 6296 253c 9B00     		lsls	r3, r3, #2
 6297 253e 1344     		add	r3, r3, r2
 6298 2540 0344     		add	r3, r3, r0
 6299 2542 0533     		adds	r3, r3, #5
 6300 2544 0B44     		add	r3, r3, r1
 6301 2546 1B78     		ldrb	r3, [r3]	@ zero_extendqisi2
 6302 2548 FB83     		strh	r3, [r7, #30]	@ movhi
2475:build\openmote-cc2538_armgcc\openstack\02a-MAClow/IEEE802154E.c **** 
 6303              		.loc 1 2475 0 discriminator 3
 6304 254a 7B68     		ldr	r3, [r7, #4]
 6305 254c 5968     		ldr	r1, [r3, #4]
 6306 254e 97F82B00 		ldrb	r0, [r7, #43]	@ zero_extendqisi2
 6307 2552 97F82620 		ldrb	r2, [r7, #38]	@ zero_extendqisi2
 6308 2556 1346     		mov	r3, r2
 6309 2558 9B00     		lsls	r3, r3, #2
 6310 255a 1344     		add	r3, r3, r2
 6311 255c 0344     		add	r3, r3, r0
 6312 255e 0633     		adds	r3, r3, #6
 6313 2560 0B44     		add	r3, r3, r1
 6314 2562 1B78     		ldrb	r3, [r3]	@ zero_extendqisi2
 6315 2564 1B02     		lsls	r3, r3, #8
 6316 2566 1AB2     		sxth	r2, r3
 6317 2568 B7F91E30 		ldrsh	r3, [r7, #30]
 6318 256c 1343     		orrs	r3, r3, r2
 6319 256e 1BB2     		sxth	r3, r3
 6320 2570 FB83     		strh	r3, [r7, #30]	@ movhi
2477:build\openmote-cc2538_armgcc\openstack\02a-MAClow/IEEE802154E.c ****                         channeloffset |= *((uint8_t*)(pkt->payload+ptr+5+5*i+3))<<8;
 6321              		.loc 1 2477 0 discriminator 3
 6322 2572 7B68     		ldr	r3, [r7, #4]
 6323 2574 5968     		ldr	r1, [r3, #4]
 6324 2576 97F82B00 		ldrb	r0, [r7, #43]	@ zero_extendqisi2
 6325 257a 97F82620 		ldrb	r2, [r7, #38]	@ zero_extendqisi2
 6326 257e 1346     		mov	r3, r2
 6327 2580 9B00     		lsls	r3, r3, #2
 6328 2582 1344     		add	r3, r3, r2
 6329 2584 0344     		add	r3, r3, r0
 6330 2586 0733     		adds	r3, r3, #7
 6331 2588 0B44     		add	r3, r3, r1
 6332 258a 1B78     		ldrb	r3, [r3]	@ zero_extendqisi2
 6333 258c BB83     		strh	r3, [r7, #28]	@ movhi
2478:build\openmote-cc2538_armgcc\openstack\02a-MAClow/IEEE802154E.c **** 
 6334              		.loc 1 2478 0 discriminator 3
 6335 258e 7B68     		ldr	r3, [r7, #4]
 6336 2590 5968     		ldr	r1, [r3, #4]
 6337 2592 97F82B00 		ldrb	r0, [r7, #43]	@ zero_extendqisi2
 6338 2596 97F82620 		ldrb	r2, [r7, #38]	@ zero_extendqisi2
 6339 259a 1346     		mov	r3, r2
 6340 259c 9B00     		lsls	r3, r3, #2
 6341 259e 1344     		add	r3, r3, r2
 6342 25a0 0344     		add	r3, r3, r0
 6343 25a2 0833     		adds	r3, r3, #8
 6344 25a4 0B44     		add	r3, r3, r1
 6345 25a6 1B78     		ldrb	r3, [r3]	@ zero_extendqisi2
 6346 25a8 1B02     		lsls	r3, r3, #8
 6347 25aa 1AB2     		sxth	r2, r3
 6348 25ac B7F91C30 		ldrsh	r3, [r7, #28]
 6349 25b0 1343     		orrs	r3, r3, r2
 6350 25b2 1BB2     		sxth	r3, r3
 6351 25b4 BB83     		strh	r3, [r7, #28]	@ movhi
2480:build\openmote-cc2538_armgcc\openstack\02a-MAClow/IEEE802154E.c ****                             slotoffset,    // slot offset
 6352              		.loc 1 2480 0 discriminator 3
 6353 25b6 BB8B     		ldrh	r3, [r7, #28]	@ movhi
 6354 25b8 DAB2     		uxtb	r2, r3
 6355 25ba F88B     		ldrh	r0, [r7, #30]
 6356 25bc 07F10803 		add	r3, r7, #8
 6357 25c0 0093     		str	r3, [sp]
 6358 25c2 1346     		mov	r3, r2
 6359 25c4 0122     		movs	r2, #1
 6360 25c6 0321     		movs	r1, #3
 6361 25c8 FFF7FEFF 		bl	schedule_addActiveSlot
2473:build\openmote-cc2538_armgcc\openstack\02a-MAClow/IEEE802154E.c ****                         slotoffset     = *((uint8_t*)(pkt->payload+ptr+5+5*i));   // slotframes len
 6362              		.loc 1 2473 0 discriminator 3
 6363 25cc 97F82630 		ldrb	r3, [r7, #38]	@ zero_extendqisi2
 6364 25d0 0133     		adds	r3, r3, #1
 6365 25d2 87F82630 		strb	r3, [r7, #38]
 6366              	.L375:
2473:build\openmote-cc2538_armgcc\openstack\02a-MAClow/IEEE802154E.c ****                         slotoffset     = *((uint8_t*)(pkt->payload+ptr+5+5*i));   // slotframes len
 6367              		.loc 1 2473 0 is_stmt 0 discriminator 1
 6368 25d6 97F82620 		ldrb	r2, [r7, #38]	@ zero_extendqisi2
 6369 25da 97F82030 		ldrb	r3, [r7, #32]	@ zero_extendqisi2
 6370 25de 9A42     		cmp	r2, r3
 6371 25e0 A5D3     		bcc	.L376
 6372              	.L374:
2489:build\openmote-cc2538_armgcc\openstack\02a-MAClow/IEEE802154E.c ****                 break;
 6373              		.loc 1 2489 0 is_stmt 1
 6374 25e2 0123     		movs	r3, #1
 6375 25e4 87F82C30 		strb	r3, [r7, #44]
2490:build\openmote-cc2538_armgcc\openstack\02a-MAClow/IEEE802154E.c ****             default:
 6376              		.loc 1 2490 0
 6377 25e8 00BF     		nop
 6378              	.L369:
2494:build\openmote-cc2538_armgcc\openstack\02a-MAClow/IEEE802154E.c ****             }
2495:build\openmote-cc2538_armgcc\openstack\02a-MAClow/IEEE802154E.c ****         }
2496:build\openmote-cc2538_armgcc\openstack\02a-MAClow/IEEE802154E.c ****         ptr += sublen;
 6379              		.loc 1 2496 0
 6380 25ea 97F82B20 		ldrb	r2, [r7, #43]
 6381 25ee 97F82730 		ldrb	r3, [r7, #39]
 6382 25f2 1344     		add	r3, r3, r2
 6383 25f4 87F82B30 		strb	r3, [r7, #43]
 6384              	.L364:
2418:build\openmote-cc2538_armgcc\openstack\02a-MAClow/IEEE802154E.c ****         (
 6385              		.loc 1 2418 0
 6386 25f8 97F82B20 		ldrb	r2, [r7, #43]	@ zero_extendqisi2
 6387 25fc 97F82910 		ldrb	r1, [r7, #41]	@ zero_extendqisi2
 6388 2600 97F82830 		ldrb	r3, [r7, #40]	@ zero_extendqisi2
 6389 2604 0B44     		add	r3, r3, r1
2417:build\openmote-cc2538_armgcc\openstack\02a-MAClow/IEEE802154E.c ****         ptr<mlme_ie_content_offset+ielen &&
 6390              		.loc 1 2417 0
 6391 2606 9A42     		cmp	r2, r3
 6392 2608 1FDA     		bge	.L377
2420:build\openmote-cc2538_armgcc\openstack\02a-MAClow/IEEE802154E.c ****             tsTemplate_checkpass        == FALSE ||
 6393              		.loc 1 2420 0
 6394 260a 97F82F30 		ldrb	r3, [r7, #47]
 6395 260e 83F00103 		eor	r3, r3, #1
 6396 2612 DBB2     		uxtb	r3, r3
2418:build\openmote-cc2538_armgcc\openstack\02a-MAClow/IEEE802154E.c ****         (
 6397              		.loc 1 2418 0
 6398 2614 002B     		cmp	r3, #0
 6399 2616 7FF4C8AE 		bne	.L378
2421:build\openmote-cc2538_armgcc\openstack\02a-MAClow/IEEE802154E.c ****             sync_ie_checkPass           == FALSE ||
 6400              		.loc 1 2421 0
 6401 261a 97F82E30 		ldrb	r3, [r7, #46]
 6402 261e 83F00103 		eor	r3, r3, #1
 6403 2622 DBB2     		uxtb	r3, r3
2420:build\openmote-cc2538_armgcc\openstack\02a-MAClow/IEEE802154E.c ****             tsTemplate_checkpass        == FALSE ||
 6404              		.loc 1 2420 0
 6405 2624 002B     		cmp	r3, #0
 6406 2626 7FF4C0AE 		bne	.L378
2422:build\openmote-cc2538_armgcc\openstack\02a-MAClow/IEEE802154E.c ****             slotframelink_ie_checkPass  == FALSE
 6407              		.loc 1 2422 0
 6408 262a 97F82D30 		ldrb	r3, [r7, #45]
 6409 262e 83F00103 		eor	r3, r3, #1
 6410 2632 DBB2     		uxtb	r3, r3
2421:build\openmote-cc2538_armgcc\openstack\02a-MAClow/IEEE802154E.c ****             sync_ie_checkPass           == FALSE ||
 6411              		.loc 1 2421 0
 6412 2634 002B     		cmp	r3, #0
 6413 2636 7FF4B8AE 		bne	.L378
2423:build\openmote-cc2538_armgcc\openstack\02a-MAClow/IEEE802154E.c ****         )
 6414              		.loc 1 2423 0
 6415 263a 97F82C30 		ldrb	r3, [r7, #44]
 6416 263e 83F00103 		eor	r3, r3, #1
 6417 2642 DBB2     		uxtb	r3, r3
2422:build\openmote-cc2538_armgcc\openstack\02a-MAClow/IEEE802154E.c ****             slotframelink_ie_checkPass  == FALSE
 6418              		.loc 1 2422 0
 6419 2644 002B     		cmp	r3, #0
 6420 2646 7FF4B0AE 		bne	.L378
 6421              	.L377:
2497:build\openmote-cc2538_armgcc\openstack\02a-MAClow/IEEE802154E.c ****     }
2498:build\openmote-cc2538_armgcc\openstack\02a-MAClow/IEEE802154E.c **** 
2499:build\openmote-cc2538_armgcc\openstack\02a-MAClow/IEEE802154E.c ****     if (
 6422              		.loc 1 2499 0
 6423 264a 97F82F30 		ldrb	r3, [r7, #47]	@ zero_extendqisi2
 6424 264e 002B     		cmp	r3, #0
 6425 2650 12D0     		beq	.L379
2500:build\openmote-cc2538_armgcc\openstack\02a-MAClow/IEEE802154E.c ****         chTemplate_checkPass     &&
 6426              		.loc 1 2500 0
 6427 2652 97F82E30 		ldrb	r3, [r7, #46]	@ zero_extendqisi2
 6428 2656 002B     		cmp	r3, #0
 6429 2658 0ED0     		beq	.L379
2501:build\openmote-cc2538_armgcc\openstack\02a-MAClow/IEEE802154E.c ****         tsTemplate_checkpass     &&
 6430              		.loc 1 2501 0
 6431 265a 97F82D30 		ldrb	r3, [r7, #45]	@ zero_extendqisi2
 6432 265e 002B     		cmp	r3, #0
 6433 2660 0AD0     		beq	.L379
2502:build\openmote-cc2538_armgcc\openstack\02a-MAClow/IEEE802154E.c ****         sync_ie_checkPass        &&
 6434              		.loc 1 2502 0
 6435 2662 97F82C30 		ldrb	r3, [r7, #44]	@ zero_extendqisi2
 6436 2666 002B     		cmp	r3, #0
 6437 2668 06D0     		beq	.L379
2503:build\openmote-cc2538_armgcc\openstack\02a-MAClow/IEEE802154E.c ****         slotframelink_ie_checkPass
2504:build\openmote-cc2538_armgcc\openstack\02a-MAClow/IEEE802154E.c ****     ) {
2505:build\openmote-cc2538_armgcc\openstack\02a-MAClow/IEEE802154E.c ****         *lenIE = pkt->length;
 6438              		.loc 1 2505 0
 6439 266a 7B68     		ldr	r3, [r7, #4]
 6440 266c 1B7A     		ldrb	r3, [r3, #8]	@ zero_extendqisi2
 6441 266e 9AB2     		uxth	r2, r3
 6442 2670 3B68     		ldr	r3, [r7]
 6443 2672 1A80     		strh	r2, [r3]	@ movhi
2506:build\openmote-cc2538_armgcc\openstack\02a-MAClow/IEEE802154E.c ****         return TRUE;
 6444              		.loc 1 2506 0
 6445 2674 0123     		movs	r3, #1
 6446 2676 00E0     		b	.L380
 6447              	.L379:
2507:build\openmote-cc2538_armgcc\openstack\02a-MAClow/IEEE802154E.c ****     } else {
2508:build\openmote-cc2538_armgcc\openstack\02a-MAClow/IEEE802154E.c ****         return FALSE;
 6448              		.loc 1 2508 0
 6449 2678 0023     		movs	r3, #0
 6450              	.L380:
2509:build\openmote-cc2538_armgcc\openstack\02a-MAClow/IEEE802154E.c ****     }
2510:build\openmote-cc2538_armgcc\openstack\02a-MAClow/IEEE802154E.c **** }
 6451              		.loc 1 2510 0 discriminator 1
 6452 267a 1846     		mov	r0, r3
 6453 267c 3037     		adds	r7, r7, #48
 6454              		.cfi_def_cfa_offset 8
 6455 267e BD46     		mov	sp, r7
 6456              		.cfi_def_cfa_register 13
 6457              		@ sp needed
 6458 2680 80BD     		pop	{r7, pc}
 6459              		.cfi_endproc
 6460              	.LFE57:
 6462              		.align	1
 6463              		.global	asnStoreFromEB
 6464              		.syntax unified
 6465              		.thumb
 6466              		.thumb_func
 6467              		.fpu softvfp
 6469              	asnStoreFromEB:
 6470              	.LFB58:
2511:build\openmote-cc2538_armgcc\openstack\02a-MAClow/IEEE802154E.c **** 
2512:build\openmote-cc2538_armgcc\openstack\02a-MAClow/IEEE802154E.c **** port_INLINE void asnStoreFromEB(uint8_t* asn) {
 6471              		.loc 1 2512 0
 6472              		.cfi_startproc
 6473              		@ args = 0, pretend = 0, frame = 8
 6474              		@ frame_needed = 1, uses_anonymous_args = 0
 6475              		@ link register save eliminated.
 6476 2682 80B4     		push	{r7}
 6477              		.cfi_def_cfa_offset 4
 6478              		.cfi_offset 7, -4
 6479 2684 83B0     		sub	sp, sp, #12
 6480              		.cfi_def_cfa_offset 16
 6481 2686 00AF     		add	r7, sp, #0
 6482              		.cfi_def_cfa_register 7
 6483 2688 7860     		str	r0, [r7, #4]
2513:build\openmote-cc2538_armgcc\openstack\02a-MAClow/IEEE802154E.c **** 
2514:build\openmote-cc2538_armgcc\openstack\02a-MAClow/IEEE802154E.c ****     // store the ASN
2515:build\openmote-cc2538_armgcc\openstack\02a-MAClow/IEEE802154E.c ****     ieee154e_vars.asn.bytes0and1   =     asn[0]+
 6484              		.loc 1 2515 0
 6485 268a 7B68     		ldr	r3, [r7, #4]
 6486 268c 1B78     		ldrb	r3, [r3]	@ zero_extendqisi2
 6487 268e 9AB2     		uxth	r2, r3
2516:build\openmote-cc2538_armgcc\openstack\02a-MAClow/IEEE802154E.c ****                                     256*asn[1];
 6488              		.loc 1 2516 0
 6489 2690 7B68     		ldr	r3, [r7, #4]
 6490 2692 0133     		adds	r3, r3, #1
 6491 2694 1B78     		ldrb	r3, [r3]	@ zero_extendqisi2
2515:build\openmote-cc2538_armgcc\openstack\02a-MAClow/IEEE802154E.c ****                                     256*asn[1];
 6492              		.loc 1 2515 0
 6493 2696 9BB2     		uxth	r3, r3
 6494 2698 1B02     		lsls	r3, r3, #8
 6495 269a 9BB2     		uxth	r3, r3
 6496 269c 1344     		add	r3, r3, r2
 6497 269e 9AB2     		uxth	r2, r3
 6498 26a0 0D4B     		ldr	r3, .L382
 6499 26a2 A3F80320 		strh	r2, [r3, #3]	@ unaligned
2517:build\openmote-cc2538_armgcc\openstack\02a-MAClow/IEEE802154E.c ****     ieee154e_vars.asn.bytes2and3   =     asn[2]+
 6500              		.loc 1 2517 0
 6501 26a6 7B68     		ldr	r3, [r7, #4]
 6502 26a8 0233     		adds	r3, r3, #2
 6503 26aa 1B78     		ldrb	r3, [r3]	@ zero_extendqisi2
 6504 26ac 9AB2     		uxth	r2, r3
2518:build\openmote-cc2538_armgcc\openstack\02a-MAClow/IEEE802154E.c ****                                     256*asn[3];
 6505              		.loc 1 2518 0
 6506 26ae 7B68     		ldr	r3, [r7, #4]
 6507 26b0 0333     		adds	r3, r3, #3
 6508 26b2 1B78     		ldrb	r3, [r3]	@ zero_extendqisi2
2517:build\openmote-cc2538_armgcc\openstack\02a-MAClow/IEEE802154E.c ****     ieee154e_vars.asn.bytes2and3   =     asn[2]+
 6509              		.loc 1 2517 0
 6510 26b4 9BB2     		uxth	r3, r3
 6511 26b6 1B02     		lsls	r3, r3, #8
 6512 26b8 9BB2     		uxth	r3, r3
 6513 26ba 1344     		add	r3, r3, r2
 6514 26bc 9AB2     		uxth	r2, r3
 6515 26be 064B     		ldr	r3, .L382
 6516 26c0 A3F80120 		strh	r2, [r3, #1]	@ unaligned
2519:build\openmote-cc2538_armgcc\openstack\02a-MAClow/IEEE802154E.c ****     ieee154e_vars.asn.byte4        =     asn[4];
 6517              		.loc 1 2519 0
 6518 26c4 7B68     		ldr	r3, [r7, #4]
 6519 26c6 1A79     		ldrb	r2, [r3, #4]	@ zero_extendqisi2
 6520 26c8 034B     		ldr	r3, .L382
 6521 26ca 1A70     		strb	r2, [r3]
2520:build\openmote-cc2538_armgcc\openstack\02a-MAClow/IEEE802154E.c **** }
 6522              		.loc 1 2520 0
 6523 26cc 00BF     		nop
 6524 26ce 0C37     		adds	r7, r7, #12
 6525              		.cfi_def_cfa_offset 4
 6526 26d0 BD46     		mov	sp, r7
 6527              		.cfi_def_cfa_register 13
 6528              		@ sp needed
 6529 26d2 80BC     		pop	{r7}
 6530              		.cfi_restore 7
 6531              		.cfi_def_cfa_offset 0
 6532 26d4 7047     		bx	lr
 6533              	.L383:
 6534 26d6 00BF     		.align	2
 6535              	.L382:
 6536 26d8 00000000 		.word	ieee154e_vars
 6537              		.cfi_endproc
 6538              	.LFE58:
 6540              		.align	1
 6541              		.global	ieee154e_syncSlotOffset
 6542              		.syntax unified
 6543              		.thumb
 6544              		.thumb_func
 6545              		.fpu softvfp
 6547              	ieee154e_syncSlotOffset:
 6548              	.LFB59:
2521:build\openmote-cc2538_armgcc\openstack\02a-MAClow/IEEE802154E.c **** 
2522:build\openmote-cc2538_armgcc\openstack\02a-MAClow/IEEE802154E.c **** port_INLINE void ieee154e_syncSlotOffset(void) {
 6549              		.loc 1 2522 0
 6550              		.cfi_startproc
 6551              		@ args = 0, pretend = 0, frame = 8
 6552              		@ frame_needed = 1, uses_anonymous_args = 0
 6553 26dc 80B5     		push	{r7, lr}
 6554              		.cfi_def_cfa_offset 8
 6555              		.cfi_offset 7, -8
 6556              		.cfi_offset 14, -4
 6557 26de 82B0     		sub	sp, sp, #8
 6558              		.cfi_def_cfa_offset 16
 6559 26e0 00AF     		add	r7, sp, #0
 6560              		.cfi_def_cfa_register 7
2523:build\openmote-cc2538_armgcc\openstack\02a-MAClow/IEEE802154E.c ****     frameLength_t frameLength;
2524:build\openmote-cc2538_armgcc\openstack\02a-MAClow/IEEE802154E.c ****     uint32_t slotOffset;
2525:build\openmote-cc2538_armgcc\openstack\02a-MAClow/IEEE802154E.c ****     uint8_t i;
2526:build\openmote-cc2538_armgcc\openstack\02a-MAClow/IEEE802154E.c **** 
2527:build\openmote-cc2538_armgcc\openstack\02a-MAClow/IEEE802154E.c ****     frameLength = schedule_getFrameLength();
 6561              		.loc 1 2527 0
 6562 26e2 FFF7FEFF 		bl	schedule_getFrameLength
 6563 26e6 0346     		mov	r3, r0
 6564 26e8 BB80     		strh	r3, [r7, #4]	@ movhi
2528:build\openmote-cc2538_armgcc\openstack\02a-MAClow/IEEE802154E.c **** 
2529:build\openmote-cc2538_armgcc\openstack\02a-MAClow/IEEE802154E.c ****     // determine the current slotOffset
2530:build\openmote-cc2538_armgcc\openstack\02a-MAClow/IEEE802154E.c ****     slotOffset = ieee154e_vars.asn.byte4;
 6565              		.loc 1 2530 0
 6566 26ea 324B     		ldr	r3, .L390
 6567 26ec 1B78     		ldrb	r3, [r3]	@ zero_extendqisi2
 6568 26ee 3B60     		str	r3, [r7]
2531:build\openmote-cc2538_armgcc\openstack\02a-MAClow/IEEE802154E.c ****     slotOffset = slotOffset % frameLength;
 6569              		.loc 1 2531 0
 6570 26f0 BA88     		ldrh	r2, [r7, #4]
 6571 26f2 3B68     		ldr	r3, [r7]
 6572 26f4 B3FBF2F1 		udiv	r1, r3, r2
 6573 26f8 02FB01F2 		mul	r2, r2, r1
 6574 26fc 9B1A     		subs	r3, r3, r2
 6575 26fe 3B60     		str	r3, [r7]
2532:build\openmote-cc2538_armgcc\openstack\02a-MAClow/IEEE802154E.c ****     slotOffset = slotOffset << 16;
 6576              		.loc 1 2532 0
 6577 2700 3B68     		ldr	r3, [r7]
 6578 2702 1B04     		lsls	r3, r3, #16
 6579 2704 3B60     		str	r3, [r7]
2533:build\openmote-cc2538_armgcc\openstack\02a-MAClow/IEEE802154E.c ****     slotOffset = slotOffset + ieee154e_vars.asn.bytes2and3;
 6580              		.loc 1 2533 0
 6581 2706 2B4B     		ldr	r3, .L390
 6582 2708 B3F80130 		ldrh	r3, [r3, #1]	@ unaligned
 6583 270c 9BB2     		uxth	r3, r3
 6584 270e 1A46     		mov	r2, r3
 6585 2710 3B68     		ldr	r3, [r7]
 6586 2712 1344     		add	r3, r3, r2
 6587 2714 3B60     		str	r3, [r7]
2534:build\openmote-cc2538_armgcc\openstack\02a-MAClow/IEEE802154E.c ****     slotOffset = slotOffset % frameLength;
 6588              		.loc 1 2534 0
 6589 2716 BA88     		ldrh	r2, [r7, #4]
 6590 2718 3B68     		ldr	r3, [r7]
 6591 271a B3FBF2F1 		udiv	r1, r3, r2
 6592 271e 02FB01F2 		mul	r2, r2, r1
 6593 2722 9B1A     		subs	r3, r3, r2
 6594 2724 3B60     		str	r3, [r7]
2535:build\openmote-cc2538_armgcc\openstack\02a-MAClow/IEEE802154E.c ****     slotOffset = slotOffset << 16;
 6595              		.loc 1 2535 0
 6596 2726 3B68     		ldr	r3, [r7]
 6597 2728 1B04     		lsls	r3, r3, #16
 6598 272a 3B60     		str	r3, [r7]
2536:build\openmote-cc2538_armgcc\openstack\02a-MAClow/IEEE802154E.c ****     slotOffset = slotOffset + ieee154e_vars.asn.bytes0and1;
 6599              		.loc 1 2536 0
 6600 272c 214B     		ldr	r3, .L390
 6601 272e B3F80330 		ldrh	r3, [r3, #3]	@ unaligned
 6602 2732 9BB2     		uxth	r3, r3
 6603 2734 1A46     		mov	r2, r3
 6604 2736 3B68     		ldr	r3, [r7]
 6605 2738 1344     		add	r3, r3, r2
 6606 273a 3B60     		str	r3, [r7]
2537:build\openmote-cc2538_armgcc\openstack\02a-MAClow/IEEE802154E.c ****     slotOffset = slotOffset % frameLength;
 6607              		.loc 1 2537 0
 6608 273c BA88     		ldrh	r2, [r7, #4]
 6609 273e 3B68     		ldr	r3, [r7]
 6610 2740 B3FBF2F1 		udiv	r1, r3, r2
 6611 2744 02FB01F2 		mul	r2, r2, r1
 6612 2748 9B1A     		subs	r3, r3, r2
 6613 274a 3B60     		str	r3, [r7]
2538:build\openmote-cc2538_armgcc\openstack\02a-MAClow/IEEE802154E.c **** 
2539:build\openmote-cc2538_armgcc\openstack\02a-MAClow/IEEE802154E.c ****     ieee154e_vars.slotOffset       = (slotOffset_t) slotOffset;
 6614              		.loc 1 2539 0
 6615 274c 3B68     		ldr	r3, [r7]
 6616 274e 9AB2     		uxth	r2, r3
 6617 2750 184B     		ldr	r3, .L390
 6618 2752 DA80     		strh	r2, [r3, #6]	@ movhi
2540:build\openmote-cc2538_armgcc\openstack\02a-MAClow/IEEE802154E.c **** 
2541:build\openmote-cc2538_armgcc\openstack\02a-MAClow/IEEE802154E.c ****     schedule_syncSlotOffset(ieee154e_vars.slotOffset);
 6619              		.loc 1 2541 0
 6620 2754 174B     		ldr	r3, .L390
 6621 2756 DB88     		ldrh	r3, [r3, #6]
 6622 2758 1846     		mov	r0, r3
 6623 275a FFF7FEFF 		bl	schedule_syncSlotOffset
2542:build\openmote-cc2538_armgcc\openstack\02a-MAClow/IEEE802154E.c ****     ieee154e_vars.nextActiveSlotOffset = schedule_getNextActiveSlotOffset();
 6624              		.loc 1 2542 0
 6625 275e FFF7FEFF 		bl	schedule_getNextActiveSlotOffset
 6626 2762 0346     		mov	r3, r0
 6627 2764 1A46     		mov	r2, r3
 6628 2766 134B     		ldr	r3, .L390
 6629 2768 1A81     		strh	r2, [r3, #8]	@ movhi
2543:build\openmote-cc2538_armgcc\openstack\02a-MAClow/IEEE802154E.c ****     /*
2544:build\openmote-cc2538_armgcc\openstack\02a-MAClow/IEEE802154E.c ****     infer the asnOffset based on the fact that
2545:build\openmote-cc2538_armgcc\openstack\02a-MAClow/IEEE802154E.c ****     ieee154e_vars.freq = 11 + (asnOffset + channelOffset)%16
2546:build\openmote-cc2538_armgcc\openstack\02a-MAClow/IEEE802154E.c ****     */
2547:build\openmote-cc2538_armgcc\openstack\02a-MAClow/IEEE802154E.c ****     for (i=0;i<NUM_CHANNELS;i++){
 6630              		.loc 1 2547 0
 6631 276a 0023     		movs	r3, #0
 6632 276c FB71     		strb	r3, [r7, #7]
 6633 276e 0DE0     		b	.L385
 6634              	.L388:
2548:build\openmote-cc2538_armgcc\openstack\02a-MAClow/IEEE802154E.c ****         if ((ieee154e_vars.freq - 11)==ieee154e_vars.chTemplate[i]){
 6635              		.loc 1 2548 0
 6636 2770 104B     		ldr	r3, .L390
 6637 2772 93F88031 		ldrb	r3, [r3, #384]	@ zero_extendqisi2
 6638 2776 0B3B     		subs	r3, r3, #11
 6639 2778 FA79     		ldrb	r2, [r7, #7]	@ zero_extendqisi2
 6640 277a 0E49     		ldr	r1, .L390
 6641 277c 0A44     		add	r2, r2, r1
 6642 277e 92F88421 		ldrb	r2, [r2, #388]	@ zero_extendqisi2
 6643 2782 9342     		cmp	r3, r2
 6644 2784 06D0     		beq	.L389
2547:build\openmote-cc2538_armgcc\openstack\02a-MAClow/IEEE802154E.c ****         if ((ieee154e_vars.freq - 11)==ieee154e_vars.chTemplate[i]){
 6645              		.loc 1 2547 0 discriminator 2
 6646 2786 FB79     		ldrb	r3, [r7, #7]	@ zero_extendqisi2
 6647 2788 0133     		adds	r3, r3, #1
 6648 278a FB71     		strb	r3, [r7, #7]
 6649              	.L385:
2547:build\openmote-cc2538_armgcc\openstack\02a-MAClow/IEEE802154E.c ****         if ((ieee154e_vars.freq - 11)==ieee154e_vars.chTemplate[i]){
 6650              		.loc 1 2547 0 is_stmt 0 discriminator 1
 6651 278c FB79     		ldrb	r3, [r7, #7]	@ zero_extendqisi2
 6652 278e 0F2B     		cmp	r3, #15
 6653 2790 EED9     		bls	.L388
 6654 2792 00E0     		b	.L387
 6655              	.L389:
2549:build\openmote-cc2538_armgcc\openstack\02a-MAClow/IEEE802154E.c ****             break;
 6656              		.loc 1 2549 0 is_stmt 1
 6657 2794 00BF     		nop
 6658              	.L387:
2550:build\openmote-cc2538_armgcc\openstack\02a-MAClow/IEEE802154E.c ****         }
2551:build\openmote-cc2538_armgcc\openstack\02a-MAClow/IEEE802154E.c ****     }
2552:build\openmote-cc2538_armgcc\openstack\02a-MAClow/IEEE802154E.c ****     ieee154e_vars.asnOffset = i - schedule_getChannelOffset();
 6659              		.loc 1 2552 0
 6660 2796 FFF7FEFF 		bl	schedule_getChannelOffset
 6661 279a 0346     		mov	r3, r0
 6662 279c 1A46     		mov	r2, r3
 6663 279e FB79     		ldrb	r3, [r7, #7]
 6664 27a0 9B1A     		subs	r3, r3, r2
 6665 27a2 DAB2     		uxtb	r2, r3
 6666 27a4 034B     		ldr	r3, .L390
 6667 27a6 83F88121 		strb	r2, [r3, #385]
2553:build\openmote-cc2538_armgcc\openstack\02a-MAClow/IEEE802154E.c **** }
 6668              		.loc 1 2553 0
 6669 27aa 00BF     		nop
 6670 27ac 0837     		adds	r7, r7, #8
 6671              		.cfi_def_cfa_offset 8
 6672 27ae BD46     		mov	sp, r7
 6673              		.cfi_def_cfa_register 13
 6674              		@ sp needed
 6675 27b0 80BD     		pop	{r7, pc}
 6676              	.L391:
 6677 27b2 00BF     		.align	2
 6678              	.L390:
 6679 27b4 00000000 		.word	ieee154e_vars
 6680              		.cfi_endproc
 6681              	.LFE59:
 6683              		.align	1
 6684              		.global	ieee154e_setIsAckEnabled
 6685              		.syntax unified
 6686              		.thumb
 6687              		.thumb_func
 6688              		.fpu softvfp
 6690              	ieee154e_setIsAckEnabled:
 6691              	.LFB60:
2554:build\openmote-cc2538_armgcc\openstack\02a-MAClow/IEEE802154E.c **** 
2555:build\openmote-cc2538_armgcc\openstack\02a-MAClow/IEEE802154E.c **** void ieee154e_setIsAckEnabled(bool isEnabled){
 6692              		.loc 1 2555 0
 6693              		.cfi_startproc
 6694              		@ args = 0, pretend = 0, frame = 8
 6695              		@ frame_needed = 1, uses_anonymous_args = 0
 6696              		@ link register save eliminated.
 6697 27b8 80B4     		push	{r7}
 6698              		.cfi_def_cfa_offset 4
 6699              		.cfi_offset 7, -4
 6700 27ba 83B0     		sub	sp, sp, #12
 6701              		.cfi_def_cfa_offset 16
 6702 27bc 00AF     		add	r7, sp, #0
 6703              		.cfi_def_cfa_register 7
 6704 27be 0346     		mov	r3, r0
 6705 27c0 FB71     		strb	r3, [r7, #7]
2556:build\openmote-cc2538_armgcc\openstack\02a-MAClow/IEEE802154E.c ****     ieee154e_vars.isAckEnabled = isEnabled;
 6706              		.loc 1 2556 0
 6707 27c2 044A     		ldr	r2, .L393
 6708 27c4 FB79     		ldrb	r3, [r7, #7]
 6709 27c6 82F8A131 		strb	r3, [r2, #417]
2557:build\openmote-cc2538_armgcc\openstack\02a-MAClow/IEEE802154E.c **** }
 6710              		.loc 1 2557 0
 6711 27ca 00BF     		nop
 6712 27cc 0C37     		adds	r7, r7, #12
 6713              		.cfi_def_cfa_offset 4
 6714 27ce BD46     		mov	sp, r7
 6715              		.cfi_def_cfa_register 13
 6716              		@ sp needed
 6717 27d0 80BC     		pop	{r7}
 6718              		.cfi_restore 7
 6719              		.cfi_def_cfa_offset 0
 6720 27d2 7047     		bx	lr
 6721              	.L394:
 6722              		.align	2
 6723              	.L393:
 6724 27d4 00000000 		.word	ieee154e_vars
 6725              		.cfi_endproc
 6726              	.LFE60:
 6728              		.align	1
 6729              		.global	ieee154e_setSingleChannel
 6730              		.syntax unified
 6731              		.thumb
 6732              		.thumb_func
 6733              		.fpu softvfp
 6735              	ieee154e_setSingleChannel:
 6736              	.LFB61:
2558:build\openmote-cc2538_armgcc\openstack\02a-MAClow/IEEE802154E.c **** 
2559:build\openmote-cc2538_armgcc\openstack\02a-MAClow/IEEE802154E.c **** void ieee154e_setSingleChannel(uint8_t channel){
 6737              		.loc 1 2559 0
 6738              		.cfi_startproc
 6739              		@ args = 0, pretend = 0, frame = 8
 6740              		@ frame_needed = 1, uses_anonymous_args = 0
 6741              		@ link register save eliminated.
 6742 27d8 80B4     		push	{r7}
 6743              		.cfi_def_cfa_offset 4
 6744              		.cfi_offset 7, -4
 6745 27da 83B0     		sub	sp, sp, #12
 6746              		.cfi_def_cfa_offset 16
 6747 27dc 00AF     		add	r7, sp, #0
 6748              		.cfi_def_cfa_register 7
 6749 27de 0346     		mov	r3, r0
 6750 27e0 FB71     		strb	r3, [r7, #7]
2560:build\openmote-cc2538_armgcc\openstack\02a-MAClow/IEEE802154E.c ****     if (
 6751              		.loc 1 2560 0
 6752 27e2 FB79     		ldrb	r3, [r7, #7]	@ zero_extendqisi2
 6753 27e4 0A2B     		cmp	r3, #10
 6754 27e6 02D9     		bls	.L396
2561:build\openmote-cc2538_armgcc\openstack\02a-MAClow/IEEE802154E.c ****         (channel < 11 || channel > 26) &&
 6755              		.loc 1 2561 0
 6756 27e8 FB79     		ldrb	r3, [r7, #7]	@ zero_extendqisi2
 6757 27ea 1A2B     		cmp	r3, #26
 6758 27ec 02D9     		bls	.L397
 6759              	.L396:
 6760              		.loc 1 2561 0 is_stmt 0 discriminator 1
 6761 27ee FB79     		ldrb	r3, [r7, #7]	@ zero_extendqisi2
 6762 27f0 002B     		cmp	r3, #0
 6763 27f2 08D1     		bne	.L399
 6764              	.L397:
2562:build\openmote-cc2538_armgcc\openstack\02a-MAClow/IEEE802154E.c ****          channel != 0   // channel == 0 means channel hopping is enabled
2563:build\openmote-cc2538_armgcc\openstack\02a-MAClow/IEEE802154E.c ****     ) {
2564:build\openmote-cc2538_armgcc\openstack\02a-MAClow/IEEE802154E.c ****         // log wrong channel, should be  : (0, or 11~26)
2565:build\openmote-cc2538_armgcc\openstack\02a-MAClow/IEEE802154E.c ****         return;
2566:build\openmote-cc2538_armgcc\openstack\02a-MAClow/IEEE802154E.c ****     }
2567:build\openmote-cc2538_armgcc\openstack\02a-MAClow/IEEE802154E.c ****     ieee154e_vars.singleChannel = channel;
 6765              		.loc 1 2567 0 is_stmt 1
 6766 27f4 064A     		ldr	r2, .L400
 6767 27f6 FB79     		ldrb	r3, [r7, #7]
 6768 27f8 82F88231 		strb	r3, [r2, #386]
2568:build\openmote-cc2538_armgcc\openstack\02a-MAClow/IEEE802154E.c ****     ieee154e_vars.singleChannelChanged = TRUE;
 6769              		.loc 1 2568 0
 6770 27fc 044B     		ldr	r3, .L400
 6771 27fe 0122     		movs	r2, #1
 6772 2800 83F88321 		strb	r2, [r3, #387]
 6773 2804 00E0     		b	.L395
 6774              	.L399:
2565:build\openmote-cc2538_armgcc\openstack\02a-MAClow/IEEE802154E.c ****     }
 6775              		.loc 1 2565 0
 6776 2806 00BF     		nop
 6777              	.L395:
2569:build\openmote-cc2538_armgcc\openstack\02a-MAClow/IEEE802154E.c **** }
 6778              		.loc 1 2569 0
 6779 2808 0C37     		adds	r7, r7, #12
 6780              		.cfi_def_cfa_offset 4
 6781 280a BD46     		mov	sp, r7
 6782              		.cfi_def_cfa_register 13
 6783              		@ sp needed
 6784 280c 80BC     		pop	{r7}
 6785              		.cfi_restore 7
 6786              		.cfi_def_cfa_offset 0
 6787 280e 7047     		bx	lr
 6788              	.L401:
 6789              		.align	2
 6790              	.L400:
 6791 2810 00000000 		.word	ieee154e_vars
 6792              		.cfi_endproc
 6793              	.LFE61:
 6795              		.align	1
 6796              		.global	ieee154e_setIsSecurityEnabled
 6797              		.syntax unified
 6798              		.thumb
 6799              		.thumb_func
 6800              		.fpu softvfp
 6802              	ieee154e_setIsSecurityEnabled:
 6803              	.LFB62:
2570:build\openmote-cc2538_armgcc\openstack\02a-MAClow/IEEE802154E.c **** 
2571:build\openmote-cc2538_armgcc\openstack\02a-MAClow/IEEE802154E.c **** void ieee154e_setIsSecurityEnabled(bool isEnabled){
 6804              		.loc 1 2571 0
 6805              		.cfi_startproc
 6806              		@ args = 0, pretend = 0, frame = 8
 6807              		@ frame_needed = 1, uses_anonymous_args = 0
 6808              		@ link register save eliminated.
 6809 2814 80B4     		push	{r7}
 6810              		.cfi_def_cfa_offset 4
 6811              		.cfi_offset 7, -4
 6812 2816 83B0     		sub	sp, sp, #12
 6813              		.cfi_def_cfa_offset 16
 6814 2818 00AF     		add	r7, sp, #0
 6815              		.cfi_def_cfa_register 7
 6816 281a 0346     		mov	r3, r0
 6817 281c FB71     		strb	r3, [r7, #7]
2572:build\openmote-cc2538_armgcc\openstack\02a-MAClow/IEEE802154E.c ****     ieee154e_vars.isSecurityEnabled = isEnabled;
 6818              		.loc 1 2572 0
 6819 281e 044A     		ldr	r2, .L403
 6820 2820 FB79     		ldrb	r3, [r7, #7]
 6821 2822 82F8A231 		strb	r3, [r2, #418]
2573:build\openmote-cc2538_armgcc\openstack\02a-MAClow/IEEE802154E.c **** }
 6822              		.loc 1 2573 0
 6823 2826 00BF     		nop
 6824 2828 0C37     		adds	r7, r7, #12
 6825              		.cfi_def_cfa_offset 4
 6826 282a BD46     		mov	sp, r7
 6827              		.cfi_def_cfa_register 13
 6828              		@ sp needed
 6829 282c 80BC     		pop	{r7}
 6830              		.cfi_restore 7
 6831              		.cfi_def_cfa_offset 0
 6832 282e 7047     		bx	lr
 6833              	.L404:
 6834              		.align	2
 6835              	.L403:
 6836 2830 00000000 		.word	ieee154e_vars
 6837              		.cfi_endproc
 6838              	.LFE62:
 6840              		.align	1
 6841              		.global	ieee154e_setSlotDuration
 6842              		.syntax unified
 6843              		.thumb
 6844              		.thumb_func
 6845              		.fpu softvfp
 6847              	ieee154e_setSlotDuration:
 6848              	.LFB63:
2574:build\openmote-cc2538_armgcc\openstack\02a-MAClow/IEEE802154E.c **** 
2575:build\openmote-cc2538_armgcc\openstack\02a-MAClow/IEEE802154E.c **** void ieee154e_setSlotDuration(uint16_t duration){
 6849              		.loc 1 2575 0
 6850              		.cfi_startproc
 6851              		@ args = 0, pretend = 0, frame = 8
 6852              		@ frame_needed = 1, uses_anonymous_args = 0
 6853              		@ link register save eliminated.
 6854 2834 80B4     		push	{r7}
 6855              		.cfi_def_cfa_offset 4
 6856              		.cfi_offset 7, -4
 6857 2836 83B0     		sub	sp, sp, #12
 6858              		.cfi_def_cfa_offset 16
 6859 2838 00AF     		add	r7, sp, #0
 6860              		.cfi_def_cfa_register 7
 6861 283a 0346     		mov	r3, r0
 6862 283c FB80     		strh	r3, [r7, #6]	@ movhi
2576:build\openmote-cc2538_armgcc\openstack\02a-MAClow/IEEE802154E.c ****     ieee154e_vars.slotDuration = duration;
 6863              		.loc 1 2576 0
 6864 283e 044A     		ldr	r2, .L406
 6865 2840 FB88     		ldrh	r3, [r7, #6]	@ movhi
 6866 2842 A2F8A631 		strh	r3, [r2, #422]	@ movhi
2577:build\openmote-cc2538_armgcc\openstack\02a-MAClow/IEEE802154E.c **** }
 6867              		.loc 1 2577 0
 6868 2846 00BF     		nop
 6869 2848 0C37     		adds	r7, r7, #12
 6870              		.cfi_def_cfa_offset 4
 6871 284a BD46     		mov	sp, r7
 6872              		.cfi_def_cfa_register 13
 6873              		@ sp needed
 6874 284c 80BC     		pop	{r7}
 6875              		.cfi_restore 7
 6876              		.cfi_def_cfa_offset 0
 6877 284e 7047     		bx	lr
 6878              	.L407:
 6879              		.align	2
 6880              	.L406:
 6881 2850 00000000 		.word	ieee154e_vars
 6882              		.cfi_endproc
 6883              	.LFE63:
 6885              		.align	1
 6886              		.global	ieee154e_getSlotDuration
 6887              		.syntax unified
 6888              		.thumb
 6889              		.thumb_func
 6890              		.fpu softvfp
 6892              	ieee154e_getSlotDuration:
 6893              	.LFB64:
2578:build\openmote-cc2538_armgcc\openstack\02a-MAClow/IEEE802154E.c **** 
2579:build\openmote-cc2538_armgcc\openstack\02a-MAClow/IEEE802154E.c **** uint16_t ieee154e_getSlotDuration(void) {
 6894              		.loc 1 2579 0
 6895              		.cfi_startproc
 6896              		@ args = 0, pretend = 0, frame = 0
 6897              		@ frame_needed = 1, uses_anonymous_args = 0
 6898              		@ link register save eliminated.
 6899 2854 80B4     		push	{r7}
 6900              		.cfi_def_cfa_offset 4
 6901              		.cfi_offset 7, -4
 6902 2856 00AF     		add	r7, sp, #0
 6903              		.cfi_def_cfa_register 7
2580:build\openmote-cc2538_armgcc\openstack\02a-MAClow/IEEE802154E.c ****     return ieee154e_vars.slotDuration;
 6904              		.loc 1 2580 0
 6905 2858 034B     		ldr	r3, .L410
 6906 285a B3F8A631 		ldrh	r3, [r3, #422]
2581:build\openmote-cc2538_armgcc\openstack\02a-MAClow/IEEE802154E.c **** }
 6907              		.loc 1 2581 0
 6908 285e 1846     		mov	r0, r3
 6909 2860 BD46     		mov	sp, r7
 6910              		.cfi_def_cfa_register 13
 6911              		@ sp needed
 6912 2862 80BC     		pop	{r7}
 6913              		.cfi_restore 7
 6914              		.cfi_def_cfa_offset 0
 6915 2864 7047     		bx	lr
 6916              	.L411:
 6917 2866 00BF     		.align	2
 6918              	.L410:
 6919 2868 00000000 		.word	ieee154e_vars
 6920              		.cfi_endproc
 6921              	.LFE64:
 6923              		.align	1
 6924              		.global	timeslotTemplateIDStoreFromEB
 6925              		.syntax unified
 6926              		.thumb
 6927              		.thumb_func
 6928              		.fpu softvfp
 6930              	timeslotTemplateIDStoreFromEB:
 6931              	.LFB65:
2582:build\openmote-cc2538_armgcc\openstack\02a-MAClow/IEEE802154E.c **** 
2583:build\openmote-cc2538_armgcc\openstack\02a-MAClow/IEEE802154E.c **** // timeslot template handling
2584:build\openmote-cc2538_armgcc\openstack\02a-MAClow/IEEE802154E.c **** port_INLINE void timeslotTemplateIDStoreFromEB(uint8_t id){
 6932              		.loc 1 2584 0
 6933              		.cfi_startproc
 6934              		@ args = 0, pretend = 0, frame = 8
 6935              		@ frame_needed = 1, uses_anonymous_args = 0
 6936              		@ link register save eliminated.
 6937 286c 80B4     		push	{r7}
 6938              		.cfi_def_cfa_offset 4
 6939              		.cfi_offset 7, -4
 6940 286e 83B0     		sub	sp, sp, #12
 6941              		.cfi_def_cfa_offset 16
 6942 2870 00AF     		add	r7, sp, #0
 6943              		.cfi_def_cfa_register 7
 6944 2872 0346     		mov	r3, r0
 6945 2874 FB71     		strb	r3, [r7, #7]
2585:build\openmote-cc2538_armgcc\openstack\02a-MAClow/IEEE802154E.c ****     ieee154e_vars.tsTemplateId = id;
 6946              		.loc 1 2585 0
 6947 2876 044A     		ldr	r2, .L413
 6948 2878 FB79     		ldrb	r3, [r7, #7]
 6949 287a 82F89431 		strb	r3, [r2, #404]
2586:build\openmote-cc2538_armgcc\openstack\02a-MAClow/IEEE802154E.c **** }
 6950              		.loc 1 2586 0
 6951 287e 00BF     		nop
 6952 2880 0C37     		adds	r7, r7, #12
 6953              		.cfi_def_cfa_offset 4
 6954 2882 BD46     		mov	sp, r7
 6955              		.cfi_def_cfa_register 13
 6956              		@ sp needed
 6957 2884 80BC     		pop	{r7}
 6958              		.cfi_restore 7
 6959              		.cfi_def_cfa_offset 0
 6960 2886 7047     		bx	lr
 6961              	.L414:
 6962              		.align	2
 6963              	.L413:
 6964 2888 00000000 		.word	ieee154e_vars
 6965              		.cfi_endproc
 6966              	.LFE65:
 6968              		.align	1
 6969              		.global	channelhoppingTemplateIDStoreFromEB
 6970              		.syntax unified
 6971              		.thumb
 6972              		.thumb_func
 6973              		.fpu softvfp
 6975              	channelhoppingTemplateIDStoreFromEB:
 6976              	.LFB66:
2587:build\openmote-cc2538_armgcc\openstack\02a-MAClow/IEEE802154E.c **** 
2588:build\openmote-cc2538_armgcc\openstack\02a-MAClow/IEEE802154E.c **** // channelhopping template handling
2589:build\openmote-cc2538_armgcc\openstack\02a-MAClow/IEEE802154E.c **** port_INLINE void channelhoppingTemplateIDStoreFromEB(uint8_t id){
 6977              		.loc 1 2589 0
 6978              		.cfi_startproc
 6979              		@ args = 0, pretend = 0, frame = 8
 6980              		@ frame_needed = 1, uses_anonymous_args = 0
 6981              		@ link register save eliminated.
 6982 288c 80B4     		push	{r7}
 6983              		.cfi_def_cfa_offset 4
 6984              		.cfi_offset 7, -4
 6985 288e 83B0     		sub	sp, sp, #12
 6986              		.cfi_def_cfa_offset 16
 6987 2890 00AF     		add	r7, sp, #0
 6988              		.cfi_def_cfa_register 7
 6989 2892 0346     		mov	r3, r0
 6990 2894 FB71     		strb	r3, [r7, #7]
2590:build\openmote-cc2538_armgcc\openstack\02a-MAClow/IEEE802154E.c ****     ieee154e_vars.chTemplateId = id;
 6991              		.loc 1 2590 0
 6992 2896 044A     		ldr	r2, .L416
 6993 2898 FB79     		ldrb	r3, [r7, #7]
 6994 289a 82F89531 		strb	r3, [r2, #405]
2591:build\openmote-cc2538_armgcc\openstack\02a-MAClow/IEEE802154E.c **** }
 6995              		.loc 1 2591 0
 6996 289e 00BF     		nop
 6997 28a0 0C37     		adds	r7, r7, #12
 6998              		.cfi_def_cfa_offset 4
 6999 28a2 BD46     		mov	sp, r7
 7000              		.cfi_def_cfa_register 13
 7001              		@ sp needed
 7002 28a4 80BC     		pop	{r7}
 7003              		.cfi_restore 7
 7004              		.cfi_def_cfa_offset 0
 7005 28a6 7047     		bx	lr
 7006              	.L417:
 7007              		.align	2
 7008              	.L416:
 7009 28a8 00000000 		.word	ieee154e_vars
 7010              		.cfi_endproc
 7011              	.LFE66:
 7013              		.align	1
 7014              		.global	synchronizePacket
 7015              		.syntax unified
 7016              		.thumb
 7017              		.thumb_func
 7018              		.fpu softvfp
 7020              	synchronizePacket:
 7021              	.LFB67:
2592:build\openmote-cc2538_armgcc\openstack\02a-MAClow/IEEE802154E.c **** //======= synchronization
2593:build\openmote-cc2538_armgcc\openstack\02a-MAClow/IEEE802154E.c **** 
2594:build\openmote-cc2538_armgcc\openstack\02a-MAClow/IEEE802154E.c **** void synchronizePacket(PORT_TIMER_WIDTH timeReceived) {
 7022              		.loc 1 2594 0
 7023              		.cfi_startproc
 7024              		@ args = 0, pretend = 0, frame = 24
 7025              		@ frame_needed = 1, uses_anonymous_args = 0
 7026 28ac 80B5     		push	{r7, lr}
 7027              		.cfi_def_cfa_offset 8
 7028              		.cfi_offset 7, -8
 7029              		.cfi_offset 14, -4
 7030 28ae 88B0     		sub	sp, sp, #32
 7031              		.cfi_def_cfa_offset 40
 7032 28b0 02AF     		add	r7, sp, #8
 7033              		.cfi_def_cfa 7, 32
 7034 28b2 7860     		str	r0, [r7, #4]
2595:build\openmote-cc2538_armgcc\openstack\02a-MAClow/IEEE802154E.c ****     PORT_SIGNED_INT_WIDTH timeCorrection;
2596:build\openmote-cc2538_armgcc\openstack\02a-MAClow/IEEE802154E.c ****     PORT_TIMER_WIDTH newPeriod;
2597:build\openmote-cc2538_armgcc\openstack\02a-MAClow/IEEE802154E.c ****     PORT_TIMER_WIDTH currentPeriod;
2598:build\openmote-cc2538_armgcc\openstack\02a-MAClow/IEEE802154E.c ****     PORT_TIMER_WIDTH currentValue;
2599:build\openmote-cc2538_armgcc\openstack\02a-MAClow/IEEE802154E.c **** 
2600:build\openmote-cc2538_armgcc\openstack\02a-MAClow/IEEE802154E.c ****     // record the current timer value and period
2601:build\openmote-cc2538_armgcc\openstack\02a-MAClow/IEEE802154E.c ****     currentValue                   =  opentimers_getValue()-ieee154e_vars.startOfSlotReference;
 7035              		.loc 1 2601 0
 7036 28b4 FFF7FEFF 		bl	opentimers_getValue
 7037 28b8 0246     		mov	r2, r0
 7038 28ba 2B4B     		ldr	r3, .L424
 7039 28bc D3F8AC31 		ldr	r3, [r3, #428]
 7040 28c0 D31A     		subs	r3, r2, r3
 7041 28c2 3B61     		str	r3, [r7, #16]
2602:build\openmote-cc2538_armgcc\openstack\02a-MAClow/IEEE802154E.c ****     currentPeriod                  =  ieee154e_vars.slotDuration;
 7042              		.loc 1 2602 0
 7043 28c4 284B     		ldr	r3, .L424
 7044 28c6 B3F8A631 		ldrh	r3, [r3, #422]
 7045 28ca FB60     		str	r3, [r7, #12]
2603:build\openmote-cc2538_armgcc\openstack\02a-MAClow/IEEE802154E.c **** 
2604:build\openmote-cc2538_armgcc\openstack\02a-MAClow/IEEE802154E.c ****     // calculate new period
2605:build\openmote-cc2538_armgcc\openstack\02a-MAClow/IEEE802154E.c ****     timeCorrection                 =  (PORT_SIGNED_INT_WIDTH)((PORT_SIGNED_INT_WIDTH)timeReceived-(
 7046              		.loc 1 2605 0
 7047 28cc 7B68     		ldr	r3, [r7, #4]
 7048 28ce 463B     		subs	r3, r3, #70
 7049 28d0 BB60     		str	r3, [r7, #8]
2606:build\openmote-cc2538_armgcc\openstack\02a-MAClow/IEEE802154E.c **** 
2607:build\openmote-cc2538_armgcc\openstack\02a-MAClow/IEEE802154E.c ****     // The interrupt beginning a new slot can either occur after the packet has been
2608:build\openmote-cc2538_armgcc\openstack\02a-MAClow/IEEE802154E.c ****     // or while it is being received, possibly because the mote is not yet synchronized.
2609:build\openmote-cc2538_armgcc\openstack\02a-MAClow/IEEE802154E.c ****     // In the former case we simply take the usual slotLength and correct it.
2610:build\openmote-cc2538_armgcc\openstack\02a-MAClow/IEEE802154E.c ****     // In the latter case the timer did already roll over and
2611:build\openmote-cc2538_armgcc\openstack\02a-MAClow/IEEE802154E.c ****     // currentValue < timeReceived. slotLength did then already pass which is why
2612:build\openmote-cc2538_armgcc\openstack\02a-MAClow/IEEE802154E.c ****     // we need the new slot to end after the remaining time which is timeCorrection
2613:build\openmote-cc2538_armgcc\openstack\02a-MAClow/IEEE802154E.c ****     // and in this constellation is guaranteed to be positive.
2614:build\openmote-cc2538_armgcc\openstack\02a-MAClow/IEEE802154E.c ****     if (currentValue < timeReceived) {
 7050              		.loc 1 2614 0
 7051 28d2 3A69     		ldr	r2, [r7, #16]
 7052 28d4 7B68     		ldr	r3, [r7, #4]
 7053 28d6 9A42     		cmp	r2, r3
 7054 28d8 02D2     		bcs	.L419
2615:build\openmote-cc2538_armgcc\openstack\02a-MAClow/IEEE802154E.c ****         newPeriod = (PORT_TIMER_WIDTH)timeCorrection;
 7055              		.loc 1 2615 0
 7056 28da BB68     		ldr	r3, [r7, #8]
 7057 28dc 7B61     		str	r3, [r7, #20]
 7058 28de 03E0     		b	.L420
 7059              	.L419:
2616:build\openmote-cc2538_armgcc\openstack\02a-MAClow/IEEE802154E.c ****     } else {
2617:build\openmote-cc2538_armgcc\openstack\02a-MAClow/IEEE802154E.c ****         newPeriod =  (PORT_TIMER_WIDTH)((PORT_SIGNED_INT_WIDTH)currentPeriod + timeCorrection);
 7060              		.loc 1 2617 0
 7061 28e0 FA68     		ldr	r2, [r7, #12]
 7062 28e2 BB68     		ldr	r3, [r7, #8]
 7063 28e4 1344     		add	r3, r3, r2
 7064 28e6 7B61     		str	r3, [r7, #20]
 7065              	.L420:
2618:build\openmote-cc2538_armgcc\openstack\02a-MAClow/IEEE802154E.c ****     }
2619:build\openmote-cc2538_armgcc\openstack\02a-MAClow/IEEE802154E.c **** 
2620:build\openmote-cc2538_armgcc\openstack\02a-MAClow/IEEE802154E.c ****     // detect whether I'm too close to the edge of the slot, in that case,
2621:build\openmote-cc2538_armgcc\openstack\02a-MAClow/IEEE802154E.c ****     // skip a slot and increase the temporary slot length to be 2 slots long
2622:build\openmote-cc2538_armgcc\openstack\02a-MAClow/IEEE802154E.c ****     if ((PORT_SIGNED_INT_WIDTH)newPeriod - (PORT_SIGNED_INT_WIDTH)currentValue < (PORT_SIGNED_INT_W
 7066              		.loc 1 2622 0
 7067 28e8 7A69     		ldr	r2, [r7, #20]
 7068 28ea 3B69     		ldr	r3, [r7, #16]
 7069 28ec D31A     		subs	r3, r2, r3
 7070 28ee 042B     		cmp	r3, #4
 7071 28f0 05DC     		bgt	.L421
2623:build\openmote-cc2538_armgcc\openstack\02a-MAClow/IEEE802154E.c ****         newPeriod                  +=  TsSlotDuration;
 7072              		.loc 1 2623 0
 7073 28f2 7B69     		ldr	r3, [r7, #20]
 7074 28f4 03F5A473 		add	r3, r3, #328
 7075 28f8 7B61     		str	r3, [r7, #20]
2624:build\openmote-cc2538_armgcc\openstack\02a-MAClow/IEEE802154E.c ****         incrementAsnOffset();
 7076              		.loc 1 2624 0
 7077 28fa FFF7FEFF 		bl	incrementAsnOffset
 7078              	.L421:
2625:build\openmote-cc2538_armgcc\openstack\02a-MAClow/IEEE802154E.c ****     }
2626:build\openmote-cc2538_armgcc\openstack\02a-MAClow/IEEE802154E.c **** 
2627:build\openmote-cc2538_armgcc\openstack\02a-MAClow/IEEE802154E.c ****     // resynchronize by applying the new period
2628:build\openmote-cc2538_armgcc\openstack\02a-MAClow/IEEE802154E.c ****     opentimers_scheduleAbsolute(
 7079              		.loc 1 2628 0
 7080 28fe 1A4B     		ldr	r3, .L424
 7081 2900 93F8A801 		ldrb	r0, [r3, #424]	@ zero_extendqisi2
 7082 2904 184B     		ldr	r3, .L424
 7083 2906 D3F8AC21 		ldr	r2, [r3, #428]
 7084 290a 184B     		ldr	r3, .L424+4
 7085 290c 0093     		str	r3, [sp]
 7086 290e 0123     		movs	r3, #1
 7087 2910 7969     		ldr	r1, [r7, #20]
 7088 2912 FFF7FEFF 		bl	opentimers_scheduleAbsolute
2629:build\openmote-cc2538_armgcc\openstack\02a-MAClow/IEEE802154E.c ****         ieee154e_vars.timerId,                            // timerId
2630:build\openmote-cc2538_armgcc\openstack\02a-MAClow/IEEE802154E.c ****         newPeriod,                                        // duration
2631:build\openmote-cc2538_armgcc\openstack\02a-MAClow/IEEE802154E.c ****         ieee154e_vars.startOfSlotReference,               // reference
2632:build\openmote-cc2538_armgcc\openstack\02a-MAClow/IEEE802154E.c ****         TIME_TICS,                                        // timetype
2633:build\openmote-cc2538_armgcc\openstack\02a-MAClow/IEEE802154E.c ****         isr_ieee154e_newSlot                              // callback
2634:build\openmote-cc2538_armgcc\openstack\02a-MAClow/IEEE802154E.c ****     );
2635:build\openmote-cc2538_armgcc\openstack\02a-MAClow/IEEE802154E.c ****     ieee154e_vars.slotDuration = newPeriod;
 7089              		.loc 1 2635 0
 7090 2916 7B69     		ldr	r3, [r7, #20]
 7091 2918 9AB2     		uxth	r2, r3
 7092 291a 134B     		ldr	r3, .L424
 7093 291c A3F8A621 		strh	r2, [r3, #422]	@ movhi
2636:build\openmote-cc2538_armgcc\openstack\02a-MAClow/IEEE802154E.c ****     // radiotimer_setPeriod(newPeriod);
2637:build\openmote-cc2538_armgcc\openstack\02a-MAClow/IEEE802154E.c **** #ifdef ADAPTIVE_SYNC
2638:build\openmote-cc2538_armgcc\openstack\02a-MAClow/IEEE802154E.c ****     // indicate time correction to adaptive sync module
2639:build\openmote-cc2538_armgcc\openstack\02a-MAClow/IEEE802154E.c ****     adaptive_sync_indicateTimeCorrection(timeCorrection,ieee154e_vars.dataReceived->l2_nextORprevio
2640:build\openmote-cc2538_armgcc\openstack\02a-MAClow/IEEE802154E.c **** #endif
2641:build\openmote-cc2538_armgcc\openstack\02a-MAClow/IEEE802154E.c ****     // reset the de-synchronization timeout
2642:build\openmote-cc2538_armgcc\openstack\02a-MAClow/IEEE802154E.c ****     ieee154e_vars.deSyncTimeout    = DESYNCTIMEOUT;
 7094              		.loc 1 2642 0
 7095 2920 114B     		ldr	r3, .L424
 7096 2922 40F2D662 		movw	r2, #1750
 7097 2926 DA60     		str	r2, [r3, #12]
2643:build\openmote-cc2538_armgcc\openstack\02a-MAClow/IEEE802154E.c **** 
2644:build\openmote-cc2538_armgcc\openstack\02a-MAClow/IEEE802154E.c ****     // log a large timeCorrection
2645:build\openmote-cc2538_armgcc\openstack\02a-MAClow/IEEE802154E.c ****     if (
2646:build\openmote-cc2538_armgcc\openstack\02a-MAClow/IEEE802154E.c ****         ieee154e_vars.isSync==TRUE &&
 7098              		.loc 1 2646 0
 7099 2928 0F4B     		ldr	r3, .L424
 7100 292a 1B7C     		ldrb	r3, [r3, #16]	@ zero_extendqisi2
2645:build\openmote-cc2538_armgcc\openstack\02a-MAClow/IEEE802154E.c ****         ieee154e_vars.isSync==TRUE &&
 7101              		.loc 1 2645 0
 7102 292c 002B     		cmp	r3, #0
 7103 292e 0DD0     		beq	.L422
 7104              		.loc 1 2646 0
 7105 2930 BB68     		ldr	r3, [r7, #8]
 7106 2932 13F1050F 		cmn	r3, #5
 7107 2936 02DB     		blt	.L423
2647:build\openmote-cc2538_armgcc\openstack\02a-MAClow/IEEE802154E.c ****         (
2648:build\openmote-cc2538_armgcc\openstack\02a-MAClow/IEEE802154E.c ****             timeCorrection<-LIMITLARGETIMECORRECTION ||
 7108              		.loc 1 2648 0
 7109 2938 BB68     		ldr	r3, [r7, #8]
 7110 293a 052B     		cmp	r3, #5
 7111 293c 06DD     		ble	.L422
 7112              	.L423:
2649:build\openmote-cc2538_armgcc\openstack\02a-MAClow/IEEE802154E.c ****             timeCorrection> LIMITLARGETIMECORRECTION
2650:build\openmote-cc2538_armgcc\openstack\02a-MAClow/IEEE802154E.c ****         )
2651:build\openmote-cc2538_armgcc\openstack\02a-MAClow/IEEE802154E.c ****     ) {
2652:build\openmote-cc2538_armgcc\openstack\02a-MAClow/IEEE802154E.c ****         openserial_printError(COMPONENT_IEEE802154E,ERR_LARGE_TIMECORRECTION,
 7113              		.loc 1 2652 0
 7114 293e BB68     		ldr	r3, [r7, #8]
 7115 2940 9AB2     		uxth	r2, r3
 7116 2942 0023     		movs	r3, #0
 7117 2944 1D21     		movs	r1, #29
 7118 2946 0920     		movs	r0, #9
 7119 2948 FFF7FEFF 		bl	openserial_printError
 7120              	.L422:
2653:build\openmote-cc2538_armgcc\openstack\02a-MAClow/IEEE802154E.c ****                               (errorparameter_t)timeCorrection,
2654:build\openmote-cc2538_armgcc\openstack\02a-MAClow/IEEE802154E.c ****                               (errorparameter_t)0);
2655:build\openmote-cc2538_armgcc\openstack\02a-MAClow/IEEE802154E.c ****     }
2656:build\openmote-cc2538_armgcc\openstack\02a-MAClow/IEEE802154E.c **** 
2657:build\openmote-cc2538_armgcc\openstack\02a-MAClow/IEEE802154E.c ****     // update the stats
2658:build\openmote-cc2538_armgcc\openstack\02a-MAClow/IEEE802154E.c ****     ieee154e_stats.numSyncPkt++;
 7121              		.loc 1 2658 0
 7122 294c 084B     		ldr	r3, .L424+8
 7123 294e 1B78     		ldrb	r3, [r3]	@ zero_extendqisi2
 7124 2950 0133     		adds	r3, r3, #1
 7125 2952 DAB2     		uxtb	r2, r3
 7126 2954 064B     		ldr	r3, .L424+8
 7127 2956 1A70     		strb	r2, [r3]
2659:build\openmote-cc2538_armgcc\openstack\02a-MAClow/IEEE802154E.c ****     updateStats(timeCorrection);
 7128              		.loc 1 2659 0
 7129 2958 B868     		ldr	r0, [r7, #8]
 7130 295a FFF7FEFF 		bl	updateStats
2660:build\openmote-cc2538_armgcc\openstack\02a-MAClow/IEEE802154E.c **** 
2661:build\openmote-cc2538_armgcc\openstack\02a-MAClow/IEEE802154E.c **** #ifdef OPENSIM
2662:build\openmote-cc2538_armgcc\openstack\02a-MAClow/IEEE802154E.c ****     debugpins_syncPacket_set();
2663:build\openmote-cc2538_armgcc\openstack\02a-MAClow/IEEE802154E.c ****     debugpins_syncPacket_clr();
2664:build\openmote-cc2538_armgcc\openstack\02a-MAClow/IEEE802154E.c **** #endif
2665:build\openmote-cc2538_armgcc\openstack\02a-MAClow/IEEE802154E.c **** }
 7131              		.loc 1 2665 0
 7132 295e 00BF     		nop
 7133 2960 1837     		adds	r7, r7, #24
 7134              		.cfi_def_cfa_offset 8
 7135 2962 BD46     		mov	sp, r7
 7136              		.cfi_def_cfa_register 13
 7137              		@ sp needed
 7138 2964 80BD     		pop	{r7, pc}
 7139              	.L425:
 7140 2966 00BF     		.align	2
 7141              	.L424:
 7142 2968 00000000 		.word	ieee154e_vars
 7143 296c 00000000 		.word	isr_ieee154e_newSlot
 7144 2970 00000000 		.word	ieee154e_stats
 7145              		.cfi_endproc
 7146              	.LFE67:
 7148              		.align	1
 7149              		.global	synchronizeAck
 7150              		.syntax unified
 7151              		.thumb
 7152              		.thumb_func
 7153              		.fpu softvfp
 7155              	synchronizeAck:
 7156              	.LFB68:
2666:build\openmote-cc2538_armgcc\openstack\02a-MAClow/IEEE802154E.c **** 
2667:build\openmote-cc2538_armgcc\openstack\02a-MAClow/IEEE802154E.c **** void synchronizeAck(PORT_SIGNED_INT_WIDTH timeCorrection) {
 7157              		.loc 1 2667 0
 7158              		.cfi_startproc
 7159              		@ args = 0, pretend = 0, frame = 16
 7160              		@ frame_needed = 1, uses_anonymous_args = 0
 7161 2974 80B5     		push	{r7, lr}
 7162              		.cfi_def_cfa_offset 8
 7163              		.cfi_offset 7, -8
 7164              		.cfi_offset 14, -4
 7165 2976 86B0     		sub	sp, sp, #24
 7166              		.cfi_def_cfa_offset 32
 7167 2978 02AF     		add	r7, sp, #8
 7168              		.cfi_def_cfa 7, 24
 7169 297a 7860     		str	r0, [r7, #4]
2668:build\openmote-cc2538_armgcc\openstack\02a-MAClow/IEEE802154E.c ****     PORT_TIMER_WIDTH newPeriod;
2669:build\openmote-cc2538_armgcc\openstack\02a-MAClow/IEEE802154E.c ****     PORT_TIMER_WIDTH currentPeriod;
2670:build\openmote-cc2538_armgcc\openstack\02a-MAClow/IEEE802154E.c **** 
2671:build\openmote-cc2538_armgcc\openstack\02a-MAClow/IEEE802154E.c ****     // calculate new period
2672:build\openmote-cc2538_armgcc\openstack\02a-MAClow/IEEE802154E.c ****     currentPeriod                  =  ieee154e_vars.slotDuration;
 7170              		.loc 1 2672 0
 7171 297c 1D4B     		ldr	r3, .L429
 7172 297e B3F8A631 		ldrh	r3, [r3, #422]
 7173 2982 FB60     		str	r3, [r7, #12]
2673:build\openmote-cc2538_armgcc\openstack\02a-MAClow/IEEE802154E.c ****     newPeriod                      =  (PORT_TIMER_WIDTH)((PORT_SIGNED_INT_WIDTH)currentPeriod+timeC
 7174              		.loc 1 2673 0
 7175 2984 FA68     		ldr	r2, [r7, #12]
 7176 2986 7B68     		ldr	r3, [r7, #4]
 7177 2988 1344     		add	r3, r3, r2
 7178 298a BB60     		str	r3, [r7, #8]
2674:build\openmote-cc2538_armgcc\openstack\02a-MAClow/IEEE802154E.c **** 
2675:build\openmote-cc2538_armgcc\openstack\02a-MAClow/IEEE802154E.c ****     // resynchronize by applying the new period
2676:build\openmote-cc2538_armgcc\openstack\02a-MAClow/IEEE802154E.c ****     opentimers_scheduleAbsolute(
 7179              		.loc 1 2676 0
 7180 298c 194B     		ldr	r3, .L429
 7181 298e 93F8A801 		ldrb	r0, [r3, #424]	@ zero_extendqisi2
 7182 2992 184B     		ldr	r3, .L429
 7183 2994 D3F8AC21 		ldr	r2, [r3, #428]
 7184 2998 174B     		ldr	r3, .L429+4
 7185 299a 0093     		str	r3, [sp]
 7186 299c 0123     		movs	r3, #1
 7187 299e B968     		ldr	r1, [r7, #8]
 7188 29a0 FFF7FEFF 		bl	opentimers_scheduleAbsolute
2677:build\openmote-cc2538_armgcc\openstack\02a-MAClow/IEEE802154E.c ****         ieee154e_vars.timerId,                            // timerId
2678:build\openmote-cc2538_armgcc\openstack\02a-MAClow/IEEE802154E.c ****         newPeriod,                                        // duration
2679:build\openmote-cc2538_armgcc\openstack\02a-MAClow/IEEE802154E.c ****         ieee154e_vars.startOfSlotReference,               // reference
2680:build\openmote-cc2538_armgcc\openstack\02a-MAClow/IEEE802154E.c ****         TIME_TICS,                                        // timetype
2681:build\openmote-cc2538_armgcc\openstack\02a-MAClow/IEEE802154E.c ****         isr_ieee154e_newSlot                              // callback
2682:build\openmote-cc2538_armgcc\openstack\02a-MAClow/IEEE802154E.c ****     );
2683:build\openmote-cc2538_armgcc\openstack\02a-MAClow/IEEE802154E.c ****     ieee154e_vars.slotDuration = newPeriod;
 7189              		.loc 1 2683 0
 7190 29a4 BB68     		ldr	r3, [r7, #8]
 7191 29a6 9AB2     		uxth	r2, r3
 7192 29a8 124B     		ldr	r3, .L429
 7193 29aa A3F8A621 		strh	r2, [r3, #422]	@ movhi
2684:build\openmote-cc2538_armgcc\openstack\02a-MAClow/IEEE802154E.c ****     // radiotimer_setPeriod(newPeriod);
2685:build\openmote-cc2538_armgcc\openstack\02a-MAClow/IEEE802154E.c **** 
2686:build\openmote-cc2538_armgcc\openstack\02a-MAClow/IEEE802154E.c ****     // reset the de-synchronization timeout
2687:build\openmote-cc2538_armgcc\openstack\02a-MAClow/IEEE802154E.c ****     ieee154e_vars.deSyncTimeout    = DESYNCTIMEOUT;
 7194              		.loc 1 2687 0
 7195 29ae 114B     		ldr	r3, .L429
 7196 29b0 40F2D662 		movw	r2, #1750
 7197 29b4 DA60     		str	r2, [r3, #12]
2688:build\openmote-cc2538_armgcc\openstack\02a-MAClow/IEEE802154E.c **** #ifdef ADAPTIVE_SYNC
2689:build\openmote-cc2538_armgcc\openstack\02a-MAClow/IEEE802154E.c ****     // indicate time correction to adaptive sync module
2690:build\openmote-cc2538_armgcc\openstack\02a-MAClow/IEEE802154E.c ****     adaptive_sync_indicateTimeCorrection((-timeCorrection),ieee154e_vars.ackReceived->l2_nextORprev
2691:build\openmote-cc2538_armgcc\openstack\02a-MAClow/IEEE802154E.c **** #endif
2692:build\openmote-cc2538_armgcc\openstack\02a-MAClow/IEEE802154E.c ****     // log a large timeCorrection
2693:build\openmote-cc2538_armgcc\openstack\02a-MAClow/IEEE802154E.c ****     if (
2694:build\openmote-cc2538_armgcc\openstack\02a-MAClow/IEEE802154E.c ****         ieee154e_vars.isSync==TRUE &&
 7198              		.loc 1 2694 0
 7199 29b6 0F4B     		ldr	r3, .L429
 7200 29b8 1B7C     		ldrb	r3, [r3, #16]	@ zero_extendqisi2
2693:build\openmote-cc2538_armgcc\openstack\02a-MAClow/IEEE802154E.c ****         ieee154e_vars.isSync==TRUE &&
 7201              		.loc 1 2693 0
 7202 29ba 002B     		cmp	r3, #0
 7203 29bc 0DD0     		beq	.L427
 7204              		.loc 1 2694 0
 7205 29be 7B68     		ldr	r3, [r7, #4]
 7206 29c0 13F1050F 		cmn	r3, #5
 7207 29c4 02DB     		blt	.L428
2695:build\openmote-cc2538_armgcc\openstack\02a-MAClow/IEEE802154E.c ****         (
2696:build\openmote-cc2538_armgcc\openstack\02a-MAClow/IEEE802154E.c ****             timeCorrection<-LIMITLARGETIMECORRECTION ||
 7208              		.loc 1 2696 0
 7209 29c6 7B68     		ldr	r3, [r7, #4]
 7210 29c8 052B     		cmp	r3, #5
 7211 29ca 06DD     		ble	.L427
 7212              	.L428:
2697:build\openmote-cc2538_armgcc\openstack\02a-MAClow/IEEE802154E.c ****             timeCorrection> LIMITLARGETIMECORRECTION
2698:build\openmote-cc2538_armgcc\openstack\02a-MAClow/IEEE802154E.c ****         )
2699:build\openmote-cc2538_armgcc\openstack\02a-MAClow/IEEE802154E.c ****     ) {
2700:build\openmote-cc2538_armgcc\openstack\02a-MAClow/IEEE802154E.c ****         openserial_printError(COMPONENT_IEEE802154E,ERR_LARGE_TIMECORRECTION,
 7213              		.loc 1 2700 0
 7214 29cc 7B68     		ldr	r3, [r7, #4]
 7215 29ce 9AB2     		uxth	r2, r3
 7216 29d0 0123     		movs	r3, #1
 7217 29d2 1D21     		movs	r1, #29
 7218 29d4 0920     		movs	r0, #9
 7219 29d6 FFF7FEFF 		bl	openserial_printError
 7220              	.L427:
2701:build\openmote-cc2538_armgcc\openstack\02a-MAClow/IEEE802154E.c ****                               (errorparameter_t)timeCorrection,
2702:build\openmote-cc2538_armgcc\openstack\02a-MAClow/IEEE802154E.c ****                               (errorparameter_t)1);
2703:build\openmote-cc2538_armgcc\openstack\02a-MAClow/IEEE802154E.c ****     }
2704:build\openmote-cc2538_armgcc\openstack\02a-MAClow/IEEE802154E.c **** 
2705:build\openmote-cc2538_armgcc\openstack\02a-MAClow/IEEE802154E.c ****     // update the stats
2706:build\openmote-cc2538_armgcc\openstack\02a-MAClow/IEEE802154E.c ****     ieee154e_stats.numSyncAck++;
 7221              		.loc 1 2706 0
 7222 29da 084B     		ldr	r3, .L429+8
 7223 29dc 5B78     		ldrb	r3, [r3, #1]	@ zero_extendqisi2
 7224 29de 0133     		adds	r3, r3, #1
 7225 29e0 DAB2     		uxtb	r2, r3
 7226 29e2 064B     		ldr	r3, .L429+8
 7227 29e4 5A70     		strb	r2, [r3, #1]
2707:build\openmote-cc2538_armgcc\openstack\02a-MAClow/IEEE802154E.c ****     updateStats(timeCorrection);
 7228              		.loc 1 2707 0
 7229 29e6 7868     		ldr	r0, [r7, #4]
 7230 29e8 FFF7FEFF 		bl	updateStats
2708:build\openmote-cc2538_armgcc\openstack\02a-MAClow/IEEE802154E.c **** 
2709:build\openmote-cc2538_armgcc\openstack\02a-MAClow/IEEE802154E.c **** #ifdef OPENSIM
2710:build\openmote-cc2538_armgcc\openstack\02a-MAClow/IEEE802154E.c ****     debugpins_syncAck_set();
2711:build\openmote-cc2538_armgcc\openstack\02a-MAClow/IEEE802154E.c ****     debugpins_syncAck_clr();
2712:build\openmote-cc2538_armgcc\openstack\02a-MAClow/IEEE802154E.c **** #endif
2713:build\openmote-cc2538_armgcc\openstack\02a-MAClow/IEEE802154E.c **** }
 7231              		.loc 1 2713 0
 7232 29ec 00BF     		nop
 7233 29ee 1037     		adds	r7, r7, #16
 7234              		.cfi_def_cfa_offset 8
 7235 29f0 BD46     		mov	sp, r7
 7236              		.cfi_def_cfa_register 13
 7237              		@ sp needed
 7238 29f2 80BD     		pop	{r7, pc}
 7239              	.L430:
 7240              		.align	2
 7241              	.L429:
 7242 29f4 00000000 		.word	ieee154e_vars
 7243 29f8 00000000 		.word	isr_ieee154e_newSlot
 7244 29fc 00000000 		.word	ieee154e_stats
 7245              		.cfi_endproc
 7246              	.LFE68:
 7248              		.align	1
 7249              		.global	changeIsSync
 7250              		.syntax unified
 7251              		.thumb
 7252              		.thumb_func
 7253              		.fpu softvfp
 7255              	changeIsSync:
 7256              	.LFB69:
2714:build\openmote-cc2538_armgcc\openstack\02a-MAClow/IEEE802154E.c **** 
2715:build\openmote-cc2538_armgcc\openstack\02a-MAClow/IEEE802154E.c **** void changeIsSync(bool newIsSync) {
 7257              		.loc 1 2715 0
 7258              		.cfi_startproc
 7259              		@ args = 0, pretend = 0, frame = 8
 7260              		@ frame_needed = 1, uses_anonymous_args = 0
 7261 2a00 80B5     		push	{r7, lr}
 7262              		.cfi_def_cfa_offset 8
 7263              		.cfi_offset 7, -8
 7264              		.cfi_offset 14, -4
 7265 2a02 82B0     		sub	sp, sp, #8
 7266              		.cfi_def_cfa_offset 16
 7267 2a04 00AF     		add	r7, sp, #0
 7268              		.cfi_def_cfa_register 7
 7269 2a06 0346     		mov	r3, r0
 7270 2a08 FB71     		strb	r3, [r7, #7]
2716:build\openmote-cc2538_armgcc\openstack\02a-MAClow/IEEE802154E.c ****     ieee154e_vars.isSync = newIsSync;
 7271              		.loc 1 2716 0
 7272 2a0a 0A4A     		ldr	r2, .L435
 7273 2a0c FB79     		ldrb	r3, [r7, #7]
 7274 2a0e 1374     		strb	r3, [r2, #16]
2717:build\openmote-cc2538_armgcc\openstack\02a-MAClow/IEEE802154E.c **** 
2718:build\openmote-cc2538_armgcc\openstack\02a-MAClow/IEEE802154E.c ****     if (ieee154e_vars.isSync==TRUE) {
 7275              		.loc 1 2718 0
 7276 2a10 084B     		ldr	r3, .L435
 7277 2a12 1B7C     		ldrb	r3, [r3, #16]	@ zero_extendqisi2
 7278 2a14 002B     		cmp	r3, #0
 7279 2a16 04D0     		beq	.L432
2719:build\openmote-cc2538_armgcc\openstack\02a-MAClow/IEEE802154E.c ****         leds_sync_on();
 7280              		.loc 1 2719 0
 7281 2a18 FFF7FEFF 		bl	leds_sync_on
2720:build\openmote-cc2538_armgcc\openstack\02a-MAClow/IEEE802154E.c ****         resetStats();
 7282              		.loc 1 2720 0
 7283 2a1c FFF7FEFF 		bl	resetStats
2721:build\openmote-cc2538_armgcc\openstack\02a-MAClow/IEEE802154E.c ****     } else {
2722:build\openmote-cc2538_armgcc\openstack\02a-MAClow/IEEE802154E.c ****         leds_sync_off();
2723:build\openmote-cc2538_armgcc\openstack\02a-MAClow/IEEE802154E.c ****         schedule_resetBackoff();
2724:build\openmote-cc2538_armgcc\openstack\02a-MAClow/IEEE802154E.c ****     }
2725:build\openmote-cc2538_armgcc\openstack\02a-MAClow/IEEE802154E.c **** }
 7284              		.loc 1 2725 0
 7285 2a20 03E0     		b	.L434
 7286              	.L432:
2722:build\openmote-cc2538_armgcc\openstack\02a-MAClow/IEEE802154E.c ****         schedule_resetBackoff();
 7287              		.loc 1 2722 0
 7288 2a22 FFF7FEFF 		bl	leds_sync_off
2723:build\openmote-cc2538_armgcc\openstack\02a-MAClow/IEEE802154E.c ****     }
 7289              		.loc 1 2723 0
 7290 2a26 FFF7FEFF 		bl	schedule_resetBackoff
 7291              	.L434:
 7292              		.loc 1 2725 0
 7293 2a2a 00BF     		nop
 7294 2a2c 0837     		adds	r7, r7, #8
 7295              		.cfi_def_cfa_offset 8
 7296 2a2e BD46     		mov	sp, r7
 7297              		.cfi_def_cfa_register 13
 7298              		@ sp needed
 7299 2a30 80BD     		pop	{r7, pc}
 7300              	.L436:
 7301 2a32 00BF     		.align	2
 7302              	.L435:
 7303 2a34 00000000 		.word	ieee154e_vars
 7304              		.cfi_endproc
 7305              	.LFE69:
 7307              		.align	1
 7308              		.global	notif_sendDone
 7309              		.syntax unified
 7310              		.thumb
 7311              		.thumb_func
 7312              		.fpu softvfp
 7314              	notif_sendDone:
 7315              	.LFB70:
2726:build\openmote-cc2538_armgcc\openstack\02a-MAClow/IEEE802154E.c **** 
2727:build\openmote-cc2538_armgcc\openstack\02a-MAClow/IEEE802154E.c **** //======= notifying upper layer
2728:build\openmote-cc2538_armgcc\openstack\02a-MAClow/IEEE802154E.c **** 
2729:build\openmote-cc2538_armgcc\openstack\02a-MAClow/IEEE802154E.c **** void notif_sendDone(OpenQueueEntry_t* packetSent, owerror_t error) {
 7316              		.loc 1 2729 0
 7317              		.cfi_startproc
 7318              		@ args = 0, pretend = 0, frame = 8
 7319              		@ frame_needed = 1, uses_anonymous_args = 0
 7320 2a38 80B5     		push	{r7, lr}
 7321              		.cfi_def_cfa_offset 8
 7322              		.cfi_offset 7, -8
 7323              		.cfi_offset 14, -4
 7324 2a3a 82B0     		sub	sp, sp, #8
 7325              		.cfi_def_cfa_offset 16
 7326 2a3c 00AF     		add	r7, sp, #0
 7327              		.cfi_def_cfa_register 7
 7328 2a3e 7860     		str	r0, [r7, #4]
 7329 2a40 0B46     		mov	r3, r1
 7330 2a42 FB70     		strb	r3, [r7, #3]
2730:build\openmote-cc2538_armgcc\openstack\02a-MAClow/IEEE802154E.c ****     // record the outcome of the trasmission attempt
2731:build\openmote-cc2538_armgcc\openstack\02a-MAClow/IEEE802154E.c ****     packetSent->l2_sendDoneError   = error;
 7331              		.loc 1 2731 0
 7332 2a44 7B68     		ldr	r3, [r7, #4]
 7333 2a46 FA78     		ldrb	r2, [r7, #3]
 7334 2a48 83F84020 		strb	r2, [r3, #64]
2732:build\openmote-cc2538_armgcc\openstack\02a-MAClow/IEEE802154E.c ****     // record the current ASN
2733:build\openmote-cc2538_armgcc\openstack\02a-MAClow/IEEE802154E.c ****     memcpy(&packetSent->l2_asn,&ieee154e_vars.asn,sizeof(asn_t));
 7335              		.loc 1 2733 0
 7336 2a4c 7B68     		ldr	r3, [r7, #4]
 7337 2a4e 5633     		adds	r3, r3, #86
 7338 2a50 074A     		ldr	r2, .L438
 7339 2a52 1068     		ldr	r0, [r2]
 7340 2a54 1860     		str	r0, [r3]	@ unaligned
 7341 2a56 1279     		ldrb	r2, [r2, #4]
 7342 2a58 1A71     		strb	r2, [r3, #4]
2734:build\openmote-cc2538_armgcc\openstack\02a-MAClow/IEEE802154E.c ****     // associate this packet with the virtual component
2735:build\openmote-cc2538_armgcc\openstack\02a-MAClow/IEEE802154E.c ****     // COMPONENT_IEEE802154E_TO_RES so RES can knows it's for it
2736:build\openmote-cc2538_armgcc\openstack\02a-MAClow/IEEE802154E.c ****     packetSent->owner              = COMPONENT_IEEE802154E_TO_SIXTOP;
 7343              		.loc 1 2736 0
 7344 2a5a 7B68     		ldr	r3, [r7, #4]
 7345 2a5c 0B22     		movs	r2, #11
 7346 2a5e 5A70     		strb	r2, [r3, #1]
2737:build\openmote-cc2538_armgcc\openstack\02a-MAClow/IEEE802154E.c ****     // post RES's sendDone task
2738:build\openmote-cc2538_armgcc\openstack\02a-MAClow/IEEE802154E.c ****     scheduler_push_task(task_sixtopNotifSendDone,TASKPRIO_SIXTOP_NOTIF_TXDONE);
 7347              		.loc 1 2738 0
 7348 2a60 0221     		movs	r1, #2
 7349 2a62 0448     		ldr	r0, .L438+4
 7350 2a64 FFF7FEFF 		bl	scheduler_push_task
2739:build\openmote-cc2538_armgcc\openstack\02a-MAClow/IEEE802154E.c ****     // wake up the scheduler
2740:build\openmote-cc2538_armgcc\openstack\02a-MAClow/IEEE802154E.c ****     SCHEDULER_WAKEUP();
2741:build\openmote-cc2538_armgcc\openstack\02a-MAClow/IEEE802154E.c **** }
 7351              		.loc 1 2741 0
 7352 2a68 00BF     		nop
 7353 2a6a 0837     		adds	r7, r7, #8
 7354              		.cfi_def_cfa_offset 8
 7355 2a6c BD46     		mov	sp, r7
 7356              		.cfi_def_cfa_register 13
 7357              		@ sp needed
 7358 2a6e 80BD     		pop	{r7, pc}
 7359              	.L439:
 7360              		.align	2
 7361              	.L438:
 7362 2a70 00000000 		.word	ieee154e_vars
 7363 2a74 00000000 		.word	task_sixtopNotifSendDone
 7364              		.cfi_endproc
 7365              	.LFE70:
 7367              		.align	1
 7368              		.global	notif_receive
 7369              		.syntax unified
 7370              		.thumb
 7371              		.thumb_func
 7372              		.fpu softvfp
 7374              	notif_receive:
 7375              	.LFB71:
2742:build\openmote-cc2538_armgcc\openstack\02a-MAClow/IEEE802154E.c **** 
2743:build\openmote-cc2538_armgcc\openstack\02a-MAClow/IEEE802154E.c **** void notif_receive(OpenQueueEntry_t* packetReceived) {
 7376              		.loc 1 2743 0
 7377              		.cfi_startproc
 7378              		@ args = 0, pretend = 0, frame = 8
 7379              		@ frame_needed = 1, uses_anonymous_args = 0
 7380 2a78 80B5     		push	{r7, lr}
 7381              		.cfi_def_cfa_offset 8
 7382              		.cfi_offset 7, -8
 7383              		.cfi_offset 14, -4
 7384 2a7a 82B0     		sub	sp, sp, #8
 7385              		.cfi_def_cfa_offset 16
 7386 2a7c 00AF     		add	r7, sp, #0
 7387              		.cfi_def_cfa_register 7
 7388 2a7e 7860     		str	r0, [r7, #4]
2744:build\openmote-cc2538_armgcc\openstack\02a-MAClow/IEEE802154E.c ****     // record the current ASN
2745:build\openmote-cc2538_armgcc\openstack\02a-MAClow/IEEE802154E.c ****     memcpy(&packetReceived->l2_asn, &ieee154e_vars.asn, sizeof(asn_t));
 7389              		.loc 1 2745 0
 7390 2a80 7B68     		ldr	r3, [r7, #4]
 7391 2a82 5633     		adds	r3, r3, #86
 7392 2a84 0A4A     		ldr	r2, .L441
 7393 2a86 1068     		ldr	r0, [r2]
 7394 2a88 1860     		str	r0, [r3]	@ unaligned
 7395 2a8a 1279     		ldrb	r2, [r2, #4]
 7396 2a8c 1A71     		strb	r2, [r3, #4]
2746:build\openmote-cc2538_armgcc\openstack\02a-MAClow/IEEE802154E.c ****     // indicate reception to the schedule, to keep statistics
2747:build\openmote-cc2538_armgcc\openstack\02a-MAClow/IEEE802154E.c ****     schedule_indicateRx(&packetReceived->l2_asn);
 7397              		.loc 1 2747 0
 7398 2a8e 7B68     		ldr	r3, [r7, #4]
 7399 2a90 5633     		adds	r3, r3, #86
 7400 2a92 1846     		mov	r0, r3
 7401 2a94 FFF7FEFF 		bl	schedule_indicateRx
2748:build\openmote-cc2538_armgcc\openstack\02a-MAClow/IEEE802154E.c ****     // associate this packet with the virtual component
2749:build\openmote-cc2538_armgcc\openstack\02a-MAClow/IEEE802154E.c ****     // COMPONENT_IEEE802154E_TO_SIXTOP so sixtop can knows it's for it
2750:build\openmote-cc2538_armgcc\openstack\02a-MAClow/IEEE802154E.c ****     packetReceived->owner          = COMPONENT_IEEE802154E_TO_SIXTOP;
 7402              		.loc 1 2750 0
 7403 2a98 7B68     		ldr	r3, [r7, #4]
 7404 2a9a 0B22     		movs	r2, #11
 7405 2a9c 5A70     		strb	r2, [r3, #1]
2751:build\openmote-cc2538_armgcc\openstack\02a-MAClow/IEEE802154E.c ****     // post RES's Receive task
2752:build\openmote-cc2538_armgcc\openstack\02a-MAClow/IEEE802154E.c ****     scheduler_push_task(task_sixtopNotifReceive,TASKPRIO_SIXTOP_NOTIF_RX);
 7406              		.loc 1 2752 0
 7407 2a9e 0121     		movs	r1, #1
 7408 2aa0 0448     		ldr	r0, .L441+4
 7409 2aa2 FFF7FEFF 		bl	scheduler_push_task
2753:build\openmote-cc2538_armgcc\openstack\02a-MAClow/IEEE802154E.c ****     // wake up the scheduler
2754:build\openmote-cc2538_armgcc\openstack\02a-MAClow/IEEE802154E.c ****     SCHEDULER_WAKEUP();
2755:build\openmote-cc2538_armgcc\openstack\02a-MAClow/IEEE802154E.c **** }
 7410              		.loc 1 2755 0
 7411 2aa6 00BF     		nop
 7412 2aa8 0837     		adds	r7, r7, #8
 7413              		.cfi_def_cfa_offset 8
 7414 2aaa BD46     		mov	sp, r7
 7415              		.cfi_def_cfa_register 13
 7416              		@ sp needed
 7417 2aac 80BD     		pop	{r7, pc}
 7418              	.L442:
 7419 2aae 00BF     		.align	2
 7420              	.L441:
 7421 2ab0 00000000 		.word	ieee154e_vars
 7422 2ab4 00000000 		.word	task_sixtopNotifReceive
 7423              		.cfi_endproc
 7424              	.LFE71:
 7426              		.align	1
 7427              		.global	resetStats
 7428              		.syntax unified
 7429              		.thumb
 7430              		.thumb_func
 7431              		.fpu softvfp
 7433              	resetStats:
 7434              	.LFB72:
2756:build\openmote-cc2538_armgcc\openstack\02a-MAClow/IEEE802154E.c **** 
2757:build\openmote-cc2538_armgcc\openstack\02a-MAClow/IEEE802154E.c **** //======= stats
2758:build\openmote-cc2538_armgcc\openstack\02a-MAClow/IEEE802154E.c **** 
2759:build\openmote-cc2538_armgcc\openstack\02a-MAClow/IEEE802154E.c **** port_INLINE void resetStats(void) {
 7435              		.loc 1 2759 0
 7436              		.cfi_startproc
 7437              		@ args = 0, pretend = 0, frame = 0
 7438              		@ frame_needed = 1, uses_anonymous_args = 0
 7439              		@ link register save eliminated.
 7440 2ab8 80B4     		push	{r7}
 7441              		.cfi_def_cfa_offset 4
 7442              		.cfi_offset 7, -4
 7443 2aba 00AF     		add	r7, sp, #0
 7444              		.cfi_def_cfa_register 7
2760:build\openmote-cc2538_armgcc\openstack\02a-MAClow/IEEE802154E.c ****     ieee154e_stats.numSyncPkt      =    0;
 7445              		.loc 1 2760 0
 7446 2abc 154B     		ldr	r3, .L444
 7447 2abe 0022     		movs	r2, #0
 7448 2ac0 1A70     		strb	r2, [r3]
2761:build\openmote-cc2538_armgcc\openstack\02a-MAClow/IEEE802154E.c ****     ieee154e_stats.numSyncAck      =    0;
 7449              		.loc 1 2761 0
 7450 2ac2 144B     		ldr	r3, .L444
 7451 2ac4 0022     		movs	r2, #0
 7452 2ac6 5A70     		strb	r2, [r3, #1]
2762:build\openmote-cc2538_armgcc\openstack\02a-MAClow/IEEE802154E.c ****     ieee154e_stats.minCorrection   =  127;
 7453              		.loc 1 2762 0
 7454 2ac8 124B     		ldr	r3, .L444
 7455 2aca 0022     		movs	r2, #0
 7456 2acc 42F07F02 		orr	r2, r2, #127
 7457 2ad0 9A70     		strb	r2, [r3, #2]
 7458 2ad2 0022     		movs	r2, #0
 7459 2ad4 DA70     		strb	r2, [r3, #3]
2763:build\openmote-cc2538_armgcc\openstack\02a-MAClow/IEEE802154E.c ****     ieee154e_stats.maxCorrection   = -127;
 7460              		.loc 1 2763 0
 7461 2ad6 0F4B     		ldr	r3, .L444
 7462 2ad8 0022     		movs	r2, #0
 7463 2ada 62F07E02 		orn	r2, r2, #126
 7464 2ade 1A71     		strb	r2, [r3, #4]
 7465 2ae0 4FF0FF32 		mov	r2, #-1
 7466 2ae4 5A71     		strb	r2, [r3, #5]
2764:build\openmote-cc2538_armgcc\openstack\02a-MAClow/IEEE802154E.c ****     ieee154e_stats.numTicsOn       =    0;
 7467              		.loc 1 2764 0
 7468 2ae6 0B4B     		ldr	r3, .L444
 7469 2ae8 0022     		movs	r2, #0
 7470 2aea DA71     		strb	r2, [r3, #7]
 7471 2aec 0022     		movs	r2, #0
 7472 2aee 1A72     		strb	r2, [r3, #8]
 7473 2af0 0022     		movs	r2, #0
 7474 2af2 5A72     		strb	r2, [r3, #9]
 7475 2af4 0022     		movs	r2, #0
 7476 2af6 9A72     		strb	r2, [r3, #10]
2765:build\openmote-cc2538_armgcc\openstack\02a-MAClow/IEEE802154E.c ****     ieee154e_stats.numTicsTotal    =    0;
 7477              		.loc 1 2765 0
 7478 2af8 064B     		ldr	r3, .L444
 7479 2afa 0022     		movs	r2, #0
 7480 2afc DA72     		strb	r2, [r3, #11]
 7481 2afe 0022     		movs	r2, #0
 7482 2b00 1A73     		strb	r2, [r3, #12]
 7483 2b02 0022     		movs	r2, #0
 7484 2b04 5A73     		strb	r2, [r3, #13]
 7485 2b06 0022     		movs	r2, #0
 7486 2b08 9A73     		strb	r2, [r3, #14]
2766:build\openmote-cc2538_armgcc\openstack\02a-MAClow/IEEE802154E.c ****     // do not reset the number of de-synchronizations
2767:build\openmote-cc2538_armgcc\openstack\02a-MAClow/IEEE802154E.c **** }
 7487              		.loc 1 2767 0
 7488 2b0a 00BF     		nop
 7489 2b0c BD46     		mov	sp, r7
 7490              		.cfi_def_cfa_register 13
 7491              		@ sp needed
 7492 2b0e 80BC     		pop	{r7}
 7493              		.cfi_restore 7
 7494              		.cfi_def_cfa_offset 0
 7495 2b10 7047     		bx	lr
 7496              	.L445:
 7497 2b12 00BF     		.align	2
 7498              	.L444:
 7499 2b14 00000000 		.word	ieee154e_stats
 7500              		.cfi_endproc
 7501              	.LFE72:
 7503              		.align	1
 7504              		.global	updateStats
 7505              		.syntax unified
 7506              		.thumb
 7507              		.thumb_func
 7508              		.fpu softvfp
 7510              	updateStats:
 7511              	.LFB73:
2768:build\openmote-cc2538_armgcc\openstack\02a-MAClow/IEEE802154E.c **** 
2769:build\openmote-cc2538_armgcc\openstack\02a-MAClow/IEEE802154E.c **** void updateStats(PORT_SIGNED_INT_WIDTH timeCorrection) {
 7512              		.loc 1 2769 0
 7513              		.cfi_startproc
 7514              		@ args = 0, pretend = 0, frame = 8
 7515              		@ frame_needed = 1, uses_anonymous_args = 0
 7516              		@ link register save eliminated.
 7517 2b18 80B4     		push	{r7}
 7518              		.cfi_def_cfa_offset 4
 7519              		.cfi_offset 7, -4
 7520 2b1a 83B0     		sub	sp, sp, #12
 7521              		.cfi_def_cfa_offset 16
 7522 2b1c 00AF     		add	r7, sp, #0
 7523              		.cfi_def_cfa_register 7
 7524 2b1e 7860     		str	r0, [r7, #4]
2770:build\openmote-cc2538_armgcc\openstack\02a-MAClow/IEEE802154E.c ****     // update minCorrection
2771:build\openmote-cc2538_armgcc\openstack\02a-MAClow/IEEE802154E.c ****     if (timeCorrection<ieee154e_stats.minCorrection) {
 7525              		.loc 1 2771 0
 7526 2b20 0E4B     		ldr	r3, .L450
 7527 2b22 B3F90230 		ldrsh	r3, [r3, #2]	@ unaligned
 7528 2b26 1BB2     		sxth	r3, r3
 7529 2b28 1A46     		mov	r2, r3
 7530 2b2a 7B68     		ldr	r3, [r7, #4]
 7531 2b2c 9342     		cmp	r3, r2
 7532 2b2e 03DA     		bge	.L447
2772:build\openmote-cc2538_armgcc\openstack\02a-MAClow/IEEE802154E.c ****         ieee154e_stats.minCorrection = timeCorrection;
 7533              		.loc 1 2772 0
 7534 2b30 7B68     		ldr	r3, [r7, #4]
 7535 2b32 1AB2     		sxth	r2, r3
 7536 2b34 094B     		ldr	r3, .L450
 7537 2b36 5A80     		strh	r2, [r3, #2]	@ unaligned
 7538              	.L447:
2773:build\openmote-cc2538_armgcc\openstack\02a-MAClow/IEEE802154E.c ****     }
2774:build\openmote-cc2538_armgcc\openstack\02a-MAClow/IEEE802154E.c ****     // update maxConnection
2775:build\openmote-cc2538_armgcc\openstack\02a-MAClow/IEEE802154E.c ****     if(timeCorrection>ieee154e_stats.maxCorrection) {
 7539              		.loc 1 2775 0
 7540 2b38 084B     		ldr	r3, .L450
 7541 2b3a B3F90430 		ldrsh	r3, [r3, #4]	@ unaligned
 7542 2b3e 1BB2     		sxth	r3, r3
 7543 2b40 1A46     		mov	r2, r3
 7544 2b42 7B68     		ldr	r3, [r7, #4]
 7545 2b44 9342     		cmp	r3, r2
 7546 2b46 03DD     		ble	.L449
2776:build\openmote-cc2538_armgcc\openstack\02a-MAClow/IEEE802154E.c ****         ieee154e_stats.maxCorrection = timeCorrection;
 7547              		.loc 1 2776 0
 7548 2b48 7B68     		ldr	r3, [r7, #4]
 7549 2b4a 1AB2     		sxth	r2, r3
 7550 2b4c 034B     		ldr	r3, .L450
 7551 2b4e 9A80     		strh	r2, [r3, #4]	@ unaligned
 7552              	.L449:
2777:build\openmote-cc2538_armgcc\openstack\02a-MAClow/IEEE802154E.c ****     }
2778:build\openmote-cc2538_armgcc\openstack\02a-MAClow/IEEE802154E.c **** }
 7553              		.loc 1 2778 0
 7554 2b50 00BF     		nop
 7555 2b52 0C37     		adds	r7, r7, #12
 7556              		.cfi_def_cfa_offset 4
 7557 2b54 BD46     		mov	sp, r7
 7558              		.cfi_def_cfa_register 13
 7559              		@ sp needed
 7560 2b56 80BC     		pop	{r7}
 7561              		.cfi_restore 7
 7562              		.cfi_def_cfa_offset 0
 7563 2b58 7047     		bx	lr
 7564              	.L451:
 7565 2b5a 00BF     		.align	2
 7566              	.L450:
 7567 2b5c 00000000 		.word	ieee154e_stats
 7568              		.cfi_endproc
 7569              	.LFE73:
 7571              		.align	1
 7572              		.global	calculateFrequency
 7573              		.syntax unified
 7574              		.thumb
 7575              		.thumb_func
 7576              		.fpu softvfp
 7578              	calculateFrequency:
 7579              	.LFB74:
2779:build\openmote-cc2538_armgcc\openstack\02a-MAClow/IEEE802154E.c **** 
2780:build\openmote-cc2538_armgcc\openstack\02a-MAClow/IEEE802154E.c **** //======= misc
2781:build\openmote-cc2538_armgcc\openstack\02a-MAClow/IEEE802154E.c **** 
2782:build\openmote-cc2538_armgcc\openstack\02a-MAClow/IEEE802154E.c **** /**
2783:build\openmote-cc2538_armgcc\openstack\02a-MAClow/IEEE802154E.c **** \brief Calculates the frequency channel to transmit on, based on the
2784:build\openmote-cc2538_armgcc\openstack\02a-MAClow/IEEE802154E.c **** absolute slot number and the channel offset of the requested slot.
2785:build\openmote-cc2538_armgcc\openstack\02a-MAClow/IEEE802154E.c **** 
2786:build\openmote-cc2538_armgcc\openstack\02a-MAClow/IEEE802154E.c **** During normal operation, the frequency used is a function of the
2787:build\openmote-cc2538_armgcc\openstack\02a-MAClow/IEEE802154E.c **** channelOffset indicating in the schedule, and of the ASN of the
2788:build\openmote-cc2538_armgcc\openstack\02a-MAClow/IEEE802154E.c **** slot. This ensures channel hopping, consecutive packets sent in the same slot
2789:build\openmote-cc2538_armgcc\openstack\02a-MAClow/IEEE802154E.c **** in the schedule are done on a difference frequency channel.
2790:build\openmote-cc2538_armgcc\openstack\02a-MAClow/IEEE802154E.c **** 
2791:build\openmote-cc2538_armgcc\openstack\02a-MAClow/IEEE802154E.c **** During development, you can force single channel operation by having this
2792:build\openmote-cc2538_armgcc\openstack\02a-MAClow/IEEE802154E.c **** function return a constant channel number (between 11 and 26). This allows you
2793:build\openmote-cc2538_armgcc\openstack\02a-MAClow/IEEE802154E.c **** to use a single-channel sniffer; but you can not schedule two links on two
2794:build\openmote-cc2538_armgcc\openstack\02a-MAClow/IEEE802154E.c **** different channel offsets in the same slot.
2795:build\openmote-cc2538_armgcc\openstack\02a-MAClow/IEEE802154E.c **** 
2796:build\openmote-cc2538_armgcc\openstack\02a-MAClow/IEEE802154E.c **** \param[in] channelOffset channel offset for the current slot
2797:build\openmote-cc2538_armgcc\openstack\02a-MAClow/IEEE802154E.c **** 
2798:build\openmote-cc2538_armgcc\openstack\02a-MAClow/IEEE802154E.c **** \returns The calculated frequency channel, an integer between 11 and 26.
2799:build\openmote-cc2538_armgcc\openstack\02a-MAClow/IEEE802154E.c **** */
2800:build\openmote-cc2538_armgcc\openstack\02a-MAClow/IEEE802154E.c **** port_INLINE uint8_t calculateFrequency(uint8_t channelOffset) {
 7580              		.loc 1 2800 0
 7581              		.cfi_startproc
 7582              		@ args = 0, pretend = 0, frame = 8
 7583              		@ frame_needed = 1, uses_anonymous_args = 0
 7584              		@ link register save eliminated.
 7585 2b60 80B4     		push	{r7}
 7586              		.cfi_def_cfa_offset 4
 7587              		.cfi_offset 7, -4
 7588 2b62 83B0     		sub	sp, sp, #12
 7589              		.cfi_def_cfa_offset 16
 7590 2b64 00AF     		add	r7, sp, #0
 7591              		.cfi_def_cfa_register 7
 7592 2b66 0346     		mov	r3, r0
 7593 2b68 FB71     		strb	r3, [r7, #7]
2801:build\openmote-cc2538_armgcc\openstack\02a-MAClow/IEEE802154E.c ****     if (ieee154e_vars.singleChannel >= 11 && ieee154e_vars.singleChannel <= 26 ) {
 7594              		.loc 1 2801 0
 7595 2b6a 104B     		ldr	r3, .L455
 7596 2b6c 93F88231 		ldrb	r3, [r3, #386]	@ zero_extendqisi2
 7597 2b70 0A2B     		cmp	r3, #10
 7598 2b72 08D9     		bls	.L453
 7599              		.loc 1 2801 0 is_stmt 0 discriminator 1
 7600 2b74 0D4B     		ldr	r3, .L455
 7601 2b76 93F88231 		ldrb	r3, [r3, #386]	@ zero_extendqisi2
 7602 2b7a 1A2B     		cmp	r3, #26
 7603 2b7c 03D8     		bhi	.L453
2802:build\openmote-cc2538_armgcc\openstack\02a-MAClow/IEEE802154E.c ****         return ieee154e_vars.singleChannel; // single channel
 7604              		.loc 1 2802 0 is_stmt 1
 7605 2b7e 0B4B     		ldr	r3, .L455
 7606 2b80 93F88231 		ldrb	r3, [r3, #386]	@ zero_extendqisi2
 7607 2b84 0DE0     		b	.L454
 7608              	.L453:
2803:build\openmote-cc2538_armgcc\openstack\02a-MAClow/IEEE802154E.c ****     } else {
2804:build\openmote-cc2538_armgcc\openstack\02a-MAClow/IEEE802154E.c ****         // channel hopping enabled, use the channel depending on hopping template
2805:build\openmote-cc2538_armgcc\openstack\02a-MAClow/IEEE802154E.c ****         return 11 + ieee154e_vars.chTemplate[(ieee154e_vars.asnOffset+channelOffset)%NUM_CHANNELS];
 7609              		.loc 1 2805 0
 7610 2b86 094B     		ldr	r3, .L455
 7611 2b88 93F88121 		ldrb	r2, [r3, #385]	@ zero_extendqisi2
 7612 2b8c FB79     		ldrb	r3, [r7, #7]
 7613 2b8e 1344     		add	r3, r3, r2
 7614 2b90 DBB2     		uxtb	r3, r3
 7615 2b92 03F00F03 		and	r3, r3, #15
 7616 2b96 054A     		ldr	r2, .L455
 7617 2b98 1344     		add	r3, r3, r2
 7618 2b9a 93F88431 		ldrb	r3, [r3, #388]	@ zero_extendqisi2
 7619 2b9e 0B33     		adds	r3, r3, #11
 7620 2ba0 DBB2     		uxtb	r3, r3
 7621              	.L454:
2806:build\openmote-cc2538_armgcc\openstack\02a-MAClow/IEEE802154E.c ****     }
2807:build\openmote-cc2538_armgcc\openstack\02a-MAClow/IEEE802154E.c ****     //return 11+(ieee154e_vars.asnOffset+channelOffset)%16; //channel hopping
2808:build\openmote-cc2538_armgcc\openstack\02a-MAClow/IEEE802154E.c **** }
 7622              		.loc 1 2808 0
 7623 2ba2 1846     		mov	r0, r3
 7624 2ba4 0C37     		adds	r7, r7, #12
 7625              		.cfi_def_cfa_offset 4
 7626 2ba6 BD46     		mov	sp, r7
 7627              		.cfi_def_cfa_register 13
 7628              		@ sp needed
 7629 2ba8 80BC     		pop	{r7}
 7630              		.cfi_restore 7
 7631              		.cfi_def_cfa_offset 0
 7632 2baa 7047     		bx	lr
 7633              	.L456:
 7634              		.align	2
 7635              	.L455:
 7636 2bac 00000000 		.word	ieee154e_vars
 7637              		.cfi_endproc
 7638              	.LFE74:
 7640              		.align	1
 7641              		.global	changeState
 7642              		.syntax unified
 7643              		.thumb
 7644              		.thumb_func
 7645              		.fpu softvfp
 7647              	changeState:
 7648              	.LFB75:
2809:build\openmote-cc2538_armgcc\openstack\02a-MAClow/IEEE802154E.c **** 
2810:build\openmote-cc2538_armgcc\openstack\02a-MAClow/IEEE802154E.c **** /**
2811:build\openmote-cc2538_armgcc\openstack\02a-MAClow/IEEE802154E.c **** \brief Changes the state of the IEEE802.15.4e FSM.
2812:build\openmote-cc2538_armgcc\openstack\02a-MAClow/IEEE802154E.c **** 
2813:build\openmote-cc2538_armgcc\openstack\02a-MAClow/IEEE802154E.c **** Besides simply updating the state global variable,
2814:build\openmote-cc2538_armgcc\openstack\02a-MAClow/IEEE802154E.c **** this function toggles the FSM debug pin.
2815:build\openmote-cc2538_armgcc\openstack\02a-MAClow/IEEE802154E.c **** 
2816:build\openmote-cc2538_armgcc\openstack\02a-MAClow/IEEE802154E.c **** \param[in] newstate The state the IEEE802.15.4e FSM is now in.
2817:build\openmote-cc2538_armgcc\openstack\02a-MAClow/IEEE802154E.c **** */
2818:build\openmote-cc2538_armgcc\openstack\02a-MAClow/IEEE802154E.c **** void changeState(ieee154e_state_t newstate) {
 7649              		.loc 1 2818 0
 7650              		.cfi_startproc
 7651              		@ args = 0, pretend = 0, frame = 8
 7652              		@ frame_needed = 1, uses_anonymous_args = 0
 7653 2bb0 80B5     		push	{r7, lr}
 7654              		.cfi_def_cfa_offset 8
 7655              		.cfi_offset 7, -8
 7656              		.cfi_offset 14, -4
 7657 2bb2 82B0     		sub	sp, sp, #8
 7658              		.cfi_def_cfa_offset 16
 7659 2bb4 00AF     		add	r7, sp, #0
 7660              		.cfi_def_cfa_register 7
 7661 2bb6 0346     		mov	r3, r0
 7662 2bb8 FB71     		strb	r3, [r7, #7]
2819:build\openmote-cc2538_armgcc\openstack\02a-MAClow/IEEE802154E.c ****     // update the state
2820:build\openmote-cc2538_armgcc\openstack\02a-MAClow/IEEE802154E.c ****     ieee154e_vars.state = newstate;
 7663              		.loc 1 2820 0
 7664 2bba 274A     		ldr	r2, .L464
 7665 2bbc FB79     		ldrb	r3, [r7, #7]
 7666 2bbe 82F86431 		strb	r3, [r2, #356]
2821:build\openmote-cc2538_armgcc\openstack\02a-MAClow/IEEE802154E.c ****     // wiggle the FSM debug pin
2822:build\openmote-cc2538_armgcc\openstack\02a-MAClow/IEEE802154E.c ****     switch (ieee154e_vars.state) {
 7667              		.loc 1 2822 0
 7668 2bc2 254B     		ldr	r3, .L464
 7669 2bc4 93F86431 		ldrb	r3, [r3, #356]	@ zero_extendqisi2
 7670 2bc8 192B     		cmp	r3, #25
 7671 2bca 40D8     		bhi	.L463
 7672 2bcc 01A2     		adr	r2, .L460
 7673 2bce 52F823F0 		ldr	pc, [r2, r3, lsl #2]
 7674 2bd2 00BF     		.p2align 2
 7675              	.L460:
 7676 2bd4 432C0000 		.word	.L459+1
 7677 2bd8 3D2C0000 		.word	.L461+1
 7678 2bdc 492C0000 		.word	.L462+1
 7679 2be0 492C0000 		.word	.L462+1
 7680 2be4 3D2C0000 		.word	.L461+1
 7681 2be8 492C0000 		.word	.L462+1
 7682 2bec 492C0000 		.word	.L462+1
 7683 2bf0 492C0000 		.word	.L462+1
 7684 2bf4 492C0000 		.word	.L462+1
 7685 2bf8 492C0000 		.word	.L462+1
 7686 2bfc 492C0000 		.word	.L462+1
 7687 2c00 492C0000 		.word	.L462+1
 7688 2c04 492C0000 		.word	.L462+1
 7689 2c08 492C0000 		.word	.L462+1
 7690 2c0c 492C0000 		.word	.L462+1
 7691 2c10 432C0000 		.word	.L459+1
 7692 2c14 492C0000 		.word	.L462+1
 7693 2c18 492C0000 		.word	.L462+1
 7694 2c1c 492C0000 		.word	.L462+1
 7695 2c20 492C0000 		.word	.L462+1
 7696 2c24 492C0000 		.word	.L462+1
 7697 2c28 492C0000 		.word	.L462+1
 7698 2c2c 492C0000 		.word	.L462+1
 7699 2c30 492C0000 		.word	.L462+1
 7700 2c34 492C0000 		.word	.L462+1
 7701 2c38 492C0000 		.word	.L462+1
 7702              		.p2align 1
 7703              	.L461:
2823:build\openmote-cc2538_armgcc\openstack\02a-MAClow/IEEE802154E.c ****         case S_SYNCLISTEN:
2824:build\openmote-cc2538_armgcc\openstack\02a-MAClow/IEEE802154E.c ****         case S_TXDATAOFFSET:
2825:build\openmote-cc2538_armgcc\openstack\02a-MAClow/IEEE802154E.c ****             debugpins_fsm_set();
 7704              		.loc 1 2825 0
 7705 2c3c FFF7FEFF 		bl	debugpins_fsm_set
2826:build\openmote-cc2538_armgcc\openstack\02a-MAClow/IEEE802154E.c ****             break;
 7706              		.loc 1 2826 0
 7707 2c40 05E0     		b	.L458
 7708              	.L459:
2827:build\openmote-cc2538_armgcc\openstack\02a-MAClow/IEEE802154E.c ****         case S_SLEEP:
2828:build\openmote-cc2538_armgcc\openstack\02a-MAClow/IEEE802154E.c ****         case S_RXDATAOFFSET:
2829:build\openmote-cc2538_armgcc\openstack\02a-MAClow/IEEE802154E.c ****             debugpins_fsm_clr();
 7709              		.loc 1 2829 0
 7710 2c42 FFF7FEFF 		bl	debugpins_fsm_clr
2830:build\openmote-cc2538_armgcc\openstack\02a-MAClow/IEEE802154E.c ****             break;
 7711              		.loc 1 2830 0
 7712 2c46 02E0     		b	.L458
 7713              	.L462:
2831:build\openmote-cc2538_armgcc\openstack\02a-MAClow/IEEE802154E.c ****         case S_SYNCRX:
2832:build\openmote-cc2538_armgcc\openstack\02a-MAClow/IEEE802154E.c ****         case S_SYNCPROC:
2833:build\openmote-cc2538_armgcc\openstack\02a-MAClow/IEEE802154E.c ****         case S_TXDATAPREPARE:
2834:build\openmote-cc2538_armgcc\openstack\02a-MAClow/IEEE802154E.c ****         case S_TXDATAREADY:
2835:build\openmote-cc2538_armgcc\openstack\02a-MAClow/IEEE802154E.c ****         case S_TXDATADELAY:
2836:build\openmote-cc2538_armgcc\openstack\02a-MAClow/IEEE802154E.c ****         case S_TXDATA:
2837:build\openmote-cc2538_armgcc\openstack\02a-MAClow/IEEE802154E.c ****         case S_RXACKOFFSET:
2838:build\openmote-cc2538_armgcc\openstack\02a-MAClow/IEEE802154E.c ****         case S_RXACKPREPARE:
2839:build\openmote-cc2538_armgcc\openstack\02a-MAClow/IEEE802154E.c ****         case S_RXACKREADY:
2840:build\openmote-cc2538_armgcc\openstack\02a-MAClow/IEEE802154E.c ****         case S_RXACKLISTEN:
2841:build\openmote-cc2538_armgcc\openstack\02a-MAClow/IEEE802154E.c ****         case S_RXACK:
2842:build\openmote-cc2538_armgcc\openstack\02a-MAClow/IEEE802154E.c ****         case S_TXPROC:
2843:build\openmote-cc2538_armgcc\openstack\02a-MAClow/IEEE802154E.c ****         case S_RXDATAPREPARE:
2844:build\openmote-cc2538_armgcc\openstack\02a-MAClow/IEEE802154E.c ****         case S_RXDATAREADY:
2845:build\openmote-cc2538_armgcc\openstack\02a-MAClow/IEEE802154E.c ****         case S_RXDATALISTEN:
2846:build\openmote-cc2538_armgcc\openstack\02a-MAClow/IEEE802154E.c ****         case S_RXDATA:
2847:build\openmote-cc2538_armgcc\openstack\02a-MAClow/IEEE802154E.c ****         case S_TXACKOFFSET:
2848:build\openmote-cc2538_armgcc\openstack\02a-MAClow/IEEE802154E.c ****         case S_TXACKPREPARE:
2849:build\openmote-cc2538_armgcc\openstack\02a-MAClow/IEEE802154E.c ****         case S_TXACKREADY:
2850:build\openmote-cc2538_armgcc\openstack\02a-MAClow/IEEE802154E.c ****         case S_TXACKDELAY:
2851:build\openmote-cc2538_armgcc\openstack\02a-MAClow/IEEE802154E.c ****         case S_TXACK:
2852:build\openmote-cc2538_armgcc\openstack\02a-MAClow/IEEE802154E.c ****         case S_RXPROC:
2853:build\openmote-cc2538_armgcc\openstack\02a-MAClow/IEEE802154E.c ****             debugpins_fsm_toggle();
 7714              		.loc 1 2853 0
 7715 2c48 FFF7FEFF 		bl	debugpins_fsm_toggle
2854:build\openmote-cc2538_armgcc\openstack\02a-MAClow/IEEE802154E.c ****             break;
 7716              		.loc 1 2854 0
 7717 2c4c 00BF     		nop
 7718              	.L458:
 7719              	.L463:
2855:build\openmote-cc2538_armgcc\openstack\02a-MAClow/IEEE802154E.c ****     }
2856:build\openmote-cc2538_armgcc\openstack\02a-MAClow/IEEE802154E.c **** }
 7720              		.loc 1 2856 0
 7721 2c4e 00BF     		nop
 7722 2c50 0837     		adds	r7, r7, #8
 7723              		.cfi_def_cfa_offset 8
 7724 2c52 BD46     		mov	sp, r7
 7725              		.cfi_def_cfa_register 13
 7726              		@ sp needed
 7727 2c54 80BD     		pop	{r7, pc}
 7728              	.L465:
 7729 2c56 00BF     		.align	2
 7730              	.L464:
 7731 2c58 00000000 		.word	ieee154e_vars
 7732              		.cfi_endproc
 7733              	.LFE75:
 7735              		.align	1
 7736              		.global	endSlot
 7737              		.syntax unified
 7738              		.thumb
 7739              		.thumb_func
 7740              		.fpu softvfp
 7742              	endSlot:
 7743              	.LFB76:
2857:build\openmote-cc2538_armgcc\openstack\02a-MAClow/IEEE802154E.c **** 
2858:build\openmote-cc2538_armgcc\openstack\02a-MAClow/IEEE802154E.c **** /**
2859:build\openmote-cc2538_armgcc\openstack\02a-MAClow/IEEE802154E.c **** \brief Housekeeping tasks to do at the end of each slot.
2860:build\openmote-cc2538_armgcc\openstack\02a-MAClow/IEEE802154E.c **** 
2861:build\openmote-cc2538_armgcc\openstack\02a-MAClow/IEEE802154E.c **** This functions is called once in each slot, when there is nothing more
2862:build\openmote-cc2538_armgcc\openstack\02a-MAClow/IEEE802154E.c **** to do. This might be when an error occured, or when everything went well.
2863:build\openmote-cc2538_armgcc\openstack\02a-MAClow/IEEE802154E.c **** This function resets the state of the FSM so it is ready for the next slot.
2864:build\openmote-cc2538_armgcc\openstack\02a-MAClow/IEEE802154E.c **** 
2865:build\openmote-cc2538_armgcc\openstack\02a-MAClow/IEEE802154E.c **** Note that by the time this function is called, any received packet should already
2866:build\openmote-cc2538_armgcc\openstack\02a-MAClow/IEEE802154E.c **** have been sent to the upper layer. Similarly, in a Tx slot, the sendDone
2867:build\openmote-cc2538_armgcc\openstack\02a-MAClow/IEEE802154E.c **** function should already have been done. If this is not the case, this function
2868:build\openmote-cc2538_armgcc\openstack\02a-MAClow/IEEE802154E.c **** will do that for you, but assume that something went wrong.
2869:build\openmote-cc2538_armgcc\openstack\02a-MAClow/IEEE802154E.c **** */
2870:build\openmote-cc2538_armgcc\openstack\02a-MAClow/IEEE802154E.c **** void endSlot(void) {
 7744              		.loc 1 2870 0
 7745              		.cfi_startproc
 7746              		@ args = 0, pretend = 0, frame = 0
 7747              		@ frame_needed = 1, uses_anonymous_args = 0
 7748 2c5c 90B5     		push	{r4, r7, lr}
 7749              		.cfi_def_cfa_offset 12
 7750              		.cfi_offset 4, -12
 7751              		.cfi_offset 7, -8
 7752              		.cfi_offset 14, -4
 7753 2c5e 83B0     		sub	sp, sp, #12
 7754              		.cfi_def_cfa_offset 24
 7755 2c60 02AF     		add	r7, sp, #8
 7756              		.cfi_def_cfa 7, 16
2871:build\openmote-cc2538_armgcc\openstack\02a-MAClow/IEEE802154E.c ****     // turn off the radio
2872:build\openmote-cc2538_armgcc\openstack\02a-MAClow/IEEE802154E.c ****     radio_rfOff();
 7757              		.loc 1 2872 0
 7758 2c62 FFF7FEFF 		bl	radio_rfOff
2873:build\openmote-cc2538_armgcc\openstack\02a-MAClow/IEEE802154E.c **** 
2874:build\openmote-cc2538_armgcc\openstack\02a-MAClow/IEEE802154E.c ****     // compute the duty cycle if radio has been turned on
2875:build\openmote-cc2538_armgcc\openstack\02a-MAClow/IEEE802154E.c ****     if (ieee154e_vars.radioOnThisSlot==TRUE){
 7759              		.loc 1 2875 0
 7760 2c66 704B     		ldr	r3, .L478
 7761 2c68 93F8A031 		ldrb	r3, [r3, #416]	@ zero_extendqisi2
 7762 2c6c 002B     		cmp	r3, #0
 7763 2c6e 0DD0     		beq	.L467
2876:build\openmote-cc2538_armgcc\openstack\02a-MAClow/IEEE802154E.c ****         ieee154e_vars.radioOnTics+=(sctimer_readCounter()-ieee154e_vars.radioOnInit);
 7764              		.loc 1 2876 0
 7765 2c70 FFF7FEFF 		bl	sctimer_readCounter
 7766 2c74 0246     		mov	r2, r0
 7767 2c76 6C4B     		ldr	r3, .L478
 7768 2c78 D3F89831 		ldr	r3, [r3, #408]
 7769 2c7c D21A     		subs	r2, r2, r3
 7770 2c7e 6A4B     		ldr	r3, .L478
 7771 2c80 D3F89C31 		ldr	r3, [r3, #412]
 7772 2c84 1344     		add	r3, r3, r2
 7773 2c86 684A     		ldr	r2, .L478
 7774 2c88 C2F89C31 		str	r3, [r2, #412]
 7775              	.L467:
2877:build\openmote-cc2538_armgcc\openstack\02a-MAClow/IEEE802154E.c ****     }
2878:build\openmote-cc2538_armgcc\openstack\02a-MAClow/IEEE802154E.c **** #ifdef SLOT_FSM_IMPLEMENTATION_MULTIPLE_TIMER_INTERRUPT
2879:build\openmote-cc2538_armgcc\openstack\02a-MAClow/IEEE802154E.c ****     sctimer_actionCancel(ACTION_ALL_RADIOTIMER_INTERRUPT);
2880:build\openmote-cc2538_armgcc\openstack\02a-MAClow/IEEE802154E.c **** #else
2881:build\openmote-cc2538_armgcc\openstack\02a-MAClow/IEEE802154E.c ****     // clear any pending timer
2882:build\openmote-cc2538_armgcc\openstack\02a-MAClow/IEEE802154E.c ****     opentimers_scheduleAbsolute(
 7776              		.loc 1 2882 0
 7777 2c8c 664B     		ldr	r3, .L478
 7778 2c8e 93F8A801 		ldrb	r0, [r3, #424]	@ zero_extendqisi2
2883:build\openmote-cc2538_armgcc\openstack\02a-MAClow/IEEE802154E.c ****         ieee154e_vars.timerId,                            // timerId
2884:build\openmote-cc2538_armgcc\openstack\02a-MAClow/IEEE802154E.c ****         ieee154e_vars.slotDuration,                       // duration
 7779              		.loc 1 2884 0
 7780 2c92 654B     		ldr	r3, .L478
 7781 2c94 B3F8A631 		ldrh	r3, [r3, #422]
2882:build\openmote-cc2538_armgcc\openstack\02a-MAClow/IEEE802154E.c ****         ieee154e_vars.timerId,                            // timerId
 7782              		.loc 1 2882 0
 7783 2c98 1946     		mov	r1, r3
 7784 2c9a 634B     		ldr	r3, .L478
 7785 2c9c D3F8AC21 		ldr	r2, [r3, #428]
 7786 2ca0 624B     		ldr	r3, .L478+4
 7787 2ca2 0093     		str	r3, [sp]
 7788 2ca4 0123     		movs	r3, #1
 7789 2ca6 FFF7FEFF 		bl	opentimers_scheduleAbsolute
2885:build\openmote-cc2538_armgcc\openstack\02a-MAClow/IEEE802154E.c ****         ieee154e_vars.startOfSlotReference,               // reference
2886:build\openmote-cc2538_armgcc\openstack\02a-MAClow/IEEE802154E.c ****         TIME_TICS,                                        // timetype
2887:build\openmote-cc2538_armgcc\openstack\02a-MAClow/IEEE802154E.c ****         isr_ieee154e_newSlot                              // callback
2888:build\openmote-cc2538_armgcc\openstack\02a-MAClow/IEEE802154E.c ****     );
2889:build\openmote-cc2538_armgcc\openstack\02a-MAClow/IEEE802154E.c ****     // radiotimer_cancel();
2890:build\openmote-cc2538_armgcc\openstack\02a-MAClow/IEEE802154E.c **** #endif
2891:build\openmote-cc2538_armgcc\openstack\02a-MAClow/IEEE802154E.c ****     // reset capturedTimes
2892:build\openmote-cc2538_armgcc\openstack\02a-MAClow/IEEE802154E.c ****     ieee154e_vars.lastCapturedTime = 0;
 7790              		.loc 1 2892 0
 7791 2caa 5F4B     		ldr	r3, .L478
 7792 2cac 0022     		movs	r2, #0
 7793 2cae C3F87821 		str	r2, [r3, #376]
2893:build\openmote-cc2538_armgcc\openstack\02a-MAClow/IEEE802154E.c ****     ieee154e_vars.syncCapturedTime = 0;
 7794              		.loc 1 2893 0
 7795 2cb2 5D4B     		ldr	r3, .L478
 7796 2cb4 0022     		movs	r2, #0
 7797 2cb6 C3F87C21 		str	r2, [r3, #380]
2894:build\openmote-cc2538_armgcc\openstack\02a-MAClow/IEEE802154E.c **** 
2895:build\openmote-cc2538_armgcc\openstack\02a-MAClow/IEEE802154E.c ****     // compute duty cycle.
2896:build\openmote-cc2538_armgcc\openstack\02a-MAClow/IEEE802154E.c ****     ieee154e_stats.numTicsOn+=ieee154e_vars.radioOnTics;//accumulate and tics the radio is on for t
 7798              		.loc 1 2896 0
 7799 2cba 5D4B     		ldr	r3, .L478+8
 7800 2cbc D3F80720 		ldr	r2, [r3, #7]	@ unaligned
 7801 2cc0 594B     		ldr	r3, .L478
 7802 2cc2 D3F89C31 		ldr	r3, [r3, #412]
 7803 2cc6 1344     		add	r3, r3, r2
 7804 2cc8 594A     		ldr	r2, .L478+8
 7805 2cca C2F80730 		str	r3, [r2, #7]	@ unaligned
2897:build\openmote-cc2538_armgcc\openstack\02a-MAClow/IEEE802154E.c ****     ieee154e_stats.numTicsTotal+=ieee154e_vars.slotDuration;//increment total tics by timer period.
 7806              		.loc 1 2897 0
 7807 2cce 584B     		ldr	r3, .L478+8
 7808 2cd0 D3F80B30 		ldr	r3, [r3, #11]	@ unaligned
 7809 2cd4 544A     		ldr	r2, .L478
 7810 2cd6 B2F8A621 		ldrh	r2, [r2, #422]
 7811 2cda 1344     		add	r3, r3, r2
 7812 2cdc 544A     		ldr	r2, .L478+8
 7813 2cde C2F80B30 		str	r3, [r2, #11]	@ unaligned
2898:build\openmote-cc2538_armgcc\openstack\02a-MAClow/IEEE802154E.c **** 
2899:build\openmote-cc2538_armgcc\openstack\02a-MAClow/IEEE802154E.c ****     if (ieee154e_stats.numTicsTotal>DUTY_CYCLE_WINDOW_LIMIT){
 7814              		.loc 1 2899 0
 7815 2ce2 534B     		ldr	r3, .L478+8
 7816 2ce4 D3F80B30 		ldr	r3, [r3, #11]	@ unaligned
 7817 2ce8 002B     		cmp	r3, #0
 7818 2cea 0DDA     		bge	.L468
2900:build\openmote-cc2538_armgcc\openstack\02a-MAClow/IEEE802154E.c ****         ieee154e_stats.numTicsTotal = ieee154e_stats.numTicsTotal>>1;
 7819              		.loc 1 2900 0
 7820 2cec 504B     		ldr	r3, .L478+8
 7821 2cee D3F80B30 		ldr	r3, [r3, #11]	@ unaligned
 7822 2cf2 5B08     		lsrs	r3, r3, #1
 7823 2cf4 4E4A     		ldr	r2, .L478+8
 7824 2cf6 C2F80B30 		str	r3, [r2, #11]	@ unaligned
2901:build\openmote-cc2538_armgcc\openstack\02a-MAClow/IEEE802154E.c ****         ieee154e_stats.numTicsOn    = ieee154e_stats.numTicsOn>>1;
 7825              		.loc 1 2901 0
 7826 2cfa 4D4B     		ldr	r3, .L478+8
 7827 2cfc D3F80730 		ldr	r3, [r3, #7]	@ unaligned
 7828 2d00 5B08     		lsrs	r3, r3, #1
 7829 2d02 4B4A     		ldr	r2, .L478+8
 7830 2d04 C2F80730 		str	r3, [r2, #7]	@ unaligned
 7831              	.L468:
2902:build\openmote-cc2538_armgcc\openstack\02a-MAClow/IEEE802154E.c ****     }
2903:build\openmote-cc2538_armgcc\openstack\02a-MAClow/IEEE802154E.c **** 
2904:build\openmote-cc2538_armgcc\openstack\02a-MAClow/IEEE802154E.c ****     // clear vars for duty cycle on this slot
2905:build\openmote-cc2538_armgcc\openstack\02a-MAClow/IEEE802154E.c ****     ieee154e_vars.radioOnTics=0;
 7832              		.loc 1 2905 0
 7833 2d08 474B     		ldr	r3, .L478
 7834 2d0a 0022     		movs	r2, #0
 7835 2d0c C3F89C21 		str	r2, [r3, #412]
2906:build\openmote-cc2538_armgcc\openstack\02a-MAClow/IEEE802154E.c ****     ieee154e_vars.radioOnThisSlot=FALSE;
 7836              		.loc 1 2906 0
 7837 2d10 454B     		ldr	r3, .L478
 7838 2d12 0022     		movs	r2, #0
 7839 2d14 83F8A021 		strb	r2, [r3, #416]
2907:build\openmote-cc2538_armgcc\openstack\02a-MAClow/IEEE802154E.c **** 
2908:build\openmote-cc2538_armgcc\openstack\02a-MAClow/IEEE802154E.c ****     // clean up dataToSend
2909:build\openmote-cc2538_armgcc\openstack\02a-MAClow/IEEE802154E.c ****     if (ieee154e_vars.dataToSend!=NULL) {
 7840              		.loc 1 2909 0
 7841 2d18 434B     		ldr	r3, .L478
 7842 2d1a D3F86831 		ldr	r3, [r3, #360]
 7843 2d1e 002B     		cmp	r3, #0
 7844 2d20 24D0     		beq	.L469
2910:build\openmote-cc2538_armgcc\openstack\02a-MAClow/IEEE802154E.c ****         // if everything went well, dataToSend was set to NULL in ti9
2911:build\openmote-cc2538_armgcc\openstack\02a-MAClow/IEEE802154E.c ****         // getting here means transmit failed
2912:build\openmote-cc2538_armgcc\openstack\02a-MAClow/IEEE802154E.c **** 
2913:build\openmote-cc2538_armgcc\openstack\02a-MAClow/IEEE802154E.c ****         // indicate Tx fail to schedule to update stats
2914:build\openmote-cc2538_armgcc\openstack\02a-MAClow/IEEE802154E.c ****         schedule_indicateTx(&ieee154e_vars.asn,FALSE);
 7845              		.loc 1 2914 0
 7846 2d22 0021     		movs	r1, #0
 7847 2d24 4048     		ldr	r0, .L478
 7848 2d26 FFF7FEFF 		bl	schedule_indicateTx
2915:build\openmote-cc2538_armgcc\openstack\02a-MAClow/IEEE802154E.c **** 
2916:build\openmote-cc2538_armgcc\openstack\02a-MAClow/IEEE802154E.c ****         //decrement transmits left counter
2917:build\openmote-cc2538_armgcc\openstack\02a-MAClow/IEEE802154E.c ****         ieee154e_vars.dataToSend->l2_retriesLeft--;
 7849              		.loc 1 2917 0
 7850 2d2a 3F4B     		ldr	r3, .L478
 7851 2d2c D3F86831 		ldr	r3, [r3, #360]
 7852 2d30 93F85420 		ldrb	r2, [r3, #84]	@ zero_extendqisi2
 7853 2d34 013A     		subs	r2, r2, #1
 7854 2d36 D2B2     		uxtb	r2, r2
 7855 2d38 83F85420 		strb	r2, [r3, #84]
2918:build\openmote-cc2538_armgcc\openstack\02a-MAClow/IEEE802154E.c **** 
2919:build\openmote-cc2538_armgcc\openstack\02a-MAClow/IEEE802154E.c ****         if (ieee154e_vars.dataToSend->l2_retriesLeft==0) {
 7856              		.loc 1 2919 0
 7857 2d3c 3A4B     		ldr	r3, .L478
 7858 2d3e D3F86831 		ldr	r3, [r3, #360]
 7859 2d42 93F85430 		ldrb	r3, [r3, #84]	@ zero_extendqisi2
 7860 2d46 002B     		cmp	r3, #0
 7861 2d48 07D1     		bne	.L470
2920:build\openmote-cc2538_armgcc\openstack\02a-MAClow/IEEE802154E.c ****             // indicate tx fail if no more retries left
2921:build\openmote-cc2538_armgcc\openstack\02a-MAClow/IEEE802154E.c ****             notif_sendDone(ieee154e_vars.dataToSend,E_FAIL);
 7862              		.loc 1 2921 0
 7863 2d4a 374B     		ldr	r3, .L478
 7864 2d4c D3F86831 		ldr	r3, [r3, #360]
 7865 2d50 0121     		movs	r1, #1
 7866 2d52 1846     		mov	r0, r3
 7867 2d54 FFF7FEFF 		bl	notif_sendDone
 7868 2d58 04E0     		b	.L471
 7869              	.L470:
2922:build\openmote-cc2538_armgcc\openstack\02a-MAClow/IEEE802154E.c ****         } else {
2923:build\openmote-cc2538_armgcc\openstack\02a-MAClow/IEEE802154E.c ****             // return packet to the virtual COMPONENT_SIXTOP_TO_IEEE802154E component
2924:build\openmote-cc2538_armgcc\openstack\02a-MAClow/IEEE802154E.c ****             ieee154e_vars.dataToSend->owner = COMPONENT_SIXTOP_TO_IEEE802154E;
 7870              		.loc 1 2924 0
 7871 2d5a 334B     		ldr	r3, .L478
 7872 2d5c D3F86831 		ldr	r3, [r3, #360]
 7873 2d60 0A22     		movs	r2, #10
 7874 2d62 5A70     		strb	r2, [r3, #1]
 7875              	.L471:
2925:build\openmote-cc2538_armgcc\openstack\02a-MAClow/IEEE802154E.c ****         }
2926:build\openmote-cc2538_armgcc\openstack\02a-MAClow/IEEE802154E.c **** 
2927:build\openmote-cc2538_armgcc\openstack\02a-MAClow/IEEE802154E.c ****         // reset local variable
2928:build\openmote-cc2538_armgcc\openstack\02a-MAClow/IEEE802154E.c ****         ieee154e_vars.dataToSend = NULL;
 7876              		.loc 1 2928 0
 7877 2d64 304B     		ldr	r3, .L478
 7878 2d66 0022     		movs	r2, #0
 7879 2d68 C3F86821 		str	r2, [r3, #360]
 7880              	.L469:
2929:build\openmote-cc2538_armgcc\openstack\02a-MAClow/IEEE802154E.c ****     }
2930:build\openmote-cc2538_armgcc\openstack\02a-MAClow/IEEE802154E.c **** 
2931:build\openmote-cc2538_armgcc\openstack\02a-MAClow/IEEE802154E.c ****     // clean up dataReceived
2932:build\openmote-cc2538_armgcc\openstack\02a-MAClow/IEEE802154E.c ****     if (ieee154e_vars.dataReceived!=NULL) {
 7881              		.loc 1 2932 0
 7882 2d6c 2E4B     		ldr	r3, .L478
 7883 2d6e D3F86C31 		ldr	r3, [r3, #364]
 7884 2d72 002B     		cmp	r3, #0
 7885 2d74 09D0     		beq	.L472
2933:build\openmote-cc2538_armgcc\openstack\02a-MAClow/IEEE802154E.c ****         // assume something went wrong. If everything went well, dataReceived
2934:build\openmote-cc2538_armgcc\openstack\02a-MAClow/IEEE802154E.c ****         // would have been set to NULL in ri9.
2935:build\openmote-cc2538_armgcc\openstack\02a-MAClow/IEEE802154E.c ****         // indicate  "received packet" to upper layer since we don't want to loose packets
2936:build\openmote-cc2538_armgcc\openstack\02a-MAClow/IEEE802154E.c ****         notif_receive(ieee154e_vars.dataReceived);
 7886              		.loc 1 2936 0
 7887 2d76 2C4B     		ldr	r3, .L478
 7888 2d78 D3F86C31 		ldr	r3, [r3, #364]
 7889 2d7c 1846     		mov	r0, r3
 7890 2d7e FFF7FEFF 		bl	notif_receive
2937:build\openmote-cc2538_armgcc\openstack\02a-MAClow/IEEE802154E.c **** 
2938:build\openmote-cc2538_armgcc\openstack\02a-MAClow/IEEE802154E.c ****         // reset local variable
2939:build\openmote-cc2538_armgcc\openstack\02a-MAClow/IEEE802154E.c ****         ieee154e_vars.dataReceived = NULL;
 7891              		.loc 1 2939 0
 7892 2d82 294B     		ldr	r3, .L478
 7893 2d84 0022     		movs	r2, #0
 7894 2d86 C3F86C21 		str	r2, [r3, #364]
 7895              	.L472:
2940:build\openmote-cc2538_armgcc\openstack\02a-MAClow/IEEE802154E.c ****     }
2941:build\openmote-cc2538_armgcc\openstack\02a-MAClow/IEEE802154E.c **** 
2942:build\openmote-cc2538_armgcc\openstack\02a-MAClow/IEEE802154E.c ****     // clean up ackToSend
2943:build\openmote-cc2538_armgcc\openstack\02a-MAClow/IEEE802154E.c ****     if (ieee154e_vars.ackToSend!=NULL) {
 7896              		.loc 1 2943 0
 7897 2d8a 274B     		ldr	r3, .L478
 7898 2d8c D3F87031 		ldr	r3, [r3, #368]
 7899 2d90 002B     		cmp	r3, #0
 7900 2d92 09D0     		beq	.L473
2944:build\openmote-cc2538_armgcc\openstack\02a-MAClow/IEEE802154E.c ****         // free ackToSend so corresponding RAM memory can be recycled
2945:build\openmote-cc2538_armgcc\openstack\02a-MAClow/IEEE802154E.c ****         openqueue_freePacketBuffer(ieee154e_vars.ackToSend);
 7901              		.loc 1 2945 0
 7902 2d94 244B     		ldr	r3, .L478
 7903 2d96 D3F87031 		ldr	r3, [r3, #368]
 7904 2d9a 1846     		mov	r0, r3
 7905 2d9c FFF7FEFF 		bl	openqueue_freePacketBuffer
2946:build\openmote-cc2538_armgcc\openstack\02a-MAClow/IEEE802154E.c ****         // reset local variable
2947:build\openmote-cc2538_armgcc\openstack\02a-MAClow/IEEE802154E.c ****         ieee154e_vars.ackToSend = NULL;
 7906              		.loc 1 2947 0
 7907 2da0 214B     		ldr	r3, .L478
 7908 2da2 0022     		movs	r2, #0
 7909 2da4 C3F87021 		str	r2, [r3, #368]
 7910              	.L473:
2948:build\openmote-cc2538_armgcc\openstack\02a-MAClow/IEEE802154E.c ****     }
2949:build\openmote-cc2538_armgcc\openstack\02a-MAClow/IEEE802154E.c **** 
2950:build\openmote-cc2538_armgcc\openstack\02a-MAClow/IEEE802154E.c ****     // clean up ackReceived
2951:build\openmote-cc2538_armgcc\openstack\02a-MAClow/IEEE802154E.c ****     if (ieee154e_vars.ackReceived!=NULL) {
 7911              		.loc 1 2951 0
 7912 2da8 1F4B     		ldr	r3, .L478
 7913 2daa D3F87431 		ldr	r3, [r3, #372]
 7914 2dae 002B     		cmp	r3, #0
 7915 2db0 09D0     		beq	.L474
2952:build\openmote-cc2538_armgcc\openstack\02a-MAClow/IEEE802154E.c ****         // free ackReceived so corresponding RAM memory can be recycled
2953:build\openmote-cc2538_armgcc\openstack\02a-MAClow/IEEE802154E.c ****         openqueue_freePacketBuffer(ieee154e_vars.ackReceived);
 7916              		.loc 1 2953 0
 7917 2db2 1D4B     		ldr	r3, .L478
 7918 2db4 D3F87431 		ldr	r3, [r3, #372]
 7919 2db8 1846     		mov	r0, r3
 7920 2dba FFF7FEFF 		bl	openqueue_freePacketBuffer
2954:build\openmote-cc2538_armgcc\openstack\02a-MAClow/IEEE802154E.c ****         // reset local variable
2955:build\openmote-cc2538_armgcc\openstack\02a-MAClow/IEEE802154E.c ****         ieee154e_vars.ackReceived = NULL;
 7921              		.loc 1 2955 0
 7922 2dbe 1A4B     		ldr	r3, .L478
 7923 2dc0 0022     		movs	r2, #0
 7924 2dc2 C3F87421 		str	r2, [r3, #372]
 7925              	.L474:
2956:build\openmote-cc2538_armgcc\openstack\02a-MAClow/IEEE802154E.c ****     }
2957:build\openmote-cc2538_armgcc\openstack\02a-MAClow/IEEE802154E.c **** 
2958:build\openmote-cc2538_armgcc\openstack\02a-MAClow/IEEE802154E.c ****     // change state
2959:build\openmote-cc2538_armgcc\openstack\02a-MAClow/IEEE802154E.c ****     changeState(S_SLEEP);
 7926              		.loc 1 2959 0
 7927 2dc6 0020     		movs	r0, #0
 7928 2dc8 FFF7FEFF 		bl	changeState
2960:build\openmote-cc2538_armgcc\openstack\02a-MAClow/IEEE802154E.c **** 
2961:build\openmote-cc2538_armgcc\openstack\02a-MAClow/IEEE802154E.c ****     // arm serialInhibit timer (if we are still BEFORE DURATION_si)
2962:build\openmote-cc2538_armgcc\openstack\02a-MAClow/IEEE802154E.c ****     if (ieee154e_vars.isSync==TRUE) {
 7929              		.loc 1 2962 0
 7930 2dcc 164B     		ldr	r3, .L478
 7931 2dce 1B7C     		ldrb	r3, [r3, #16]	@ zero_extendqisi2
 7932 2dd0 002B     		cmp	r3, #0
 7933 2dd2 0FD0     		beq	.L475
2963:build\openmote-cc2538_armgcc\openstack\02a-MAClow/IEEE802154E.c ****         opentimers_scheduleAbsolute(
 7934              		.loc 1 2963 0
 7935 2dd4 144B     		ldr	r3, .L478
 7936 2dd6 93F8B001 		ldrb	r0, [r3, #432]	@ zero_extendqisi2
2964:build\openmote-cc2538_armgcc\openstack\02a-MAClow/IEEE802154E.c ****             ieee154e_vars.serialInhibitTimerId,     // timerId
2965:build\openmote-cc2538_armgcc\openstack\02a-MAClow/IEEE802154E.c ****             DURATION_si,                            // duration
 7937              		.loc 1 2965 0
 7938 2dda 134B     		ldr	r3, .L478
 7939 2ddc B3F8A631 		ldrh	r3, [r3, #422]
 7940 2de0 203B     		subs	r3, r3, #32
2963:build\openmote-cc2538_armgcc\openstack\02a-MAClow/IEEE802154E.c ****         opentimers_scheduleAbsolute(
 7941              		.loc 1 2963 0
 7942 2de2 1946     		mov	r1, r3
 7943 2de4 104B     		ldr	r3, .L478
 7944 2de6 D3F8AC21 		ldr	r2, [r3, #428]
 7945 2dea 124B     		ldr	r3, .L478+12
 7946 2dec 0093     		str	r3, [sp]
 7947 2dee 0123     		movs	r3, #1
 7948 2df0 FFF7FEFF 		bl	opentimers_scheduleAbsolute
 7949              	.L475:
2966:build\openmote-cc2538_armgcc\openstack\02a-MAClow/IEEE802154E.c ****             ieee154e_vars.startOfSlotReference,     // reference
2967:build\openmote-cc2538_armgcc\openstack\02a-MAClow/IEEE802154E.c ****             TIME_TICS,                              // timetype
2968:build\openmote-cc2538_armgcc\openstack\02a-MAClow/IEEE802154E.c ****             isr_ieee154e_inhibitStart               // callback
2969:build\openmote-cc2538_armgcc\openstack\02a-MAClow/IEEE802154E.c ****         );
2970:build\openmote-cc2538_armgcc\openstack\02a-MAClow/IEEE802154E.c ****     }
2971:build\openmote-cc2538_armgcc\openstack\02a-MAClow/IEEE802154E.c **** 
2972:build\openmote-cc2538_armgcc\openstack\02a-MAClow/IEEE802154E.c ****     // resume serial activity (if we are still BEFORE DURATION_si)
2973:build\openmote-cc2538_armgcc\openstack\02a-MAClow/IEEE802154E.c ****     if (DURATION_si+ieee154e_vars.startOfSlotReference-opentimers_getValue()<ieee154e_vars.slotDura
 7950              		.loc 1 2973 0
 7951 2df4 0C4B     		ldr	r3, .L478
 7952 2df6 B3F8A631 		ldrh	r3, [r3, #422]
 7953 2dfa 1A46     		mov	r2, r3
 7954 2dfc 0A4B     		ldr	r3, .L478
 7955 2dfe D3F8AC31 		ldr	r3, [r3, #428]
 7956 2e02 D418     		adds	r4, r2, r3
 7957 2e04 FFF7FEFF 		bl	opentimers_getValue
 7958 2e08 0346     		mov	r3, r0
 7959 2e0a 5B42     		negs	r3, r3
 7960 2e0c 2344     		add	r3, r3, r4
 7961 2e0e 203B     		subs	r3, r3, #32
 7962 2e10 054A     		ldr	r2, .L478
 7963 2e12 B2F8A621 		ldrh	r2, [r2, #422]
 7964 2e16 9342     		cmp	r3, r2
 7965 2e18 01D2     		bcs	.L477
2974:build\openmote-cc2538_armgcc\openstack\02a-MAClow/IEEE802154E.c ****         openserial_inhibitStop(); // end of slot
 7966              		.loc 1 2974 0
 7967 2e1a FFF7FEFF 		bl	openserial_inhibitStop
 7968              	.L477:
2975:build\openmote-cc2538_armgcc\openstack\02a-MAClow/IEEE802154E.c ****     }
2976:build\openmote-cc2538_armgcc\openstack\02a-MAClow/IEEE802154E.c **** }
 7969              		.loc 1 2976 0
 7970 2e1e 00BF     		nop
 7971 2e20 0437     		adds	r7, r7, #4
 7972              		.cfi_def_cfa_offset 12
 7973 2e22 BD46     		mov	sp, r7
 7974              		.cfi_def_cfa_register 13
 7975              		@ sp needed
 7976 2e24 90BD     		pop	{r4, r7, pc}
 7977              	.L479:
 7978 2e26 00BF     		.align	2
 7979              	.L478:
 7980 2e28 00000000 		.word	ieee154e_vars
 7981 2e2c 00000000 		.word	isr_ieee154e_newSlot
 7982 2e30 00000000 		.word	ieee154e_stats
 7983 2e34 00000000 		.word	isr_ieee154e_inhibitStart
 7984              		.cfi_endproc
 7985              	.LFE76:
 7987              		.align	1
 7988              		.global	ieee154e_isSynch
 7989              		.syntax unified
 7990              		.thumb
 7991              		.thumb_func
 7992              		.fpu softvfp
 7994              	ieee154e_isSynch:
 7995              	.LFB77:
2977:build\openmote-cc2538_armgcc\openstack\02a-MAClow/IEEE802154E.c **** 
2978:build\openmote-cc2538_armgcc\openstack\02a-MAClow/IEEE802154E.c **** bool ieee154e_isSynch(void){
 7996              		.loc 1 2978 0
 7997              		.cfi_startproc
 7998              		@ args = 0, pretend = 0, frame = 0
 7999              		@ frame_needed = 1, uses_anonymous_args = 0
 8000              		@ link register save eliminated.
 8001 2e38 80B4     		push	{r7}
 8002              		.cfi_def_cfa_offset 4
 8003              		.cfi_offset 7, -4
 8004 2e3a 00AF     		add	r7, sp, #0
 8005              		.cfi_def_cfa_register 7
2979:build\openmote-cc2538_armgcc\openstack\02a-MAClow/IEEE802154E.c ****     return ieee154e_vars.isSync;
 8006              		.loc 1 2979 0
 8007 2e3c 024B     		ldr	r3, .L482
 8008 2e3e 1B7C     		ldrb	r3, [r3, #16]	@ zero_extendqisi2
2980:build\openmote-cc2538_armgcc\openstack\02a-MAClow/IEEE802154E.c **** }
 8009              		.loc 1 2980 0
 8010 2e40 1846     		mov	r0, r3
 8011 2e42 BD46     		mov	sp, r7
 8012              		.cfi_def_cfa_register 13
 8013              		@ sp needed
 8014 2e44 80BC     		pop	{r7}
 8015              		.cfi_restore 7
 8016              		.cfi_def_cfa_offset 0
 8017 2e46 7047     		bx	lr
 8018              	.L483:
 8019              		.align	2
 8020              	.L482:
 8021 2e48 00000000 		.word	ieee154e_vars
 8022              		.cfi_endproc
 8023              	.LFE77:
 8025              	.Letext0:
 8026              		.file 2 "c:\\program files (x86)\\gnu tools arm embedded\\7 2018-q2-update\\arm-none-eabi\\include
 8027              		.file 3 "c:\\program files (x86)\\gnu tools arm embedded\\7 2018-q2-update\\arm-none-eabi\\include
 8028              		.file 4 "c:\\program files (x86)\\gnu tools arm embedded\\7 2018-q2-update\\arm-none-eabi\\include
 8029              		.file 5 "c:\\program files (x86)\\gnu tools arm embedded\\7 2018-q2-update\\arm-none-eabi\\include
 8030              		.file 6 "c:\\program files (x86)\\gnu tools arm embedded\\7 2018-q2-update\\lib\\gcc\\arm-none-eab
 8031              		.file 7 "c:\\program files (x86)\\gnu tools arm embedded\\7 2018-q2-update\\arm-none-eabi\\include
 8032              		.file 8 "bsp\\boards\\openmote-cc2538/board_info.h"
 8033              		.file 9 "inc/opendefs.h"
 8034              		.file 10 "drivers\\common/opentimers.h"
 8035              		.file 11 "openstack\\02b-MAChigh/schedule.h"
 8036              		.file 12 "build\\openmote-cc2538_armgcc\\openstack\\02a-MAClow\\IEEE802154E.h"
 8037              		.file 13 "build\\openmote-cc2538_armgcc\\openstack\\02a-MAClow\\IEEE802154.h"
 8038              		.file 14 "openstack\\cross-layers/idmanager.h"
 8039              		.file 15 "kernel/scheduler.h"
 8040              		.file 16 "openstack\\03b-IPv6/icmpv6rpl.h"
DEFINED SYMBOLS
                            *ABS*:00000000 IEEE802154E.c
C:\Users\Lee\AppData\Local\Temp\ccOFo9Qh.s:16     .rodata:00000000 $d
C:\Users\Lee\AppData\Local\Temp\ccOFo9Qh.s:19     .rodata:00000000 rreg_uriquery
C:\Users\Lee\AppData\Local\Temp\ccOFo9Qh.s:24     .rodata:00000008 infoBoardname
C:\Users\Lee\AppData\Local\Temp\ccOFo9Qh.s:29     .rodata:00000010 infouCName
C:\Users\Lee\AppData\Local\Temp\ccOFo9Qh.s:34     .rodata:00000018 infoRadioName
C:\Users\Lee\AppData\Local\Temp\ccOFo9Qh.s:39     .rodata:00000024 infoStackName
C:\Users\Lee\AppData\Local\Temp\ccOFo9Qh.s:44     .rodata:00000030 chTemplate_default
C:\Users\Lee\AppData\Local\Temp\ccOFo9Qh.s:64     .rodata:00000040 ebIEsBytestream
C:\Users\Lee\AppData\Local\Temp\ccOFo9Qh.s:96     .rodata:0000005c linklocalprefix
C:\Users\Lee\AppData\Local\Temp\ccOFo9Qh.s:108    .rodata:00000064 all_routers_multicast
                            *COM*:000001b4 ieee154e_vars
                            *COM*:0000000f ieee154e_stats
                            *COM*:00000010 ieee154e_dbg
C:\Users\Lee\AppData\Local\Temp\ccOFo9Qh.s:129    .text:00000000 $t
C:\Users\Lee\AppData\Local\Temp\ccOFo9Qh.s:136    .text:00000000 ieee154e_init
C:\Users\Lee\AppData\Local\Temp\ccOFo9Qh.s:7255   .text:00002a00 changeIsSync
C:\Users\Lee\AppData\Local\Temp\ccOFo9Qh.s:7433   .text:00002ab8 resetStats
C:\Users\Lee\AppData\Local\Temp\ccOFo9Qh.s:261    .text:000000d8 $d
C:\Users\Lee\AppData\Local\Temp\ccOFo9Qh.s:1042   .text:0000052a ieee154e_startOfFrame
C:\Users\Lee\AppData\Local\Temp\ccOFo9Qh.s:1174   .text:00000600 ieee154e_endOfFrame
C:\Users\Lee\AppData\Local\Temp\ccOFo9Qh.s:709    .text:0000035a isr_ieee154e_newSlot
C:\Users\Lee\AppData\Local\Temp\ccOFo9Qh.s:271    .text:000000f4 $t
C:\Users\Lee\AppData\Local\Temp\ccOFo9Qh.s:278    .text:000000f4 ieee154e_asnDiff
C:\Users\Lee\AppData\Local\Temp\ccOFo9Qh.s:385    .text:0000019c $d
C:\Users\Lee\AppData\Local\Temp\ccOFo9Qh.s:389    .text:000001a0 $t
C:\Users\Lee\AppData\Local\Temp\ccOFo9Qh.s:396    .text:000001a0 ieee154e_computeAsnDiff
C:\Users\Lee\AppData\Local\Temp\ccOFo9Qh.s:508    .text:00000240 ieee154e_calculateExpTime
C:\Users\Lee\AppData\Local\Temp\ccOFo9Qh.s:6892   .text:00002854 ieee154e_getSlotDuration
C:\Users\Lee\AppData\Local\Temp\ccOFo9Qh.s:5680   .text:00002184 ieee154e_getAsn
C:\Users\Lee\AppData\Local\Temp\ccOFo9Qh.s:627    .text:00000300 $d
C:\Users\Lee\AppData\Local\Temp\ccOFo9Qh.s:631    .text:00000304 $t
C:\Users\Lee\AppData\Local\Temp\ccOFo9Qh.s:638    .text:00000304 ieee154e_orderToASNStructure
C:\Users\Lee\AppData\Local\Temp\ccOFo9Qh.s:5621   .text:0000214c ieee154e_resetAsn
C:\Users\Lee\AppData\Local\Temp\ccOFo9Qh.s:1451   .text:00000758 activity_synchronize_newSlot
C:\Users\Lee\AppData\Local\Temp\ccOFo9Qh.s:2194   .text:00000c40 activity_ti1ORri1
C:\Users\Lee\AppData\Local\Temp\ccOFo9Qh.s:793    .text:000003e0 $d
C:\Users\Lee\AppData\Local\Temp\ccOFo9Qh.s:799    .text:000003ec $t
C:\Users\Lee\AppData\Local\Temp\ccOFo9Qh.s:806    .text:000003ec isr_ieee154e_timer
C:\Users\Lee\AppData\Local\Temp\ccOFo9Qh.s:832    .text:00000408 $d
C:\Users\Lee\AppData\Local\Temp\ccOFo9Qh.s:855    .text:00000464 $t
C:\Users\Lee\AppData\Local\Temp\ccOFo9Qh.s:2746   .text:00001068 activity_ti2
C:\Users\Lee\AppData\Local\Temp\ccOFo9Qh.s:2855   .text:00001114 activity_tie1
C:\Users\Lee\AppData\Local\Temp\ccOFo9Qh.s:2898   .text:00001138 activity_ti3
C:\Users\Lee\AppData\Local\Temp\ccOFo9Qh.s:2952   .text:00001178 activity_tie2
C:\Users\Lee\AppData\Local\Temp\ccOFo9Qh.s:3069   .text:00001204 activity_tie3
C:\Users\Lee\AppData\Local\Temp\ccOFo9Qh.s:3241   .text:000012f8 activity_ti6
C:\Users\Lee\AppData\Local\Temp\ccOFo9Qh.s:3312   .text:0000135c activity_tie4
C:\Users\Lee\AppData\Local\Temp\ccOFo9Qh.s:3355   .text:00001380 activity_ti7
C:\Users\Lee\AppData\Local\Temp\ccOFo9Qh.s:3409   .text:000013c0 activity_tie5
C:\Users\Lee\AppData\Local\Temp\ccOFo9Qh.s:3549   .text:00001484 activity_tie6
C:\Users\Lee\AppData\Local\Temp\ccOFo9Qh.s:3928   .text:00001720 activity_ri2
C:\Users\Lee\AppData\Local\Temp\ccOFo9Qh.s:3999   .text:00001784 activity_rie1
C:\Users\Lee\AppData\Local\Temp\ccOFo9Qh.s:4042   .text:000017a8 activity_ri3
C:\Users\Lee\AppData\Local\Temp\ccOFo9Qh.s:4096   .text:000017e8 activity_rie2
C:\Users\Lee\AppData\Local\Temp\ccOFo9Qh.s:4201   .text:00001864 activity_rie3
C:\Users\Lee\AppData\Local\Temp\ccOFo9Qh.s:4734   .text:00001c4c activity_ri6
C:\Users\Lee\AppData\Local\Temp\ccOFo9Qh.s:4953   .text:00001df8 activity_rie4
C:\Users\Lee\AppData\Local\Temp\ccOFo9Qh.s:4996   .text:00001e1c activity_ri7
C:\Users\Lee\AppData\Local\Temp\ccOFo9Qh.s:5050   .text:00001e5c activity_rie5
C:\Users\Lee\AppData\Local\Temp\ccOFo9Qh.s:5167   .text:00001ee8 activity_rie6
C:\Users\Lee\AppData\Local\Temp\ccOFo9Qh.s:7742   .text:00002c5c endSlot
C:\Users\Lee\AppData\Local\Temp\ccOFo9Qh.s:994    .text:0000050c $d
C:\Users\Lee\AppData\Local\Temp\ccOFo9Qh.s:999    .text:00000514 $t
C:\Users\Lee\AppData\Local\Temp\ccOFo9Qh.s:1006   .text:00000514 isr_ieee154e_inhibitStart
C:\Users\Lee\AppData\Local\Temp\ccOFo9Qh.s:1639   .text:000008b0 activity_synchronize_startOfFrame
C:\Users\Lee\AppData\Local\Temp\ccOFo9Qh.s:1085   .text:00000568 $d
C:\Users\Lee\AppData\Local\Temp\ccOFo9Qh.s:1102   .text:000005ac $t
C:\Users\Lee\AppData\Local\Temp\ccOFo9Qh.s:2995   .text:0000119c activity_ti4
C:\Users\Lee\AppData\Local\Temp\ccOFo9Qh.s:3475   .text:0000141c activity_ti8
C:\Users\Lee\AppData\Local\Temp\ccOFo9Qh.s:4123   .text:000017f4 activity_ri4
C:\Users\Lee\AppData\Local\Temp\ccOFo9Qh.s:5093   .text:00001e80 activity_ri8
C:\Users\Lee\AppData\Local\Temp\ccOFo9Qh.s:1162   .text:000005f8 $d
C:\Users\Lee\AppData\Local\Temp\ccOFo9Qh.s:1167   .text:00000600 $t
C:\Users\Lee\AppData\Local\Temp\ccOFo9Qh.s:1698   .text:000008ec activity_synchronize_endOfFrame
C:\Users\Lee\AppData\Local\Temp\ccOFo9Qh.s:1217   .text:0000063c $d
C:\Users\Lee\AppData\Local\Temp\ccOFo9Qh.s:1234   .text:00000680 $t
C:\Users\Lee\AppData\Local\Temp\ccOFo9Qh.s:3112   .text:00001228 activity_ti5
C:\Users\Lee\AppData\Local\Temp\ccOFo9Qh.s:3592   .text:000014a8 activity_ti9
C:\Users\Lee\AppData\Local\Temp\ccOFo9Qh.s:4244   .text:00001888 activity_ri5
C:\Users\Lee\AppData\Local\Temp\ccOFo9Qh.s:5210   .text:00001f0c activity_ri9
C:\Users\Lee\AppData\Local\Temp\ccOFo9Qh.s:1294   .text:000006cc $d
C:\Users\Lee\AppData\Local\Temp\ccOFo9Qh.s:1299   .text:000006d4 $t
C:\Users\Lee\AppData\Local\Temp\ccOFo9Qh.s:1306   .text:000006d4 debugPrint_asn
C:\Users\Lee\AppData\Local\Temp\ccOFo9Qh.s:1353   .text:00000710 $d
C:\Users\Lee\AppData\Local\Temp\ccOFo9Qh.s:1357   .text:00000714 $t
C:\Users\Lee\AppData\Local\Temp\ccOFo9Qh.s:1364   .text:00000714 debugPrint_isSync
C:\Users\Lee\AppData\Local\Temp\ccOFo9Qh.s:1404   .text:0000073c $d
C:\Users\Lee\AppData\Local\Temp\ccOFo9Qh.s:1408   .text:00000740 $t
C:\Users\Lee\AppData\Local\Temp\ccOFo9Qh.s:1415   .text:00000740 debugPrint_macStats
C:\Users\Lee\AppData\Local\Temp\ccOFo9Qh.s:1440   .text:00000754 $d
C:\Users\Lee\AppData\Local\Temp\ccOFo9Qh.s:1444   .text:00000758 $t
C:\Users\Lee\AppData\Local\Temp\ccOFo9Qh.s:7647   .text:00002bb0 changeState
C:\Users\Lee\AppData\Local\Temp\ccOFo9Qh.s:7578   .text:00002b60 calculateFrequency
C:\Users\Lee\AppData\Local\Temp\ccOFo9Qh.s:1625   .text:000008a0 $d
C:\Users\Lee\AppData\Local\Temp\ccOFo9Qh.s:1632   .text:000008b0 $t
C:\Users\Lee\AppData\Local\Temp\ccOFo9Qh.s:1687   .text:000008e8 $d
C:\Users\Lee\AppData\Local\Temp\ccOFo9Qh.s:1691   .text:000008ec $t
C:\Users\Lee\AppData\Local\Temp\ccOFo9Qh.s:5857   .text:0000223c isValidJoin
C:\Users\Lee\AppData\Local\Temp\ccOFo9Qh.s:2085   .text:00000bb0 ieee154e_processIEs
C:\Users\Lee\AppData\Local\Temp\ccOFo9Qh.s:7020   .text:000028ac synchronizePacket
C:\Users\Lee\AppData\Local\Temp\ccOFo9Qh.s:7374   .text:00002a78 notif_receive
C:\Users\Lee\AppData\Local\Temp\ccOFo9Qh.s:2074   .text:00000bac $d
C:\Users\Lee\AppData\Local\Temp\ccOFo9Qh.s:2078   .text:00000bb0 $t
C:\Users\Lee\AppData\Local\Temp\ccOFo9Qh.s:5989   .text:000022ec isValidEbFormat
C:\Users\Lee\AppData\Local\Temp\ccOFo9Qh.s:6547   .text:000026dc ieee154e_syncSlotOffset
C:\Users\Lee\AppData\Local\Temp\ccOFo9Qh.s:2183   .text:00000c3c $d
C:\Users\Lee\AppData\Local\Temp\ccOFo9Qh.s:2187   .text:00000c40 $t
C:\Users\Lee\AppData\Local\Temp\ccOFo9Qh.s:5508   .text:0000209e incrementAsnOffset
C:\Users\Lee\AppData\Local\Temp\ccOFo9Qh.s:2560   .text:00000f04 $d
C:\Users\Lee\AppData\Local\Temp\ccOFo9Qh.s:2565   .text:00000f10 $t
C:\Users\Lee\AppData\Local\Temp\ccOFo9Qh.s:2734   .text:00001060 $d
C:\Users\Lee\AppData\Local\Temp\ccOFo9Qh.s:2739   .text:00001068 $t
C:\Users\Lee\AppData\Local\Temp\ccOFo9Qh.s:2842   .text:00001108 $d
C:\Users\Lee\AppData\Local\Temp\ccOFo9Qh.s:2848   .text:00001114 $t
C:\Users\Lee\AppData\Local\Temp\ccOFo9Qh.s:2887   .text:00001134 $d
C:\Users\Lee\AppData\Local\Temp\ccOFo9Qh.s:2891   .text:00001138 $t
C:\Users\Lee\AppData\Local\Temp\ccOFo9Qh.s:2940   .text:00001170 $d
C:\Users\Lee\AppData\Local\Temp\ccOFo9Qh.s:2945   .text:00001178 $t
C:\Users\Lee\AppData\Local\Temp\ccOFo9Qh.s:2984   .text:00001198 $d
C:\Users\Lee\AppData\Local\Temp\ccOFo9Qh.s:2988   .text:0000119c $t
C:\Users\Lee\AppData\Local\Temp\ccOFo9Qh.s:3056   .text:000011f8 $d
C:\Users\Lee\AppData\Local\Temp\ccOFo9Qh.s:3062   .text:00001204 $t
C:\Users\Lee\AppData\Local\Temp\ccOFo9Qh.s:3101   .text:00001224 $d
C:\Users\Lee\AppData\Local\Temp\ccOFo9Qh.s:3105   .text:00001228 $t
C:\Users\Lee\AppData\Local\Temp\ccOFo9Qh.s:7314   .text:00002a38 notif_sendDone
C:\Users\Lee\AppData\Local\Temp\ccOFo9Qh.s:3228   .text:000012ec $d
C:\Users\Lee\AppData\Local\Temp\ccOFo9Qh.s:3234   .text:000012f8 $t
C:\Users\Lee\AppData\Local\Temp\ccOFo9Qh.s:3300   .text:00001354 $d
C:\Users\Lee\AppData\Local\Temp\ccOFo9Qh.s:3305   .text:0000135c $t
C:\Users\Lee\AppData\Local\Temp\ccOFo9Qh.s:3344   .text:0000137c $d
C:\Users\Lee\AppData\Local\Temp\ccOFo9Qh.s:3348   .text:00001380 $t
C:\Users\Lee\AppData\Local\Temp\ccOFo9Qh.s:3397   .text:000013b8 $d
C:\Users\Lee\AppData\Local\Temp\ccOFo9Qh.s:3402   .text:000013c0 $t
C:\Users\Lee\AppData\Local\Temp\ccOFo9Qh.s:3464   .text:00001418 $d
C:\Users\Lee\AppData\Local\Temp\ccOFo9Qh.s:3468   .text:0000141c $t
C:\Users\Lee\AppData\Local\Temp\ccOFo9Qh.s:3536   .text:00001478 $d
C:\Users\Lee\AppData\Local\Temp\ccOFo9Qh.s:3542   .text:00001484 $t
C:\Users\Lee\AppData\Local\Temp\ccOFo9Qh.s:3581   .text:000014a4 $d
C:\Users\Lee\AppData\Local\Temp\ccOFo9Qh.s:3585   .text:000014a8 $t
C:\Users\Lee\AppData\Local\Temp\ccOFo9Qh.s:5417   .text:0000202c isValidAck
C:\Users\Lee\AppData\Local\Temp\ccOFo9Qh.s:7155   .text:00002974 synchronizeAck
C:\Users\Lee\AppData\Local\Temp\ccOFo9Qh.s:3916   .text:00001718 $d
C:\Users\Lee\AppData\Local\Temp\ccOFo9Qh.s:3921   .text:00001720 $t
C:\Users\Lee\AppData\Local\Temp\ccOFo9Qh.s:3987   .text:0000177c $d
C:\Users\Lee\AppData\Local\Temp\ccOFo9Qh.s:3992   .text:00001784 $t
C:\Users\Lee\AppData\Local\Temp\ccOFo9Qh.s:4031   .text:000017a4 $d
C:\Users\Lee\AppData\Local\Temp\ccOFo9Qh.s:4035   .text:000017a8 $t
C:\Users\Lee\AppData\Local\Temp\ccOFo9Qh.s:4084   .text:000017e0 $d
C:\Users\Lee\AppData\Local\Temp\ccOFo9Qh.s:4089   .text:000017e8 $t
C:\Users\Lee\AppData\Local\Temp\ccOFo9Qh.s:4188   .text:00001858 $d
C:\Users\Lee\AppData\Local\Temp\ccOFo9Qh.s:4194   .text:00001864 $t
C:\Users\Lee\AppData\Local\Temp\ccOFo9Qh.s:4233   .text:00001884 $d
C:\Users\Lee\AppData\Local\Temp\ccOFo9Qh.s:4237   .text:00001888 $t
C:\Users\Lee\AppData\Local\Temp\ccOFo9Qh.s:5322   .text:00001fbc isValidRxFrame
C:\Users\Lee\AppData\Local\Temp\ccOFo9Qh.s:4599   .text:00001b70 $d
C:\Users\Lee\AppData\Local\Temp\ccOFo9Qh.s:4604   .text:00001b7c $t
C:\Users\Lee\AppData\Local\Temp\ccOFo9Qh.s:4723   .text:00001c48 $d
C:\Users\Lee\AppData\Local\Temp\ccOFo9Qh.s:4727   .text:00001c4c $t
C:\Users\Lee\AppData\Local\Temp\ccOFo9Qh.s:4941   .text:00001df0 $d
C:\Users\Lee\AppData\Local\Temp\ccOFo9Qh.s:4946   .text:00001df8 $t
C:\Users\Lee\AppData\Local\Temp\ccOFo9Qh.s:4985   .text:00001e18 $d
C:\Users\Lee\AppData\Local\Temp\ccOFo9Qh.s:4989   .text:00001e1c $t
C:\Users\Lee\AppData\Local\Temp\ccOFo9Qh.s:5038   .text:00001e54 $d
C:\Users\Lee\AppData\Local\Temp\ccOFo9Qh.s:5043   .text:00001e5c $t
C:\Users\Lee\AppData\Local\Temp\ccOFo9Qh.s:5082   .text:00001e7c $d
C:\Users\Lee\AppData\Local\Temp\ccOFo9Qh.s:5086   .text:00001e80 $t
C:\Users\Lee\AppData\Local\Temp\ccOFo9Qh.s:5154   .text:00001edc $d
C:\Users\Lee\AppData\Local\Temp\ccOFo9Qh.s:5160   .text:00001ee8 $t
C:\Users\Lee\AppData\Local\Temp\ccOFo9Qh.s:5199   .text:00001f08 $d
C:\Users\Lee\AppData\Local\Temp\ccOFo9Qh.s:5203   .text:00001f0c $t
C:\Users\Lee\AppData\Local\Temp\ccOFo9Qh.s:5310   .text:00001fb4 $d
C:\Users\Lee\AppData\Local\Temp\ccOFo9Qh.s:5315   .text:00001fbc $t
C:\Users\Lee\AppData\Local\Temp\ccOFo9Qh.s:5610   .text:00002148 $d
C:\Users\Lee\AppData\Local\Temp\ccOFo9Qh.s:5614   .text:0000214c $t
C:\Users\Lee\AppData\Local\Temp\ccOFo9Qh.s:5669   .text:00002180 $d
C:\Users\Lee\AppData\Local\Temp\ccOFo9Qh.s:5673   .text:00002184 $t
C:\Users\Lee\AppData\Local\Temp\ccOFo9Qh.s:5750   .text:000021e8 $d
C:\Users\Lee\AppData\Local\Temp\ccOFo9Qh.s:5754   .text:000021ec $t
C:\Users\Lee\AppData\Local\Temp\ccOFo9Qh.s:5761   .text:000021ec ieee154e_getTimeCorrection
C:\Users\Lee\AppData\Local\Temp\ccOFo9Qh.s:5795   .text:00002208 $d
C:\Users\Lee\AppData\Local\Temp\ccOFo9Qh.s:5799   .text:0000220c $t
C:\Users\Lee\AppData\Local\Temp\ccOFo9Qh.s:5806   .text:0000220c joinPriorityStoreFromEB
C:\Users\Lee\AppData\Local\Temp\ccOFo9Qh.s:5846   .text:00002238 $d
C:\Users\Lee\AppData\Local\Temp\ccOFo9Qh.s:5850   .text:0000223c $t
C:\Users\Lee\AppData\Local\Temp\ccOFo9Qh.s:6975   .text:0000288c channelhoppingTemplateIDStoreFromEB
C:\Users\Lee\AppData\Local\Temp\ccOFo9Qh.s:6469   .text:00002682 asnStoreFromEB
C:\Users\Lee\AppData\Local\Temp\ccOFo9Qh.s:6930   .text:0000286c timeslotTemplateIDStoreFromEB
C:\Users\Lee\AppData\Local\Temp\ccOFo9Qh.s:6536   .text:000026d8 $d
C:\Users\Lee\AppData\Local\Temp\ccOFo9Qh.s:6540   .text:000026dc $t
C:\Users\Lee\AppData\Local\Temp\ccOFo9Qh.s:6679   .text:000027b4 $d
C:\Users\Lee\AppData\Local\Temp\ccOFo9Qh.s:6683   .text:000027b8 $t
C:\Users\Lee\AppData\Local\Temp\ccOFo9Qh.s:6690   .text:000027b8 ieee154e_setIsAckEnabled
C:\Users\Lee\AppData\Local\Temp\ccOFo9Qh.s:6724   .text:000027d4 $d
C:\Users\Lee\AppData\Local\Temp\ccOFo9Qh.s:6728   .text:000027d8 $t
C:\Users\Lee\AppData\Local\Temp\ccOFo9Qh.s:6735   .text:000027d8 ieee154e_setSingleChannel
C:\Users\Lee\AppData\Local\Temp\ccOFo9Qh.s:6791   .text:00002810 $d
C:\Users\Lee\AppData\Local\Temp\ccOFo9Qh.s:6795   .text:00002814 $t
C:\Users\Lee\AppData\Local\Temp\ccOFo9Qh.s:6802   .text:00002814 ieee154e_setIsSecurityEnabled
C:\Users\Lee\AppData\Local\Temp\ccOFo9Qh.s:6836   .text:00002830 $d
C:\Users\Lee\AppData\Local\Temp\ccOFo9Qh.s:6840   .text:00002834 $t
C:\Users\Lee\AppData\Local\Temp\ccOFo9Qh.s:6847   .text:00002834 ieee154e_setSlotDuration
C:\Users\Lee\AppData\Local\Temp\ccOFo9Qh.s:6881   .text:00002850 $d
C:\Users\Lee\AppData\Local\Temp\ccOFo9Qh.s:6885   .text:00002854 $t
C:\Users\Lee\AppData\Local\Temp\ccOFo9Qh.s:6919   .text:00002868 $d
C:\Users\Lee\AppData\Local\Temp\ccOFo9Qh.s:6923   .text:0000286c $t
C:\Users\Lee\AppData\Local\Temp\ccOFo9Qh.s:6964   .text:00002888 $d
C:\Users\Lee\AppData\Local\Temp\ccOFo9Qh.s:6968   .text:0000288c $t
C:\Users\Lee\AppData\Local\Temp\ccOFo9Qh.s:7009   .text:000028a8 $d
C:\Users\Lee\AppData\Local\Temp\ccOFo9Qh.s:7013   .text:000028ac $t
C:\Users\Lee\AppData\Local\Temp\ccOFo9Qh.s:7510   .text:00002b18 updateStats
C:\Users\Lee\AppData\Local\Temp\ccOFo9Qh.s:7142   .text:00002968 $d
C:\Users\Lee\AppData\Local\Temp\ccOFo9Qh.s:7148   .text:00002974 $t
C:\Users\Lee\AppData\Local\Temp\ccOFo9Qh.s:7242   .text:000029f4 $d
C:\Users\Lee\AppData\Local\Temp\ccOFo9Qh.s:7248   .text:00002a00 $t
C:\Users\Lee\AppData\Local\Temp\ccOFo9Qh.s:7303   .text:00002a34 $d
C:\Users\Lee\AppData\Local\Temp\ccOFo9Qh.s:7307   .text:00002a38 $t
C:\Users\Lee\AppData\Local\Temp\ccOFo9Qh.s:7362   .text:00002a70 $d
C:\Users\Lee\AppData\Local\Temp\ccOFo9Qh.s:7367   .text:00002a78 $t
C:\Users\Lee\AppData\Local\Temp\ccOFo9Qh.s:7421   .text:00002ab0 $d
C:\Users\Lee\AppData\Local\Temp\ccOFo9Qh.s:7426   .text:00002ab8 $t
C:\Users\Lee\AppData\Local\Temp\ccOFo9Qh.s:7499   .text:00002b14 $d
C:\Users\Lee\AppData\Local\Temp\ccOFo9Qh.s:7503   .text:00002b18 $t
C:\Users\Lee\AppData\Local\Temp\ccOFo9Qh.s:7567   .text:00002b5c $d
C:\Users\Lee\AppData\Local\Temp\ccOFo9Qh.s:7571   .text:00002b60 $t
C:\Users\Lee\AppData\Local\Temp\ccOFo9Qh.s:7636   .text:00002bac $d
C:\Users\Lee\AppData\Local\Temp\ccOFo9Qh.s:7640   .text:00002bb0 $t
C:\Users\Lee\AppData\Local\Temp\ccOFo9Qh.s:7676   .text:00002bd4 $d
C:\Users\Lee\AppData\Local\Temp\ccOFo9Qh.s:7702   .text:00002c3c $t
C:\Users\Lee\AppData\Local\Temp\ccOFo9Qh.s:7731   .text:00002c58 $d
C:\Users\Lee\AppData\Local\Temp\ccOFo9Qh.s:7735   .text:00002c5c $t
C:\Users\Lee\AppData\Local\Temp\ccOFo9Qh.s:7980   .text:00002e28 $d
C:\Users\Lee\AppData\Local\Temp\ccOFo9Qh.s:7987   .text:00002e38 $t
C:\Users\Lee\AppData\Local\Temp\ccOFo9Qh.s:7994   .text:00002e38 ieee154e_isSynch
C:\Users\Lee\AppData\Local\Temp\ccOFo9Qh.s:8021   .text:00002e48 $d
                           .group:00000000 wm4.0.93d65e4ff05d5af51629690e5b534e57
                           .group:00000000 wm4._newlib_version.h.4.875b979a44719054cd750d0952ad3fd6
                           .group:00000000 wm4.features.h.33.318b64d71e0957639cfb30f1db1f7ec8
                           .group:00000000 wm4._default_types.h.15.247e5cd201eca3442cbf5404108c4935
                           .group:00000000 wm4._intsup.h.10.cce27fed8484c08a33f522034c30d2b5
                           .group:00000000 wm4._stdint.h.10.c24fa3af3bc1706662bb5593a907e841
                           .group:00000000 wm4.stdint.h.23.d53047a68f4a85177f80b422d52785ed
                           .group:00000000 wm4.toolchain_defs.h.2.e5fd326231d01413e5361944b26cde07
                           .group:00000000 wm4.newlib.h.8.f6e543eac3f2f65163ba2ffe3b04987b
                           .group:00000000 wm4.ieeefp.h.77.220d9cccac42cd58761758bee2df4ce6
                           .group:00000000 wm4.config.h.220.6cac6a9685cfce5e83c17784171638d9
                           .group:00000000 wm4._ansi.h.31.de524f58584151836e90d8620a16f8e8
                           .group:00000000 wm4.stddef.h.39.a38874c8f8a57e66301090908ec2a69f
                           .group:00000000 wm4.lock.h.2.1461d1fff82dffe8bfddc23307f6484f
                           .group:00000000 wm4._types.h.125.5cf8a495f1f7ef36777ad868a1e32068
                           .group:00000000 wm4.stddef.h.161.5349cb105733e8777bfb0cf53c4e3f34
                           .group:00000000 wm4._types.h.184.03611d4f6b5bec9997bcf4279eceba07
                           .group:00000000 wm4.reent.h.17.90c2574d4acdcfce933db5cb09ff35fe
                           .group:00000000 wm4.cdefs.h.47.0bcdf94cb40e176393dd1404056825b4
                           .group:00000000 wm4.string.h.15.dab3980bf35408a4c507182805e2de3a
                           .group:00000000 wm4.stddef.h.161.19e15733342b50ead2919490b095303e
                           .group:00000000 wm4.stdbool.h.29.07dce69c3b78884144b7f7bd19483461
                           .group:00000000 wm4.hw_types.h.67.b10589a0806dcc2d274d6fab6b736519
                           .group:00000000 wm4.interrupt.h.41.272fc4ec0e276feb439e7974d0f77eaf
                           .group:00000000 wm4.board_info.h.22.34c159473b0affd9f1a6f5aa8cf576c9
                           .group:00000000 wm4.opendefs.h.23.3a22b672f37c862344b7aef3ebe35451
                           .group:00000000 wm4.opentimers.h.8.eb1cab84a6e82ba9569a1990291c92ba
                           .group:00000000 wm4.schedule.h.2.655275e038307b96d02df4174b9f26be
                           .group:00000000 wm4.IEEE802154E.h.31.0ae4fc33f8fea842f27863b9e73e066e
                           .group:00000000 wm4.IEEE802154.h.2.38fb510ed33a23a9a0660164e6dfab69
                           .group:00000000 wm4.IEEE802154_security.h.12.01376db633007f86cc7c78f3ee4cf764
                           .group:00000000 wm4.idmanager.h.2.8c0e2159b32ef3125cbb1e984805cbfe
                           .group:00000000 wm4.stdio.h.27.3fc80220048df77954e38daec3bb9670
                           .group:00000000 wm4.stdarg.h.34.3a23a216c0c293b3d2ea2e89281481e6
                           .group:00000000 wm4.types.h.40.e8c16e7ec36ba55f133d0616070e25fc
                           .group:00000000 wm4._endian.h.31.65a10590763c3dde1ac4a7f66d7d4891
                           .group:00000000 wm4.endian.h.9.49f3a4695c1b61e8a0808de3c4a106cb
                           .group:00000000 wm4._timeval.h.30.0e8bfd94e85db17dda3286ee81496fe6
                           .group:00000000 wm4.timespec.h.41.d855182eb0e690443ab8651bcedca6e1
                           .group:00000000 wm4.select.h.19.97ca6fd0c752a0f3b6719fd314d361e6
                           .group:00000000 wm4.types.h.69.ed3eae3cf73030a737515151ebcab7a1
                           .group:00000000 wm4.sched.h.22.c60982713a5c428609783c78f9c78d95
                           .group:00000000 wm4._pthreadtypes.h.36.fcee9961c35163dde6267ef772ad1972
                           .group:00000000 wm4.stdio.h.2.4aa87247282eca6c8f36f9de33d8df1a
                           .group:00000000 wm4.stdio.h.81.932d0c162786b883f622b8d05c120c78
                           .group:00000000 wm4.stdarg.h.31.3fa7b8f6daaa31edd1696c08c77f2a73
                           .group:00000000 wm4.openserial.h.32.ea1006cc0a4d06130c082222e630581b
                           .group:00000000 wm4.scheduler.h.2.eb68556b8ec5a9773a999c64d41ac76c
                           .group:00000000 wm4.icmpv6rpl.h.2.f31802bcce2a0808bf5db39ce34f4322
                           .group:00000000 wm4.neighbors.h.15.7d3ab5965b5b1193d3498491ae404451
                           .group:00000000 wm4.sixtop.h.2.ee4bd0b70b528bdc38891cf2a16bad67
                           .group:00000000 wm4.msf.h.2.f85db7704dc29e6182d0ed30c629097b

UNDEFINED SYMBOLS
memset
idmanager_getIsDAGroot
radio_rfOn
radio_setStartFrameCb
radio_setEndFrameCb
opentimers_create
sctimer_readCounter
opentimers_scheduleAbsolute
IEEE802154_security_init
IntMasterDisable
IntMasterEnable
opentimers_getCurrentCompareValue
schedule_getNextActiveSlotOffset
openserial_printCritical
openserial_inhibitStart
openserial_printError
openserial_printStatus
radio_rfOff
radio_setFrequency
radio_rxEnable
radio_rxNow
openserial_inhibitStop
openqueue_getFreePacketBuffer
radio_getReceivedFrame
packetfunctions_tossFooter
ieee802154_retrieveHeader
IEEE802154_security_acceptableLevel
packetfunctions_tossHeader
idmanager_getMyID
packetfunctions_sameAddress
openserial_printInfo
openqueue_freePacketBuffer
schedule_syncSlotOffset
schedule_getChannelOffset
debugpins_slot_toggle
debugpins_frame_toggle
schedule_advanceSlot
idmanager_getIsSlotSkip
schedule_getFrameLength
schedule_getType
schedule_getNeighbor
schedule_getOkToSend
packetfunctions_isBroadcastMulticast
schedule_getShared
openqueue_macGet6PandJoinPacket
openqueue_macGetNonJoinIPv6Packet
openqueue_macGetKaPacket
msf_updateCellsUsed
msf_updateCellsPassed
openqueue_macGetDIOPacket
openqueue_macGetEBPacket
msf_getHashCollisionFlag
schedule_getAutonomousTxRxCellUnicastNeighbor
openqueue_macGet6PRequestOnAnycast
openqueue_macGet6PResponseAndDownStreamPacket
icmpv6rpl_getMyDAGrank
memcpy
packetfunctions_duplicatePacket
IEEE802154_security_outgoingFrameSecurity
packetfunctions_reserveFooterSize
radio_loadPacket
radio_txEnable
radio_txNow
schedule_indicateTx
IEEE802154_security_incomingFrame
icmpv6rpl_isPreferredParent
IEEE802154_security_isConfigured
icmpv6rpl_getPreferredParentEui64
schedule_hasManagedTxCellToNeighbor
ieee802154_prependHeader
idmanager_isMyAddress
packetfunctions_reserveHeaderSize
schedule_setFrameNumber
schedule_setFrameHandle
schedule_setFrameLength
schedule_addActiveSlot
opentimers_getValue
leds_sync_on
leds_sync_off
schedule_resetBackoff
scheduler_push_task
task_sixtopNotifSendDone
schedule_indicateRx
task_sixtopNotifReceive
debugpins_fsm_set
debugpins_fsm_clr
debugpins_fsm_toggle
